xc:_glClearStencil
H0d:_Array_InternalArray__ICollection_Add_TisMark_t2724874473_m1613484179_gshared
egj:__ZL80Graphic_t2426225576_CustomAttributesCacheGenerator_Graphic_OnFillVBO_m1723985607P21CustomAttributesCache
_ti:__ZN6il2cpp2vm5Array13GetByteLengthEP11Il2CppArray
Swg:_Raycast3DCallback_BeginInvoke_m3028685017
S5f:__Z79RuntimeInvoker_RuntimeObject_Int64_t909078037_Int64_t909078037_Int64_t909078037PFvvEPK10MethodInfoPvPS4_
XQg:_EqualityComparer_1__cctor_m968537130_gshared
KVc:__ZN15DownloadHandler7OnAbortEv
uUh:_TextGenerator_Invalidate_m1993568841
W5e:_Comparison_1_Invoke_m353639462_gshared
oIa:__Z30GetIntermediateRendererManagerv
zld:_GraphicRegistry_RegisterGraphicForCanvas_m2284226562
Sia:__Z21SourceMipLevelForBlitiiii
ZMa:__ZN31CanvasBatchIntermediateRenderer15AddAsRenderNodeER15RenderNodeQueueRK20DeprecatedSourceData
O0i:__ZL87Component_t3819376471_CustomAttributesCacheGenerator_Component_GetComponent_m1409092944P21CustomAttributesCache
aXf:_GenericTypeParameterBuilder_GetEvent_m4210567427
UFd:_Enumerator_get_Key_m2908810861
vRc:__ZN11UnityEngine7Connect14AppUpdateEventD0Ev
EDh:_GUI_DoSetSkin_m2532620610
msg:__Z35RuntimeInvoker_UIVertex_t1204258818PFvvEPK10MethodInfoPvPS4_
lW:__ZdlPv
uej:__ZL77StandaloneInputModule_t70867863_CustomAttributesCacheGenerator_m_VerticalAxisP21CustomAttributesCache
Qr:__ZN11UnityEngine9Animation28GenericAnimationBindingCacheD2Ev
oRi:__ZL68RemotingSurrogateSelector_t2821375126_CustomAttributesCacheGeneratorP21CustomAttributesCache
MFe:_List_1_System_Collections_IList_IndexOf_m39706221_gshared
dLg:_Dictionary_2_Remove_m1849931834_gshared
GMi:__ZL52Directory_t3318511961_CustomAttributesCacheGeneratorP21CustomAttributesCache
KId:_Decimal_op_Implicit_m2971610317
REh:_GUILayoutGroup_ResetCursor_m3614985691
Xid:_Graphic_UnregisterDirtyVerticesCallback_m1526739224
nWb:__Z18RestoreRenderStateR20CameraRenderOldStateR17ShaderPassContext
CBd:_SynchronizedArrayListWrapper_get_Item_m3309425850
Vwb:__Z18Transfer_BlittableI18StreamedBinaryReadILb1EELb1E5RectTIfEEvRK29SerializationCommandArgumentsR31RuntimeSerializationCommandInfo
cmh:_UnityEventBase_RebuildPersistentCallsIfNeeded_m2776978024
$vh:_Rect_set_height_m1455613541_AdjustorThunk
Nsb:__Z18Transfer_BlittableI24GenerateTypeTreeTransferLb0E11ColorRGBA32EvRK29SerializationCommandArgumentsR31RuntimeSerializationCommandInfo
R0:__Z25scripting_class_from_name17ScriptingImagePtrPKcS1_
Zgi:__ZN14dense_hash_mapI10KeyWrapperINSt3__24pairIPK12PropertyInfoP11Il2CppClassEEEj17ReflectionMapHashIS8_ENS9_14EqualsComparerINS1_8equal_toIS8_EEEENS1_9allocatorINS2_IKS9_jEEEEE15set_deleted_keyERSH_
ZCb:__Z29scripting_class_enum_basetype17ScriptingClassPtr
z7g:__ZN21InterfaceFuncInvoker3IP12Il2CppObjectP8String_tS1_PS3_E6InvokeEjP11Il2CppClassS1_S3_S1_S4_
omd:_GraphicRaycaster_get_ignoreReversedGraphics_m2757724367
qhg:__Z111RuntimeInvoker_Void_t1841601450_Vector4_t2243707581_Vector4_t2243707581_Vector4_t2243707581_Vector4_t2243707581PFvvEPK10MethodInfoPvPS4_
DFa:__ZNK12BaseRenderer18GetRenderNodeCountEv
NXf:_GenericTypeParameterBuilder_GetHashCode_m867619899
iMf:_TimeSpan_ToString_m2947282901
tQg:_EqualityComparer_1__cctor_m3397254040_gshared
okb:__ZNK20LocalFileSystemPosix6ParentERK13FileEntryDataRN4core12basic_stringIcNS3_20StringStorageDefaultIcEEEE
Iza:__ZN15dense_hashtableINSt3__24pairIKN4core12basic_stringIcNS2_20StringStorageDefaultIcEEEEP20ArchiveStorageReaderEES6_20StringHash32FunctionIS6_EN14dense_hash_mapIS6_S9_SC_NS0_8equal_toIS6_EE13stl_allocatorISA_L18MemLabelIdentifier55ELi16EEE9SelectKeyESF_SI_E4swapERSL_
aAe:_MonoType_CheckMethodSecurity_m4116906190
S5d:_Array_Sort_TisVector2_t2243707579_m1307634946_gshared
vga:__ZN7ApiGLES17CopyBufferSubDataEjjlll
_Pf:_UInt64_System_IConvertible_ToDecimal_m4205696037
Enc:__ZN5Unity9rapidjson15GenericDocumentINS0_4UTF8IcEE13JSONAllocatorS4_E11ParseStreamILj1ES3_NS0_25GenericInsituStringStreamIS3_EEEERS5_RT1_
BZh:__ZNSt3__26vectorIPK10Il2CppTypeNS_9allocatorIS3_EEE7reserveEj
fSh:_U3CCreateWhereIteratorU3Ec__Iterator1D_1_Reset_m1773515612_gshared
nOb:__ZN25CameraStackRenderingState20GetOrCreateBuiltinRTE24BuiltinRenderTextureTypeii17DepthBufferFormat19RenderTextureFormatj22RenderTextureReadWrite14VRTextureUsagei
Spd:_InputField_get_caretPosition_m1005871812
yNa:__Z32TransferEnumWithNameForceIntSizeI14SafeBinaryRead16LightmappingMaskEvRT_RT0_PKc17TransferMetaFlags
KJg:_Dictionary_2__ctor_m3111963761_gshared
WKh:_AesManaged_CreateEncryptor_m1729287824
d1a:__ZNK14Texture2DArray26CanReuploadDataToGfxDeviceEv
ISb:__ZN17PrePassRenderLoop14RenderBasePassEP13RenderTextureRK14LightingLayersR13dynamic_arrayI16RenderObjectDataLj4EERbR10MinMaxAABB
yDa:__ZN17GlobalGameManager23VirtualRedirectTransferER17RemapPPtrTransfer
kCc:_sfnt_stream_close
Hyd:_Char_System_IConvertible_ToInt16_m2741348777_AdjustorThunk
slc:__ZN5IMGUI18RepaintModalWindowER8GUIState
$Ph:__ZL25UnresolvedVirtualCall_129P12Il2CppObject17Color_t2020392075PK10MethodInfo
Wkd:_FontData_get_verticalOverflow_m83665814
q$e:_ReadOnlyCollection_1_System_Collections_Generic_IListU3CTU3E_set_Item_m1547026160_gshared
eHa:__ZNK15dense_hashtableINSt3__24pairIKN9ShaderLab7Program23ShaderKeywordSetAndHashEPKNS2_10SubProgramEEES4_NS3_24ShaderKeywordHashFunctorEN14dense_hash_mapIS4_S8_SA_NS0_8equal_toIS4_EE13stl_allocatorIS9_L18MemLabelIdentifier67ELi16EEE9SelectKeyESD_SG_E23find_position_with_hashERS5_j
oKi:__ZL61MarshalAsAttribute_t2900773360_CustomAttributesCacheGeneratorP21CustomAttributesCache
M$a:__Z23SetSpriteMeshIndexCountP14SharedMeshDataj
rQa:__ZN7Texture13SetFilterModeEi
E0i:__ZL87Camera_t189460977_CustomAttributesCacheGenerator_Camera_get_allCamerasCount_m1873043770P21CustomAttributesCache
Vcc:__Z46Register_UnityEngine_Application_get_isPlayingv
Zvi:__ZN6il2cpp8metadata13GenericMethod9GetMethodEPK19Il2CppGenericMethod
jq:__ZNSt3__26vectorIN4core12basic_stringIcNS1_20StringStorageDefaultIcEEEENS_9allocatorIS5_EEE7reserveEj
cLd:_Convert_ToUInt16_m2130758075
fdi:__ZN15dense_hashtableINSt3__24pairIK10KeyWrapperINS1_IPK11Il2CppImageP11Il2CppClassEEEjEES9_17ReflectionMapHashIS8_EN14dense_hash_mapIS9_jSD_NS9_14EqualsComparerINS0_8equal_toIS8_EEEENS0_9allocatorISB_EEE9SelectKeyESI_SK_E3endEv
lpf:_X509BasicConstraintsExtension_Encode_m3505127076
Eaa:__ZN13GfxDeviceGLES11SetViewportERK5RectTIiE
Vnd:_Image_get_pixelsPerUnit_m4104195799
oDg:_Toggle_InternalToggle_m2323729210
oPd:_Decimal_System_IConvertible_ToInt64_m2504363272
Fic:__Z24Time_Get_Custom_PropTimev
Ptd:_Array_GetValue_m3182152438
Pd:_emscripten_glDepthRange
CEf:_DESTransform_CipherFunct_m3559419566
w_c:_Rijndael_Create_m113171669
lCf:_RuntimeFieldHandle_get_Value_m3963757144
wYb:__ZNSt3__26vectorINS_4pairIN4core12basic_stringIcNS2_20StringStorageDefaultIcEEEES6_EE13stl_allocatorIS7_L18MemLabelIdentifier38ELi16EEE12__move_rangeEPS7_SC_SC_
ndb:__Z14resize_trimmedINSt3__26vectorIN9ShaderLab20SerializedSubProgram12UAVParameterENS0_9allocatorIS4_EEEEEvRT_j
Ync:__ZN5Unity9rapidjson13GenericReaderINS0_4UTF8IcEES3_13JSONAllocatorE11ParseObjectILj1ENS0_25GenericInsituStringStreamIS3_EENS0_15GenericDocumentIS3_S4_S4_EEEEvRT0_RT1_
Szf:_SerializationInfo_AddValue_m1781549036
Opg:__Z59RuntimeInvoker_Void_t1841601450_PlayableBinding_t2498078091PFvvEPK10MethodInfoPvPS4_
mdf:_TlsServerKeyExchange_verifySignature_m3641534563
W9b:__ZN13BuildSettings34ConvertScenePathToDisplayScenePathERKN4core12basic_stringIcNS0_20StringStorageDefaultIcEEEE
sXe:_Collection_1_Clear_m445145071_gshared
X2:__ZNSt3__218__insertion_sort_3IRNS_6__lessI14ObjectLoadDataS2_EEPS2_EEvT0_S6_T_
pGh:_InvokableCall_1_Find_m2337296995_gshared
CBg:_Slider_FindSelectableOnLeft_m3136767885
qia:__ZN4crndL20crnd_default_reallocEPvjPjbS0_
Gld:__ZN21InterfaceFuncInvoker1IP19Material_t193706927S1_E6InvokeEjP11Il2CppClassP12Il2CppObjectS1_
DZd:_Array_BinarySearch_TisInt32_t2071877448_m51233948_gshared
Kqj:__ZNSt3__212basic_stringIcNS_11char_traitsIcEENS_9allocatorIcEEEC2ERKS5_
nyf:_ProviderData_CopyFrom_m431414335
Lig:__Z74RuntimeInvoker_Boolean_t3825574718_Vector2_t2243707579_Vector2_t2243707579PFvvEPK10MethodInfoPvPS4_
C0a:__ZN18SpriteAtlasManager19AddRequestingSpriteE4PPtrI6SpriteE
YHf:_UTF32Encoding_GetPreamble_m767706727
qic:__Z33Texture_CUSTOM_Internal_GetHeightP12Il2CppObject
ksd:_LayoutGroup_get_preferredHeight_m3901163825
gag:__Z111RuntimeInvoker_Void_t1841601450_RuntimeObject_SByte_t454417549_ObjectU26_t597476745_HeaderU5BU5DU26_t2818328198PFvvEPK10MethodInfoPvPS4_
rVb:__ZN23ScriptableRenderContextC2Ev
u9i:__ZL118AudioSource_t1135106623_CustomAttributesCacheGenerator_AudioSource_INTERNAL_CALL_ReadExtensionPropertyName_m3694806886P21CustomAttributesCache
EIa:__ZN4PPtrI13RenderTextureE8TransferI18StreamedBinaryReadILb0EEEEvRT_
nId:_DateTime_AbsoluteDays_m3061694073
XIc:_UNITY_FT_Stream_GetChar
uxb:__Z18Transfer_BlittableI18StreamedBinaryReadILb1EELb1EdEvRK29SerializationCommandArgumentsR31RuntimeSerializationCommandInfo
fFg:_Enumerator_System_Collections_IEnumerator_get_Current_m229223308_gshared
K$i:__ZL202U3CCreateWhereIteratorU3Ec__Iterator1D_1_t2523986802_CustomAttributesCacheGenerator_U3CCreateWhereIteratorU3Ec__Iterator1D_1_System_Collections_Generic_IEnumerableU3CTSourceU3E_GetEnumerator_m2392330777P21CustomAttributesCache
gDb:__Z26BuildSerializationCacheFor17ScriptingClassPtrRb
woa:__ZN7ApiGLES15BlitFramebufferEN2gl6HandleILNS0_10ObjectTypeE9EEENS0_15FramebufferReadES3_S3_iiiiiiiiNS0_15FramebufferTypeE
V6h:_il2cpp_class_get_name
Voh:_Mesh_CheckCanAccessSubmeshTriangles_m2644388378
Weg:__Z112RuntimeInvoker_RuntimeObject_RuntimeObject_RuntimeObject_RuntimeObject_RuntimeObject_RuntimeObject_RuntimeObjectPFvvEPK10MethodInfoPvPS4_
EPi:__ZL55GCHandleType_t1970708122_CustomAttributesCacheGeneratorP21CustomAttributesCache
I5b:__ZN13ProduceHelperI10GUIElementLb1EE7ProduceE18MemLabelIdentifier18ObjectCreationMode
AQh:__ZL25UnresolvedVirtualCall_156P12Il2CppObject18Color32_t874517518PK10MethodInfo
eBh:_UnitySynchronizationContext__ctor_m1804960286
hVh:_WillRenderCanvases_BeginInvoke_m4217413147
lBd:_FixedSizeArrayListWrapper_AddRange_m2071800418
OD:__ZN13ProduceHelperI8AnimatorLb0EE7ProduceE18MemLabelIdentifier18ObjectCreationMode
zEb:__Z9InitInputv
ybg:__Z85RuntimeInvoker_Boolean_t3825574718_Int64_t909078037_Int64_t909078037_SByte_t454417549PFvvEPK10MethodInfoPvPS4_
Dbi:__ZN15dense_hashtableINSt3__24pairIK10KeyWrapperINS1_IPK9FieldInfoP11Il2CppClassEEEjEES9_17ReflectionMapHashIS8_EN14dense_hash_mapIS9_jSD_NS9_14EqualsComparerINS0_8equal_toIS8_EEEENS0_9allocatorISB_EEE9SelectKeyESI_SK_ED2Ev
zEe:_Enumerator_VerifyState_m2358705882_AdjustorThunk
eCc:_UNITY_tt_face_build_cmaps
Sxg:_Selectable_Navigate_m915280351
tlb:__ZN16MemoryFileSystem6DeleteER13FileEntryDatab
ija:__ZL21BlitScaleStbImageImplRK14ImageReferenceRS_NS_10ColorSpaceE
nxh:_RectTransform_INTERNAL_set_pivot_m4248720081
Tjf:_TlsStream_set_Position_m378064217
ofb:__ZN18StreamedBinaryReadILb0EE21TransferSTLStyleArrayI13dynamic_arrayIjLj4EEEEvRT_17TransferMetaFlags
Fob:__Z29Transfer_Blittable_ArrayFieldI14SafeBinaryReadyEvRT_R9ArrayInfoRK23StaticTransferFieldInfo
KL:__ZN20SoundChannelInstance15setChannelGroupEPN4FMOD12ChannelGroupE
Rbi:__ZNK15dense_hashtableINSt3__24pairIK10KeyWrapperINS1_IPK9FieldInfoP11Il2CppClassEEEjEES9_17ReflectionMapHashIS8_EN14dense_hash_mapIS9_jSD_NS9_14EqualsComparerINS0_8equal_toIS8_EEEENS0_9allocatorISB_EEE9SelectKeyESI_SK_E12test_deletedERK24dense_hashtable_iteratorISB_S9_SD_SM_SI_SK_E
C3c:_Evidence_Equals_m2325859915
auh:_PlayableHandle_INTERNAL_CALL_GetPlayableTypeOf_m1683061051
YSf:_Default__ctor_m172834064
lc:invoke_vifffii
fAb:__Z35Transfer_Blittable_FixedBufferFieldI18StreamedBinaryReadILb0EEaEvRK29SerializationCommandArgumentsR31RuntimeSerializationCommandInfo
Cli:__ZN6il2cpp2vm9Exception27RaiseNullReferenceExceptionEv
Bdh:_Regex_IsMatch_m2159202025
mBa:__ZNK25MultiBlocksMemoryFileData5CloneEv
BBi:_GC_add_ext_descriptor
DCi:__ZN6il2cpp2os14WindowsRuntime22GetRestrictedErrorInfoEv
lod:_Image_CalculateLayoutInputHorizontal_m3275149860
yvf:_RemotingServices_GetMethodBaseFromName_m3271095947
qAa:__ZN17ArchiveFileSystem11CreateAsDirER13FileEntryData
Lsj:dynCall_iiiiiiiiiiii
E8c:_ASCIIEncoding_GetBytes_m3617160053
L$g:_InternalEnumerator_1_MoveNext_m2289229080_AdjustorThunk
qcf:_CipherSuiteCollection_System_Collections_IList_RemoveAt_m143866082
yua:__ZN22VertexDeclarationCacheD0Ev
Xhb:__ZL26KeywordSetToStringDontSortRKNSt3__26vectorIN4core12basic_stringIcNS1_20StringStorageDefaultIcEEEENS_9allocatorIS5_EEEERS5_
ala:__ZN6prcoreL17RemapGenericFloatI16TexFormatRGFloat17TexFormatRGBAHalfEEvPKNS_9InnerInfoE
fG:__ZN12AudioManager22CreateFMODSoundFromWWWEP10IWWWStream15FMOD_SOUND_TYPE17FMOD_SOUND_FORMATjjbbP10SampleClip
U3b:__ZNK32RendererMaterialAnimationBinding15GenerateBindingERKN4core12basic_stringIcNS0_20StringStorageDefaultIcEEEEbRN11UnityEngine9Animation14GenericBindingE
Fdi:__ZN24dense_hashtable_iteratorINSt3__24pairIK10KeyWrapperINS1_IPK11Il2CppImageP11Il2CppClassEEEjEES9_17ReflectionMapHashIS8_EN14dense_hash_mapIS9_jSD_NS9_14EqualsComparerINS0_8equal_toIS8_EEEENS0_9allocatorISB_EEE9SelectKeyESI_SK_E30advance_past_empty_and_deletedEv
Heg:__Z40RuntimeInvoker_HandshakeType_t2540099417PFvvEPK10MethodInfoPvPS4_
e0:__ZN8Remapper23GetOrGenerateInstanceIDERK26SerializedObjectIdentifier
Nwe:_StreamWriter_Flush_m3426120024
xAa:__ZN17FileSystemHandler10AtomicMoveER13FileEntryDataS1_
Ya:invoke_iiiiiifffiiifii
rue:_MemoryStream__ctor_m1489366847
W3c:_SecurityElement_IsValidTag_m64902195
iFg:_Enumerator_System_Collections_IEnumerator_get_Current_m229223308_AdjustorThunk
b2f:_PropertyInfo_SetValue_m2961483868
uKe:_List_1_System_Collections_IList_Contains_m4193366963_gshared
k4h:__ZNSt3__214__split_bufferI6pollfdRNS_9allocatorIS1_EEED2Ev
rwf:_DictionaryEnumerator_get_Value_m1915638953
uTf:_ConstructorInfo_Invoke_m2144827141
Z$a:__ZN6Sprite8TransferI24GenerateTypeTreeTransferEEvRT_
yjc:__Z48Register_UnityEngine_Transform_SetAsFirstSiblingv
a0a:__ZN7SubMesh8TransferI24GenerateTypeTreeTransferEEvRT_
f1f:_MonoProperty_get_CanWrite_m2124922514
Q4h:__ZN6il2cpp6icalls8mscorlib6SystemL16CheckMemberMatchI9FieldInfoNS_5utils10functional6FilterINSt3__212basic_stringIcNS8_11char_traitsIcEENS8_9allocatorIcEEEENS5_13VmStringUtils23CaseInsensitiveComparerEEEEEbPKT_PK11Il2CppClassSN_iRKT0_
wbf:_CipherSuite_get_HashAlgorithmType_m3902365773
xcj:__ZL96RemoteSettings_t392466225_CustomAttributesCacheGenerator_RemoteSettings_CallOnUpdate_m1092852243P21CustomAttributesCache
Mpj:_poll
due:_Stream_BeginRead_m1985960185
b2b:__ZN13ProduceHelperI14Texture2DArrayLb0EE7ProduceE18MemLabelIdentifier18ObjectCreationMode
tHh:_UnityAction_1_EndInvoke_m350315359_gshared
G9e:_MD4Managed_GG_m1462438360
Vgc:__Z53PlayableHandle_CUSTOM_INTERNAL_CALL_GetPlayableTypeOfR9HPlayable
Mac:__ZN9Transform23SetSiblingIndexInternalEib
BSi:__ZL91X509Certificate_t283079845_CustomAttributesCacheGenerator_X509Certificate_Reset_m1676863543P21CustomAttributesCache
Lzg:_ScrollRect_get_minWidth_m3151814267
Vre:_BinaryReader_CheckBuffer_m1059275266
Taa:__ZN13GfxDeviceGLES17DestroySubProgramEPN9ShaderLab10SubProgramE
Ot:__ZN7mecanim5human12HumanPoseSubERNS0_9HumanPoseERKS1_S4_
aCh:_Vector3_Max_m2076081170
s9e:_MD4_Create_m2582504069
qNh:_HashSet_1_System_Collections_IEnumerable_GetEnumerator_m2498631708_gshared
$pi:__ZN6il2cpp8metadata15GenericMetadata15GetGenericClassEiPK17Il2CppGenericInst
swd:_Boolean_System_IConvertible_ToInt16_m977801621
enb:__Z18Transfer_BlittableI14SafeBinaryReadLb0E10Matrix4x4fEvRK29SerializationCommandArgumentsR31RuntimeSerializationCommandInfo
yCb:__Z24GetFixedBehaviourManagerv
yng:__Z69RuntimeInvoker_Void_t1841601450_Int32_t2071877448_Vector4_t2243707581PFvvEPK10MethodInfoPvPS4_
ALb:__ZN12FlareManager9UpdateJobEP25FlareManagerUpdateJobData
t4h:__ZN6il2cpp2vm10ThreadPool4WaitEP17Il2CppAsyncResultPPv
iqh:_Plane__ctor_m730644932_AdjustorThunk
Xnj:_vfprintf
Rlc:__ZN10GUIManager12AddGUIScriptER8ListNodeI13MonoBehaviourE
Nzf:_SerializationException__ctor_m1019897788
qMa:__ZN19ShaderPropertySheet20ReservePropertyCountEj
iMb:__ZN20DynamicPropertySheetD0Ev
BYb:__ZN14SafeBinaryRead17RegisterConverterEPKcS1_PFbPvRS_E
MX:__ZN35RegisterRuntimeInitializeAndCleanup8RegisterEPFvPvES2_iS0_
y4i:__ZL101SceneManager_t90660965_CustomAttributesCacheGenerator_SceneManager_Internal_SceneUnloaded_m2177251378P21CustomAttributesCache
jvd:_AsyncCallback__ctor_m3071689932
v4e:_ReadOnlyCollection_1_System_Collections_IList_Clear_m2600246370_gshared
mIh:_UnityEvent_1_GetDelegate_m915269642_gshared
Xog:__Z62RuntimeInvoker_Int32_t2071877448_ParameterModifier_t1820634920PFvvEPK10MethodInfoPvPS4_
pee:_DSAManaged_NormalizeArray_m2287089393
Cjc:__Z21Object_CUSTOM_DestroyP12Il2CppObjectf
E0g:_InternalEnumerator_1_System_Collections_IEnumerator_get_Current_m2389982234_AdjustorThunk
Bhb:__ZN8Material26ResetAllCachedMaterialDataEP6Shader
hAg:_Selectable_get_interactable_m1725029500
mJi:__ZL66RuntimeArray_CustomAttributesCacheGenerator_Array_Sort_m3002148658P21CustomAttributesCache
fJc:_UNITY_TT_Get_MM_Var
AWh:__ZN6il2cpp6icalls8mscorlib6System7Decimal13decimal2Int64EP19il2cpp_decimal_reprPx
aa:invoke_diddi
$bd:_ExecuteEvents__cctor_m288775360
kLc:__ZNK2UI6Canvas13GetRenderModeEv
yJd:_Double_TryParseStringConstant_m2585405703
qmb:__Z18Transfer_BlittableI14SafeBinaryReadLb0EiEvRK29SerializationCommandArgumentsR31RuntimeSerializationCommandInfo
f3h:__ZN6il2cpp2vm13MetadataCache30GetPropertyDefinitionFromIndexEi
O4g:_ResourceEnumerator__ctor_m1679839941
H_c:_RijndaelTransform_Clear_m1652144089
Jse:_MonoIO_GetException_m2577367044
RTc:__ZN22BaseUnityConnectClient17InitializeSessionERKN4core12basic_stringIcNS0_20StringStorageDefaultIcEEEES6_N19CloudServiceHandler13InitModeFlagsE
JHg:_Enumerator_MoveNext_m1404007384_gshared
uBe:_NumberFormatter_get_IsZero_m1325357749
Soh:_Mesh_PrintErrorCantAccessIndices_m2990602703
Fyj:_emscripten_glDeleteBuffers__wrapper
Gjg:__Z121RuntimeInvoker_Void_t1841601450_Single_t2076509932_Single_t2076509932_Single_t2076509932_Single_t2076509932_RuntimeObjectPFvvEPK10MethodInfoPvPS4_
OSd:_Enum_ToObject_m322320225
i4g:_Enumerator_get_Current_m2754383612_gshared
rcc:__ZN13MonoBehaviour34StopCoroutineFromEnumeratorManagedE18ScriptingObjectPtr
i2c:_X509Certificate__ctor_m3860837120
OAc:_gray_raster_reset
emg:__Z109RuntimeInvoker_RuntimeObject_Ray_t2469606224_Single_t2076509932_Int32_t2071877448_RuntimeObject_RuntimeObjectPFvvEPK10MethodInfoPvPS4_
q4e:_ReadOnlyCollection_1_System_Collections_Generic_IListU3CTU3E_set_Item_m3663361643_gshared
$D:__ZN7mecanim9animation14AvatarConstant15InitializeClassEv
ibd:_EventTrigger_OnScroll_m626934407
L8a:__ZN30RuntimeInitializeOnLoadManager8TransferI18StreamedBinaryReadILb0EEEEvRT_
TMg:_Dictionary_2__ctor_m1206668798_gshared
XVf:_TypeBuilder_not_supported_m3178173643
xBc:_UNITY_tt_face_load_pclt
Mbc:__ZL34GetComponentsImplementationRecurseILb1ELi0ELi2EEbR10GameObjectbRK17CompareParametersRK39GetComponentsImplementation_ReturnValue
eEi:__ZN6il2cpp6icalls8mscorlib6System9Threading5Mutex20CreateMutex_internalEbP12Il2CppStringPb
UAd:_ArrayListWrapper_Remove_m1105489978
ELb:__ZNK6Camera18WorldToScreenPointERK8Vector3fPb
hFh:_GUISkin__ctor_m2824039590
Rwd:_Boolean_CompareTo_m3691698947_AdjustorThunk
Nqg:__Z84RuntimeInvoker_Void_t1841601450_RaycastResultU5BU5DU26_t2399554255_Int32_t2071877448PFvvEPK10MethodInfoPvPS4_
KEd:_HashKeys_CopyTo_m3566668422
Sna:__Z18IsCompressedFormat14GraphicsFormat
ZXg:_InternalEnumerator_1_Dispose_m549215360_AdjustorThunk
u2i:__ZL92Input_t1785128008_CustomAttributesCacheGenerator_Input_INTERNAL_get_mousePosition_m655888428P21CustomAttributesCache
Pyd:_Convert_ToSByte_m2665932200
q$:__ZNSt3__227__insertion_sort_incompleteIRPFbRKN18AwakeFromLoadQueue4ItemES4_EPS2_EEbT0_S9_T_
SUf:_ILGenerator_label_fixup_m1325994348
pJg:_ValueCollection_System_Collections_ICollection_get_IsSynchronized_m45572582_gshared
j1h:__ZN14dense_hash_mapI10KeyWrapperIN6il2cpp5utils13dynamic_arrayIPK10Il2CppTypeLj4EEEEPFvvENS1_8metadata19Il2CppSignatureHashENS8_14EqualsComparerINSB_22Il2CppSignatureCompareEEENSt3__29allocatorINSG_4pairIKS8_SA_EEEEE15set_deleted_keyERSJ_
Ovg:_Navigation_Equals_m4214630671_AdjustorThunk
C1e:_ReadOnlyCollection_1_System_Collections_Generic_IListU3CTU3E_set_Item_m257196015_gshared
B_f:_FieldInfo_GetPseudoCustomAttributes_m2500972355
dYa:__ZN26EnlightenSystemInformation8TransferI14SafeBinaryReadEEvRT_
W7d:_Array_InternalArray__get_Item_TisLink_t2723257478_m2281261655_gshared
gVc:__ZN11UnityEngine15PlatformWrapper20SetPlayerPrefsUInt64ERKN4core12basic_stringIcNS1_20StringStorageDefaultIcEEEEy
W3a:__ZN12MeshRendererD0Ev
dP:__ZN12AudioManager35GetCurrentSpatializerDefinitionNameEv
$eh:_ExpressionAssertion_IsComplex_m783019628
MDd:_Hashtable__ctor_m2702360557
yh:_utime
yNd:_DateTimeFormatInfo_get_RawAbbreviatedDayNames_m3998113647
zCh:_Vector4_get_sqrMagnitude_m641641704_AdjustorThunk
oB:__Z28SetExposedSkeletonTransformsRKN7mecanim9animation14AvatarConstantERKN11UnityEngine9Animation30AnimatorGenericBindingConstantERKNS_8skeleton13SkeletonPoseTIN4math4trsXEEERKNSA_INSB_7affineXEEERNS5_21AvatarBindingConstantEy
qPg:_DefaultComparer_GetHashCode_m2596628120_gshared
RUi:__ZL94UTF32Encoding_t549530865_CustomAttributesCacheGenerator_UTF32Encoding_GetByteCount_m3183615393P21CustomAttributesCache
WXd:_PlayableHandle_IsPlayableOfType_TisAnimationLayerMixerPlayable_t3057952312_m2522157783_AdjustorThunk
e8e:_PrimalityTest_Invoke_m4058801829
on:FUNCTION_TABLE_viiiiif
Xyf:_RemotingConfiguration_SetCustomErrorsMode_m1844153208
tn:FUNCTION_TABLE_viiiiii
hVd:_CultureInfo_GetFormat_m3560116485
NC:__ZN7mecanim9animation22DestroyAvatarWorkspaceEPNS0_15AvatarWorkspaceERNS_6memory9AllocatorE
umd:__ZN21InterfaceFuncInvoker0IiE6InvokeEjP11Il2CppClassP12Il2CppObject
beh:_AnchorInfo_get_IsPosition_m3791659233
OSb:__ZN15LightmapSTCacheC2ER13BatchRendererR15RenderLoopStats
nlc:__ZNSt3__210__list_impIN10GUIManager12SortedScriptE11memory_poolIS2_EE5clearEv
SWi:__ZL76Convert_t2607082565_CustomAttributesCacheGenerator_Convert_ToInt64_m44696721P21CustomAttributesCache
LUa:__ZN14PlayableOutput17SetSourcePlayableEP8Playable
D8a:__ZNSt3__26vectorIN4core12basic_stringIcNS1_20StringStorageDefaultIcEEEE13stl_allocatorIS5_L18MemLabelIdentifier13ELi16EEE8__appendEj
mzf:_TrackingServices__cctor_m3639412334
dC:__ZN7mecanim9animation29MotionOutputGetDeltaTransformEPKNS0_12MotionOutputE
Z$b:__Z13RegisterClassI16GraphicsSettingsEvv
BJg:_ValueCollection_System_Collections_IEnumerable_GetEnumerator_m1773104428_gshared
wE:__ZN8Animator14OnAddComponentEPN5Unity9ComponentE
zQe:_List_1_CheckMatch_m1184924052_gshared
Vic:__Z43Transform_CUSTOM_INTERNAL_get_localRotationP12Il2CppObjectP11Quaternionf
P4b:__ZZL23RegisterLightPropertiesR22GenericPropertyBindingEN20Wrapper_LightColorr013SetFloatValueEPvf
bi:_emscripten_glGetTexParameteriv
gKe:_List_1_ToArray_m3752387798_gshared
uyg:_ScrollRect_get_elasticity_m3987376518
Baf:_RSAManaged_ImportParameters_m3060955884
die:_DeriveBytes__ctor_m3089550878
o7g:_ChannelData_CopyFrom_m4049054607
g0b:__Z13RegisterClassI4MeshEvv
kdj:__ZL94AxisEventData_t1524870173_CustomAttributesCacheGenerator_AxisEventData_get_moveDir_m3968662359P21CustomAttributesCache
iUa:__ZN8PlayableD0Ev
IH:__ZN12AudioManager8TransferI19StreamedBinaryWriteILb0EEEEvRT_
Kue:_WriteDelegate_Invoke_m2103848735
fLe:_List_1_get_Capacity_m4262042666_gshared
kth:_X509Crl_get_IssuerName_m756409840
lHg:_Transform_1_EndInvoke_m687617772_gshared
jKh:_Locale_GetText_m512920887
T3b:__ZNK32RendererMaterialAnimationBinding12GetPPtrValueERKN11UnityEngine9Animation10BoundCurveE
qzb:__Z18Transfer_BlittableI18StreamedBinaryReadILb0EELb0E8Vector2fEvRK29SerializationCommandArgumentsR31RuntimeSerializationCommandInfo
Fyf:_RemotingConfiguration_get_ProcessId_m3870172209
fOc:__ZN2UI11CanvasGroup12CleanupClassEv
Ile:_SortKey_ToString_m2406913228
Yjb:__ZN22LocalFileSystemHandler9MakeLocalER13FileEntryDatab
Gxi:__ZN6il2cpp2vm8Profiler10AllocationEP12Il2CppObjectP11Il2CppClass
FId:_Convert_ToDateTime_m1020507389
y3i:__ZL78Sprite_t309593783_CustomAttributesCacheGenerator_Sprite_get_packed_m2366369914P21CustomAttributesCache
l6:__ZNK9HPlayable7IsValidEv
Zyc:__ZNSt3__23mapIN20TextRenderingPrivate7FontRefENS1_6OSFontENS_4lessIS2_EENS_9allocatorINS_4pairIKS2_S3_EEEEEixERS8_
Unh:_Material_SetInt_m2847439171
E8:__Z13FormatOrderedPKcz
U8h:_RaycastHit_get_distance_m758224512
Hse:_Path_IsPathRooted_m1347207448
AAf:_ObjectManager_RegisterObjectInternal_m879109503
EVd:_Array_get_swapper_TisVector4_t2243707581_m97441823_gshared
mwc:__ZN14SafeBinaryRead21TransferSTLStyleArrayI10vector_mapINSt3__24pairIttEEfN20TextRenderingPrivate8FontImpl14KerningCompareENS2_9allocatorINS3_IS4_fEEEEEEEvRT_17TransferMetaFlags
C0b:__Z13RegisterClassI15QualitySettingsEvv
owi:__ZN6il2cpp2vm6String21InitializeEmptyStringEP11Il2CppClass
xSb:__ZN25DeferredRenderLoopScratchD0Ev
jw:__ZN27AnimationLayerMixerPlayable14SetInputWeightEif
Kt:__ZN7mecanim9animation17EvaluateHumanPoseERKNS0_18ClipMuscleConstantERKNS0_15ClipMuscleInputEPKfRKNS0_12MotionOutputERNS_5human9HumanPoseE
WUi:__ZL90UTF7Encoding_t741406939_CustomAttributesCacheGenerator_UTF7Encoding_GetHashCode_m359766848P21CustomAttributesCache
ymh:_GameObject_AddComponent_m540062519
Wcb:__ZN15dense_hashtableINSt3__24pairIKiN4core17string_with_labelILi1EEEEEi18SInt32HashFunctionN14dense_hash_mapIiS5_S7_NS0_8equal_toIiEE13stl_allocatorIS6_L18MemLabelIdentifier1ELi16EEE9SelectKeyESA_SD_E9copy_fromERKSG_j
tIa:__ZN6Camera11ResetAspectEv
LNf:_Type_get_IsGenericType_m3396841573
l7a:__ZN15ResourceManagerD0Ev
npf:_X509BasicConstraintsExtension_get_HasPathLengthConstraint_m3788532759
pMa:__ZNK17InstancedPropInfo22FillInstancePropertiesER19ShaderPropertySheetjPK17BatchInstanceDatajRK15RenderNodeQueue
qHa:__ZN22CreateGpuProgramOutputD2Ev
Iub:__Z18Transfer_BlittableI19StreamedBinaryWriteILb0EELb1EsEvRK29SerializationCommandArgumentsR31RuntimeSerializationCommandInfo
Q$c:_RSACryptoServiceProvider_EncryptValue_m802714447
pWi:__ZL76Convert_t2607082565_CustomAttributesCacheGenerator_Convert_ToByte_m932798552P21CustomAttributesCache
MO:__ZN13ProduceHelperI13AudioListenerLb0EE7ProduceE18MemLabelIdentifier18ObjectCreationMode
FGh:_InvokableCall_1__ctor_m2021220028_gshared
dVh:_WillRenderCanvases_Invoke_m4267547094
NGe:_List_1_System_Collections_ICollection_get_SyncRoot_m1594235606_gshared
EHd:_DateTimeFormatInfo_GetInstance_m3133223810
y7e:_ModulusRing_BarrettReduction_m2802101099
hjb:__ZN12HandlerChain4OpenER13FileEntryData14FilePermission16FileAutoBehavior
MRg:_EqualityComparer_1_get_Default_m2134906921_gshared
q$f:_MonoMethodInfo_GetParametersInfo_m3456861922
Cci:__ZN15dense_hashtableINSt3__24pairIK10KeyWrapperINS1_IPK10MethodInfoP11Il2CppClassEEEjEES9_17ReflectionMapHashIS8_EN14dense_hash_mapIS9_jSD_NS9_14EqualsComparerINS0_8equal_toIS8_EEEENS0_9allocatorISB_EEE9SelectKeyESI_SK_E6insertERKSB_
KIg:_ValueCollection_System_Collections_Generic_ICollectionU3CTValueU3E_Remove_m4188992987_gshared
q2:__ZN14FileCacherReadD2Ev
vab:__ZN13RendererScene23UpdatePreviousFrameDataEii
d0c:_RSAPKCS1SignatureDeformatter_VerifySignature_m1825067195
pxh:_RectTransform_remove_reapplyDrivenProperties_m52143263
VPh:__ZL25UnresolvedVirtualCall_123P12Il2CppObjectffPK10MethodInfo
hec:__Z50Register_UnityEngine_CullingGroup_FinalizerFailurev
bDe:_KeyValuePair_2_ToString_m2613351884_gshared
dbb:__ZN27UnloadUnusedAssetsOperationD0Ev
bx:__ZN26AnimatorControllerPlayable6MemoryD2Ev
kfj:__ZL69ColorBlock_t2652774230_CustomAttributesCacheGenerator_m_DisabledColorP21CustomAttributesCache
zbf:_CipherSuite_get_Code_m3902213587
Ywg:_Scrollbar__ctor_m2244981801
DBf:_ObjectRecord_get_HasPendingFixups_m670959802
NWh:_AnimationLayerMixerPlayable__ctor_m678972180
H0c:_SHA256Managed_HashCore_m4111458495
YUd:_CultureInfo_get_CompareInfo_m3085280862
T$i:__ZL89Application_t354826772_CustomAttributesCacheGenerator_Application_get_isEditor_m506138946P21CustomAttributesCache
BBf:_ObjectManager_RecordDelayedFixup_m1895730844
Xni:__ZNK15dense_hashtableINSt3__24pairIK10KeyWrapperIP14Il2CppIUnknownEjEES5_N6il2cpp5utils11PointerHashIS3_EEN14dense_hash_mapIS5_jSB_NS5_14EqualsComparerINS0_8equal_toIS4_EEEENS0_9allocatorIS7_EEE9SelectKeyESG_SI_E12test_deletedERK24dense_hashtable_iteratorIS7_S5_SB_SK_SG_SI_E
vMe:_List_1_System_Collections_IList_get_IsFixedSize_m3522184224_gshared
xF:__ZN9AudioClip23VirtualRedirectTransferER18StreamedBinaryReadILb0EE
Sdf:_ClientSessionInfo_CheckDisposed_m1394638186
rDf:_SByte_Parse_m2544167007
K5c:_Single_CompareTo_m2081476257
QQd:_StackFrame_GetILOffset_m115192054
GCf:_RuntimeTypeHandle_GetHashCode_m3697629454_AdjustorThunk
Ebe:_BigInteger__ctor_m2945783161
Cff:_TlsClientHello_Update_m1723542631
Nwh:_RectOffset_set_top_m1587840032
xRi:__ZL96ProxyAttribute_t4031752430_CustomAttributesCacheGenerator_ProxyAttribute_IsContextOK_m2391079277P21CustomAttributesCache
Nme:_IndexOutOfRangeException__ctor_m3497760912
_2e:_ReadOnlyCollection_1_CopyTo_m1652036789_gshared
Bj:_glCopyTexSubImage2D
xyf:_RealProxy_InternalGetTransparentProxy_m3415358600
a4b:__ZNK24RendererAnimationBinding13GetFloatValueERKN11UnityEngine9Animation10BoundCurveE
fT:__ZNK15DownloadHandler14HasPendingDataEv
VTe:_Collection_1_Insert_m3594407958_gshared
tEe:_Enumerator_System_Collections_IEnumerator_Reset_m2200349770_gshared
Exi:__ZN6il2cpp6icalls8mscorlib6System7Convert24InternalFromBase64StringEP12Il2CppStringb
K1c:_SymmetricAlgorithm_CreateDecryptor_m4240570785
MCg:_Text_get_preferredWidth_m3352156860
Ffj:__ZL87U3CDelayedDestroyDropdownListU3Ec__Iterator0_t3461999471_CustomAttributesCacheGeneratorP21CustomAttributesCache
wSf:_AssemblyCompanyAttribute__ctor_m1217508649
iOc:__ZN2UI13CanvasManager14GetRenderOrderEPKNS_6CanvasE
anb:__Z18Transfer_BlittableI14SafeBinaryReadLb0E5RectTIfEEvRK29SerializationCommandArgumentsR31RuntimeSerializationCommandInfo
DWc:__ZNK20UnityWebRequestProtoI24UnityWebRequestTransport16AtomicRefCounter14RedirectHelper14ResponseHelper15DownloadHandler13UploadHandler12HeaderHelper14AsyncOperationE14GetUploadBytesEv
G2e:_ReadOnlyCollection_1_System_Collections_Generic_IListU3CTU3E_RemoveAt_m878653284_gshared
sVd:_DateTimeFormatInfo_GetFormat_m3676195179
_ga:__ZN14GfxContextGLES14GetFramebufferEv
Wyj:_emscripten_glGenVertexArrays__wrapper
Nja:__ZN6prcoreL21CreateRemapAnyBlitterE13TextureFormatS0_
SFi:__ZN6il2cpp2os5Event4WaitEjb
K9b:__ZN17AnimationCurveTplIfE16StripInvalidKeysEv
g0d:_Array_InternalArray__ICollection_Add_TisKeyValuePair_2_t3716250094_m2381539361_gshared
slh:_InvokableCall_add_Delegate_m1994890856
Oie:_X509Extension_WriteLine_m2850991173
_Mc:__ZNK2UI6Canvas17GetSortingLayerIDEv
gIi:__ZL40UIntPtr_t_CustomAttributesCacheGeneratorP21CustomAttributesCache
O7h:_il2cpp_method_has_attribute
Y$b:__Z13RegisterClassI17GlobalGameManagerEvv
MZa:__ZN8Renderer24SetupNewRendererForSceneEv
kjj:__ZL70GridLayoutGroup_t1515633077_CustomAttributesCacheGenerator_m_StartAxisP21CustomAttributesCache
cXd:_Array_InternalArray__ICollection_Remove_TisInt64_t909078037_m2653583130_gshared
gUh:_TextGenerator_Populate_Internal_m65392018
gJf:_Thread_get_ExecutionContext_m922067206
g7d:_BaseInvokableCall_ThrowOnInvalidArg_TisInt32_t2071877448_m2823200566_gshared
usc:__Z35Transfer_Blittable_FixedBufferFieldI8JSONReadtEvRK29SerializationCommandArgumentsR31RuntimeSerializationCommandInfo
Cdf:_RecordProtocol_get_Context_m2688493529
RJa:__ZN4PPtrI7TextureE8TransferI14SafeBinaryReadEEvRT_
k7b:__ZN14PlayableOutput6HandleEv
u$a:__ZNK6Sprite22GetTypeVirtualInternalEv
Cyg:_ScrollRect_get_viewport_m3177057249
nn:FUNCTION_TABLE_iiiiiiiiiiiiii
dfg:__Z100RuntimeInvoker_Void_t1841601450_SByte_t454417549_SByte_t454417549_Int32_t2071877448_SByte_t454417549PFvvEPK10MethodInfoPvPS4_
DVc:__ZN19UnityConnectService18OnPlayerQuitStaticEPS_
yOa:__ZN11Tetrahedron8TransferI24GenerateTypeTreeTransferEEvRT_
oCc:_UNITY_tt_get_cmap_info
Y8c:_DecoderExceptionFallback_GetHashCode_m2972426052
Ntb:__Z29Transfer_Blittable_ArrayFieldI24GenerateTypeTreeTransfer5RectTIiEEvRT_R9ArrayInfoRK23StaticTransferFieldInfo
gPa:__ZN16ReflectionProbes8ScheduleEN18ReflectionProbeJob7JobTypeEP15ReflectionProbei
xYe:_Collection_1_IsFixedSize_m3675221982_gshared
$Wi:__ZL77Convert_t2607082565_CustomAttributesCacheGenerator_Convert_ToSByte_m883113940P21CustomAttributesCache
CFe:_Enumerator_MoveNext_m3293920409_AdjustorThunk
Xya:__Z18IsDirectoryCreatedRKN4core12basic_stringIcNS_20StringStorageDefaultIcEEEE
BXf:_GenericTypeParameterBuilder_get_DeclaringType_m1652924692
VLc:__ZN2UI13CanvasManagerD2Ev
a3g:_Comparer_1__cctor_m3112251759_gshared
Yhj:__ZL73ScrollRect_t1199013257_CustomAttributesCacheGenerator_m_VerticalScrollbarP21CustomAttributesCache
xof:_X509KeyUsageExtension_ToString_m1992050580
Eyc:_UNITY_FT_GlyphLoader_Done
gRf:_ValueType_DefaultEquals_m2245650968
oeh:_BalancingGroup__ctor_m2474435406
_og:__Z49RuntimeInvoker_Int32_t2071877448_Byte_t3683104436PFvvEPK10MethodInfoPvPS4_
Z6g:_ConstructionCall__ctor_m1143766850
x5i:__ZL108DefaultExecutionOrder_t2717914595_CustomAttributesCacheGenerator_DefaultExecutionOrder_get_order_m3383619944P21CustomAttributesCache
b3g:_Comparer_1_System_Collections_IComparer_Compare_m3203078743_gshared
MAf:_ObjectReader_ReadArrayOfString_m3752210963
Taj:__ZL67GUISkin_t1436893342_CustomAttributesCacheGenerator_m_verticalSliderP21CustomAttributesCache
jUb:__ZNK21IntermediateRenderers16GetBoundingBoxesEv
cDc:_tt_cmap14_char_var_index
oAb:__Z35Transfer_Blittable_FixedBufferFieldI18StreamedBinaryReadILb0EEdEvRK29SerializationCommandArgumentsR31RuntimeSerializationCommandInfo
xEc:_psh_globals_new
yue:_FileStream_Seek_m950719389
Wdd:_StandaloneInputModule_set_allowActivationOnMobileDevice_m2631121618
QId:_Decimal_stripStyles_m294582157
Q9:__ZN9GfxDevice20SetMaxBufferedFramesEi
_Ke:_List_1_RemoveAll_m4125997475_gshared
bng:__Z72RuntimeInvoker_Boolean_t3825574718_TypeU26_t1535498077_Int32_t2071877448PFvvEPK10MethodInfoPvPS4_
k7f:__Z98RuntimeInvoker_Void_t1841601450_Int32_t2071877448_Int32_t2071877448_RuntimeObject_SByte_t454417549PFvvEPK10MethodInfoPvPS4_
rK:__ZN24AudioScriptBufferManagerD2Ev
$sj:dynCall_vdd
JNc:__ZN2UIL17UnloadAllCanvasesEv
WZb:__Z23ConvertIntegerToTypePtrIsEbPvR14SafeBinaryRead
iQi:__ZL54_MethodBase_t1935530873_CustomAttributesCacheGeneratorP21CustomAttributesCache
Pmj:_Level1Intro__ctor_m1363605732
IRg:_EqualityComparer_1__ctor_m99476293_gshared
K7e:_BigInteger_Incr2_m505983313
Vzd:_ArrayList_get_Count_m523955479
R9f:__Z96RuntimeInvoker_Void_t1841601450_SByte_t454417549_RuntimeObject_SByte_t454417549_SByte_t454417549PFvvEPK10MethodInfoPvPS4_
pBd:_FixedSizeArrayListWrapper_Remove_m1359458911
Rih:_CameraCallback_Invoke_m2640212610
Lzh:_Touch_get_position_m261108426_AdjustorThunk
Vja:__ZN6prcoreL29inner_stretch_rgb565_bilinearEPKNS_9InnerInfoE
Kfh:_Uri__ctor_m3927533881
Pai:__ZNK15dense_hashtableINSt3__24pairIK10KeyWrapperINS1_IPK14Il2CppAssemblyP11Il2CppClassEEEjEES9_17ReflectionMapHashIS8_EN14dense_hash_mapIS9_jSD_NS9_14EqualsComparerINS0_8equal_toIS8_EEEENS0_9allocatorISB_EEE9SelectKeyESI_SK_E12test_deletedEj
SPc:__Z33Canvas_Get_Custom_PropWorldCameraP12Il2CppObject
_Bg:_Text_get_mainTexture_m813502234
GFi:__ZN6il2cpp8metadata19Il2CppSignatureHash4HashERKNS_5utils13dynamic_arrayIPK10Il2CppTypeLj4EEE
IRb:__ZNK14RenderSettings19GetFlatAmbientColorEv
nja:__ZN6prcoreL10inner_flipILj4EEEvPhS1_j
Y5a:__ZN18StreamedBinaryReadILb0EE21TransferSTLStyleArrayI10vector_mapIPKN5Unity4TypeE7Hash128NSt3__24lessIS6_EENS8_9allocatorINS8_4pairIS6_S7_EEEEEEEvRT_17TransferMetaFlags
fy:__ZNK27StateMachineBehaviourPlayer15IsSenderEnabledEv
V3g:_Enumerator_VerifyState_m2118679243_gshared
Fod:_InputField_get_shouldHideMobileInput_m3694613599
tjc:__Z40Register_UnityEngine_Transform_SetParentv
sif:_SslClientStream_get_HaveRemoteValidation2Callback_m3555576758
Ydg:__Z56RuntimeInvoker_TimeSpan_t3430258949_TimeSpan_t3430258949PFvvEPK10MethodInfoPvPS4_
l1a:__ZN14Texture2DArray17UploadToGfxDeviceEv
a2e:_ReadOnlyCollection_1_System_Collections_Generic_IListU3CTU3E_Insert_m4216310986_gshared
O_e:_ReadOnlyCollection_1_System_Collections_Generic_IListU3CTU3E_set_Item_m1532495847_gshared
oJ:__Z14FMODMemoryFreePvjPKc
B0i:__ZL103Camera_t189460977_CustomAttributesCacheGenerator_Camera_INTERNAL_CALL_ScreenToViewportPoint_m2554844623P21CustomAttributesCache
HTg:_InternalEnumerator_1_System_Collections_IEnumerator_Reset_m3731327620_AdjustorThunk
bej:__ZL104PointerEventData_t1599784723_CustomAttributesCacheGenerator_PointerEventData_get_worldNormal_m1704987468P21CustomAttributesCache
SCh:_YieldInstruction_t3462875981_marshal_pinvoke_cleanup
god:_Image_AddQuad_m1600600902
OFc:_cf2_glyphpath_moveTo
C9i:__ZL77AudioSourceExtension_t1813599864_CustomAttributesCacheGenerator_m_audioSourceP21CustomAttributesCache
hfd:_AnimationTriggers_set_disabledTrigger_m609579531
KMi:__ZL47File_t1930543328_CustomAttributesCacheGeneratorP21CustomAttributesCache
SNd:_DateTimeOffset__ctor_m1796624924
aah:_Identity_get_ChannelSink_m3989446673
uad:_BaseRaycaster_OnDisable_m1716508791
Ju:__ZN7mecanim23TransformValueArrayLoopEiiiRKN4math4trsXES3_RNS_10ValueArrayEf
k_g:_InternalEnumerator_1_MoveNext_m1741571735_gshared
Mlc:__ZN5IMGUI14GUIWindowStateD2Ev
mIi:__ZL82Enum_t2459695545_CustomAttributesCacheGenerator_Enum_GetUnderlyingType_m3513899012P21CustomAttributesCache
JBi:_GC_is_heap_ptr
bgf:_TlsServerSettings_set_CertificateRequest_m3419519893
Rzh:_TouchScreenKeyboard_Open_m2033426733
qB:__ZN7mecanim5human10RetargetToEPKNS0_5HumanEPKNS0_9HumanPoseES6_RKN4math4trsXEPS4_PNS_8skeleton13SkeletonPoseTIS8_EESF_
Bu:__ZN7mecanim9animation8SeekClipERKNS0_12StreamedClipERNS0_18StreamedClipMemoryEf
PNf:_Type_get_IsGenericParameter_m161434704
eYf:_MethodBuilder_get_Attributes_m3678061338
gm:_emscripten_glIsTexture
XAd:_ArrayListWrapper_CopyTo_m793444109
nXi:__ZL79Convert_t2607082565_CustomAttributesCacheGenerator_Convert_ToUInt16_m3265369225P21CustomAttributesCache
Nk:_emscripten_glHint
esg:__Z33RuntimeInvoker_Color32_t874517518PFvvEPK10MethodInfoPvPS4_
VIc:_ft_var_readpackeddeltas
aNd:_DateTime_AddMilliseconds_m1813199744_AdjustorThunk
ZCf:_SByte_System_IConvertible_ToSByte_m108774324_AdjustorThunk
iYf:_MethodBuilder_GetParameterCount_m467267889
kyi:__ZThn4_N6il2cpp2vm13CachedCCWBaseINS0_13ManagedObjectEE6AddRefEv
Rwb:__Z35Transfer_Blittable_FixedBufferFieldI18StreamedBinaryReadILb1EEtEvRK29SerializationCommandArgumentsR31RuntimeSerializationCommandInfo
Nrf:_X509ChainStatus_t4278378721_marshal_pinvoke
lxh:_RectTransform_INTERNAL_get_pivot_m4220117653
raf:_RSAManaged__ctor_m1680944437
jm:_SDL_UpperBlit
cPa:__Z35GetTextureDecodeValuesWithIntensity16TextureUsageMode17TextureColorSpace10ColorSpacef
$xd:_Byte_GetHashCode_m2885528842_AdjustorThunk
Sgi:__ZN15dense_hashtableINSt3__24pairIK10KeyWrapperINS1_IPK9EventInfoP11Il2CppClassEEEjEES9_17ReflectionMapHashIS8_EN14dense_hash_mapIS9_jSD_NS9_14EqualsComparerINS0_8equal_toIS8_EEEENS0_9allocatorISB_EEE9SelectKeyESI_SK_E15set_deleted_keyERKSB_
oKg:_Dictionary_2_OnDeserialization_m2092139626_gshared
Elh:_PersistentCall__ctor_m3653852388
GCb:__ZN14SafeBinaryRead20OverrideRootTypeNameEPKc
DXh:__ZNK10KeyWrapperIPK22Il2CppGenericParameterE14EqualsComparerINSt3__28equal_toIS2_EEEclERKS3_SA_
u2:__ZN14FileCacherRead16UnlockCacheBlockEj
The:_X509Certificate_GetUnsignedBigInteger_m3491353542
vqb:__Z18Transfer_BlittableI17RemapPPtrTransferLb1E8Vector3fEvRK29SerializationCommandArgumentsR31RuntimeSerializationCommandInfo
JNi:__ZL57StackBehaviour_t1390406961_CustomAttributesCacheGeneratorP21CustomAttributesCache
Jc:_emscripten_glUniform1f
o2h:__ZNK15dense_hashtableINSt3__24pairIK10KeyWrapperIPKcEP11Il2CppClassEES5_N6il2cpp5utils11StringUtils12StringHasherIS4_EEN14dense_hash_mapIS5_S8_SE_NS5_14EqualsComparerINSB_13VmStringUtils21CaseSensitiveComparerEEENS0_9allocatorIS9_EEE9SelectKeyESJ_SL_E12test_deletedERK24dense_hashtable_iteratorIS9_S5_SE_SN_SJ_SL_E
qjb:__ZNK12HandlerChain4SizeERK13FileEntryData
dzc:__Z20ParseImageParametersR11UTF16StringRiRN20TextRenderingPrivate16TextFormatChangeE
yph:_NativeClassAttribute__ctor_m3728148471
Oc:_emscripten_glUniform1i
nYg:_InternalEnumerator_1_System_Collections_IEnumerator_Reset_m651165750_AdjustorThunk
jsb:__Z18Transfer_BlittableI24GenerateTypeTreeTransferLb1EN4math12int3_storageEEvRK29SerializationCommandArgumentsR31RuntimeSerializationCommandInfo
wY:__Z33UnregisterDeviceEventCallbackImplPFv23UnityGfxDeviceEventTypeE
exg:__Z14bankers_roundff
zeb:__ZN9ShaderLab16SerializedTagMapaSERKS0_
iYd:_SetPropertyUtility_SetStruct_TisFillMethod_t1640962579_m1867757822_gshared
BR:__ZN11UnityEngine15CloudWebService16SessionContainer20RestoreSessionHeaderERKN4core12basic_stringIcNS2_20StringStorageDefaultIcEEEES8_RNS0_13SessionHeaderE
GNd:_DateTime_ToString_m1117481977
XWc:__ZN22UnityWebRequestManager13BackendRetainEv
Eac:__ZN8Material28ApplyMaterialPropertyDrawersEv
FXf:_GenericTypeParameterBuilder_GetGenericArguments_m277381309
Esg:__Z63RuntimeInvoker_KeyValuePair_2_t888819835_IntPtr_t_RuntimeObjectPFvvEPK10MethodInfoPvPS4_
BC:__ZN11UnityEngine9Animation27CreateAvatarBindingConstantER9TransformPKN7mecanim9animation14AvatarConstantERNS3_6memory9AllocatorE
J1i:__ZL77Gradient_t3600583008_CustomAttributesCacheGenerator_Gradient_Init_m3042650694P21CustomAttributesCache
YPf:_UInt64_System_IConvertible_ToDateTime_m2412118561
Fcc:__ZN9BlobWriteC2ER13dynamic_arrayIhLj16EE24TransferInstructionFlags19BuildTargetPlatform
MSf:_AssemblyName_get_Version_m3495645648
E0:__ZN14MessageHandler3GetEv
ad:_emscripten_glAttachShader
T0e:_ReadOnlyCollection_1__ctor_m1539890895_gshared
P9:__ZN9GfxDevice13SetActiveTierE12GraphicsTier
mEe:_Enumerator_System_Collections_IEnumerator_get_Current_m3079057684_AdjustorThunk
oOe:_List_1_System_Collections_ICollection_get_SyncRoot_m1804424478_gshared
F4a:__ZNSt3__26vectorIN4core12basic_stringIcNS1_20StringStorageDefaultIcEEEENS_9allocatorIS5_EEE6assignIPS5_EENS_9enable_ifIXaasr21__is_forward_iteratorIT_EE5valuesr16is_constructibleIS5_NS_15iterator_traitsISC_E9referenceEEE5valueEvE4typeESC_SC_
Jee:_KeyPairPersistence_get_UserPath_m3433052783
mVe:_Collection_1_ClearItems_m1410275009_gshared
itg:__Z36RuntimeInvoker_Enumerator_t975728254PFvvEPK10MethodInfoPvPS4_
GHi:__ZL58Decimal_t724701077_CustomAttributesCacheGenerator_MinusOneP21CustomAttributesCache
mZd:_Array_InternalArray__IEnumerable_GetEnumerator_TisKeyframe_t1449471340_m3949799719_gshared
Jmb:__Z18Transfer_BlittableI14SafeBinaryReadLb0E11QuaternionfEvRK29SerializationCommandArgumentsR31RuntimeSerializationCommandInfo
Yzb:__Z18Transfer_BlittableI18StreamedBinaryReadILb0EELb1E12PropertyNameEvRK29SerializationCommandArgumentsR31RuntimeSerializationCommandInfo
Bpd:_InputField_get_inputType_m2187991661
YV:_tlsf_walk_heap
rhe:_PKCS12_Decode_m731190390
dji:__ZNK15dense_hashtableINSt3__24pairIK10KeyWrapperIP11Il2CppClassES4_EES5_N6il2cpp8metadata16SZArrayClassHashEN14dense_hash_mapIS5_S4_SA_NS5_14EqualsComparerINS9_19SZArrayClassCompareEEENS0_9allocatorIS7_EEE9SelectKeyESE_SG_E10test_emptyERK24dense_hashtable_iteratorIS7_S5_SA_SI_SE_SG_E
qEh:_GUIContent_set_image_m3266329364
PZg:_InternalEnumerator_1_get_Current_m1550231132_gshared
neh:_Reference_get_IgnoreCase_m2810892634
mRf:_Version_CheckedSet_m76493673
jb:invoke_vif
jSg:_U3CGetEnumeratorU3Ec__Iterator0_Dispose_m2403602883_gshared
kb:invoke_vid
$qj:__ZNSt3__212basic_stringIcNS_11char_traitsIcEENS_9allocatorIcEEE6insertEjPKc
uUi:__ZL67UnverifiableCodeAttribute_t765455733_CustomAttributesCacheGeneratorP21CustomAttributesCache
lb:invoke_vii
dLb:__ZNK12ImageFilters8DoRenderER17ShaderPassContextP13RenderTextureS3_RKNSt3__26vectorI11ImageFilterNS4_9allocatorIS6_EEEE
$hj:__ZL82ScrollRect_t1199013257_CustomAttributesCacheGenerator_m_HorizontalScrollbarSpacingP21CustomAttributesCache
Umd:_LayoutGroup_get_padding_m1653511445
Ixa:__ZN12TLSAllocatorI14StackAllocatorE16ThreadInitializeEP13BaseAllocator
tAd:_ArrayList_Sort_m2778059513
oaa:__ZN9GfxDevice32UpdateStereoViewProjectionMatrixE21MonoOrStereoscopicEye
PHb:__ZN15dense_hashtableINSt3__24pairIKN4core12basic_stringIcNS2_20StringStorageDefaultIcEEEEP20ArchiveStorageReaderEES6_20StringHash32FunctionIS6_EN14dense_hash_mapIS6_S9_SC_NS0_8equal_toIS6_EE13stl_allocatorISA_L18MemLabelIdentifier55ELi16EEE9SelectKeyESF_SI_E12resize_deltaEjj
Zmd:_LayoutGroup_SetChildAlongAxis_m2732017156
ZOc:__Z41CanvasRenderer_CUSTOM_DisableRectClippingP12Il2CppObject
i9e:_MD2_Create_m539024737
wFd:_SortedList_get_SyncRoot_m3299704254
EGe:_List_1_System_Collections_ICollection_CopyTo_m2020941110_gshared
YFd:_Slot_t2267560602_marshal_pinvoke
fgg:__Z112RuntimeInvoker_Void_t1841601450_RuntimeObject_Int32_t2071877448_Int32_t2071877448_RuntimeObject_SByte_t454417549PFvvEPK10MethodInfoPvPS4_
kxf:_SoapAttribute_get_XmlNamespace_m1436066016
ZBa:__ZN25SingleBlockMemoryFileDataD0Ev
Sxa:__ZNSt3__26vectorI14ConstantStringNS_9allocatorIS1_EEE6assignINS_11__wrap_iterIPS1_EEEENS_9enable_ifIXaasr21__is_forward_iteratorIT_EE5valuesr16is_constructibleIS1_NS_15iterator_traitsISA_E9referenceEEE5valueEvE4typeESA_SA_
wR:__ZN11UnityEngine15CloudWebService16SessionContainer21ConvertFromFolderTimeERKN4core12basic_stringIcNS2_20StringStorageDefaultIcEEEEPjPt
uob:__ZNSt3__26vectorI8GUIStyle13stl_allocatorIS1_L18MemLabelIdentifier1ELi16EEE7reserveEj
Wki:__ZN6il2cpp6icalls8mscorlib6System9Threading6Thread27GetSerializedCurrentCultureEP12Il2CppThread
u$d:_Array_InternalArray__IndexOf_TisUInt32_t2149682021_m3231515987_gshared
TJh:_ListPool_1__cctor_m709904475_gshared
Z1b:__Z31CalculateHierarchyTransformType23TransformAccessReadOnly
v0b:__Z13RegisterClassI11TimeManagerEvv
fJ:__ZN4FMOD8ChannelI11setPositionEjj
J8f:__Z136RuntimeInvoker_IntPtr_t_RuntimeObject_Int32_t2071877448_Int32_t2071877448_Int32_t2071877448_Int32_t2071877448_MonoIOErrorU26_t1029615899PFvvEPK10MethodInfoPvPS4_
Ezi:_GC_set_fl_marks
U9g:_SynchronizedClientContextSink__ctor_m978504596
raa:__ZN9GfxDevice17SetStereoViewportE15StereoscopicEyeRK5RectTIiE
E7:__ZN17BaseObjectManager13StaticDestroyEPv
Amj:_ClickCount_AddCount_m634862334
AOd:_DBNull_System_IConvertible_ToChar_m3344298044
Oah:_LinkStack_Push_m2660199875
_H:__ZN4FMOD6Reverb13setPropertiesEPK22FMOD_REVERB_PROPERTIES
kii:__ZN15dense_hashtableINSt3__24pairIK10KeyWrapperIP11Il2CppClassES4_EES5_N6il2cpp8metadata16SZArrayClassHashEN14dense_hash_mapIS5_S4_SA_NS5_14EqualsComparerINS9_19SZArrayClassCompareEEENS0_9allocatorIS7_EEE9SelectKeyESE_SG_E5clearEv
RMb:__ZN9DepthPass13PrepareSubsetEjRK10RenderNodeifRK17ShaderReplaceData
lrh:_X509CertificateCollection_Add_m4008705157
Cwf:_MonoMethodMessage_set_Uri_m3218581120
n2i:__ZL108TouchScreenKeyboard_t601950206_CustomAttributesCacheGenerator_TouchScreenKeyboard_Open_m2033426733____alert5P21CustomAttributesCache
Lkj:_AudioMixerPlayable_GetHandle_m3697423575_AdjustorThunk
i9b:__Z35SetMeshComponentFromArrayFromScriptR4Mesh30InternalScriptingShaderChannel34InternalScriptingVertexChannelTypei17ScriptingArrayPtri
M2e:_ReadOnlyCollection_1_System_Collections_IList_Add_m3806843030_gshared
LLa:__ZN4PPtrI6ShaderE8TransferI19StreamedBinaryWriteILb0EEEEvRT_
FVe:_Collection_1_IsFixedSize_m1816795498_gshared
cq:__ZN4core20StringStorageDefaultIcE6assignEPKcj
V8i:__ZL106AudioSettings_t3144015719_CustomAttributesCacheGenerator_AudioSettings_GetSpatializerPluginName_m698617843P21CustomAttributesCache
$qi:__ZN15dense_hashtableINSt3__24pairIK10KeyWrapperIP12Il2CppObjectEN6il2cpp2gc9CachedCCWEEES5_NS7_5utils11PointerHashIS3_EEN14dense_hash_mapIS5_S9_SD_NS5_14EqualsComparerINS0_8equal_toIS4_EEEENS0_9allocatorISA_EEE9SelectKeyESI_SK_E3endEv
Gdd:_MouseButtonEventData_ReleasedThisFrame_m482758300
iyh:_SceneManager_Internal_SceneLoaded_m1729738062
Khi:__ZN15dense_hashtableINSt3__24pairIK10KeyWrapperINS1_IP11Il2CppClassjEEES4_EES6_N6il2cpp8metadata14ArrayClassHashEN14dense_hash_mapIS6_S4_SB_NS6_14EqualsComparerINSA_17ArrayClassCompareEEENS0_9allocatorIS8_EEE9SelectKeyESF_SH_E9copy_fromERKSK_j
uBd:_ReadOnlyArrayListWrapper_set_Item_m2199017141
_Vb:__ZN6Camera6SetFarEf
grh:_DeriveBytes_DeriveIV_m3343375195
Nzc:_UNITY_FT_Init_Class_ft_bitmap_glyph_class
x$c:_RNGCryptoServiceProvider_GetBytes_m167497991
Dka:__ZN6prcoreL12RemapGenericI17TexFormatABGR888817TexFormatARGB8888EEvPKNS_9InnerInfoE
iDa:__ZN11GameManager17MainThreadCleanupEv
Myh:_SetupCoroutine_InvokeMember_m170868586
EQc:__Z50Register_UnityEngine_UISystemProfilerApi_EndSamplev
Whg:__Z60RuntimeInvoker_Boolean_t3825574718_PlayableOutput_t988259697PFvvEPK10MethodInfoPvPS4_
FVf:_TypeBuilder_get_Assembly_m492491492
Hb:invoke_vffff
zXe:_Collection_1_InsertItem_m1225429801_gshared
Ibf:_CipherSuite_set_Context_m4127897124
LHc:_UNITY_tt_slot_init
IIb:__ZZ23InitPlayerLoopCallbacksvEN41PostLateUpdateUpdateResolutionRegistrator7ForwardEv
r_d:_Array_FindLastIndex_TisRuntimeObject_m986818300_gshared
EBb:__Z25scripting_array_class_get17ScriptingClassPtrj
wqc:__ZL22Transfer_ManagedObjectI9JSONWriteLb1EEvRK29SerializationCommandArgumentsR31RuntimeSerializationCommandInfo
fF:__ZNK10SampleClip22GetTypeVirtualInternalEv
wba:__ZN9GfxDevice20DestroyRenderSurfaceER12ObjectHandleI17RenderSurface_TagP17RenderSurfaceBaseE
u8:__ZN18SpriteAtlasManagerC2Ev
gua:__ZN9GfxDevice22UpdateComputeResourcesEjPK9TextureIDPK16TextureDimensionPKijPKjjPK15ComputeBufferIDS7_PK20ComputeBufferCounterjSC_S2_S5_S9_SF_
rGa:__ZN12_GLOBAL__N_15qAsinEff
B6d:_Dictionary_2_Do_ICollectionCopyTo_TisKeyValuePair_2_t3749587448_m2536766696_gshared
Jxa:__ZN12TLSAllocatorI14StackAllocatorE13ThreadCleanupEv
HF:__Z18GetAudioManagerPtrv
v_d:_Array_IndexOf_TisRuntimeObject_m1815604637_gshared
dHe:_List_1_GetEnumerator_m2837081829_gshared
oxi:__ZThn4_N6il2cpp2vm13ComObjectBase16MarshalInterfaceEP13Il2CppIStreamRK10Il2CppGuidPvjS7_j
y2a:__ZN4Mesh27SwizzleVertexColorsIfNeededEb
pEb:__Z27FindActiveTransformWithPathPKc
vFa:__ZN12BaseRendererD0Ev
NZb:__Z29StdTemplateConversionFunctionIbyEbPvR14SafeBinaryRead
ofg:__Z44RuntimeInvoker_X509KeyUsageFlags_t2461349531PFvvEPK10MethodInfoPvPS4_
Buh:_PropertyName_op_Inequality_m2830582941
Xie:_SecurityParser_OnEndElement_m2909940377
pcj:__ZL92CanvasRenderer_t261436805_CustomAttributesCacheGenerator_CanvasRenderer_set_cull_m3941605148P21CustomAttributesCache
VFa:__ZNK6Camera7GetNearEv
Lna:__ZN7ApiGLES11UnmapBufferEjN2gl12BufferTargetE
yxi:__ZN6il2cpp5utilsL24Utf32CharToSurrogatePairEjRA2_Ds
PWa:__Z25GetNextAllowedTextureSizeib13TextureFormat
hEb:__ZN20LocalFileSystemWebGL4CopyER13FileEntryDataS1_
TLe:_List_1_CheckIndex_m4231572822_gshared
XT:__ZN19CloudServiceHandler6RetainEv
sFi:__ZN6il2cpp2os9Semaphore4WaitEb
b4c:_StrongName_Equals_m67226644
vmc:__Z36Event_CUSTOM_Internal_SetNativeEventPv
uGa:__ZN12BaseRenderer20FlattenToRenderQueueER15RenderNodeQueueRK20DeprecatedSourceData
HWf:_FieldBuilder_get_Attributes_m2174064290
iye:_UnmanagedMemoryStream_get_Length_m587008850
vbb:__Z34scripting_liveness_calculation_endPv
lkc:__ZNK19RectangleCellLayout13GetCellCenterEv
_ui:__ZN6il2cpp2os6ThreadC2Ev
Q4c:_SecurityFrame_InitFromRuntimeFrame_m45195821
cNi:__ZL53TextReader_t1561828458_CustomAttributesCacheGeneratorP21CustomAttributesCache
Bqf:_X509Chain_IsSignedWith_m292245392
Xt:__ZN21AnimationClipPlayable22ProcessAnimationNoClipEPK35AnimationPlayableEvaluationConstantPK32AnimationPlayableEvaluationInputP33AnimationPlayableEvaluationOutput
Wsi:__ZNK6il2cpp2os10SocketImpl12GetLastErrorEv
ZWd:_Array_InternalArray__ICollection_Remove_TisDateTime_t693205669_m1275668216_gshared
nLg:_Dictionary_2__ctor_m871840915_gshared
X0e:_ReadOnlyCollection_1_System_Collections_Generic_ICollectionU3CTU3E_Remove_m3751131234_gshared
Yrc:__Z18Transfer_BlittableI8JSONReadLb0E8Vector3fEvRK29SerializationCommandArgumentsR31RuntimeSerializationCommandInfo
s7g:_ChannelServices__cctor_m3534779830
lji:__ZN6il2cpp2vm6Thread6DetachEP12Il2CppThread
OQi:__ZL63IContributeEnvoySink_t4106549430_CustomAttributesCacheGeneratorP21CustomAttributesCache
yAh:_Transform_set_localRotation_m3053695533
LDc:_Render_Single_Pass
IJd:_Convert_ToInt16_m416789348
ZEf:_EncoderExceptionFallback_Equals_m762170768
LOh:__ZL24UnresolvedVirtualCall_59P12Il2CppObjectS0_aPK10MethodInfo
XLh:_EqualityComparer_1__cctor_m2666196678_gshared
dvc:__GLOBAL__sub_I_runtime_dynamics_2_cpp
dEg:_Enumerator_get_CurrentValue_m3147984131_AdjustorThunk
HC:__ZN7mecanim8skeleton30SkeletonBuildReverseIndexArrayEPiPKiPKNS0_8SkeletonES6_
Akc:__Z19GetGUIBlendMaterialv
kjg:__Z69RuntimeInvoker_Boolean_t3825574718_TextGenerationSettings_t2543476768PFvvEPK10MethodInfoPvPS4_
tti:__ZN6il2cpp2os10ThreadImpl5SleepEjb
n1g:_InternalEnumerator_1_System_Collections_IEnumerator_Reset_m3669601605_AdjustorThunk
Eth:_X509ExtensionCollection_System_Collections_IEnumerable_GetEnumerator_m2600902401
kYe:_Collection_1_InsertItem_m1073626529_gshared
ZHh:_UnityEvent_1_GetDelegate_m2559549291_gshared
C1i:__ZL106GameObject_t1756533147_CustomAttributesCacheGenerator_GameObject_Internal_AddComponentWithType_m3949110293P21CustomAttributesCache
Lvh:_Rect_get_center_m2903917731_AdjustorThunk
wyj:_glBindSampler__wrapper
_Ca:__ZNSt3__26vectorIN20ArchiveStorageHeader12StorageBlockE13stl_allocatorIS2_L18MemLabelIdentifier55ELi16EEE8__appendEj
Hf:_emscripten_set_mouseup_callback
Xta:__ZN9GfxDevice27SetRandomWriteTargetTextureEi9TextureID
Dlg:__Z58RuntimeInvoker_Boolean_t3825574718_SpriteState_t1353336012PFvvEPK10MethodInfoPvPS4_
Rba:__ZN9GfxDevice47SwitchColorRenderSurfaceOutOfFastMemoryPlatformEP17RenderSurfaceBaseb
j7d:_BaseInvokableCall_ThrowOnInvalidArg_TisColor_t2020392075_m3638385415_gshared
XXb:__ZNK18ScreenManagerWebGL8GetWidthEv
Klj:_AudioExtensionManager_GetListenerSpatializerExtensionEditorType_m165088149
a3h:__ZN6il2cpp2vm13MetadataCache33GetFieldDefaultValueDataFromIndexEi
Gmd:_GridLayoutGroup_set_startAxis_m1635162426
cF:__ZN10SampleClipD2Ev
Z9g:_SynchronizationAttribute_EnterContext_m2984912761
xIi:__ZL73Enum_t2459695545_CustomAttributesCacheGenerator_Enum_ToObject_m2601523252P21CustomAttributesCache
jVd:_CultureInfo_construct_internal_locale_from_name_m971766383
sti:__ZN6il2cpp2os10ThreadImpl13SetWaitObjectEPNS0_5posix15PosixWaitObjectE
byd:_Byte_Equals_m368616327_AdjustorThunk
Oab:__Z13GetGISettingsv
X0d:_Array_InternalArray__ICollection_Add_TisUIVertex_t1204258818_m3869382594_gshared
HT:__ZN11UnityEngine15CloudWebService20WebRequestRestClientC2Ev
fHc:_cff_cmap_unicode_init
NKb:__ZNSt3__224__buffered_inplace_mergeIRN10vector_mapIiN17InstancedPropInfo12PropertyTypeENS_4lessIiEE13stl_allocatorINS_4pairIiS3_EEL18MemLabelIdentifier1ELi16EEE13value_compareENS_11__wrap_iterIPS8_EEEEvT0_SH_SH_T_NS_15iterator_traitsISH_E15difference_typeESL_PNSK_10value_typeE
DSd:_Enum_ToObject_m2460371738
Bce:_PrimalityTests_Test_m1088386156
x2:__ZN14FileCacherRead13GetFileLengthEv
ECh:_Vector4_SqrMagnitude_m1060560279
Apj:_readlink
uei:__ZN15dense_hashtableINSt3__24pairIK10KeyWrapperINS1_IPK9EventInfoP11Il2CppClassEEEjEES9_17ReflectionMapHashIS8_EN14dense_hash_mapIS9_jSD_NS9_14EqualsComparerINS0_8equal_toIS8_EEEENS0_9allocatorISB_EEE9SelectKeyESI_SK_E12resize_deltaEjj
e5d:_Array_Resize_TisVector3_t2243707580_m893658391_gshared
MVg:_InternalEnumerator_1_System_Collections_IEnumerator_get_Current_m4259662004_AdjustorThunk
B8d:_Array_InternalArray__get_Item_TisKeyframe_t1449471340_m1003508933_gshared
MEi:__ZN6il2cpp2os13SemaphoreImplC2Eii
Y6i:__ZL123UnitySynchronizationContext_t1205147244_CustomAttributesCacheGenerator_UnitySynchronizationContext_ExecuteTasks_m1920809885P21CustomAttributesCache
Xbg:__Z50RuntimeInvoker_Double_t4078015681_Int64_t909078037PFvvEPK10MethodInfoPvPS4_
lhe:_StrongName_get_PublicKeyToken_m1968460885
v4a:__ZNK6Sprite9GetBoundsE8Vector2fbb
rJa:__ZNK19RenderEventsContext21CleanupCommandBuffersEv
hfa:__ZN11ContextGLES6CreateEi
Rre:_BinaryReader_Dispose_m4249456877
NId:_Double_ToString_m1085043609
MAb:__Z19TransferField_ArrayI18StreamedBinaryReadILb0EE27Converter_SimpleNativeClassI17AnimationCurveTplIfEEEvRK23StaticTransferFieldInfoR31RuntimeSerializationCommandInfoRT0_
Mbf:_CipherSuite_createEncryptionCipher_m1926075645
hqh:_Plane__ctor_m730644932
mxa:__ZN14StackAllocator16FrameMaintenanceEb
$ld:_Graphic_Raycast_m3582517890
rza:__Z18ReadStringFromFilePN4core17string_with_labelILi1EEERKNS_12basic_stringIcNS_20StringStorageDefaultIcEEEE
e3:__ZNK10GameObject20QueryComponentByTypeEPKN5Unity4TypeE
GDh:_GUISkin_MakeCurrent_m1547433985
rFe:_Enumerator_MoveNext_m1367380970_AdjustorThunk
YYf:_OpCode_GetHashCode_m2974727122
tFd:_Enumerator_Reset_m466659019
Nbf:_CipherSuite_createDecryptionCipher_m1118350455
Tbh:_PatternCompiler_EmitReference_m1381860071
tRd:_Double_System_IConvertible_ToInt16_m4200640326
_Va:__ZN11TextureData5ResetEv
$4i:__ZL105RectTransform_t3349966182_CustomAttributesCacheGenerator_RectTransform_INTERNAL_get_anchorMin_m3722367822P21CustomAttributesCache
Rec:__Z53Register_UnityEngine_GameObject_get_activeInHierarchyv
JXf:_GenericTypeParameterBuilder_get_IsGenericType_m1883522222
X8:__ZN15dense_hashtableINSt3__24pairIKN4core12basic_stringIcNS2_20StringStorageDefaultIcEEEE13dynamic_arrayI4PPtrI6SpriteELj4EEEES6_20StringHash32FunctionIS6_EN14dense_hash_mapIS6_SC_SF_NS0_8equal_toIS6_EE13stl_allocatorISD_L18MemLabelIdentifier81ELi16EEE9SelectKeyESI_SL_EC2ERKSO_j
q_:__ZL30InitializeCoreScriptingClassesv
vYe:_Collection_1_CheckWritable_m3938993573_gshared
Dg:_glBlitFramebuffer
BAa:__ZN17ArchiveFileSystem5TouchER13FileEntryData
lgf:_SecurityParameters_set_Cipher_m3888132335
Jce:_BigInteger_GeneratePseudoPrime_m2606361440
oOd:_DateTimeFormatInfo_get_ShortTimePattern_m20923983
gqb:__Z35Transfer_Blittable_SingleValueFieldI14SafeBinaryReadhEvRT_R17GeneralMonoObjectRK23StaticTransferFieldInfo
ghj:__ZL140U3CMouseDragOutsideRectU3Ec__Iterator1_t2599668326_CustomAttributesCacheGenerator_U3CMouseDragOutsideRectU3Ec__Iterator1_Dispose_m2134284531P21CustomAttributesCache
$7b:__ZN12CachedWriter15CompleteWritingEv
_fe:_EncryptedPrivateKeyInfo_get_Algorithm_m2779196942
gxf:_RemotingServices_GetRealProxy_m620317996
dNb:__ZN13dynamic_arrayI11CulledLightLj4EE6insertEPS0_PKS0_S4_
jTg:_ArrayReadOnlyList_1_RemoveAt_m2270349795_gshared
cVa:__ZNK12CubemapArray22GetTypeVirtualInternalEv
ISh:_Predicate_1_Invoke_m2060780095_gshared
IOa:__ZN11Tetrahedron8TransferI18StreamedBinaryReadILb0EEEEvRT_
Kn:FUNCTION_TABLE_vif
Ln:FUNCTION_TABLE_vid
Mn:FUNCTION_TABLE_vii
Gbb:__Z40scripting_liveness_calculation_from_root18ScriptingObjectPtrPv
LRa:__ZN7Texture23VirtualRedirectTransferER24GenerateTypeTreeTransfer
Jxc:_UNITY_FT_Set_Transform
S3b:__ZNK32RendererMaterialAnimationBinding12SetPPtrValueERKN11UnityEngine9Animation10BoundCurveEi
nqi:__ZN6il2cpp8metadata15GenericMetadata20RegisterGenericClassEP18Il2CppGenericClass
Ffg:__Z101RuntimeInvoker_OpFlags_t378191910_SByte_t454417549_SByte_t454417549_SByte_t454417549_SByte_t454417549PFvvEPK10MethodInfoPvPS4_
byj:_glDeleteFramebuffers__wrapper
ynd:_Image_get_overrideSprite_m706080347
Sog:__Z54RuntimeInvoker_Int32_t2071877448_LabelData_t3712112744PFvvEPK10MethodInfoPvPS4_
l7e:_BigInteger_ModInverse_m1881894572
g6h:__ZN6il2cpp2vm7Runtime17GetDelegateInvokeEP11Il2CppClass
p4b:__ZZN12MeshRenderer15InitializeClassEvEN29FunctorImpl_134kDidDeleteMesh4CallEPviR11MessageData
vij:__ZL59Slider_t297367283_CustomAttributesCacheGenerator_m_FillRectP21CustomAttributesCache
jgi:__ZN30dense_hashtable_const_iteratorINSt3__24pairIK10KeyWrapperIPK22Il2CppGenericParameterEPK24MonoGenericParameterInfoEES6_N6il2cpp5utils11PointerHashIS4_EEN14dense_hash_mapIS6_SA_SF_NS6_14EqualsComparerINS0_8equal_toIS5_EEEENS0_9allocatorISB_EEE9SelectKeyESK_SM_E30advance_past_empty_and_deletedEv
eYa:__ZN28EnlightenRendererInformation8TransferI14SafeBinaryReadEEvRT_
jeg:__Z88RuntimeInvoker_RuntimeObject_RuntimeObject_Int32_t2071877448_RuntimeObject_RuntimeObjectPFvvEPK10MethodInfoPvPS4_
lPi:__ZL69DefaultDependencyAttribute_t3858269114_CustomAttributesCacheGeneratorP21CustomAttributesCache
nCa:__ZNK15Lz4Decompressor16DecompressMemoryEPKvPjPvS2_
Yvh:_Rect_get_height_m1231429410
z3e:_ReadOnlyCollection_1_System_Collections_IList_get_Item_m887129009_gshared
yTa:__Z35UnityPropertySheet_MakeSortedColorsRKNSt3__23mapIN9ShaderLab16FastPropertyNameE10ColorRGBAfNS_4lessIS2_EENS_9allocatorINS_4pairIKS2_S3_EEEEEER10vector_mapIS2_S3_S5_NS6_INS7_IS2_S3_EEEEE
_Od:_Decimal_System_IConvertible_ToType_m3828527724_AdjustorThunk
Opd:_InputField_get_caretPositionInternal_m3011712053
rBc:_UNITY_tt_face_load_os2
a9e:_HMAC_get_Key_m2528863640
hZe:_Collection_1_IsSynchronized_m1366278230_gshared
NUi:__ZL93StringBuilder_t1221177846_CustomAttributesCacheGenerator_StringBuilder_AppendLine_m1686706871P21CustomAttributesCache
ypb:__Z29Transfer_Blittable_ArrayFieldI14SafeBinaryRead8Vector4fEvRT_R9ArrayInfoRK23StaticTransferFieldInfo
tVd:_Array_get_swapper_TisInt32_t2071877448_m2837069166_gshared
yci:__ZN6il2cpp2gc19AppendOnlyGCHashMapINSt3__24pairIPK10MethodInfoP11Il2CppClassEEP22Il2CppReflectionMethod17ReflectionMapHashIS9_ENS2_8equal_toIS9_EEE3AddERKS9_SB_
RQi:__ZL62IDynamicMessageSink_t3056162262_CustomAttributesCacheGeneratorP21CustomAttributesCache
Rmg:__Z77RuntimeInvoker_Boolean_t3825574718_AspectModeU26_t218518220_Int32_t2071877448PFvvEPK10MethodInfoPvPS4_
b8g:_ConfigHandler_CheckPath_m2296459741
_cd:_PointerEventData_IsScrolling_m1971908975
Frg:__Z56RuntimeInvoker_ContentType_t1028629049_Int32_t2071877448PFvvEPK10MethodInfoPvPS4_
zIb:__ZZ23InitPlayerLoopCallbacksvEN51PostLateUpdateUpdateCustomRenderTexturesRegistrator7ForwardEv
m8i:__ZL53UILineInfo_t3621277874_CustomAttributesCacheGeneratorP21CustomAttributesCache
kPd:_Decimal_System_IConvertible_ToInt16_m3159038792
tu:__ZN7mecanim9animation12EvaluateClipEPKNS0_4ClipEPKNS0_9ClipInputEPNS0_10ClipMemoryEPNS0_10ClipOutputE
M7a:__ZNSt3__26vectorIN15ResourceManager10DependencyE13stl_allocatorIS2_L18MemLabelIdentifier52ELi16EEEC2INS_11__wrap_iterIPS2_EEEET_SB_RKS5_PNS_9enable_ifIXaasr21__is_forward_iteratorISB_EE5valuesr16is_constructibleIS2_NS_15iterator_traitsISB_E9referenceEEE5valueEvE4typeE
pYa:__ZN4PPtrI11LightProbesE8TransferI18StreamedBinaryReadILb0EEEEvRT_
U5g:_ComVisibleAttribute__ctor_m1789587486
y0f:_MonoMethodInfo_GetReturnType_m2864247130
Ncg:__Z39RuntimeInvoker_DateTimeKind_t2186819611PFvvEPK10MethodInfoPvPS4_
QUb:__ZN13RenderManager29SetCurrentCameraAndStackStateEP6CameraP25CameraStackRenderingState
tAh:_Transform_INTERNAL_get_rotation_m1873681960
hFa:__ZNSt3__26__treeINS_12__value_typeIjN4core12basic_stringIcNS2_20StringStorageDefaultIcEEEEEENS_19__map_value_compareIjS7_NS_4lessIjEELb1EEE13stl_allocatorIS7_L18MemLabelIdentifier7ELi16EEE7destroyEPNS_11__tree_nodeIS7_PvEE
Zii:__ZN15dense_hashtableINSt3__24pairIK10KeyWrapperINS1_IP11Il2CppClassjEEES4_EES6_N6il2cpp8metadata14ArrayClassHashEN14dense_hash_mapIS6_S4_SB_NS6_14EqualsComparerINSA_17ArrayClassCompareEEENS0_9allocatorIS8_EEE9SelectKeyESF_SH_E12resize_deltaEjj
Sh:_JS_WebRequest_Release
cte:_DirectoryNotFoundException__ctor_m2242202556
WR:__ZN11UnityEngine15CloudWebService14DataErrorEventD0Ev
smi:__ZN6il2cpp6icalls8mscorlib6System4Type20internal_from_handleEi
k8c:_String_CreateString_m2448464375
gsf:_X509SubjectKeyIdentifierExtension__ctor_m2959112706
eEg:_Enumerator_Reset_m1147555085_AdjustorThunk
w_f:_FieldInfo_get_IsNotSerialized_m2322769148
zYi:__ZL68Math_t2022911894_CustomAttributesCacheGenerator_Math_Max_m2671311541P21CustomAttributesCache
jqi:__ZN6il2cpp8metadata15GenericMetadata7InflateEPK19Il2CppGenericMethodPK20Il2CppGenericContext
BXa:__ZN19ShaderPropertySheet16SetArrayPropertyEN9ShaderLab16FastPropertyNameENS_12PropertyTypeEPKvj
r0f:_MonoGenericCMethod_get_ReflectedType_m2689239043
iZe:_Collection_1_IsFixedSize_m499196375_gshared
Qhd:_ColorTween_set_startColor_m3546206870_AdjustorThunk
Hqi:__ZN15dense_hashtableINSt3__24pairIK10KeyWrapperIP12Il2CppObjectEN6il2cpp2gc9CachedCCWEEES5_NS7_5utils11PointerHashIS3_EEN14dense_hash_mapIS5_S9_SD_NS5_14EqualsComparerINS0_8equal_toIS4_EEEENS0_9allocatorISA_EEE9SelectKeyESI_SK_E16reset_thresholdsEv
nHi:__ZL63String_t_CustomAttributesCacheGenerator_String_Split_m394273024P21CustomAttributesCache
KLc:__ZN2UI11CanvasGroup23VirtualRedirectTransferER19StreamedBinaryWriteILb0EE
TYg:_InternalEnumerator_1_get_Current_m4083613828_gshared
j8h:__ZN6il2cpp2os4File11GetStdErrorEv
hUh:_TextGenerator_INTERNAL_CALL_Populate_Internal_cpp_m106350432
Slh:_UnityAction__ctor_m3825983746
Ulc:__ZN8GUIState8EndOnGUIEv
GHf:_UnicodeEncoding_GetString_m542738941
SHc:_UNITY_TT_Get_VMetrics
Dse:_Path_InsecureGetFullPath_m2635272425
oGd:_Enumerator_Clone_m1124749523
HMd:_DateTime_System_IConvertible_ToUInt32_m1363211018
_uh:_Quaternion_ToString_m1042358501
rCf:_RuntimeMethodHandle__ctor_m1162528746
hTh:_Predicate_1__ctor_m3243601712_gshared
iRe:_Enumerator_Dispose_m3300818037_AdjustorThunk
AOe:_List_1_AsReadOnly_m4108578222_gshared
IXc:_DSA__ctor_m613430209
dYd:_SetPropertyUtility_SetStruct_TisSingle_t2076509932_m3849235084_gshared
aia:__ZN7Texture21GetMasterTextureLimitEv
GWb:__Z12CanAddScriptR10GameObject17ScriptingClassPtrPS1_S2_
thi:__ZN6il2cpp2vm10Reflection12HasAttributeEP12Il2CppObjectP11Il2CppClass
s2c:_X509Certificate_GetExpirationDateString_m2351894475
mZ:__ZN9ShaderLabL25StaticInitializeShaderLabEPv
NMg:_Dictionary_2_ContainsKeyValuePair_m3818021458_gshared
U:Math_max
rZe:_Collection_1_System_Collections_IList_Insert_m1511106741_gshared
X2i:__ZL93Mesh_t1356156583_CustomAttributesCacheGenerator_Mesh_GetAllocArrayFromChannelImpl_m1559282939P21CustomAttributesCache
qPh:__ZL24UnresolvedVirtualCall_92P12Il2CppObjectPK10MethodInfo
U6h:_il2cpp_class_get_methods
Gse:_Path_CanonicalizePath_m383914732
T3g:_Enumerator_System_Collections_IEnumerator_get_Current_m1631145297_gshared
msb:__Z18Transfer_BlittableI24GenerateTypeTreeTransferLb0EN4math12int2_storageEEvRK29SerializationCommandArgumentsR31RuntimeSerializationCommandInfo
yAd:_ArrayList_Synchronized_m2395071980
evi:__ZN6il2cpp2os6Thread16GetCurrentThreadEv
VIi:__ZL81RuntimeArray_CustomAttributesCacheGenerator_Array_SetValue_m169741241____indices1P21CustomAttributesCache
y6b:__ZN10GameObject13ComponentPair15SetComponentPtrEPN5Unity9ComponentE
cye:_UnexceptionalStreamWriter_Write_m3206913035
h0b:__Z13RegisterClassI10MeshFilterEvv
pFa:__ZN10TagManager8TransferI19StreamedBinaryWriteILb0EEEEvRT_
Yab:__ZN11PreloadData23VirtualRedirectTransferER18StreamedBinaryReadILb0EE
z0a:__ZN13sorted_vectorI4PPtrI11SpriteAtlasENSt3__24lessIS2_EE13stl_allocatorIS2_L18MemLabelIdentifier1ELi16EEE21sort_clear_duplicatesEv
Hz:__Z17dynamic_pptr_castIP10MonoScript6ObjectET_RK4PPtrIT0_E
FEf:_DESTransform_ProcessBlock_m2826669227
sne:_Int16_CompareTo_m3493496879
M3i:__ZL56RenderTexture_t2666733923_CustomAttributesCacheGeneratorP21CustomAttributesCache
W5i:__ZL56ColorWriteMask_t926634530_CustomAttributesCacheGeneratorP21CustomAttributesCache
s$a:__ZN6Sprite17MainThreadCleanupEv
g$i:__ZL56OidCollection_t3790243618_CustomAttributesCacheGeneratorP21CustomAttributesCache
GTi:__ZL61SignatureDescription_t89145500_CustomAttributesCacheGeneratorP21CustomAttributesCache
$Xg:_InternalEnumerator_1_MoveNext_m3389738333_AdjustorThunk
IK:__ZN10AudioMixer14UpdateMuteSoloEv
NJb:__Z17GetMonoManagerPtrv
URe:_Stack_1_System_Collections_ICollection_get_SyncRoot_m3151629354_gshared
tEa:__ZN9Transform35SetLocalPositionWithoutNotificationERKN4math7_float3Ey
pvg:_MaskableGraphic_UnityEngine_UI_IClippable_get_gameObject_m954171032
Si:_JS_Eval_ClearTimeout
Pga:__ZN7ApiGLES16SetPatchVerticesEi
Ave:_MonoIOStat_t1621921065_marshal_pinvoke
JBa:__ZN10MemoryFileC2E18MemLabelIdentifierP14MemoryFileData14FilePermission
dyf:_TrackingServices_NotifyUnmarshaledObject_m1794048369
ZXh:__ZN6il2cpp2vm5Class20FromGenericParameterEPK22Il2CppGenericParameter
PRi:__ZL59RemotingServices_t2399536837_CustomAttributesCacheGeneratorP21CustomAttributesCache
uU:__ZN19CloudServiceHandler11FlushEventsEv
f7:__ZN15GlobalCallbacksC2Ev
I3d:_Array_InternalArray__set_Item_TisLabelFixup_t4090909514_m565370771_gshared
zAi:_GC_print_static_roots
izc:_UNITY_FT_New_Memory_Face
o1i:__ZL99GameObject_t1756533147_CustomAttributesCacheGenerator_GameObject_GetComponentInChildren_m1720983699P21CustomAttributesCache
ZZi:__ZL74X509Crl_t1699034837_CustomAttributesCacheGenerator_U3CU3Ef__switchU24map13P21CustomAttributesCache
PBf:_SerializationEntry__ctor_m1619256036_AdjustorThunk
axc:__ZN20TextRenderingPrivate21TextMeshGeneratorImpl5FlushEv
S3c:__Z15CastclassSealedP12Il2CppObjectP11Il2CppClass
G$b:__ZN15ApplicationInfo14GetSandboxTypeEv
k6f:__Z41RuntimeInvoker_TypeAttributes_t2229518203PFvvEPK10MethodInfoPvPS4_
nqb:__Z18Transfer_BlittableI17RemapPPtrTransferLb1EhEvRK29SerializationCommandArgumentsR31RuntimeSerializationCommandInfo
xvi:__ZNSt3__26vectorIjNS_9allocatorIjEEE26__swap_out_circular_bufferERNS_14__split_bufferIjRS2_EE
yVb:__ZN16ReflectionProbes40UpdateRealtimeReflectionProbesTimeslicedEv
FJh:_ListPool_1_Get_m529219189_gshared
qpi:__ZNSt3__26__treeINS_12__value_typeIP24Il2CppReflectionAssemblyPvEENS_19__map_value_compareIS3_S5_NS_4lessIS3_EELb1EEENS_9allocatorIS5_EEE16__insert_node_atEPNS_16__tree_node_baseIS4_EERSF_SF_
gYf:_MethodBuilder_GetBaseDefinition_m774166361
Yzf:_FormatterConverter__ctor_m3958982477
$7a:__ZNK30RuntimeInitializeOnLoadManager22GetTypeVirtualInternalEv
E0h:__ZN15dense_hashtableINSt3__24pairIK10KeyWrapperIN6il2cpp5utils13dynamic_arrayIPK10Il2CppTypeLj4EEEEPFvvEEESA_NS3_8metadata19Il2CppSignatureHashEN14dense_hash_mapISA_SD_SG_NSA_14EqualsComparerINSF_22Il2CppSignatureCompareEEENS0_9allocatorISE_EEE9SelectKeyESK_SM_E12resize_deltaEjj
x3b:__ZN16ReflectionProbes15InitializeClassEv
OCi:__ZN6il2cpp5utils5MatchENSt3__212basic_stringIcNS1_11char_traitsIcEENS1_9allocatorIcEEEEjRKS7_j
fAc:_UNITY_FT_Destroy_Class_psnames_module_class
T1h:__ZNK15dense_hashtableINSt3__24pairIK10KeyWrapperIPK11Il2CppClassEPKcEES6_N6il2cpp5utils11PointerHashIS3_EEN14dense_hash_mapIS6_S9_SE_NS6_14EqualsComparerINS0_8equal_toIS5_EEEENS0_9allocatorISA_EEE9SelectKeyESJ_SL_E12test_deletedEj
vbh:_MRUList_Evict_m2430323183
z1e:_ReadOnlyCollection_1_System_Collections_Generic_ICollectionU3CTU3E_Remove_m1060547576_gshared
Eig:__Z68RuntimeInvoker_Boolean_t3825574718_Rect_t3681755626_SByte_t454417549PFvvEPK10MethodInfoPvPS4_
e8d:_Array_InternalArray__get_Item_TisRuntimeObject_m371871810_gshared
Rxe:_NullTextWriter_Write_m2306984725
Nz:__ZN8Animator13BatchedFKPassERK13dynamic_arrayIP14PlayableOutputLj4EE
Vgf:_RecordProtocol_ProcessChangeCipherSpec_m3233959862
kld:_Graphic_set_raycastTarget_m1229173591
Z5d:_Array_Sort_TisVector4_t2243707581_m474199742_gshared
V3:__ZN13RuntimeStaticINSt3__23mapIN4core12basic_stringIcNS2_20StringStorageDefaultIcEEEES6_NS0_4lessIS6_EE13stl_allocatorINS0_4pairIKS6_S6_EEL18MemLabelIdentifier13ELi16EEEELb0EE13StaticDestroyEPv
Mxe:_TextWriter_Write_m576684782
Qj:_glIsVertexArray
XBa:__ZN25SingleBlockMemoryFileDataC2E18MemLabelIdentifierPvjb
Dva:__ZN5Unity9Component8TransferI18StreamedBinaryReadILb0EEEEvRT_
ea:invoke_fff
qCg:_Text_get_fontSize_m3105730761
kvj:b14
kgf:_TlsServerHello_Update_m1740270635
UKc:__ZN2UI6Canvas17MainThreadCleanupEv
lka:__ZN6prcoreL12RemapGenericI17TexFormatARGB155517TexFormatRGBA8888EEvPKNS_9InnerInfoE
Yyg:_ScrollRect_Rebuild_m3423824761
EOe:_List_1_Find_m3862454845_gshared
kbh:_MatchCollection_get_Item_m2609281578
jsa:__ZN7ApiGLES13CreateProgramEv
ZKa:__ZN11HaloManager7AddHaloEv
AIf:_UTF8Encoding__ctor_m100325490
pia:__ZN4crnd12crn_unpackerD2Ev
VBg:_StencilMaterial_ClearAll_m1372779118
ak:_emscripten_glTexImage2D
Iwf:_ObjRefSurrogate_SetObjectData_m1873902916
DHc:_tt_driver_class_pic_init
f_:__ZN18ScriptingArguments9AddStringEPKc
NAi:_setup_header
ndg:__Z99RuntimeInvoker_RuntimeObject_DateTime_t693205669_Nullable_1_t1693325264_RuntimeObject_RuntimeObjectPFvvEPK10MethodInfoPvPS4_
E$e:_ReadOnlyCollection_1_System_Collections_IList_get_IsReadOnly_m1367736517_gshared
asj:runPostSets
ldj:__ZL93AxisEventData_t1524870173_CustomAttributesCacheGenerator_AxisEventData_set_moveDir_m254243794P21CustomAttributesCache
tja:__ZL23stbir__resize_arbitraryPvPKviiiS_iiiffffPfiij14stbir_datatype12stbir_filterS4_10stbir_edgeS5_16stbir_colorspace
wKe:_List_1_System_Collections_IList_Insert_m848656350_gshared
Gsb:__Z18Transfer_BlittableI24GenerateTypeTreeTransferLb1E8Vector4fEvRK29SerializationCommandArgumentsR31RuntimeSerializationCommandInfo
Zoe:_Int16_ToString_m3971652088_AdjustorThunk
lk:_pthread_detach
F3h:__ZN6il2cpp2vm19SocketPollingThread7RunLoopEv
asf:_X509ExtensionEnumerator_Reset_m3200687545
awf:_MethodDictionary_AllocInternalProperties_m3261295876
V6b:__ZN15DirectorManager20ScheduleGraphDestroyERK14HPlayableGraph
yBb:__ZNSt3__213__stable_sortIRN10vector_mapI17ScriptingClassPtrPKN5Unity4TypeENS_4lessIS2_EENS_9allocatorINS_4pairIS2_S6_EEEEE13value_compareENS_11__wrap_iterIPSB_EEEEvT0_SJ_T_NS_15iterator_traitsISJ_E15difference_typeEPNSM_10value_typeEi
w$i:__ZL77U3CPrivateImplementationDetailsU3E_t1486305139_CustomAttributesCacheGeneratorP21CustomAttributesCache
lfb:__ZN9ShaderLab25SerializedTextureProperty8TransferI24GenerateTypeTreeTransferEEvRT_
S5e:_Comparison_1_Invoke_m2645957248_gshared
NCj:_emscripten_glIsShader__wrapper
lfi:__ZN6il2cpp2gc19AppendOnlyGCHashMapINSt3__24pairIPK14Il2CppAssemblyP11Il2CppClassEEP24Il2CppReflectionAssembly17ReflectionMapHashIS9_ENS2_8equal_toIS9_EEEC2Ev
bDc:_tt_cmap14_char_next
jOi:__ZL69AssemblyTrademarkAttribute_t3740556705_CustomAttributesCacheGeneratorP21CustomAttributesCache
mda:__ZN13GfxDeviceGLES28GetNativeVertexBufferPointerEP9GfxBuffer
Owa:__ZN11NamedObject8TransferI18StreamedBinaryReadILb0EEEEvRT_
era:__ZNK17GPUSkinPoseBuffer12GetBoneCountEv
GBf:_DelegatePInvokeWrapper_CallbackHandler_t362827733
VYi:__ZL59ResolveEventArgs_t1859808873_CustomAttributesCacheGeneratorP21CustomAttributesCache
Ini:__ZNK15dense_hashtableINSt3__24pairIK10KeyWrapperIP14Il2CppIUnknownEjEES5_N6il2cpp5utils11PointerHashIS3_EEN14dense_hash_mapIS5_jSB_NS5_14EqualsComparerINS0_8equal_toIS4_EEEENS0_9allocatorIS7_EEE9SelectKeyESG_SI_E12test_deletedEj
o_f:_EventInfo_get_MemberType_m3337516651
Wsc:__Z18Transfer_BlittableI8JSONReadLb1EyEvRK29SerializationCommandArgumentsR31RuntimeSerializationCommandInfo
Ik:_emscripten_glMatrixMode
fs:__ZN8Animator23VirtualRedirectTransferER18StreamedBinaryReadILb0EE
ONi:__ZL93TypeBuilder_t3308873219_CustomAttributesCacheGenerator_TypeBuilder_GetConstructors_m774120094P21CustomAttributesCache
Qte:_NotSupportedException__ctor_m836173213
swf:_MethodReturnDictionary__ctor_m756139344
qR:__ZN11UnityEngine15CloudWebService14DataDispatcher16PrepareDataBlockERNS0_16SessionContainerE
Msa:__ZN18GfxFramebufferGLES5ClearE13GfxClearFlagsRK10ColorRGBAffib
DPe:_List_1_GetIndex_m2513359832_gshared
ocg:__Z52RuntimeInvoker_Single_t2076509932_Double_t4078015681PFvvEPK10MethodInfoPvPS4_
bAb:__ZL26Transfer_SimpleNativeClassI18StreamedBinaryReadILb0EE10RectOffsetLb0EEvRK29SerializationCommandArgumentsR31RuntimeSerializationCommandInfo
cAc:_UNITY_ft_destroy_default_module_classes
_He:_List_1_CheckMatch_m1772343151_gshared
AMb:__ZL12DepthPassJobPN21GfxDeviceAsyncCommand10ArgScratchEPKNS_3ArgE
Mdb:__ZNSt3__26vectorIN9ShaderLab20SerializedSubProgram16TextureParameterENS_9allocatorIS3_EEE6assignINS_11__wrap_iterIPS3_EEEENS_9enable_ifIXaasr21__is_forward_iteratorIT_EE5valuesr16is_constructibleIS3_NS_15iterator_traitsISC_E9referenceEEE5valueEvE4typeESC_SC_
roc:__ZN5Unity9rapidjson6WriterI16TempBufferWriterNS0_4UTF8IcEES4_13JSONAllocatorE11WriteDoubleEd
ore:_IntPtr_Equals_m1214967011_AdjustorThunk
wNe:_List_1_Add_m3591975577_gshared
Tna:__ZN14GfxDeviceStats16CopyAllDrawStatsERKS_
I0b:__Z13RegisterClassI19LowerResBlitTextureEvv
rdj:__ZL100PointerEventData_t1599784723_CustomAttributesCacheGenerator_U3CpointerPressRaycastU3Ek__BackingFieldP21CustomAttributesCache
Lm:FUNCTION_TABLE_iiiiiiiiiiii
$Dh:_GUIUtility_Internal_GetPixelsPerPoint_m1075452981
iKa:__ZN16GraphicsSettingsD0Ev
sZb:__Z29StdTemplateConversionFunctionIshEbPvR14SafeBinaryRead
Vzj:_pthread_mutex_init__wrapper
n:cttz_i8
Mzc:_UNITY_FT_GlyphLoader_Add
_Ug:_InternalEnumerator_1_System_Collections_IEnumerator_get_Current_m1004764375_AdjustorThunk
Skh:_Display_FireDisplaysUpdated_m2197288612
tId:_DateTimeFormatInfo_get_FullDateTimePattern_m2607507656
Kgf:_HttpsClientStream_RaiseServerCertificateValidation_m3356770426
Zwh:_RectTransform_INTERNAL_set_anchorMin_m3893342226
p6d:_Array_swap_TisUIVertex_t1204258818_TisUIVertex_t1204258818_m1163375424_gshared
Fl:_emscripten_glViewport
bxi:__ZN6il2cpp6icalls8mscorlib6System15MonoCustomAttrs17IsDefinedInternalEP12Il2CppObjectP20Il2CppReflectionType
VMa:__ZN4Mesh21UnswizzleVertexColorsEb
k8:__ZN30dense_hashtable_const_iteratorINSt3__24pairIKN4core12basic_stringIcNS2_20StringStorageDefaultIcEEEEP11AssetBundleEES6_20StringHash32FunctionIS6_EN14dense_hash_mapIS6_S9_SC_NS0_8equal_toIS6_EENS0_9allocatorISA_EEE9SelectKeyESF_SH_EppEv
$ff:_TlsServerSettings_set_CertificateTypes_m264196087
jWg:_InternalEnumerator_1__ctor_m4150855019_gshared
JNd:_DateTime_ToString_m2276663647_AdjustorThunk
AHc:_cff_parse_font_bbox
Qcc:__Z35Application_Get_Custom_PropIsEditorv
TP:__Z41Register_UnityEngine_AudioSource_set_mutev
t6a:__ZN14PlayerSettings23VirtualRedirectTransferER18StreamedBinaryReadILb0EE
wVd:_Array_get_swapper_TisCustomAttributeTypedArgument_t1498197914_m2780757375_gshared
iCe:_KeyValuePair_2__ctor_m3201181706_AdjustorThunk
QFi:__ZN6il2cpp2os5Event5ResetEv
W_e:_ReadOnlyCollection_1_System_Collections_IList_Insert_m1130110335_gshared
QKh:_AesManaged__ctor_m2322442838
Xpi:__ZN6il2cpp8metadata15GenericMetadata17InflateParametersEPK13ParameterInfohPK20Il2CppGenericContextb
Dqe:_Int64_System_IConvertible_ToUInt32_m850395426_AdjustorThunk
l$:__ZN18AwakeFromLoadQueue28InvokePersistentManagerAwakeEPNS_4ItemEj17AwakeFromLoadMode
dIa:__ZN6Camera13AwakeFromLoadE17AwakeFromLoadMode
uZc:_HMACSHA512__ctor_m2390736870
_x:__ZNK17AnimationPlayable27GetNextCompatibleDescendantEi
Pwa:__ZN4PPtrI6SpriteE8TransferI18StreamedBinaryReadILb0EEEEvRT_
pWf:_TypeBuilder_GetInterfaces_m1818658502
soe:_NumberFormatter_AppendIntegerString_m868842252
$6e:_BigInteger_op_Equality_m2683055762
WEb:__Z25SetNeedToPerformRenderingb
M0f:_MonoMethod_GetPseudoCustomAttributes_m466965107
Ndh:__ZN21InterfaceFuncInvoker0IP19LinkRef_t2090853131E6InvokeEjP11Il2CppClassP12Il2CppObject
BDa:__ZN10GameObjectD2Ev
PMb:__ZN14qsort_internal30FindAndMovePivotToLastPositionIP15RODataDepthPassi17ROSorterDepthPassEEvT_S4_T0_T1_
Uxh:_ResourceRequest_t2560315377_marshal_pinvoke
UEg:_Enumerator_System_Collections_IDictionaryEnumerator_get_Value_m3005608231_gshared
eOh:__ZL24UnresolvedVirtualCall_26P12Il2CppObjectS0_iiPK10MethodInfo
Gug:_MaskUtilities_NotifyStencilStateChanged_m1527407683
l8f:__Z94RuntimeInvoker_Void_t1841601450_RuntimeObject_Int32_t2071877448_RuntimeObject_SByte_t454417549PFvvEPK10MethodInfoPvPS4_
FUb:__ZN12CullingGroup10SendEventsEPK17CullingGroupEventj
jee:_DSAManaged_GenerateKeyPair_m2711647034
_Ya:__ZThn32_NK8Renderer8GetLayerEv
B0d:_Array_InternalArray__ICollection_Add_TisResourceCacheItem_t333236149_m1151081240_gshared
isg:__Z39RuntimeInvoker_RaycastHit2D_t4063908774PFvvEPK10MethodInfoPvPS4_
f2e:_ReadOnlyCollection_1_System_Collections_Generic_ICollectionU3CTU3E_get_IsReadOnly_m2197226755_gshared
YJd:_Convert_ToInt32_m2209788057
Voi:__ZN30dense_hashtable_const_iteratorINSt3__24pairIK10KeyWrapperINS1_IPKcS4_EEEiEES6_24NamespaceAndNamePairHashN14dense_hash_mapIS6_iS9_NS6_14EqualsComparerI26NamespaceAndNamePairEqualsEENS0_9allocatorIS8_EEE9SelectKeyESD_SF_E30advance_past_empty_and_deletedEv
qzf:_SoapServices_GetXmlTypeForInteropType_m3821579913
ZLh:_EqualityComparer_1_System_Collections_IEqualityComparer_Equals_m3601790950_gshared
MAj:_emscripten_glTexParameterfv__wrapper
Qmb:__Z18Transfer_BlittableI14SafeBinaryReadLb1E9BoundsIntEvRK29SerializationCommandArgumentsR31RuntimeSerializationCommandInfo
L7h:_il2cpp_method_get_param_count
sac:__ZN10systeminfo19ISOToSystemLanguageERN4core12basic_stringIcNS0_20StringStorageDefaultIcEEEE
eei:__ZNK15dense_hashtableINSt3__24pairIK10KeyWrapperINS1_IPK12PropertyInfoP11Il2CppClassEEEjEES9_17ReflectionMapHashIS8_EN14dense_hash_mapIS9_jSD_NS9_14EqualsComparerINS0_8equal_toIS8_EEEENS0_9allocatorISB_EEE9SelectKeyESI_SK_E3endEv
lnd:_HorizontalOrVerticalLayoutGroup_get_childForceExpandWidth_m227100883
Vig:__Z34RuntimeInvoker_LogType_t1559732862PFvvEPK10MethodInfoPvPS4_
q$i:__ZL68Uri_t19570940_CustomAttributesCacheGenerator_U3CU3Ef__switchU24map15P21CustomAttributesCache
$Dc:_ps_dimension_done
ufd:_LayoutRebuilder_MarkLayoutForRebuild_m640589351
IKc:__Z46Register_UnityEngine_TextGenerator_Dispose_cppv
add:_PointerEventData_get_pressEventCamera_m724559964
i3c:_String_IndexOfUnchecked_m3356721554
QXa:__ZN16LightmapSettings8TransferI14SafeBinaryReadEEvRT_
H9:__ZN17BufferManagerGLES13ReleaseBufferEP14DataBufferGLES
Tsc:__Z18Transfer_BlittableI8JSONReadLb1EjEvRK29SerializationCommandArgumentsR31RuntimeSerializationCommandInfo
Thj:__ZL63ScrollRect_t1199013257_CustomAttributesCacheGenerator_m_InertiaP21CustomAttributesCache
arh:_PKCS12_Decrypt_m1557069392
ICg:_VertexHelper_AddUIVertexQuad_m280792808
Knf:_WebHeaderCollection_ToString_m1246460752
yWg:_InternalEnumerator_1_System_Collections_IEnumerator_get_Current_m2842514953_AdjustorThunk
iRh:__ZL25UnresolvedVirtualCall_192P12Il2CppObject19DateTime_t693205669S1_PK10MethodInfo
Zo:stackSave
uTc:__ZN5Unity9rapidjson15GenericDocumentINS0_4UTF8IcEE13JSONAllocatorNS0_12CrtAllocatorEE6StringEPKcjb
sEc:_ps_dimension_end
Hgc:__Z41Register_UnityEngine_Mesh_Internal_Createv
Clb:__ZN16MemoryFileSystem5TouchER13FileEntryData
Vpi:__ZNK15dense_hashtableI10KeyWrapperIP18Il2CppGenericClassES3_N6il2cpp8metadata22Il2CppGenericClassHashEN14dense_hash_setIS3_S6_NS3_14EqualsComparerINS5_25Il2CppGenericClassCompareEEENSt3__29allocatorIS3_EEE8IdentityESA_SD_E12test_deletedERK30dense_hashtable_const_iteratorIS3_S3_S6_SF_SA_SD_E
$Yh:__ZN6il2cpp2vm5Class14GetNestedTypesEP11Il2CppClassPPv
KZc:_MACTripleDES_Initialize_m1318099802
O9e:_MD5SHA1_VerifySignature_m507888141
oxd:_Byte_System_IConvertible_ToChar_m4188836679
Uoe:_NumberFormatter_InitDecHexDigits_m2036076025
xFg:_Enumerator_get_CurrentKey_m3839846791_AdjustorThunk
fWb:__ZN6Camera9SetAspectEf
Zhd:_ColorTween_get_ignoreTimeScale_m641454126_AdjustorThunk
va:invoke_viiffiii
d$e:_ReadOnlyCollection_1_Contains_m1800950533_gshared
Fej:__ZL79TouchInputModule_t2561058385_CustomAttributesCacheGenerator_m_ForceModuleActiveP21CustomAttributesCache
bCj:_emscripten_glBindVertexArray__wrapper
Hlg:__Z52RuntimeInvoker_Vector2_t2243707579_Int32_t2071877448PFvvEPK10MethodInfoPvPS4_
q9e:_MD4__ctor_m2366413460
xMg:_Dictionary_2_InitArrays_m435313205_gshared
$E:__ZN10ObjectPoolIN4FMOD3DSPENS0_4DSPIEE7GetFreeEi
BEa:__ZN9Transform37InitializeTransformHierarchyRecursiveER18TransformHierarchyRii
Y1b:__Z34DefaultPrepareDispatchBoundsUpdateR13RendererScene18MemLabelIdentifier
lld:_Graphic_get_useLegacyMeshGeneration_m1366444625
Dsa:__ZN26SinglePassStereoSupportExt23SetupStereoMatrixParamsE21MonoOrStereoscopicEye24BuiltinShaderMatrixParamRK10Matrix4x4f
Cgj:__ZL65InputField_t1631627530_CustomAttributesCacheGenerator_m_InputTypeP21CustomAttributesCache
yce:_ModulusRing_Pow_m1137250399
$0g:_InternalEnumerator_1_MoveNext_m2410670600_AdjustorThunk
rP:__Z46AudioListener_CUSTOM_GetNumExtensionPropertiesP12Il2CppObject
Ppf:_X509Chain_Build_m2341271288
_La:__ZN17MeshRenderingData4InitEP4MeshS1_iP15SharedGfxBufferS3_
k1e:_ReadOnlyCollection_1_System_Collections_ICollection_get_SyncRoot_m2779904122_gshared
ZQg:_EqualityComparer_1_System_Collections_IEqualityComparer_Equals_m1682986002_gshared
VDd:_Hashtable__cctor_m2952659675
ckj:__ZL77LayoutUtility_t4076838048_CustomAttributesCacheGenerator_U3CU3Ef__amU24cache4P21CustomAttributesCache
_pb:__ZN15SerializeTraitsI13dynamic_arrayIN4math12int3_storageELj4EEE19ResizeSTLStyleArrayERS3_i
z3c:_Evidence_get_HostEvidenceList_m2095478124
kjc:__Z57Register_UnityEngine_Transform_INTERNAL_set_localPositionv
Tcf:_Context_Clear_m4000337070
Cda:__ZN13GfxDeviceGLES26SetRandomWriteTargetBufferEi15ComputeBufferID
Auf:_IntervalCollection_Normalize_m538796191
mIb:__ZZ23InitPlayerLoopCallbacksvEN49EarlyUpdateResetFrameStatsAfterPresentRegistrator7ForwardEv
tGd:_Console_SetEncodings_m342145566
b4i:__ZL77Object_t1021602117_CustomAttributesCacheGenerator_Object_get_name_m3369637820P21CustomAttributesCache
cld:_FontUpdateTracker_UntrackText_m3827316510
gdi:__ZN6il2cpp2gc19AppendOnlyGCHashMapINSt3__24pairIPK11Il2CppImageP11Il2CppClassEEP22Il2CppReflectionModule17ReflectionMapHashIS9_ENS2_8equal_toIS9_EEE10CopyValuesEPv
yBh:_Vector2_get_sqrMagnitude_m593717298_AdjustorThunk
s8d:_Array_InternalArray__get_Item_TisSingle_t2076509932_m1495809753_gshared
NTh:_Font_get_fontSize_m3125470578
cac:__ZNK11ICallString6ToUTF8Ev
xeh:_CaptureAssertion_get_Alternate_m2729005740
Syi:_GC_number_stack_black_listed
Vni:__ZN24dense_hashtable_iteratorINSt3__24pairIK10KeyWrapperIP14Il2CppIUnknownEjEES5_N6il2cpp5utils11PointerHashIS3_EEN14dense_hash_mapIS5_jSB_NS5_14EqualsComparerINS0_8equal_toIS4_EEEENS0_9allocatorIS7_EEE9SelectKeyESG_SI_E30advance_past_empty_and_deletedEv
QMb:__ZNSt3__211__sift_downIR17ROSorterDepthPassP15RODataDepthPassEEvT0_S5_T_NS_15iterator_traitsIS5_E15difference_typeES5_
dTf:_Default_SelectMethod_m3081239996
MSa:__ZN18UnityPropertySheet11UnityTexEnvC2Ev
Jcc:__ZNSt3__214__split_bufferIPN9BlobWrite11TypeContextENS_9allocatorIS3_EEE10push_frontERKS3_
fA:__ZN8Animator17ApplyOnAnimatorIKEiRNS_11AnimatorJobE
F2:__ZN12FileAccessor4ReadEyyPvPy
URa:__ZN13dynamic_arrayI16ShaderKeywordSetLj4EE6insertEPS0_PKS0_S4_
jBb:__Z29Transfer_Blittable_ArrayFieldI18StreamedBinaryReadILb0EE11QuaternionfEvRT_R9ArrayInfoRK23StaticTransferFieldInfo
bwf:_MethodDictionary_IsOverridenKey_m3922224650
gFd:_SyncHashtable_Contains_m3042906549
mQe:_List_1_System_Collections_IList_set_Item_m4016273526_gshared
fsf:_X509KeyUsageExtension_CopyFrom_m931530012
DRh:__ZL25UnresolvedVirtualCall_213P12Il2CppObject40CustomAttributeTypedArgument_t1498197914PK10MethodInfo
HVb:__ZN13RenderTexture9SetHeightEi
Gt:__ZN7mecanim9animation17ClearMotionOutputEPNS0_18AnimationNodeStateE
XOa:__ZN16LevelGameManager8TransferI24GenerateTypeTreeTransferEEvRT_
uug:_LayoutUtility_U3CGetMinHeightU3Em__4_m1769295917
yjf:_SslStreamBase_Read_m1036897444
uwg:_RectMask2D_PerformClipping_m1232012832
hli:__ZN6il2cpp6icalls8mscorlib6System2IO6MonoIO17GetFileAttributesEP12Il2CppStringPi
lGg:_Transform_1_Invoke_m4020530914_gshared
ICc:_tt_cmap8_char_index
F_:__Z24scripting_class_get_name17ScriptingClassPtr
n4:__ZN13RuntimeStaticI15GUIEventManagerLb0EE13StaticDestroyEPv
ovi:__ZN6il2cpp2os6Thread15CurrentThreadIdEv
Hob:__Z29Transfer_Blittable_ArrayFieldI14SafeBinaryReadjEvRT_R9ArrayInfoRK23StaticTransferFieldInfo
ee:_emscripten_set_keydown_callback
EEd:_Enumerator_get_Value_m3684748062
qFa:__ZN19StreamedBinaryWriteILb0EE21TransferSTLStyleArrayINSt3__26vectorI17SortingLayerEntryNS2_9allocatorIS4_EEEEEEvRT_17TransferMetaFlags
MOf:_UInt32_Parse_m3371984903
N2:__ZN12FileAccessorC2Ev
Esh:_X509CertificateCollection_Compare_m1014334435
ZVe:_Collection_1_ClearItems_m1280157591_gshared
asg:__Z33RuntimeInvoker_TypeTag_t141209596PFvvEPK10MethodInfoPvPS4_
nch:_PatternLinkStack_GetCurrent_m2994645935
t5e:_Comparison_1__ctor_m2929820459_gshared
J5f:__Z59RuntimeInvoker_RuntimeObject_RuntimeObject_SByte_t454417549PFvvEPK10MethodInfoPvPS4_
lah:_AsyncResult__ctor_m1183194429
d6h:__ZN6il2cpp2vm7Runtime12GetConfigDirEv
yD:__ZN4PPtrI13MonoBehaviourE8TransferI18StreamedBinaryReadILb0EEEEvRT_
dwf:_MethodDictionary_set_Item_m3475146889
Qog:__Z71RuntimeInvoker_Int32_t2071877448_CustomAttributeNamedArgument_t94157543PFvvEPK10MethodInfoPvPS4_
pbj:__ZL54Tile_t429716126_CustomAttributesCacheGenerator_m_ColorP21CustomAttributesCache
VRi:__ZL62WellKnownObjectMode_t2630225581_CustomAttributesCacheGeneratorP21CustomAttributesCache
YCg:_Toggle_PlayEffect_m3950629415
u_d:_Array_IndexOf_TisRuntimeObject_m214763038_gshared
sIh:_UnityEvent_1_GetDelegate_m3917909024_gshared
pqg:__Z79RuntimeInvoker_Void_t1841601450_Int32_t2071877448_ParameterModifier_t1820634920PFvvEPK10MethodInfoPvPS4_
iDb:__Z39WriteQueueForTransferSignatureIntoCacheRK31TransferFunctionScriptingTraitsRK24TransferRequestSignature17ScriptingClassPtrR23CachedSerializationDataRb
W9a:__ZN13RenderManager18UpdateAllRenderersEv
pph:_Mesh_Clear_m239607636
RQc:__ZN22BaseUnityConnectClient30OnEnteringStatePausedOrStoppedEv
YXe:_Collection_1_System_Collections_ICollection_get_SyncRoot_m2157752542_gshared
Pdi:__ZN15dense_hashtableINSt3__24pairIK10KeyWrapperINS1_IPK12PropertyInfoP11Il2CppClassEEEjEES9_17ReflectionMapHashIS8_EN14dense_hash_mapIS9_jSD_NS9_14EqualsComparerINS0_8equal_toIS8_EEEENS0_9allocatorISB_EEE9SelectKeyESI_SK_E12resize_deltaEjj
Tt:__ZN7mecanim5human12HumanPoseAddERNS0_9HumanPoseERKS1_S4_
eWi:__ZL64AssemblyLoadEventArgs_t4233815743_CustomAttributesCacheGeneratorP21CustomAttributesCache
aXe:_Collection_1_IsFixedSize_m218241296_gshared
fEa:__Z24MergeTransformComponentsR9TransformS0_b
Z0i:__ZL98DebugLogHandler_t865810509_CustomAttributesCacheGenerator_DebugLogHandler_Internal_Log_m3333167788P21CustomAttributesCache
Zlj:_DelegatePInvokeWrapper_AudioConfigurationChangeHandler_t3743753033
yve:_MonoIO_get_PathSeparator_m2635828107
Bzf:_TypeInfo_get_TypeName_m1722081275
N0g:_InternalEnumerator_1_get_Current_m889125315_gshared
HAe:_MonoType_get_Name_m865859211
KUd:_CultureInfo__cctor_m2290268677
ISg:_ArrayReadOnlyList_1_System_Collections_IEnumerable_GetEnumerator_m3039869667_gshared
r9i:__ZL87AudioSource_t1135106623_CustomAttributesCacheGenerator_AudioSource_set_mute_m2903354555P21CustomAttributesCache
V6c:_String_Trim_m3982520224
Dyf:_RemotingConfiguration__cctor_m2129988840
rVe:_Collection_1_Insert_m44548038_gshared
D1g:_InternalEnumerator_1_MoveNext_m4175772187_AdjustorThunk
oaj:__ZL87GUIUtility_t3275770671_CustomAttributesCacheGenerator_U3CguiIsExitingU3Ek__BackingFieldP21CustomAttributesCache
dxi:__ZN6il2cpp2vm13ComObjectBase19GetRuntimeClassNameEPP15Il2CppHString__
lAb:__Z35Transfer_Blittable_FixedBufferFieldI18StreamedBinaryReadILb0EEyEvRK29SerializationCommandArgumentsR31RuntimeSerializationCommandInfo
Oj:_emscripten_glVertexAttribPointer
Krj:__ZNSt11logic_errorD0Ev
XLa:__ZNK20IntermediateRenderer12GetSceneMaskEv
X8a:__ZN14PreloadManager26UpdatePreloadingSingleStepENS_21UpdatePreloadingFlagsEi
e1c:_SHA512Managed_Initialize_m891287980
T3c:_SecurityException__ctor_m1484114982
S7g:_SinkProviderData_get_Children_m100594762
jth:_X509Crl_GetHashName_m183504634
bud:_Array_GetValue_m1507415734
lhc:__Z57Register_UnityEngine_RectTransform_INTERNAL_set_anchorMinv
cle:_Object_MemberwiseClone_m2655589444
h0e:_ReadOnlyCollection_1_System_Collections_IList_get_Item_m375043207_gshared
Uja:__ZN6prcoreL25inner_stretch_i8_bilinearEPKNS_9InnerInfoE
nbb:__ZL30RegisterFilteredObjectCallbackPP12Il2CppObjectiPv
bte:_DirectoryInfo_ToString_m4208086799
U0f:_MonoMethod_get_IsGenericMethod_m4276550811
KGg:_Transform_1_BeginInvoke_m3826027984_gshared
MR:__ZN11UnityEngine15CloudWebService16SessionContainer24GetSessionHeaderJsonDataERKN4core12basic_stringIcNS2_20StringStorageDefaultIcEEEERNS2_13StringBuilderE
_Id:_Decimal_op_Implicit_m2149927308
a4:__ZN13RuntimeStaticI21AssetReferenceStorageLb0EE13StaticDestroyEPv
Rsi:__ZN6il2cpp6icalls8mscorlib6System9AppDomain22InternalGetProcessGuidEP12Il2CppString
mFc:_cf2_builder_moveTo
Hee:_KeyPairPersistence_get_UseMachineKeyStore_m560802076
vSe:_Collection_1_CopyTo_m1840908033_gshared
$3g:_Enumerator_System_Collections_IDictionaryEnumerator_get_Entry_m345330700_AdjustorThunk
kAa:__ZNK17FileSystemHandler10IsReadOnlyERK13FileEntryData
X4h:__ZNSt3__214__split_bufferIP9FieldInfoRNS_9allocatorIS2_EEEC2EjjS5_
g9c:_AbstractEventData__ctor_m3586111519
btb:__Z18Transfer_BlittableI24GenerateTypeTreeTransferLb1EjEvRK29SerializationCommandArgumentsR31RuntimeSerializationCommandInfo
p5i:__ZL118AttributeHelperEngine_t958797062_CustomAttributesCacheGenerator_AttributeHelperEngine_GetRequiredComponents_m586474250P21CustomAttributesCache
l9e:_MD2Managed_Padding_m410163267
Cdi:__ZNK15dense_hashtableINSt3__24pairIK10KeyWrapperINS1_IPK11Il2CppImageP11Il2CppClassEEEjEES9_17ReflectionMapHashIS8_EN14dense_hash_mapIS9_jSD_NS9_14EqualsComparerINS0_8equal_toIS8_EEEENS0_9allocatorISB_EEE9SelectKeyESI_SK_E10test_emptyERK30dense_hashtable_const_iteratorISB_S9_SD_SM_SI_SK_E
rDg:_Toggle_UnityEngine_UI_ICanvasElement_get_transform_m4177274032
QLa:__ZN11ColorRGBA328TransferI14SafeBinaryReadEEvRT_
dFg:_Enumerator_Dispose_m401572848_AdjustorThunk
Jf:_emscripten_glClearDepth
F5b:__ZNK8GUILayer22GetTypeVirtualInternalEv
pUa:__ZN8Playable12SetPlayStateE9PlayState
l_a:__ZN14SafeBinaryRead21TransferSTLStyleArrayINSt3__26vectorIN15QualitySettings14QualitySettingENS1_9allocatorIS4_EEEEEEvRT_17TransferMetaFlags
s6d:_Array_swap_TisVector2_t2243707579_m3359959735_gshared
qte:_File_OpenText_m4058508963
U5a:__ZNSt3__26vectorINS_4pairIPKN5Unity4TypeE7Hash128EENS_9allocatorIS7_EEE8__appendEj
Czf:_WellKnownClientTypeEntry__ctor_m670594074
Pfj:__ZL61FontData_t2614388407_CustomAttributesCacheGenerator_m_MinSizeP21CustomAttributesCache
aRh:__ZL25UnresolvedVirtualCall_184P12Il2CppObject19DateTime_t693205669S1_PK10MethodInfo
qMd:_DateTime_System_IConvertible_ToSingle_m3927769066_AdjustorThunk
OGc:_cff_font_load
Sgf:_RecordProtocol_SendRecord_m2977889250
Zac:__Z13IsPathCreatedRKN4core12basic_stringIcNS_20StringStorageDefaultIcEEEE
zja:__ZL22stbir__encode_scanlineP11stbir__infoiPvPfiii
jag:__Z136RuntimeInvoker_Void_t1841601450_Byte_t3683104436_RuntimeObject_Int64U26_t763825331_ObjectU26_t597476745_SerializationInfoU26_t4051840202PFvvEPK10MethodInfoPvPS4_
Rvc:__ZN20QuadTreeNodeRenderer13StaticDestroyEPv
IS:__ZN11UnityEngine15CloudWebService20WebRequestRestClient5AbortEv
wXd:_Array_InternalArray__ICollection_Remove_TisUInt32_t2149682021_m4198326168_gshared
M1b:__ZN9Transform12CleanupClassEv
Q4f:__Z50RuntimeInvoker_Void_t1841601450_Double_t4078015681PFvvEPK10MethodInfoPvPS4_
SEh:_GUILayoutGroup_CalcWidth_m877887811
Rcf:_ClientContext_set_ClientHelloProtocol_m2246603449
szh:_Texture_Internal_GetHeight_m3235768354
Zga:__ZNSt3__26vectorIN9GfxDevice14SubPassActionsENS_9allocatorIS2_EEE26__swap_out_circular_bufferERNS_14__split_bufferIS2_RS4_EE
xrd:_U3CMouseDragOutsideRectU3Ec__Iterator1_MoveNext_m2845491958
Beb:__ZNSt3__26vectorIN9ShaderLab19SerializedSubShaderENS_9allocatorIS2_EEE26__swap_out_circular_bufferERNS_14__split_bufferIS2_RS4_EE
Mz:__ZN11UnityEngine9Animation33SetGenericTransformPropertyValuesERKNS0_30AnimatorGenericBindingConstantERKN7mecanim10ValueArrayEP9Transformy
s6f:__Z116RuntimeInvoker_RuntimeObject_RuntimeObject_Int32_t2071877448_RuntimeObject_RuntimeObject_RuntimeObject_RuntimeObjectPFvvEPK10MethodInfoPvPS4_
led:_StandaloneInputModule_IsModuleSupported_m623598506
kji:__ZN6il2cpp2vmL24thread_cleanup_on_cancelEPv
M4g:_ResourceReader_Close_m3256966401
wDf:_SByte_ToString_m4105923225_AdjustorThunk
IBf:_StreamingContext_t1417235061_marshal_pinvoke_cleanup
OUd:_CultureInfo_ConstructCurrentUICulture_m3363349599
yQf:_UInt64_CompareTo_m2422461804_AdjustorThunk
_Jh:_ListPool_1_Release_m1119005941_gshared
eAe:_MonoType_GetEvent_m4160342003
ewg:_RawImage_set_texture_m2400157626
jNh:_PrimeHelper_ToPrime_m1606935350_gshared
lMa:__Z30ProcessDynamicBatchGeometryJobP25DynamicVBOGeometryJobDataj
WQg:_EqualityComparer_1__ctor_m81618677_gshared
kNb:__ZNSt3__27__sort4IRNS_6__lessI11CulledLightS2_EEPS2_EEjT0_S6_S6_S6_T_
d9h:__ZN6il2cpp2vm14TypeNameParser26ParseArrayModifierOptionalEv
U9d:_MSCompatUnicodeTable_Level3_m260824928
_rd:_LayoutElement_OnEnable_m3478706401
W$:__Z26scripting_object_get_class18ScriptingObjectPtr
H6e:_Func_3__ctor_m3917225629_gshared
B8a:__ZNSt3__26vectorIN4core12basic_stringIcNS1_20StringStorageDefaultIcEEEE13stl_allocatorIS5_L18MemLabelIdentifier13ELi16EEE7reserveEj
aWh:_RectTransformUtility_GetTransposed_m1233793627
k1b:__ZNK28MonoBehaviourPropertyBinding15GenerateBindingERKN4core12basic_stringIcNS0_20StringStorageDefaultIcEEEEbRN11UnityEngine9Animation14GenericBindingE
Mne:_Int32_FindExponent_m3187554672
Tee:_KeyPairPersistence_Load_m1355205585
Kyg:_ScrollRect_get_horizontalScrollbarVisibility_m4152068235
Wpe:_Int32_ToString_m2960866144_AdjustorThunk
USh:_Predicate_1_Invoke_m3539717340_gshared
O5c:_Single_CompareTo_m2081476257_AdjustorThunk
wlj:_AudioExtensionManager_AddSpatializerExtension_m1881494443
nui:__ZN6il2cpp6icalls8mscorlib6System11Environment15internalGetHomeEv
xuj:dynCall_iiiiiiffiiiiiiiiiffffiiii
Iua:__ZNK5Unity9Component7GetNameEv
A5h:__ZNSt3__214__split_bufferIN6il2cpp6icalls8mscorlib6System12PropertyPairERNS_9allocatorIS5_EEEC2EjjS8_
uXi:__ZL79Convert_t2607082565_CustomAttributesCacheGenerator_Convert_ToUInt16_m2130758075P21CustomAttributesCache
pBf:__ZN21InterfaceFuncInvoker4IP12Il2CppObjectS1_P28SerializationInfo_t22898743028StreamingContext_t1417235061S1_E6InvokeEjP11Il2CppClassS1_S1_S3_S4_S1_
qYi:__ZL58IFormatProvider_t2849799027_CustomAttributesCacheGeneratorP21CustomAttributesCache
Zpg:__Z75RuntimeInvoker_Void_t1841601450_Int32_t2071877448_KeyValuePair_2_t888819835PFvvEPK10MethodInfoPvPS4_
gKh:_ObjectPool_1_Get_m3724675538_gshared
P_a:__ZN13ScreenManagerD0Ev
_A:__ZN7mecanim8skeleton26SkeletonPoseComputeGlobalQEPKNS0_8SkeletonEPKNS0_13SkeletonPoseTIN4math4trsXEEEPS7_ii
QTc:__ZN18UnityConnectClient19RegisterVRCallbacksEv
TKe:_List_1_GetEnumerator_m2672519407_gshared
P_b:__ZN10BootConfig4Data3SetEPKcjS2_j
AA:__ZN9BlobWrite8TransferI22OffsetPtrArrayTransferIiEEEvRT_PKc17TransferMetaFlags
yag:__Z82RuntimeInvoker_Boolean_t3825574718_SByte_t454417549_RuntimeObject_SByte_t454417549PFvvEPK10MethodInfoPvPS4_
E9d:_ContractionComparer_Compare_m314873025
prb:__Z18Transfer_BlittableI17RemapPPtrTransferLb1EjEvRK29SerializationCommandArgumentsR31RuntimeSerializationCommandInfo
mqe:_Int64_System_IConvertible_ToDouble_m638786774
EJ:__ZN4FMOD6System7releaseEv
IEd:_HashKeys_get_IsSynchronized_m4207641174
$ub:__Z18Transfer_BlittableI19StreamedBinaryWriteILb0EELb1E8BitFieldEvRK29SerializationCommandArgumentsR31RuntimeSerializationCommandInfo
i2:__Z18PathToAbsolutePathRKN4core12basic_stringIcNS_20StringStorageDefaultIcEEEE
weg:__Z44RuntimeInvoker_HashAlgorithmType_t1654661965PFvvEPK10MethodInfoPvPS4_
nDe:_Enumerator_MoveNext_m3078170540_AdjustorThunk
I1c:_SymmetricAlgorithm_get_Padding_m718051685
hCi:__ZN6il2cpp6icalls8mscorlib6System10Reflection16MonoPropertyInfo16GetTypeModifiersEPvb
IKh:_Action_Invoke_m3801112262
a5f:__Z79RuntimeInvoker_Decimal_t724701077_RuntimeObject_Int32_t2071877448_RuntimeObjectPFvvEPK10MethodInfoPvPS4_
bja:__ZL13BlitImageImplR14ImageReferenceiiRKS_NS_10ColorSpaceENS_8BlitModeEb
X6b:__ZN15DirectorManager17AcquireOutputNodeEv
IDb:__ZN10MonoScript23VirtualRedirectTransferER17RemapPPtrTransfer
rWi:__ZL76Convert_t2607082565_CustomAttributesCacheGenerator_Convert_ToChar_m541258017P21CustomAttributesCache
q4f:__Z64RuntimeInvoker_RuntimeObject_Int16_t4041245914_Int16_t4041245914PFvvEPK10MethodInfoPvPS4_
Cra:__ZN16GeometryJobTasks20ScheduleGeometryJobsER9GfxDevicePFvP15GeometryJobDataEPK22GeometryJobInstructionjb
KH:__ZN12AudioManager29ShutdownReinitializeAndReloadEv
Mqh:_NetscapeCertTypeExtension_Decode_m2210025005
qmg:__Z56RuntimeInvoker_Void_t1841601450_KeyValuePair_2_t38854645PFvvEPK10MethodInfoPvPS4_
Lzf:_BaseFixupRecord_DoFixup_m1821597450
aYh:__ZN15dense_hashtableINSt3__24pairIK10KeyWrapperIPK22Il2CppGenericParameterEP11Il2CppClassEES6_N6il2cpp5utils11PointerHashIS4_EEN14dense_hash_mapIS6_S9_SE_NS6_14EqualsComparerINS0_8equal_toIS5_EEEENS0_9allocatorISA_EEE9SelectKeyESJ_SL_E6insertERKSA_
ute:_FileLoadException__ctor_m1356374414
SGh:_InvokableCall_4_Invoke_m1140294390_gshared
Wbf:_TlsStream_Reset_m1504601050
ZFe:__ZN23InterfaceActionInvoker2IP23Int32U5BU5D_t3030399641iE6InvokeEjP11Il2CppClassP12Il2CppObjectS1_i
uga:__ZN14DataBufferGLES16RecreateWithDataEjPKv
dva:__Z29GetGlobalAllowNameConversionsv
oXb:__ZN8Material8SetColorEN9ShaderLab16FastPropertyNameERK10ColorRGBAf
h$f:_Module_GetCustomAttributes_m3581287913
VJi:__ZL67Type_t_CustomAttributesCacheGenerator_Type_IsSubclassOf_m2450899481P21CustomAttributesCache
tL:__ZN11AudioSource23VirtualRedirectTransferER18StreamedBinaryReadILb0EE
d4:__ZN21AssetReferenceStorageC2Ev
Gvb:__ZN10RectOffset8TransferI19StreamedBinaryWriteILb0EEEEvRT_
J_:__ZL41AssemblyNameMatchesWithOrWithoutExtensionPKcS0_
Zng:__Z53RuntimeInvoker_Boolean_t3825574718_Color32_t874517518PFvvEPK10MethodInfoPvPS4_
yoa:__ZN14GfxContextGLES43AddRenderSurfaceToDeferredFBOInvalidateListEPK17RenderSurfaceGLES
Mki:__ZN6il2cpp6icalls8mscorlib6System9Threading6Thread15Thread_internalEP12Il2CppThreadP14Il2CppDelegate
exa:__ZN11NamedObject23VirtualRedirectTransferER14SafeBinaryRead
WIi:__ZL74RuntimeArray_CustomAttributesCacheGenerator_Array_BinarySearch_m3522310993P21CustomAttributesCache
Clj:_AudioListener_GetNumExtensionProperties_m2652400521
azc:__ZNSt3__26vectorIN20TextRenderingPrivate8FontImpl13CharacterInfoE13stl_allocatorIS3_L18MemLabelIdentifier1ELi16EEE6insertENS_11__wrap_iterIPKS3_EERS9_
_xa:__ZN23PreloadManagerOperation6IsDoneEv
m6h:__ZN6il2cpp2vm7Runtime15InvokeWithThrowEPK10MethodInfoPvPS5_
yie:_X509Certificate_get_RawData_m3000055075
GYh:__ZNSt3__26vectorIPK10Il2CppTypeNS_9allocatorIS3_EEE21__push_back_slow_pathIRKS3_EEvOT_
M7b:__Z33GetHasChangedDeprecatedSystemMaskv
Fwi:__ZN6il2cpp5utils11StringUtils11Utf16ToUtf8ERKNSt3__212basic_stringIDsNS2_11char_traitsIDsEENS2_9allocatorIDsEEEE
Nrg:__Z30RuntimeInvoker_Link_t865133271PFvvEPK10MethodInfoPvPS4_
EEg:_Enumerator_VerifyState_m1165543189_AdjustorThunk
cNd:_DateTime_AddSeconds_m722082155_AdjustorThunk
XBd:_SynchronizedArrayListWrapper_CopyTo_m956887031
H2g:_Comparer_1__ctor_m1202126643_gshared
uab:__ZN21LightProbeProxyVolume18HasHardwareSupportEv
yVh:_CanvasRenderer_set_materialCount_m1703953120
jQb:__ZN26LightProbeProxyVolumeCacheC2ER13BatchRendererR15RenderLoopStats
Pja:__ZN6prcoreL31inner_stretch_argb8888_bilinearEPKNS_9InnerInfoE
bxb:__Z18Transfer_BlittableI18StreamedBinaryReadILb1EELb1E8BitFieldEvRK29SerializationCommandArgumentsR31RuntimeSerializationCommandInfo
p0i:__ZL84Behaviour_t955675639_CustomAttributesCacheGenerator_Behaviour_set_enabled_m602406666P21CustomAttributesCache
XAc:_UNITY_FT_Outline_Decompose
bff:_TlsClientCertificate_get_ClientCertificate_m3062440489
p3c:_StrongNamePublicKeyBlob_ToString_m3721281223
cBi:_GC_init_size_map
QVg:_InternalEnumerator_1_get_Current_m198513457_AdjustorThunk
e_g:_InternalEnumerator_1__ctor_m1240086835_AdjustorThunk
lJa:__Z20scripting_object_new17ScriptingClassPtr
Jle:_TextInfo__ctor_m2782608694
oRe:_Queue_1_System_Collections_ICollection_CopyTo_m772787461_gshared
Pbi:__ZN24dense_hashtable_iteratorINSt3__24pairIK10KeyWrapperINS1_IPK9FieldInfoP11Il2CppClassEEEjEES9_17ReflectionMapHashIS8_EN14dense_hash_mapIS9_jSD_NS9_14EqualsComparerINS0_8equal_toIS8_EEEENS0_9allocatorISB_EEE9SelectKeyESI_SK_E30advance_past_empty_and_deletedEv
Sle:_TextInfo_ToUpper_m299550697
drc:__ZN9JSONWrite8TransferI13dynamic_arrayI8BitFieldLj4EEEEvRT_PKc17TransferMetaFlags
fya:__ZN23PreloadManagerOperation21MustCompleteNextFrameEv
rld:_Graphic_OnRectTransformDimensionsChange_m1610753363
XKd:_Convert_ToUInt16_m3265369225
P:Math_exp
Lze:_MonoEnumInfo_get_Cache_m3551569711
Ao:FUNCTION_TABLE_iiifi
Fsi:__ZN6il2cpp2os5posix13PosixAutoLockD2Ev
IWd:_Array_InternalArray__ICollection_Contains_TisVector3_t2243707580_m3625701788_gshared
apa:__ZNSt3__26vectorINS_4pairIyP17VertexDeclarationEENS_9allocatorIS4_EEE6insertENS_11__wrap_iterIPKS4_EERS9_
l2f:_TypeFilter_BeginInvoke_m2395188690
$uc:__GLOBAL__sub_I_modules_physics2d_public_0_cpp
uJi:__ZL66RuntimeArray_CustomAttributesCacheGenerator_Array_Sort_m1999601238P21CustomAttributesCache
cRe:_Enumerator__ctor_m1424070651_AdjustorThunk
aFc:_cff_get_advances
FCb:__ZN13MonoBehaviour9SetScriptERK4PPtrI10MonoScriptE18ScriptingObjectPtr
yWd:_Array_InternalArray__ICollection_Contains_TisPlayableBinding_t2498078091_m4267109606_gshared
DAc:_UNITY_FT_Create_Class_sfnt_module_class
JCg:_Text_CalculateLayoutInputHorizontal_m1578553982
Ani:__ZNSt3__218uninitialized_copyIPNS_4pairIK10KeyWrapperIP14Il2CppIUnknownEjEES8_EET0_T_SA_S9_
LPd:_Decimal_IsZero_m3557909184_AdjustorThunk
Czd:_Char_ToString_m1401375624
SZc:_MD5CryptoServiceProvider__cctor_m3309191799
MCa:__ZNK10FileSystem16LastErrorMessageEv
wnh:_Logger_set_filterLogType_m3982626604
Ytf:_InterpreterFactory_get_NamesMapping_m3186583301
Iig:__Z74RuntimeInvoker_Vector2_t2243707579_Vector2_t2243707579_Vector2_t2243707579PFvvEPK10MethodInfoPvPS4_
PEe:_Enumerator_System_Collections_IEnumerator_Reset_m3052395060_gshared
u7e:_Kernel_DwordDivMod_m3728402123
WBb:__ZN13MonoBehaviour13AwakeFromLoadE17AwakeFromLoadMode
irb:__ZL26Transfer_SimpleNativeClassI17RemapPPtrTransfer8GradientLb1EEvRK29SerializationCommandArgumentsR31RuntimeSerializationCommandInfo
_7b:__ZN12CachedWriter9InitWriteER15CacheWriterBase
R6b:__Z21UnsignedInt64ToStringy
tIf:_UTF7Decoder__ctor_m549434986
o0g:_InternalEnumerator_1_get_Current_m1025321669_AdjustorThunk
Sph:_Object_t1021602117_marshal_pinvoke
wjc:__Z66Register_UnityEngine_Transform_INTERNAL_CALL_InverseTransformPointv
A6:__ZZN15DirectorManager15InitializeClassEvEN41FixedUpdateDirectorFixedUpdateRegistrator7ForwardEv
mXg:_InternalEnumerator_1_MoveNext_m2720582493_gshared
tth:_X509CrlEntry_get_RevocationDate_m1257876856
sth:_X509Crl_VerifySignature_m1390212587
Ssf:_Group__ctor_m4103922028
i4h:__ZNSt3__214__split_bufferI6pollfdRNS_9allocatorIS1_EEEC2EjjS4_
MBj:_glLinkProgram__wrapper
ejb:__ZN18ScriptingArguments8AddInt64Ex
xka:__ZN6prcoreL12RemapGenericI17TexFormatARGB888815TexFormatBGR888EEvPKNS_9InnerInfoE
Ljb:__ZN12HandlerChain4LockER13FileEntryData12FileLockMode
YZc:_MD5CryptoServiceProvider_ProcessFinalBlock_m1052610785
lCd:_BitArray_Set_m2878881714
rRh:__ZL25UnresolvedVirtualCall_201P12Il2CppObjectPK10MethodInfo
TUc:__ZN28UnityConnectScriptingClasses23CallSessionStateChangedEixxbP21ScriptingExceptionPtr
ume:_Guid_CompareTo_m2203922782_AdjustorThunk
$zg:_Selectable_get_colors_m3501193396
hoi:__ZN6il2cpp6icalls8mscorlib6System13Globalization11CultureInfo35construct_internal_locale_from_nameEP17Il2CppCultureInfoP12Il2CppString
qtb:__ZL22Transfer_ManagedObjectI24GenerateTypeTreeTransferLb1EEvRK29SerializationCommandArgumentsR31RuntimeSerializationCommandInfo
s4i:__ZL72SceneManager_t90660965_CustomAttributesCacheGenerator_activeSceneChangedP21CustomAttributesCache
tPi:__ZL55COMException_t1790481504_CustomAttributesCacheGeneratorP21CustomAttributesCache
ode:_ASN1_get_Count_m404940548
C9g:_ContextAttribute_Equals_m53324298
Wj:_emscripten_set_main_loop_timing
Jih:_Camera_ScreenToViewportPoint_m3458250415
IRf:_WeakReference_AllocateHandle_m1783929473
pga:__ZN14DataBufferGLES12RecordRenderEv
q5d:_Array_Sort_TisRuntimeObject_m3674422195_gshared
VWb:__ZN14ImageReference10FlipImageYEv
zIa:__Z32TransferEnumWithNameForceIntSizeI14SafeBinaryRead13TargetEyeMaskEvRT_RT0_PKc17TransferMetaFlags
Ylc:__Z14GetDefaultSkini
RUd:_CultureInfo_get_Name_m3316229893
UMd:_DateTime_get_Ticks_m310281298_AdjustorThunk
YE:__ZN4FMOD3DSP9setBypassEb
xZe:_Collection_1_System_Collections_IList_get_Item_m287847793_gshared
r_b:__Z19NormalizeWheelInputf
Esf:_CaptureCollection_CopyTo_m1982767892
tZb:__Z29StdTemplateConversionFunctionIsaEbPvR14SafeBinaryRead
QWd:_Array_InternalArray__ICollection_Remove_TisLink_t865133271_m1984184141_gshared
Uuc:__Z29Transfer_Blittable_ArrayFieldI8JSONReadhEvRT_R9ArrayInfoRK23StaticTransferFieldInfo
Hsd:_LayoutRebuilder_IsDestroyed_m3442208294
fEg:_Enumerator_VerifyState_m1547102902_AdjustorThunk
yFi:__ZN6il2cpp2os20ThreadLocalValueImpl8SetValueEPv
OJa:__ZN22RenderingCommandBuffer20CleanupCommandBufferEv
Lag:__Z165RuntimeInvoker_Void_t1841601450_UInt32U26_t2197289955_Int32_t2071877448_UInt32U26_t2197289955_Int32_t2071877448_Int32_t2071877448_Int32_t2071877448_Int32_t2071877448PFvvEPK10MethodInfoPvPS4_
Jqg:__Z99RuntimeInvoker_Void_t1841601450_CustomAttributeTypedArgumentU5BU5DU26_t4216645529_Int32_t2071877448PFvvEPK10MethodInfoPvPS4_
Jpc:__Z18Transfer_BlittableI9JSONWriteLb1EtEvRK29SerializationCommandArgumentsR31RuntimeSerializationCommandInfo
vte:_FileLoadException__ctor_m918124939
z4i:__ZL106SceneManager_t90660965_CustomAttributesCacheGenerator_SceneManager_Internal_ActiveSceneChanged_m1940652884P21CustomAttributesCache
nk:___syscall85
a9:__ZN15dense_hashtableINSt3__24pairIKN4core12basic_stringIcNS2_20StringStorageDefaultIcEEEE13dynamic_arrayI4PPtrI6SpriteELj4EEEES6_20StringHash32FunctionIS6_EN14dense_hash_mapIS6_SC_SF_NS0_8equal_toIS6_EE13stl_allocatorISD_L18MemLabelIdentifier81ELi16EEE9SelectKeyESI_SL_E5clearEv
VKb:__ZNSt3__26__sortIRPFbP10GUIElementS2_EPS2_EEvT0_S7_T_
b8e:_SequentialSearchPrimeGeneratorBase_GenerateSearchBase_m2930465198
L5b:__ZN16GraphicsSettings12CleanupClassEv
pvi:__ZN6il2cpp2os6Thread19DetachCurrentThreadEv
vYh:__ZN6il2cpp2vmL21SetupInterfacesLockedEP11Il2CppClassRKNS_2os12FastAutoLockE
Wlb:__ZN11MonoManager23VirtualRedirectTransferER24GenerateTypeTreeTransfer
m8f:__Z102RuntimeInvoker_Int32_t2071877448_RuntimeObject_Int32_t2071877448_Int32_t2071877448_Int32U26_t455636984PFvvEPK10MethodInfoPvPS4_
SOa:__ZN19StreamedBinaryWriteILb0EE8TransferI13dynamic_arrayI8Vector3fLj4EEEEvRT_PKc17TransferMetaFlags
Jy:__ZN23AnimationPlayableOutput17SetSourcePlayableEP8Playable
ssf:_Capture__ctor_m885749277
yod:_SubmitEvent__ctor_m222860306
IR:__ZN11UnityEngine15CloudWebService14DataDispatcher15SetupWebRequestEv
Dxe:_TextWriter__cctor_m4047845042
nhf:_ReceiveRecordAsyncResult_get_Record_m1336421357
YRc:__ZN11UnityEngine15PlatformWrapper13GetShaderCapsEv
aqh:_Object_ToString_m2938729670
CSb:__ZNSt3__211__sift_downIR26RenderDeferredObjectSorterP16RenderObjectDataEEvT0_S5_T_NS_15iterator_traitsIS5_E15difference_typeES5_
oWi:__ZL76Convert_t2607082565_CustomAttributesCacheGenerator_Convert_ToByte_m509311047P21CustomAttributesCache
OKg:_Dictionary_2_System_Collections_Generic_IEnumerableU3CSystem_Collections_Generic_KeyValuePairU3CTKeyU2CTValueU3EU3E_GetEnumerator_m1742521661_gshared
Gig:__Z87RuntimeInvoker_Void_t1841601450_RuntimeObject_StringU26_t638738783_StringU26_t638738783PFvvEPK10MethodInfoPvPS4_
Sod:_InputField_CaretBlink_m3960486606
Zj:_emscripten_glGetProgramiv
Vzh:_TouchScreenKeyboard_set_hideInput_m962370792
rfe:_SmallXmlParser_ReadCharacters_m1966365555
Yif:_InternalAsyncResult_get_CompletedWithError_m3993955322
t6b:__ZN21FixedBehaviourManager6UpdateEv
Nac:__ZN9Transform9SetParentEPS_NS_15SetParentOptionE
Emd:_GridLayoutGroup_set_startCorner_m1660251450
AHa:__ZN19ShaderPropertySheet8SetFloatEN9ShaderLab16FastPropertyNameEfNS_8SetFlagsE
Dgj:__ZL68InputField_t1631627530_CustomAttributesCacheGenerator_m_AsteriskCharP21CustomAttributesCache
j9a:__ZN19RuntimeSceneManager24BeginIntegrateMainThreadEP10UnityScene
Tti:__ZNSt3__2plIcNS_11char_traitsIcEENS_9allocatorIcEEEENS_12basic_stringIT_T0_T1_EERKS9_S6_
uye:_LocalDataStoreSlot__cctor_m1192669356
eeb:__ZN9ShaderLab20SerializedSubProgramaSERKS0_
tsj:_roundf
m8c:_String_CreateString_m2556700934
oFa:__ZN18StreamedBinaryReadILb0EE21TransferSTLStyleArrayINSt3__26vectorI17SortingLayerEntryNS2_9allocatorIS4_EEEEEEvRT_17TransferMetaFlags
fAg:_Selectable_get_targetGraphic_m137842753
ns:__ZN8Animator15SetPrepareStageEv
uBg:_Slider_get_axis_m162140813
V$f:_MonoEventInfo_t2190036573_marshal_pinvoke
wYh:__ZN6il2cpp2vmL24SetupTypeHierarchyLockedEP11Il2CppClassRKNS_2os12FastAutoLockE
z_b:__ZL11TextHandleriPK23EmscriptenKeyboardEventPv
Ssd:_LayoutRebuilder_U3Cs_RebuildersU3Em__0_m3768099182
Szg:_ScrollRect_SetLayoutHorizontal_m3486408020
Ayc:_destroy_face
Pnh:_Material_SetIntImpl_m1039479734
ODg:_Enumerator_VerifyState_m1547102902_gshared
aNi:__ZL55StreamWriter_t3858580635_CustomAttributesCacheGeneratorP21CustomAttributesCache
kvc:__ZN5physx19PxAllocatorCallbackD2Ev
yCi:__ZN6il2cpp6icalls8mscorlib6System8Security12Cryptography24RNGCryptoServiceProvider13RngInitializeEP11Il2CppArray
nOe:_List_1_System_Collections_ICollection_get_IsSynchronized_m227393674_gshared
Cmf:_IPAddress__cctor_m3624830012
CL:__ZN20SoundChannelInstance7setMuteEb
DPa:__ZN4PPtrI5LightE8TransferI19StreamedBinaryWriteILb0EEEEvRT_
mof:_AsnEncodedData_EnhancedKeyUsageExtension_m1452131166
ayb:__Z19TransferField_ArrayI18StreamedBinaryReadILb1EE27Converter_SimpleNativeClassI17AnimationCurveTplIfEEEvRK23StaticTransferFieldInfoR31RuntimeSerializationCommandInfoRT0_
Eyh:_SendMouseEvents__cctor_m1448404407
Zsf:_GroupCollection_get_IsSynchronized_m1100663675
dha:__ZN18GfxFramebufferGLES22MakeCurrentFramebufferENS_7BuiltinE
oCi:__ZN6il2cpp2vm12MarshalAlloc4FreeEPv
ytf:_Interpreter_Close_m1500459069
rk:_JS_SystemInfo_GetWidth
fDa:__ZN12CachedReader4ReadEPvj
vFc:_cf2_blues_init
UVg:_InternalEnumerator_1_System_Collections_IEnumerator_get_Current_m3600601141_gshared
u0c:_SHA1Internal_HashFinal_m3188468925
hzd:_Char_GetHashCode_m2343577184
kPb:__Z24CalculateLightShadowFadeRK6CamerafffR8Vector4f
P_:__ZN19RuntimeSceneManagerD2Ev
qZi:__ZL55HeaderHandler_t324204131_CustomAttributesCacheGeneratorP21CustomAttributesCache
n7g:_ChannelData_get_CustomProperties_m1470957369
o3i:__ZL99Material_t193706927_CustomAttributesCacheGenerator_Material_Internal_CreateWithMaterial_m1941547384P21CustomAttributesCache
C6d:_Dictionary_2_Do_ICollectionCopyTo_TisRuntimeObject_m545661084_gshared
YS:__ZN11UnityEngine15CloudWebService25WebRequestDownloadHandler17OnCompleteContentEv
Oja:__ZN6prcore17GetIntegerBlitterE13TextureFormatS0_N14ImageReference8BlitModeE
cdi:__ZN6il2cpp2gc19AppendOnlyGCHashMapINSt3__24pairIPK11Il2CppImageP11Il2CppClassEEP22Il2CppReflectionModule17ReflectionMapHashIS9_ENS2_8equal_toIS9_EEE11TryGetValueERKS9_PSB_
bFg:_Enumerator_VerifyState_m3173176371_AdjustorThunk
Rdj:__ZL109PointerEventData_t1599784723_CustomAttributesCacheGenerator_PointerEventData_get_eligibleForClick_m2497780621P21CustomAttributesCache
Klf:_TypeConverterAttribute__cctor_m506796812
CFf:_Encoding_get_IsReadOnly_m3729101432
Ncc:__ZN9BlobWrite14ReduceCopyImplERK14ReduceCopyDataj
tY:__ZNSt3__26__treeI19RepeatingLogMessageNS_4lessIS1_EE13stl_allocatorIS1_L18MemLabelIdentifier73ELi16EEE12__find_equalIS1_EERPNS_16__tree_node_baseIPvEESD_RKT_
gP:__ZN11AudioSource18IsPlayingScriptingEv
cRf:_ValueType_t3507792607_marshal_pinvoke_back
N2g:_Comparer_1_System_Collections_IComparer_Compare_m1790257529_gshared
Uog:__Z55RuntimeInvoker_Int32_t2071877448_ILTokenInfo_t149559338PFvvEPK10MethodInfoPvPS4_
b$f:_MethodInfo_get_ContainsGenericParameters_m572340060
Nzg:_ScrollRect_get_flexibleWidth_m3410614750
Rwj:_glShaderSource__wrapper
nBa:__ZN25MultiBlocksMemoryFileData17AdjustBlocksCountEj
wki:__ZNSt3__214__split_bufferIN6il2cpp2vm22EmbeddedResourceRecordERNS_9allocatorIS3_EEED2Ev
Ycf:_TlsClientHello__ctor_m1699671541
Gwc:__ZN13TextRendering4Font8TransferI24GenerateTypeTreeTransferEEvRT_
X8g:_Context_NotifyGlobalDynamicSinks_m2916447645
eec:__Z27CullingGroup_CUSTOM_DisposeP12Il2CppObject
qVc:__ZNSt3__26vectorIP19BaseConnectSettings13stl_allocatorIS2_L18MemLabelIdentifier6ELi16EEE21__push_back_slow_pathIKS2_EEvRT_
gig:__Z69RuntimeInvoker_Color_t2020392075_Color_t2020392075_Single_t2076509932PFvvEPK10MethodInfoPvPS4_
dKb:__ZN13ComputeShader15SetTextureParamEjRKN9ShaderLab16FastPropertyNameE9TextureID16TextureDimension
LAg:_Shadow_set_effectDistance_m1951993364
FMg:_Dictionary_2_ContainsKey_m416495915_gshared
RWe:_Collection_1_Remove_m1798559666_gshared
xm:_glStencilMask
Zag:__Z70RuntimeInvoker_Boolean_t3825574718_Int16_t4041245914_Int32_t2071877448PFvvEPK10MethodInfoPvPS4_
vti:__ZN6il2cpp2os10ThreadImpl16GetCurrentThreadEv
RDd:_Hashtable__ctor_m2337481811
IEg:_Enumerator_System_Collections_IEnumerator_get_Current_m2010873149_gshared
mjd:_Resources_t2975512894_marshal_pinvoke_cleanup
_Ji:__ZL88Type_t_CustomAttributesCacheGenerator_Type_MakeGenericType_m2765875033____typeArguments0P21CustomAttributesCache
Dij:__ZL74SpriteState_t1353336012_CustomAttributesCacheGenerator_m_HighlightedSpriteP21CustomAttributesCache
kyf:_RealProxy__ctor_m2505535530
dAi:_GC_push_conditional_with_exclusions
wPf:_UInt32_System_IConvertible_ToUInt16_m2798641702_AdjustorThunk
iAf:_BinaryFormatter_get_DefaultSurrogateSelector_m219714691
ev:__ZN21AnimationPosePlayableD0Ev
zB:__ZN12_GLOBAL__N_121ProcessAnimationBeginER35AnimationPlayableEvaluationConstantR32AnimationPlayableEvaluationInputR33AnimationPlayableEvaluationOutput
h7f:__Z136RuntimeInvoker_Void_t1841601450_Int32_t2071877448_RuntimeObject_RuntimeObject_RuntimeObject_RuntimeObject_RuntimeObject_SByte_t454417549PFvvEPK10MethodInfoPvPS4_
z9e:_MD4Managed_Encode_m2097839378
vZe:_Collection_1_System_Collections_IList_get_IsFixedSize_m3252091801_gshared
tid:_FloatTween_get_ignoreTimeScale_m4161298485_AdjustorThunk
x1f:_MonoProperty_GetOptionalCustomModifiers_m3827844355
xpj:_strrchr
m8g:__ZN21InterfaceFuncInvoker1IP8String_tS1_E6InvokeEjP11Il2CppClassP12Il2CppObjectS1_
Aae:_SimpleCollator_GetSortKey_m2188419329
vjj:__ZL56LayoutElement_t2808691390_CustomAttributesCacheGeneratorP21CustomAttributesCache
jxg:_Scrollbar_Set_m244028386
PPa:__ZN14RenderSettings27UpdateIndirectSpecularColorEv
Htg:__Z102RuntimeInvoker_RuntimeObject_UILineInfo_t3621277874_UILineInfo_t3621277874_RuntimeObject_RuntimeObjectPFvvEPK10MethodInfoPvPS4_
S6a:__ZN14PlayerSettings8TransferI18StreamedBinaryReadILb0EEEEvRT_
z5g:_FixedBufferAttribute__ctor_m2048050068
g5h:__ZN6il2cpp6icalls8mscorlib6System8MonoType16GetMethodsByNameEP20Il2CppReflectionTypeP12Il2CppStringibS5_
Cnh:_Logger_Log_m302200299
Z5g:_GCHandle__ctor_m2952050298
D7d:_LayoutGroup_SetProperty_TisAxis_t1431825778_m2174054513_gshared
yZa:__ZN4PPtrI10GameObjectE8TransferI14SafeBinaryReadEEvRT_
Kug:_Mask_IsRaycastLocationValid_m62488857
GGb:__ZNSt3__27__sort3IRNS_4lessIN22BuiltinResourceManager8ResourceEEEPS3_EEjT0_S7_S7_T_
b2g:_DefaultComparer_Compare_m3472472212_gshared
Srg:__Z31RuntimeInvoker_Slot_t2022531261PFvvEPK10MethodInfoPvPS4_
Tte:_MonoIO_GetLength_m2812344043
hEc:_ps_hints_t2mask
R7i:__ZL68UsedByNativeCodeAttribute_t3212052468_CustomAttributesCacheGeneratorP21CustomAttributesCache
Bhi:__ZN14dense_hash_mapI10KeyWrapperINSt3__24pairIP11Il2CppClassjEEES4_N6il2cpp8metadata14ArrayClassHashENS6_14EqualsComparerINS8_17ArrayClassCompareEEENS1_9allocatorINS2_IKS6_S4_EEEEEC2EjRKS9_RKSC_
u3a:__ZN10BlendShape8TransferI19StreamedBinaryWriteILb0EEEEvRT_
CF:__Z32TransferEnumWithNameForceIntSizeI14SafeBinaryReadN10SampleClip8LoadTypeEEvRT_RT0_PKc17TransferMetaFlags
mre:__Z21il2cpp_codegen_sizeofP11Il2CppClass
Wna:__Z19GetTimeSinceStartupv
W4c:_SecurityFrame_get_Assembly_m2816566490
lti:__ZN6il2cpp2os10ThreadImpl11SetPriorityENS0_14ThreadPriorityE
wVh:_CanvasRenderer_set_hasPopInstruction_m3302400555
lJc:_TT_Load_Composite_Glyph
y0i:__ZL84Camera_t189460977_CustomAttributesCacheGenerator_Camera_get_targetTexture_m505846373P21CustomAttributesCache
rJi:__ZL66RuntimeArray_CustomAttributesCacheGenerator_Array_Sort_m2323017822P21CustomAttributesCache
Cud:_Array_Sort_m2994254654
YPe:_List_1__ctor_m593058937_gshared
kZd:_Array_InternalArray__IEnumerable_GetEnumerator_TisColor32_t874517518_m2198639025_gshared
DNb:__ZN29RenderNodeQueuePrepareContextC2Ev
eO:__ZN10SampleClipC2E18MemLabelIdentifier18ObjectCreationMode
gfb:__ZN9ShaderLab20SerializedSubProgram16TextureParameter8TransferI24GenerateTypeTreeTransferEEvRT_
vaa:__ZN9GfxDevice19SaveStereoConstantsEv
oKf:_Thread_set_Name_m1343706609
XCi:__ZN6il2cpp2os11MutexHandle4WaitEj
Cbc:__ZL34GetComponentsImplementationRecurseILb1ELi1ELi1EEbR10GameObjectbRK17CompareParametersRK39GetComponentsImplementation_ReturnValue
WCi:__ZN6il2cpp2os11MutexHandle4WaitEv
Xzd:_ArrayList_set_Capacity_m592558035
Hla:__ZN6prcoreL17RemapGenericFloatI15TexFormatRGHalf18TexFormatARGBFloatEEvPKNS_9InnerInfoE
Dze:_MonoEnumInfo_t2335995564_marshal_pinvoke_cleanup
VQa:__ZNK13RenderTexture13GetDataHeightEv
jFb:__Z18SimulateMouseInputi
xJb:__ZN13RenderManager23AddRemoveCamerasDelayedEv
Oqc:__ZN9JSONWrite8TransferI13dynamic_arrayIdLj8EEEEvRT_PKc17TransferMetaFlags
aya:__ZN23PreloadManagerOperation11GetPriorityEv
rTd:_Exception_get_InnerException_m3722561235
ljh:_Color_op_Multiply_m2110750533
jXd:_Array_InternalArray__ICollection_Remove_TisILTokenInfo_t149559338_m1523907845_gshared
NUg:_InternalEnumerator_1_System_Collections_IEnumerator_Reset_m138745466_AdjustorThunk
Sjg:__Z105RuntimeInvoker_Void_t1841601450_Vector2U26_t3911752445_RuntimeObject_RuntimeObject_Vector2U26_t3911752445PFvvEPK10MethodInfoPvPS4_
NMe:_List_1_GetEnumerator_m4053501645_gshared
O3h:__ZN6il2cpp2gc9AllocatorIP17Il2CppAsyncResultE10deallocateEPvj
iEd:_Hashtable_Rehash_m2877670513
Itg:__Z98RuntimeInvoker_RuntimeObject_UIVertex_t1204258818_UIVertex_t1204258818_RuntimeObject_RuntimeObjectPFvvEPK10MethodInfoPvPS4_
GVb:__ZN13RenderTexture8SetWidthEi
Qqd:_InputField_Insert_m1593238693
y1b:__ZNK28RectTransformPropertyBinding12SetPPtrValueERKN11UnityEngine9Animation10BoundCurveEi
hzb:__Z18Transfer_BlittableI18StreamedBinaryReadILb0EELb0EfEvRK29SerializationCommandArgumentsR31RuntimeSerializationCommandInfo
G3a:__ZN10MeshFilterD0Ev
Lzc:_UNITY_FT_GlyphLoader_CheckSubGlyphs
Q3h:__ZN6il2cpp2vm21ThreadPoolCompartment20SpawnNewWorkerThreadEv
u0d:_Array_InternalArray__ICollection_Add_TisCustomAttributeTypedArgument_t1498197914_m3260005285_gshared
PPb:__Z25SetupObjectBakedOcclusionbRK15SharedLightDataRK26SharedLightmapSettingsDataRK15LightmapIndicesR17ShaderPassContext
cbh:__ZN21InterfaceFuncInvoker4IP17Match_t3164245899P17Regex_t1803876613P8String_tiiE6InvokeEjP11Il2CppClassP12Il2CppObjectS3_S5_ii
xme:_Guid_GetHashCode_m1401300871
UJh:_ListPool_1_U3Cs_ListPoolU3Em__0_m1243609651_gshared
Akd:_FontData__ctor_m3822008992
LNh:__ZL23UnresolvedVirtualCall_5P12Il2CppObjectsPK10MethodInfo
hD:__ZN4PPtrI6AvatarE8TransferI19StreamedBinaryWriteILb0EEEEvRT_
qLg:_Dictionary_2_System_Collections_IDictionary_set_Item_m115188189_gshared
EY:__ZN9ShaderLab16FastPropertyName4InitEPKc
E0b:__Z13RegisterClassIN2UI13RectTransformEEvv
Y9d:_MSCompatUnicodeTable_ToWidthCompat_m2299599532
tBe:_NumberFormatter_get_IsFloatingSource_m2830957202
t4b:__ZL31MeshRendererTransformChangedJobP13BoundsJobDatajPK23TransformAccessReadOnlyPKyj
ERc:__ZN11UnityEngine15PlatformWrapper19GetPhysicalMemoryMBEv
e0a:__ZN10VertexData8TransferI17RemapPPtrTransferEEvRT_
zQa:__ZN13RenderTexture9SetMipMapEb
q_h:__ZN15dense_hashtableINSt3__24pairIK10KeyWrapperIPK11Il2CppClassEPKcEES6_N6il2cpp5utils11PointerHashIS3_EEN14dense_hash_mapIS6_S9_SE_NS6_14EqualsComparerINS0_8equal_toIS5_EEEENS0_9allocatorISA_EEE9SelectKeyESJ_SL_E13set_empty_keyERKSA_
Syg:_ScrollRect_set_verticalScrollbarSpacing_m2356851539
i6:__Z18GetDirectorManagerv
Vxh:_ResourceRequest_t2560315377_marshal_pinvoke_back
WZh:__ZN14dense_hash_mapI10KeyWrapperIPK11Il2CppClassEPKcN6il2cpp5utils11PointerHashIS1_EENS4_14EqualsComparerINSt3__28equal_toIS3_EEEENSC_9allocatorINSC_4pairIKS4_S6_EEEEEC2EjRKSA_RKSF_
Tic:__Z38Transform_CUSTOM_INTERNAL_get_rotationP12Il2CppObjectP11Quaternionf
N9h:__ZNSt3__26vectorIN6il2cpp2vm17TypeNameParseInfoENS_9allocatorIS3_EEE8allocateEj
oPi:__ZL66CriticalFinalizerObject_t1920899984_CustomAttributesCacheGeneratorP21CustomAttributesCache
Tci:__ZNK15dense_hashtableINSt3__24pairIK10KeyWrapperINS1_IPK10MethodInfoP11Il2CppClassEEEjEES9_17ReflectionMapHashIS8_EN14dense_hash_mapIS9_jSD_NS9_14EqualsComparerINS0_8equal_toIS8_EEEENS0_9allocatorISB_EEE9SelectKeyESI_SK_E5beginEv
Mma:__ZN7ApiGLES19UploadBufferSubDataEjN2gl12BufferTargetEllPKv
O8:__ZNSt3__216__rotate_forwardINS_11__wrap_iterIPN4core12basic_stringIcNS2_20StringStorageDefaultIcEEEEEEEET_S9_S9_S9_
t6c:_String_System_IConvertible_ToInt32_m1927223638
GXd:_Array_InternalArray__ICollection_Remove_TisContentType_t1028629049_m3085152315_gshared
zGg:_Transform_1_EndInvoke_m4121732147_gshared
rmh:_FailedToLoadScriptObject_t3605283378_marshal_pinvoke_back
A8c:_ASCIIEncoding__ctor_m4127831672
Cjh:_GameObject_GetComponent_m724360550
GSi:__ZL71AsymmetricSignatureFormatter_t4058014248_CustomAttributesCacheGeneratorP21CustomAttributesCache
lob:__Z19TransferField_ArrayI14SafeBinaryRead27Converter_SimpleNativeClassI8GUIStyleEEvRK23StaticTransferFieldInfoR31RuntimeSerializationCommandInfoRT0_
ydg:__Z63RuntimeInvoker_Void_t1841601450_RuntimeObject_Int16_t4041245914PFvvEPK10MethodInfoPvPS4_
tGf:_UTF8Encoding__ctor_m3336862259
fni:__ZN15dense_hashtableINSt3__24pairIK10KeyWrapperIP14Il2CppIUnknownEjEES5_N6il2cpp5utils11PointerHashIS3_EEN14dense_hash_mapIS5_jSB_NS5_14EqualsComparerINS0_8equal_toIS4_EEEENS0_9allocatorIS7_EEE9SelectKeyESG_SI_ED2Ev
LCi:__ZN6il2cpp5utils10MemoryPoolC2Ej
Hqf:_X509Chain_GetAuthorityKeyIdentifier_m2607407678
HCi:__ZN6il2cpp5utils10MemoryPoolC2Ev
lPa:__ZN14RenderSettings5ResetEv
u$b:__ZN6Sprite9BindAtlasERK4PPtrI11SpriteAtlasE
znc:__ZN5Unity9rapidjson12GenericValueINS0_4UTF8IcEE13JSONAllocatorE10FindMemberIS4_EENS0_21GenericMemberIteratorILb0ES3_S4_EERKNS1_IS3_T_EE
Jli:__ZNSt3__212basic_stringIDsNS_11char_traitsIDsEENS_9allocatorIDsEEE6appendEPKDsj
Odd:_RaycastResult_set_gameObject_m1138581891_AdjustorThunk
_nc:__ZN5Unity9rapidjson13GenericReaderINS0_4UTF8IcEES3_13JSONAllocatorE11ParseNumberILj1ENS0_25GenericInsituStringStreamIS3_EENS0_15GenericDocumentIS3_S4_S4_EEEEvRT0_RT1_
V6d:_Dictionary_2_Do_ICollectionCopyTo_TisKeyValuePair_2_t3716250094_m1740410536_gshared
WNg:_DefaultComparer__ctor_m580747638_gshared
fti:__ZN6il2cpp2os10ThreadImplD2Ev
xge:_RSAManaged_Dispose_m3018788098
Roc:__ZN8Gradient8TransferI9JSONWriteEEvRT_
CJf:_Monitor_Monitor_pulse_m2135582245
fId:_DateTime_ToUniversalTime_m1815024752
glf:_NameObjectCollectionBase_get_Count_m2353593692
afj:__ZL73U3COnFinishSubmitU3Ec__Iterator0_t99135383_CustomAttributesCacheGeneratorP21CustomAttributesCache
Fxa:__ZNK12TLSAllocatorI14StackAllocatorE22GetAllocatedMemorySizeEv
fOi:__ZL54AssemblyName_t894705941_CustomAttributesCacheGeneratorP21CustomAttributesCache
iLd:_Convert_ToUInt32_m3394039268
qAh:_Transform_get_forward_m2144220796
xva:__ZN17RemapPPtrTransfer12PushMetaFlagE17TransferMetaFlags
zM:__ZNK7WeakPtrI20SoundChannelInstanceE10SharedData9GetRawPtrEv
wjb:__ZN12HandlerChain4NameEv
Ypb:__Z29Transfer_Blittable_ArrayFieldI14SafeBinaryReadN4math12int3_storageEEvRT_R9ArrayInfoRK23StaticTransferFieldInfo
e5a:__ZNSt3__26vectorI9InputAxisNS_9allocatorIS1_EEE10deallocateEv
vne:_Int16_Equals_m3925135434_AdjustorThunk
GPc:__Z44Register_UnityEngine_CanvasRenderer_get_cullv
cIg:_Enumerator_Dispose_m2532362830_AdjustorThunk
MLi:__ZL60IHashCodeProvider_t1980576455_CustomAttributesCacheGeneratorP21CustomAttributesCache
$0b:__ZN13ProduceHelperI13MonoBehaviourLb0EE7ProduceE18MemLabelIdentifier18ObjectCreationMode
dEe:_Enumerator_VerifyState_m1677639504_AdjustorThunk
VZb:__Z29StdTemplateConversionFunctionIbbEbPvR14SafeBinaryRead
ewi:__ZNK15dense_hashtableINSt3__24pairIK10KeyWrapperIPK19Il2CppGenericMethodEP10MethodInfoEES6_N6il2cpp8metadata23Il2CppGenericMethodHashEN14dense_hash_mapIS6_S9_SD_NS6_14EqualsComparerINSC_26Il2CppGenericMethodCompareEEENS0_9allocatorISA_EEE9SelectKeyESH_SJ_E12test_deletedEj
gcf:_CipherSuiteCollection_get_Item_m280627160
omb:__Z44InitializeTransferFunctionScriptingTraitsForI17RemapPPtrTransferEvR31TransferFunctionScriptingTraits
qvf:_SerializationInfoEnumerator_MoveNext_m1876990879
ULf:_TimeSpan_Duration_m4205681645
CXb:__ZN14UnityWebStream24UpdateAllUnityWebStreamsEv
o1b:__ZNSt3__26vectorI16MessageForwarder13stl_allocatorIS1_L18MemLabelIdentifier7ELi8EEE6resizeEj
vUe:_Collection_1_System_Collections_IList_get_IsReadOnly_m2329986891_gshared
mKi:__ZL60ObsoleteAttribute_t3878847927_CustomAttributesCacheGeneratorP21CustomAttributesCache
Xfh:_Uri_ParseAsWindowsAbsoluteFilePath_m1108586962
VR:__ZN11UnityEngine15CloudWebService14DataErrorEventD2Ev
W1d:_Array_InternalArray__ICollection_CopyTo_TisRaycastHit2D_t4063908774_m3837098618_gshared
h9a:__ZN18LoadSceneOperation21MustCompleteNextFrameEv
$yh:_DataUtility_GetInnerUV_m593541260
DL:__ZNK12AudioManager16GetAudioListenerEv
a0f:_MonoField_get_FieldType_m598011426
uUe:_Collection_1_System_Collections_IList_get_IsFixedSize_m1624702704_gshared
r0i:__ZL48Camera_t189460977_CustomAttributesCacheGeneratorP21CustomAttributesCache
mVb:__ZNSt3__26vectorI11CameraStackNS_9allocatorIS1_EEE8__appendEj
qki:__ZNSt3__212basic_stringIcNS_11char_traitsIcEENS_9allocatorIcEEE6__initINS_11__wrap_iterIPcEEEENS_9enable_ifIXsr21__is_forward_iteratorIT_EE5valueEvE4typeESB_SB_
Zpd:_InputField_OnDisable_m1865339380
tPf:_UInt32_System_IConvertible_ToType_m747769316
Mt:__ZN7mecanim9animation12GetHumanPoseERKNS0_18ClipMuscleConstantEPKNS0_10ValueDeltaERNS_5human9HumanPoseE
Bv:__ZN22AnimationMixerPlayable17ProcessRootMotionEP35AnimationPlayableEvaluationConstantP32AnimationPlayableEvaluationInputP33AnimationPlayableEvaluationOutput
Lvb:__Z29Transfer_Blittable_ArrayFieldI19StreamedBinaryWriteILb0EEjEvRT_R9ArrayInfoRK23StaticTransferFieldInfo
o2:__Z13GetFileSystemv
n5b:__ZZL23RegisterLightPropertiesR22GenericPropertyBindingEN29Wrapper_LightColorTemperature13SetFloatValueEPvf
H3:__ZNK5Unity4Type21FindAllDerivedClassesER13dynamic_arrayIPKS0_Lj4EENS0_17TypeFilterOptionsE
m4:__ZN13RuntimeStaticI15GUIEventManagerLb0EE16StaticInitializeEPv
sKg:_Dictionary_2_ToTKey_m2900575080_gshared
rAb:__ZL12InvokeMethodI18StreamedBinaryReadILb0EEEvRK29SerializationCommandArgumentsR31RuntimeSerializationCommandInfo
lke:_DaylightTime_get_Delta_m2316831491
EWd:_Array_InternalArray__ICollection_Contains_TisUILineInfo_t3621277874_m1175659630_gshared
hig:__Z70RuntimeInvoker_Boolean_t3825574718_Color_t2020392075_Color_t2020392075PFvvEPK10MethodInfoPvPS4_
jLf:_WaitHandle_WaitOne_m370363697
Odj:__ZL114PointerEventData_t1599784723_CustomAttributesCacheGenerator_PointerEventData_set_pointerCurrentRaycast_m2431897513P21CustomAttributesCache
Nsf:_FactoryCache_Lookup_m1681894361
FNd:_DateTime_Subtract_m698282245_AdjustorThunk
Tcc:__Z7OpenURLRKN4core12basic_stringIcNS_20StringStorageDefaultIcEEEE
l$d:_Array_InternalArray__IndexOf_TisResourceCacheItem_t333236149_m761772858_gshared
t_e:_Collection_1_InsertItem_m724820684_gshared
YXi:__ZL79Convert_t2607082565_CustomAttributesCacheGenerator_Convert_ToUInt64_m1896191125P21CustomAttributesCache
qKb:__ZN19ShaderPropertySheet9SetMatrixEN9ShaderLab16FastPropertyNameERK10Matrix4x4fNS_8SetFlagsE
V_c:_RIPEMD160Managed_Initialize_m3365407578
UWa:__Z29GetTextureSizeAllowedMultiple13TextureFormat
Bmf:_IPAddress_HostToNetworkOrder_m1092199707
sYd:_SetPropertyUtility_SetStruct_TisSpriteState_t1353336012_m2898060836_gshared
fIb:__ZZ23InitPlayerLoopCallbacksvEN52InitializationAsyncUploadTimeSlicedUpdateRegistrator7ForwardEv
b3c:_SecurityAttribute__ctor_m3425755778
J6b:__ZN21IntermediateRenderers3AddEP20IntermediateRenderer
I6h:_il2cpp_array_element_size
Wf:_glCheckFramebufferStatus
o8i:__ZL55TextGenerator_t647235000_CustomAttributesCacheGeneratorP21CustomAttributesCache
JZd:_Array_compare_TisInt32_t2071877448_m840310202_gshared
Goi:__ZN15dense_hashtableINSt3__24pairIK10KeyWrapperINS1_IPKcS4_EEEiEES6_24NamespaceAndNamePairHashN14dense_hash_mapIS6_iS9_NS6_14EqualsComparerI26NamespaceAndNamePairEqualsEENS0_9allocatorIS8_EEE9SelectKeyESD_SF_E12resize_deltaEjj
A1g:_InternalEnumerator_1_System_Collections_IEnumerator_get_Current_m442726479_AdjustorThunk
gU:__ZN19CloudServiceHandler20StartEventDispatcherERKN11UnityEngine15CloudWebService18CloudServiceConfigERNS1_23WebRequestRestHeaderMapE
I$g:_InternalEnumerator_1_System_Collections_IEnumerator_get_Current_m790514740_AdjustorThunk
YIi:__ZL74RuntimeArray_CustomAttributesCacheGenerator_Array_BinarySearch_m2287427837P21CustomAttributesCache
nng:__Z78RuntimeInvoker_Boolean_t3825574718_TransitionU26_t3012618447_Int32_t2071877448PFvvEPK10MethodInfoPvPS4_
M9d:__Z37il2cpp_codegen_get_executing_assemblyPK10MethodInfo
Wib:__ZN9Transform23VirtualRedirectTransferER17RemapPPtrTransfer
vhg:__Z72RuntimeInvoker_Boolean_t3825574718_Bounds_t3033363703_Bounds_t3033363703PFvvEPK10MethodInfoPvPS4_
Frh:_PKCS12_get_Keys_m1312614820
IKi:__ZL57TypedReference_t1025199857_CustomAttributesCacheGeneratorP21CustomAttributesCache
L_d:_Array_InternalArray__IndexOf_TisByte_t3683104436_m3605266236_gshared
c_e:_Collection_1_System_Collections_IList_Insert_m435904526_gshared
_4b:__ZZL23RegisterLightPropertiesR22GenericPropertyBindingEN22Wrapper_LightIntensity13GetFloatValueEPv
Vwg:_RaycastAllCallback_Invoke_m981876639
fGf:_UnicodeEncoding__ctor_m72484327
xzh:_Texture_INTERNAL_get_texelSize_m3335010007
ini:__ZN14dense_hash_mapI10KeyWrapperIP14Il2CppIUnknownEjN6il2cpp5utils11PointerHashIS1_EENS3_14EqualsComparerINSt3__28equal_toIS2_EEEENS9_9allocatorINS9_4pairIKS3_jEEEEE15set_deleted_keyERSF_
W3:__ZN22BuiltinResourceManager16StaticInitializeEPv
Goe:_NumberFormatter_ScaleOrder_m1915154678
pji:__ZN6il2cpp2gc9AllocatorIP12Il2CppThreadE10deallocateEPvj
ufi:__ZN13Il2CppHashMapIPK14Il2CppAssemblyPK22Il2CppMonoAssemblyNameN6il2cpp5utils11PointerHashIS1_EENSt3__28equal_toIS2_EENSA_9allocatorINSA_4pairIK10KeyWrapperIS2_ES5_EEEEEC2EjRKS9_RKSC_
bef:_ClientSessionInfo_SetContext_m2649357891
uuh:_PropertyAttribute__ctor_m1714388149
tpe:_Int32_System_IConvertible_ToInt64_m3790029067_AdjustorThunk
Mad:_RaycasterManager_GetRaycasters_m1154876874
ojf:_SslStreamBase_InternalReadCallback_m2524917586
t1:__ZN8Remapper6RemoveEi
cJe:_List_1_CheckCollection_m2608305187_gshared
PBa:__ZN10MemoryFile4ReadEyPvPy
HNf:_Type_get_ContainsGenericParameters_m505913180
acc:__ZN9Scripting27CreateArgumentNullExceptionEPKc
hzc:__ZL36CleanupTextRenderingScriptingClassesv
o5f:__Z52RuntimeInvoker_UInt32_t2149682021_Decimal_t724701077PFvvEPK10MethodInfoPvPS4_
v1e:_ReadOnlyCollection_1__ctor_m3532148437_gshared
iud:_Array_BinarySearch_m3270245097
Bgc:__Z34Mesh_CUSTOM_SetArrayForChannelImplP12Il2CppObject30InternalScriptingShaderChannel34InternalScriptingVertexChannelTypeiP11Il2CppArrayi
hte:_MonoIO_DeleteFile_m3273821223
Ibe:_BigInteger_GenerateRandom_m2507308768
gMd:_DateTime_System_IConvertible_ToDouble_m1431748426_AdjustorThunk
rWd:_Array_InternalArray__ICollection_Contains_TisUInt16_t986882611_m510319131_gshared
_2d:_Array_InternalArray__Insert_TisRaycastHit2D_t4063908774_m3174907903_gshared
$Pd:_Decimal_ToString_m541380585
Atf:_RepeatContext_get_Previous_m808449037
Vkg:__Z46RuntimeInvoker_CharacterValidation_t3437478890PFvvEPK10MethodInfoPvPS4_
C_f:_MemberFilter__ctor_m1775909550
_6h:_il2cpp_class_is_valuetype
JD:__ZN11UnityEngine9Animation28GenericAnimationBindingCache25RegisterIAnimationBindingEPKN5Unity4TypeEiP17IAnimationBinding
KPc:__Z70RectTransformUtility_CUSTOM_INTERNAL_CALL_RectangleContainsScreenPointP12Il2CppObjectRK13Vector2fIcallS0_
PSd:_Enum_ToObject_m2601523252
Pif:_InternalAsyncResult_get_FromWrite_m2893408424
nYh:__ZN6il2cpp2vm5Class15GetElementClassEP11Il2CppClass
ysd:_U3CDelayedSetDirtyU3Ec__Iterator0_System_Collections_IEnumerator_get_Current_m851854792
dUb:__Z40ProcessCameraIndexListIsNodeVisibleInOutRK22SceneCullingParametersPK9SceneNodePK4AABBR9IndexList
Znh:_Mathf_Sqrt_m3274009347
zLa:__ZN16GraphicsSettings8TransferI17RemapPPtrTransferEEvRT_
W7e:_BigInteger_op_LessThanOrEqual_m3528380540
mwe:_StreamReader__ctor_m2654332332
mNc:__ZN2UI6Canvas13UpdateBatchesEb
sqh:_Playable__cctor_m3745623656
Gy:__ZNK23AnimationPlayableOutput11DerivesFromE17ScriptingClassPtr
TVa:__ZN7Texture19SupportsAsyncUploadI19StreamedBinaryWriteILb0EEEEbRT_
hjh:_Color_op_Implicit_m3487763211
iHe:_List_1_CheckCollection_m3968030679_gshared
BSh:_Predicate_1_BeginInvoke_m3556950370_gshared
$Gf:_StringBuilder_ToString_m617673931
iaa:__ZNK13GfxDeviceGLES12GetWireframeEv
_If:_UTF8Encoding_GetString_m1836344205
p2e:_ReadOnlyCollection_1_System_Collections_ICollection_get_IsSynchronized_m3127987432_gshared
ySc:__ZN11UnityEngine7Connect13ConfigHandler12GetListenersERKN4core12basic_stringIcNS2_20StringStorageDefaultIcEEEE
t9i:__ZL110AudioSource_t1135106623_CustomAttributesCacheGenerator_AudioSource_INTERNAL_CALL_ReadExtensionName_m3515549821P21CustomAttributesCache
Nba:__ZN9GfxDevice18AllocRenderSurfaceEb
Kwg:_GetRayIntersectionAllNonAllocCallback_BeginInvoke_m273046189
o$b:__ZN10TagManager32GetSortingLayerUniqueIDFromValueEi
Ydh:_AnchorInfo_get_IsComplete_m1247624133
Ujd:_Dropdown_Show_m324374589
r_:__ZL27CleanupCoreScriptingClassesv
y7f:__Z68RuntimeInvoker_RuntimeObject_RuntimeObject_DSAParameters_t1872138834PFvvEPK10MethodInfoPvPS4_
C$e:_ReadOnlyCollection_1_System_Collections_ICollection_get_SyncRoot_m769863805_gshared
Xlg:__Z101RuntimeInvoker_Void_t1841601450_RuntimeObject_Int32_t2071877448_Single_t2076509932_Single_t2076509932PFvvEPK10MethodInfoPvPS4_
fdd:_RaycastResult_get_isValid_m2482925612
vgc:__Z26AnimationCurve_CUSTOM_InitP12Il2CppObjectP11Il2CppArray
sAj:_glUniform1uiv__wrapper
ffi:__ZN6il2cpp2vm10Reflection7IsEventEP12Il2CppObject
nFi:__ZNSt3__26__treeINS_12__value_typeIPFvvEPK10MethodInfoEENS_19__map_value_compareIS3_S7_NS_4lessIS3_EELb1EEENS_9allocatorIS7_EEE16__insert_node_atEPNS_16__tree_node_baseIPvEERSI_SI_
A$:__ZN17PersistentManager26GetStreamNameSpaceInternalEi
Fvh:_Rect_set_y_m3273335367
LF:__ZN4FMOD6System11createSoundEPKcjP22FMOD_CREATESOUNDEXINFOPPNS_5SoundE
vsg:__Z72RuntimeInvoker_Int32_t2071877448_Vector2_t2243707579_Vector2_t2243707579PFvvEPK10MethodInfoPvPS4_
QWe:__ZN23InterfaceActionInvoker2Ii22UICharInfo_t3056636800E6InvokeEjP11Il2CppClassP12Il2CppObjectiS0_
Vn:FUNCTION_TABLE_iiifiiii
mai:__ZN6il2cpp2vm4Type14IsSystemDBNullEPK10Il2CppType
yZ:__ZN9ShaderLab19CommonPropertyNames13StaticCleanupEPv
L0:__Z31scripting_method_get_returntype18ScriptingMethodPtr
_yg:_ScrollRect_UpdateBounds_m3266596336
hYa:__ZN15SerializeTraitsI12LightmapDataE8TransferI24GenerateTypeTreeTransferEEvRS0_RT_
DAh:_Transform_INTERNAL_set_localScale_m1610244689
xhd:_ColorBlock_GetHashCode_m649325222
Twj:_glStencilOpSeparate__wrapper
X8b:__ZN4Mesh5SetUvEiPKfjj
E_a:__ZN7Texture13SetAnisoLimitENS_20AnisotropicFilteringE
fab:__ZN28LightProbeProxyVolumeManager25UpdateSHCoeffsTextureDataER21LightProbeProxyVolume
jCa:__Z18CreateDecompressor15CompressionType18MemLabelIdentifier
vN:__ZN11AudioModule16SetListenerPauseEb
cnj:_Level2Start_Update_m2576990518
Ph:_emscripten_glCompressedTexSubImage2D
noa:__ZN13GfxDeviceGLES22MemoryBarrierImmediateEyN2gl17MemoryBarrierTypeE
z8:__ZZN18SpriteAtlasManagerC1EvEN46EarlyUpdateSpriteAtlasManagerUpdateRegistrator7ForwardEv
Vla:__ZN6prcoreL26RemapGenericFloatToIntegerI18TexFormatARGBFloat17TexFormatARGB8888EEvPKNS_9InnerInfoE
wbc:__Z46GetShaderModelNumericValueFromRequirementsMask18ShaderRequirements
yHc:_cff_ps_has_glyph_names
$Gg:_Transform_1_EndInvoke_m1025924012_gshared
l3e:_ReadOnlyCollection_1_System_Collections_Generic_ICollectionU3CTU3E_get_IsReadOnly_m2873538493_gshared
Mbh:_PatternCompiler_EmitPosition_m3013268572
jsf:_X509SubjectKeyIdentifierExtension__ctor_m1109455121
xOh:__ZL24UnresolvedVirtualCall_45P12Il2CppObject19DateTime_t693205669PK10MethodInfo
emd:_Graphic_CreateColorFromAlpha_m2614574534
NHf:_UnicodeEncoding_GetHashCode_m2443440683
lnc:__Z44Register_UnityEngine_GUIStyle_SetDefaultFontv
gXf:_GenericTypeParameterBuilder_GetPropertyImpl_m3566422383
jwb:__Z18Transfer_BlittableI18StreamedBinaryReadILb1EELb1EiEvRK29SerializationCommandArgumentsR31RuntimeSerializationCommandInfo
yA:__ZN9BlobWrite8TransferI22OffsetPtrArrayTransferIKN4math7_float3EEEEvRT_PKc17TransferMetaFlags
Z1c:_TripleDES_IsWeakKey_m483013953
ypf:_X509Certificate2_get_PrivateKey_m2662162956
iIg:_Enumerator__ctor_m3819430617_AdjustorThunk
Wdi:__ZN15dense_hashtableINSt3__24pairIK10KeyWrapperINS1_IPK12PropertyInfoP11Il2CppClassEEEjEES9_17ReflectionMapHashIS8_EN14dense_hash_mapIS9_jSD_NS9_14EqualsComparerINS0_8equal_toIS8_EEEENS0_9allocatorISB_EEE9SelectKeyESI_SK_E12maybe_shrinkEv
Odg:__Z75RuntimeInvoker_RuntimeObject_RuntimeObject_Single_t2076509932_RuntimeObjectPFvvEPK10MethodInfoPvPS4_
Kwb:__Z18Transfer_BlittableI18StreamedBinaryReadILb1EELb1EsEvRK29SerializationCommandArgumentsR31RuntimeSerializationCommandInfo
ulg:__Z54RuntimeInvoker_Void_t1841601450_ColorBlock_t2652774230PFvvEPK10MethodInfoPvPS4_
y5c:_Single_System_IConvertible_ToSByte_m3757385387
sAh:_Vector3_get_forward_m1316319684
fue:_StreamAsyncResult_SetComplete_m2141125667
I_a:__ZL21SetAnisoLimitEnumImplN7Texture20AnisotropicFilteringEb
OQc:__ZN22BaseUnityConnectClient17OnEnterStateReadyEv
M_:__Z21GetManagerFromContexti
MJa:__ZN14GrowableBufferD2Ev
HEh:_GUIStyle_get_stretchWidth_m813991504
Mfc:__Z29Input_CUSTOM_GetMouseButtonUpi
G5h:__ZN6il2cpp6icalls8mscorlib6System8MonoType16InternalGetEventEP20Il2CppReflectionTypeP12Il2CppStringi
xPf:_UInt32_System_IConvertible_ToUInt32_m1257480358_AdjustorThunk
Krg:__Z55RuntimeInvoker_CustomAttributeTypedArgument_t1498197914PFvvEPK10MethodInfoPvPS4_
zJf:_Interlocked_CompareExchange_m3339239614
qBc:_UNITY_tt_face_load_maxp
_fc:__Z46Input_CUSTOM_INTERNAL_set_compositionCursorPosRK13Vector2fIcall
Ps:__ZN7mecanim5human12FullBodyMaskEv
RVi:__ZL98Activator_t1850728717_CustomAttributesCacheGenerator_Activator_CreateInstance_m1465989661____args1P21CustomAttributesCache
kAh:_Transform_set_position_m2942701431
z4a:__ZN19ShaderPropertySheet11ComputeHashEv
Z$h:__ZN30dense_hashtable_const_iteratorI10KeyWrapperIPK19Il2CppGenericMethodES4_N6il2cpp8metadata23Il2CppGenericMethodHashEN14dense_hash_setIS4_S7_NS4_14EqualsComparerINS6_26Il2CppGenericMethodCompareEEENSt3__29allocatorIS4_EEE8IdentityESB_SE_EppEv
Gxb:__ZN4PPtrI6ObjectE8TransferI18StreamedBinaryReadILb1EEEEvRT_
HS:__ZN11UnityEngine15CloudWebService20WebRequestRestClient6IsDoneEv
n9i:__ZL93AudioSource_t1135106623_CustomAttributesCacheGenerator_AudioSource_Play_m1385529671____delay0P21CustomAttributesCache
Thd:_ColorTween_get_tweenMode_m2919867230_AdjustorThunk
Li:_llvm_fabs_f32
Bgd:_CanvasScaler_HandleScaleWithScreenSize_m80056230
tbj:__ZL51TileBase_t4130003429_CustomAttributesCacheGeneratorP21CustomAttributesCache
kS:__ZN11UnityEngine15CloudWebService16SessionContainer16GetJsonDataBlockEjRKN4core12basic_stringIcNS2_20StringStorageDefaultIcEEEERS6_PjSA_
hDf:_SByte_System_IConvertible_ToUInt64_m2174352876_AdjustorThunk
tXf:_GenericTypeParameterBuilder_get_AssemblyQualifiedName_m902593295
Sfi:__ZN15dense_hashtableINSt3__24pairIK10KeyWrapperIPK14Il2CppAssemblyEPK22Il2CppMonoAssemblyNameEES6_N6il2cpp5utils11PointerHashIS4_EEN14dense_hash_mapIS6_SA_SF_NS6_14EqualsComparerINS0_8equal_toIS5_EEEENS0_9allocatorISB_EEE9SelectKeyESK_SM_E13set_empty_keyERKSB_
kIf:_UTF7Encoding_InternalGetBytes_m2772055844
oRg:_EqualityComparer_1__ctor_m831468288_gshared
CKg:_Dictionary_2_System_Collections_IDictionary_set_Item_m2290664072_gshared
F9f:__Z76RuntimeInvoker_Void_t1841601450_Int64_t909078037_ResourceInfoU26_t3126209420PFvvEPK10MethodInfoPvPS4_
iae:_SimpleCollator__cctor_m2693747668
UPd:_Decimal_CompareTo_m2454501434_AdjustorThunk
Q$:__ZN14SafeBinaryReadD2Ev
eOf:_UInt16_System_IConvertible_ToChar_m4055364664
x0b:__Z13RegisterClassI7TextureEvv
afh:_ExpressionCollection_OnValidate_m1703610065
Q8d:_Component_GetComponentInChildren_TisRuntimeObject_m2461586036_gshared
_xb:__ZN8Gradient8TransferI18StreamedBinaryReadILb1EEEEvRT_
xHg:_Enumerator_Dispose_m2369319718_AdjustorThunk
sXi:__ZL79Convert_t2607082565_CustomAttributesCacheGenerator_Convert_ToUInt16_m3991499696P21CustomAttributesCache
soc:__ZN5Unity9rapidjson8internal6Grisu2EdPcPiS3_
LPf:_UInt32_ToString_m554020223_AdjustorThunk
ORe:_Enumerator_Dispose_m1520016780_AdjustorThunk
Gmh:_GameObject_SendMessage_m3423113156
wmi:__ZN6il2cpp6icalls8mscorlib6System4Type15MakeGenericTypeEP20Il2CppReflectionTypeP11Il2CppArray
kj:_SDL_PauseAudio
d7h:_il2cpp_class_from_type
Qud:_Array_Sort_m2323017822
Cxg:_Scrollbar_UpdateDrag_m3839695926
xZ:__ZN9ShaderLab19CommonPropertyNames16StaticInitializeEPv
Sye:_MissingMemberException__ctor_m3710131950
rbb:__ZN13MemoryManager31DisallowAllocationsOnThisThreadEv
rvh:_Ray_get_direction_m4136268940_AdjustorThunk
AC:__ZN7mecanim9animation18CreateAvatarOutputEPKNS0_14AvatarConstantEbbRNS_6memory9AllocatorE
Eeg:__Z91RuntimeInvoker_Void_t1841601450_RuntimeObject_Int32_t2071877448_RuntimeObject_RuntimeObjectPFvvEPK10MethodInfoPvPS4_
gEf:_CspParameters__ctor_m2546931874
vL:__ZN11AudioSource23VirtualRedirectTransferER24GenerateTypeTreeTransfer
J8b:__ZN7Texture11SetWrapModeE15TextureWrapMode
c1a:__ZN14Texture2DArray23VirtualRedirectTransferER14SafeBinaryRead
fPb:__ZNK6Camera21CalculateCanDoShadowsEv
nNg:_Dictionary_2_make_pair_m2631942124_gshared
imd:_Graphic__cctor_m1643894470
ivi:__ZN6il2cpp2os6Thread12SetStackSizeEj
_3f:__Z99RuntimeInvoker_Void_t1841601450_Int32_t2071877448_RuntimeObject_Int32_t2071877448_Int32_t2071877448PFvvEPK10MethodInfoPvPS4_
Upf:_X509ChainElementEnumerator_get_Current_m2232618221
Ekh:_DebugLogHandler_LogFormat_m2866699703
z9f:__Z54RuntimeInvoker_CallingConventions_t1097349142_IntPtr_tPFvvEPK10MethodInfoPvPS4_
Zfd:_U3COnFinishSubmitU3Ec__Iterator0_Reset_m2080388334
C8b:__ZNK8Renderer16IsVisibleInSceneEv
Uyg:_ScrollRect_set_onValueChanged_m3957749575
BX:__Z13VFormatBufferPciPKcz
fzb:__Z18Transfer_BlittableI18StreamedBinaryReadILb0EELb1EhEvRK29SerializationCommandArgumentsR31RuntimeSerializationCommandInfo
eSh:_U3CCreateWhereIteratorU3Ec__Iterator1D_1_Dispose_m1879652802_gshared
SPi:__ZL90SafeHandle_t2733794115_CustomAttributesCacheGenerator_SafeHandle_get_IsInvalid_m3910183075P21CustomAttributesCache
bod:_Image_GenerateSimpleSprite_m4275440988
VOf:_UInt16_ToString_m3280699191
Zla:__ZN6prcoreL27StretchGenericFloatBilinearI15TexFormatRFloatEEvPKNS_9InnerInfoE
qQi:__ZL56_PropertyInfo_t1567586598_CustomAttributesCacheGeneratorP21CustomAttributesCache
xYd:_Array_InternalArray__IEnumerable_GetEnumerator_TisBoolean_t3825574718_m798244337_gshared
GNe:_List_1_CopyTo_m158925060_gshared
Ev:__Z24ProcessAnimationMixBeginP35AnimationPlayableEvaluationConstantP32AnimationPlayableEvaluationInputP33AnimationPlayableEvaluationOutput
w_d:_Array_IndexOf_TisCustomAttributeNamedArgument_t94157543_m745056346_gshared
aja:__Z14PadImageBorderR14ImageReferenceii
zci:__ZN15dense_hashtableINSt3__24pairIK10KeyWrapperINS1_IPK10MethodInfoP11Il2CppClassEEEjEES9_17ReflectionMapHashIS8_EN14dense_hash_mapIS9_jSD_NS9_14EqualsComparerINS0_8equal_toIS8_EEEENS0_9allocatorISB_EEE9SelectKeyESI_SK_E4findERSA_
b3h:__ZN6il2cpp2vm13MetadataCache28GetFieldDefaultValueForFieldEPK9FieldInfo
GSg:_ArrayReadOnlyList_1_ReadOnlyError_m2289309720_gshared
gw:__ZN27AnimationLayerMixerPlayableD2Ev
U5h:__ZN6il2cpp2vm8basepathEPKc
_Og:_DefaultComparer_GetHashCode_m320514092_gshared
E2i:__ZL99Input_t1785128008_CustomAttributesCacheGenerator_Input_INTERNAL_set_compositionCursorPos_m144787813P21CustomAttributesCache
QH:__ZN12AudioManager39HandlePendingAudioConfigurationCallbackEv
Z6f:__Z119RuntimeInvoker_Int32_t2071877448_RuntimeObject_RuntimeObject_Int32_t2071877448_Int32_t2071877448_BooleanU26_t3168250738PFvvEPK10MethodInfoPvPS4_
xGi:__ZL79RuntimeObject_CustomAttributesCacheGenerator_Object_ReferenceEquals_m3900584722P21CustomAttributesCache
gk:_emscripten_glIsFramebuffer
qGa:__ZN12_GLOBAL__N_16qAtan2Eff
sKd:_Convert_ToInt64_m954367741
xQh:__ZL25UnresolvedVirtualCall_153P12Il2CppObject40CustomAttributeTypedArgument_t1498197914S1_PK10MethodInfo
kk:_JS_Sound_SetLoopPoints
Pzd:_ArrayList__ctor_m1467563650
HM:__ZN12AudioManager17ShouldSourcePauseEb
bDi:__ZN6il2cpp2vm26MetadataAllocGenericMethodEv
Dra:__ZN19ConstantBuffersGLES12RecordRenderEv
Hqc:__ZN9JSONWrite8TransferI10RectOffsetEEvRT_PKc17TransferMetaFlags
Hia:__ZN4crnd12symbol_codec11decode_bitsEj
hth:_X509Crl_get_Extensions_m1795830276
WFc:_cf2_doFlex
D5d:_Array_Sort_TisRaycastResult_t21186376_TisRaycastResult_t21186376_m38820193_gshared
s6b:__ZN21FixedBehaviourManagerD0Ev
nBh:_Vector2__ctor_m847450945_AdjustorThunk
b8i:__ZL55RaycastHit2D_t4063908774_CustomAttributesCacheGeneratorP21CustomAttributesCache
AOa:__ZN10Matrix3x4f8TransferI24GenerateTypeTreeTransferEEvRT_
rte:_StreamReader__ctor_m3454466728
UH:__ZN4FMOD6System12createReverbEPPNS_6ReverbE
Wwh:_RectTransform_get_anchorMin_m3466802567
Zv:__ZN7mecanim19ValueArrayBlendNodeILb1EEEvRKNS_10ValueArrayERKNS_14ValueArrayMaskERS1_RS4_RNS_16ValueArrayWeightEf
tbb:__Z16MarkDependenciesR27GarbageCollectorThreadStatej
Mrf:_X509ChainElementEnumerator_Reset_m3832280427
Lcj:__ZL75EventSystem_t3466835263_CustomAttributesCacheGenerator_U3CU3Ef__mgU24cache0P21CustomAttributesCache
YAe:_MulticastDelegate_RemoveImpl_m2024746777
Lgd:_CanvasUpdateRegistry_ParentCount_m2367607495
SAe:_MulticastDelegate_Equals_m3064081489
rje:_Activator_CreateInstance_m1465989661
v9:__ZNK9Transform11GetPositionEv
xfh:_PositionAssertion_GetWidth_m2294218483
BMa:__ZN23SharedMeshRenderingData18UnloadVertexStreamEi
I6b:__ZN31CanvasBatchIntermediateRenderer11AddSubBatchERK16DrawBuffersRangePK19ShaderPropertySheet
iej:__ZL104PointerEventData_t1599784723_CustomAttributesCacheGenerator_PointerEventData_set_scrollDelta_m4002219844P21CustomAttributesCache
q5b:__ZN19RenderEventsContextC2Ei
yQ:__Z6simd4fRKf
R1d:_Array_InternalArray__ICollection_CopyTo_TisColor32_t874517518_m379086718_gshared
sBg:_Slider_ClampValue_m2851810895
Ok:_emscripten_glEnable
Zqi:__ZN6il2cpp2gc16GarbageCollector29RegisterFinalizerForNewObjectEP12Il2CppObject
TEa:__ZN10TagManager23VirtualRedirectTransferER14SafeBinaryRead
u6g:_MarshalAsAttribute__ctor_m1892084128
MAc:_UNITY_FT_Init_Class_ft_grays_raster
k6:__ZN14PlayableOutput26ClearInvalidSourcePlayableEv
URb:__Z15InitLightMeshesv
NVi:__ZL97WaitHandle_t677569169_CustomAttributesCacheGenerator_WaitHandle_t677569169____Handle_PropertyInfoP21CustomAttributesCache
qCe:_KeyValuePair_2_ToString_m1391611625_AdjustorThunk
yn:FUNCTION_TABLE_iifiii
mr:__ZN7mecanim9animation14HasHumanCurvesERKNS0_18ClipMuscleConstantE
wJd:_Double_Parse_m1617409931
OOa:__Z13TransferArrayILi4Ei19StreamedBinaryWriteILb0EEEjRAT__T0_PKcRT1_
z_a:__ZN15QualitySettings8TransferI19StreamedBinaryWriteILb0EEEEvRT_
wIe:_List_1_System_Collections_Generic_IEnumerableU3CTU3E_GetEnumerator_m1503548298_gshared
wub:__Z18Transfer_BlittableI19StreamedBinaryWriteILb0EELb1E8Vector2fEvRK29SerializationCommandArgumentsR31RuntimeSerializationCommandInfo
CFc:_cf2_arrstack_init
wPi:__ZL65ClassInterfaceAttribute_t910653559_CustomAttributesCacheGeneratorP21CustomAttributesCache
Nai:__ZN15dense_hashtableINSt3__24pairIK10KeyWrapperINS1_IPK14Il2CppAssemblyP11Il2CppClassEEEjEES9_17ReflectionMapHashIS8_EN14dense_hash_mapIS9_jSD_NS9_14EqualsComparerINS0_8equal_toIS8_EEEENS0_9allocatorISB_EEE9SelectKeyESI_SK_E15insert_noresizeERKSB_
sW:__Z15CleanLogHandler7LogTypePKcz
Kfb:__ZN9ShaderLab19SerializedSubShader8TransferI19StreamedBinaryWriteILb0EEEEvRT_
oH:__ZN14AudioBehaviour15ThreadedCleanupEv
RHf:_UTF32Encoding_GetBytes_m2290150495
qCb:__ZN6Camera17RemoveImageFilterERK11ImageFilter
Bna:__ZNSt3__218__insertion_sort_3IR25ValueParameterArraySorterPN20GpuProgramParameters14ValueParameterEEEvT0_S6_T_
ECd:_CaseInsensitiveHashCodeProvider_AreEqual_m2456617355
sig:__Z74RuntimeInvoker_Boolean_t3825574718_HitInfo_t1761367055_HitInfo_t1761367055PFvvEPK10MethodInfoPvPS4_
dOc:__ZZN2UI11CanvasGroup15InitializeClassEvEN38FunctorImpl_117kTransformParentChanged4CallEPviR11MessageData
hug:_LayoutUtility_GetLayoutProperty_m4052007472
vqa:__ZNSt3__214__split_bufferI20ComputeShaderVariantRNS_9allocatorIS1_EEED2Ev
vPh:__ZL24UnresolvedVirtualCall_97P12Il2CppObjectS0_iS0_iPK10MethodInfo
Bzb:__Z18Transfer_BlittableI18StreamedBinaryReadILb0EELb1E9BoundsIntEvRK29SerializationCommandArgumentsR31RuntimeSerializationCommandInfo
zef:_Context_set_WriteSequenceNumber_m3356252710
TNc:__ZN2UI26InitializeDeviceForOverlayEi
vme:_Guid_Equals_m2389236871
rY:__Z27LogRepeatingStringWithFlagsRKN4core12basic_stringIcNS_20StringStorageDefaultIcEEEE15LogMessageFlagsi
fFe:_Enumerator_MoveNext_m3483405135_gshared
pt:__ZN17AnimationPlayable28ComputeNeedsBindingRebuildedEv
vs:__ZN17AnimationPlayable23RequestAllocateBindingsEv
g2g:_DefaultComparer__ctor_m2859550749_gshared
y0d:_Array_InternalArray__ICollection_Add_TisMonoResource_t3127387157_m2070096275_gshared
kGe:_List_1_CheckIndex_m3609163576_gshared
m4i:__ZL62PlayableOutputHandle_t551742311_CustomAttributesCacheGeneratorP21CustomAttributesCache
YKb:__ZNSt3__227__insertion_sort_incompleteIRPFbP10GUIElementS2_EPS2_EEbT0_S7_T_
bgc:__Z41Register_UnityEngine_Input_GetMouseButtonv
ITc:__ZN18UnityConnectClient33OnPlayerSessionStateChangedStaticEPS_jyy
qLi:__ZL74CaseInsensitiveHashCodeProvider_t2307530285_CustomAttributesCacheGeneratorP21CustomAttributesCache
MQf:_UIntPtr__ctor_m3900568171_AdjustorThunk
Sbj:__ZL103UISystemProfilerApi_t845863050_CustomAttributesCacheGenerator_UISystemProfilerApi_EndSample_m3264820872P21CustomAttributesCache
pT:__ZNK11UnityEngine15CloudWebService23WebRequestUploadHandler11GetProgressEv
Ffa:__ZN7ApiGLES4LoadE16GfxDeviceLevelGL
vYa:__ZN18StreamedBinaryReadILb0EE21TransferSTLStyleArrayI13dynamic_arrayI31EnlightenSystemAtlasInformationLj8EEEEvRT_17TransferMetaFlags
Aia:__ZN4crnd12crn_unpacker22decode_color_endpointsEv
eqi:__ZN15dense_hashtableI10KeyWrapperIP18Il2CppGenericClassES3_N6il2cpp8metadata22Il2CppGenericClassHashEN14dense_hash_setIS3_S6_NS3_14EqualsComparerINS5_25Il2CppGenericClassCompareEEENSt3__29allocatorIS3_EEE8IdentityESA_SD_E15insert_noresizeERKS3_
B0e:_ReadOnlyCollection_1_System_Collections_IList_Clear_m3006875897_gshared
O3b:__ZZL31RegisterOtherRendererPropertiesR22GenericPropertyBindingEN30Wrapper_RendererReceiveShadows13GetFloatValueEPv
G1i:__ZL80GameObject_t1756533147_CustomAttributesCacheGenerator_GameObject_Find_m279709565P21CustomAttributesCache
M7f:__Z130RuntimeInvoker_Void_t1841601450_RuntimeObject_Int32U26_t455636984_ByteU26_t1147306860_Int32U26_t455636984_ByteU5BU5DU26_t790777611PFvvEPK10MethodInfoPvPS4_
xFe:_Enumerator_System_Collections_IEnumerator_get_Current_m3866069145_gshared
vbe:_PreviousInfo_t581002487_marshal_pinvoke_cleanup
CFb:__ZN8Material11SetPassFastEPN9ShaderLab4PassER17ShaderPassContextP6Shaderib
Y_a:__ZNK13ScreenManager13GetLockCursorEv
GTc:__ZN11UnityEngine7Connect20BasePersistentValues10SaveValuesER9JSONWrite
xlj:_AudioListener_AddExtension_m2954727157
Mbd:_ExecuteEvents_get_pointerDownHandler_m1172742772
I9b:__Z14ScaleCurveTimeR17AnimationCurveTplIfEf
s4:__ZN22VirtualJoystickManagerC2Ev
bMb:__Z12SetupLODFadeR9GfxDeviceR17ShaderPassContextf
JUa:__ZNK14PlayableOutput7GetTypeEv
d7f:__Z203RuntimeInvoker_Boolean_t3825574718_RuntimeObject_Int32U26_t455636984_Int32_t2071877448_Int32_t2071877448_RuntimeObject_SByte_t454417549_Int32_t2071877448_ContractionU26_t2019974048_ContextU26_t3131521781PFvvEPK10MethodInfoPvPS4_
Yrh:_X501_ToString_m3328169518
HRb:__ZL24CollectForwardObjectsJobP27CollectForwardObjectsHeader
_3g:_Enumerator_System_Collections_IDictionaryEnumerator_get_Entry_m345330700_gshared
u2h:__ZNK15dense_hashtableINSt3__24pairIK10KeyWrapperIPK11Il2CppClassEPKcEES6_N6il2cpp5utils11PointerHashIS3_EEN14dense_hash_mapIS6_S9_SE_NS6_14EqualsComparerINS0_8equal_toIS5_EEEENS0_9allocatorISA_EEE9SelectKeyESJ_SL_E12test_deletedERK24dense_hashtable_iteratorISA_S6_SE_SN_SJ_SL_E
_Si:__ZL53HMACSHA256_t2622794722_CustomAttributesCacheGeneratorP21CustomAttributesCache
eVb:__ZNK25CameraStackRenderingState24ResolveTempToEyeTexturesEv
ETb:__Z13IsNodeVisibleRK9SceneNodeRK4AABBRK22SceneCullingParameters
l_f:_EventInfo__ctor_m1190141300
yUg:_InternalEnumerator_1_MoveNext_m3585886944_gshared
MPc:__Z57RectTransformUtility_CUSTOM_INTERNAL_CALL_PixelAdjustRectP12Il2CppObjectS0_R5RectTIfE
CUb:__Z24ScheduleCullingAllGroupsR8JobFenceRK22SceneCullingParametersiRK13CullingOutputRK13dynamic_arrayIP12CullingGroupLj4EERKS_
Qzf:_DelayedFixupRecord_FixupImpl_m4249966635
oCj:_emscripten_glStencilMask__wrapper
P$h:__ZN15dense_hashtableI10KeyWrapperIPK19Il2CppGenericMethodES4_N6il2cpp8metadata23Il2CppGenericMethodHashEN14dense_hash_setIS4_S7_NS4_14EqualsComparerINS6_26Il2CppGenericMethodCompareEEENSt3__29allocatorIS4_EEE8IdentityESB_SE_EC2ERKSH_j
Ube:_BigInteger_ToString_m3837784224
SPd:_Decimal_decimalCompare_m26009298
Yza:__ZNK17ArchiveFileSystem8PositionERK13FileEntryData
mvc:__ZN16NovodexAllocator8allocateEjPKcS1_i
eRd:_DllNotFoundException__ctor_m267198482
gRb:__Z17PrepareShadowMapsRK11CullResultsRK11ActiveLightRK10MinMaxAABB
Mng:__Z75RuntimeInvoker_Boolean_t3825574718_CustomAttributeTypedArgument_t1498197914PFvvEPK10MethodInfoPvPS4_
mJf:_NativeEventCalls_CreateEvent_internal_m1605829321
cHe:_List_1_GetIndex_m3409004147_gshared
M5i:__ZL73RuntimePlatform_t1869584967_CustomAttributesCacheGenerator_MetroPlayerX64P21CustomAttributesCache
TNh:__ZL24UnresolvedVirtualCall_13P12Il2CppObjectaPK10MethodInfo
qYg:_InternalEnumerator_1_System_Collections_IEnumerator_get_Current_m3239681450_AdjustorThunk
zdb:__ZNSt3__26vectorIN9ShaderLab20SerializedSubProgram15VectorParameterENS_9allocatorIS3_EEEC2ERKS6_
ERb:__ZN9ShaderLab10GrabPassesD2Ev
n1a:__ZN14Texture2DArray13UploadTextureEv
M4c:_SecurityFrame_t1002202659_marshal_pinvoke
$Cc:_tt_cmap14_done
k9a:__ZN18AwakeFromLoadQueue25RegisterObjectInstanceIDsEv
D0i:__ZL75Camera_t189460977_CustomAttributesCacheGenerator_Camera_get_main_m881971336P21CustomAttributesCache
gxd:_Buffer_BlockCopy_m1586717258
ySi:__ZL93X509Certificate_t283079845_CustomAttributesCacheGenerator_X509Certificate_GetName_m2354987368P21CustomAttributesCache
lw:__ZNK27AnimationLayerMixerPlayable11DerivesFromE17ScriptingClassPtr
qxc:__ZN20TextRenderingPrivate19NativeTextGenerator15InsertCharacterEiPj
uWg:_InternalEnumerator_1__ctor_m3589241961_AdjustorThunk
vUd:_CompareInfo_GetSortKey_m3691382873
JUg:_InternalEnumerator_1_MoveNext_m1791963761_AdjustorThunk
OOd:_DBNull_ToString_m3228904745
Zlc:__ZN5IMGUI20MoveWindowFromLayoutER8GUIStateiRK5RectTIfE
A0c:_SHA1Managed_HashCore_m2658295635
Uu:__ZN17AnimationPlayableD0Ev
oaf:_RC4_get_IV_m506011366
eth:_X509Crl__ctor_m2469408229
ovb:__Z18Transfer_BlittableI19StreamedBinaryWriteILb0EELb0EyEvRK29SerializationCommandArgumentsR31RuntimeSerializationCommandInfo
KPi:__ZL82SafeHandle_t2733794115_CustomAttributesCacheGenerator_SafeHandle_Close_m1146946803P21CustomAttributesCache
l4g:_Enumerator_get_CurrentValue_m3562053380_AdjustorThunk
_Qh:__ZL25UnresolvedVirtualCall_182P12Il2CppObject6Guid_tPK10MethodInfo
psf:_X509SubjectKeyIdentifierExtension_CopyFrom_m136762226
z7i:__ZL86Logger_t3328995178_CustomAttributesCacheGenerator_Logger_get_filterLogType_m3137240955P21CustomAttributesCache
FDe:_Enumerator_System_Collections_IEnumerator_Reset_m610822832_AdjustorThunk
kzc:__ZN20TextRenderingPrivate15DynamicFontData21GetFontMetricsForFaceERK13dynamic_arrayIN4core17string_with_labelILi35EEELj4EEiRKS1_I4PPtrIN13TextRendering4FontEELj4EEPfSF_
kyc:_UNITY_FT_Open_Face
gyj:_glGenRenderbuffers__wrapper
Pce:_BigInteger_op_Division_m1581119694
cBf:_CallbackHandler_Invoke_m1498072969
XXc:_DSACryptoServiceProvider__ctor_m701823690
rqg:__Z74RuntimeInvoker_Void_t1841601450_Int32_t2071877448_ResourceInfo_t3933049236PFvvEPK10MethodInfoPvPS4_
ATf:_CustomAttributeData_GetCustomAttributes_m2421330738
Lhf:_SecurityParameters_set_ClientWriteMAC_m1970377285
lUh:_TextGenerator_GetVerticesInternal_m514005870
Uoi:__ZN30dense_hashtable_const_iteratorINSt3__24pairIK10KeyWrapperINS1_IPKcS4_EEEiEES6_24NamespaceAndNamePairHashN14dense_hash_mapIS6_iS9_NS6_14EqualsComparerI26NamespaceAndNamePairEqualsEENS0_9allocatorIS8_EEE9SelectKeyESD_SF_EppEv
QMf:_Type_get_IsEnum_m313908919
bec:__Z44Register_UnityEngine_Component_get_transformv
TNe:_List_1_Reverse_m3395936565_gshared
XUe:_Collection_1_System_Collections_ICollection_CopyTo_m1335644572_gshared
CB:__ZN12_GLOBAL__N_120ProcessPlayableGraphERN8Animator11AnimatorJobER35AnimationPlayableEvaluationConstantR32AnimationPlayableEvaluationInputR33AnimationPlayableEvaluationOutputPFvS4_R17AnimationPlayableEPFvS4_S6_S8_EPFvS8_S4_S6_S8_fESE_MS9_FvPS3_PS5_PS7_E
OLe:_List_1_CheckMatch_m2830747427_gshared
OHb:__ZN17ArchiveFileSystem12MountArchiveEPKcS1_
RQd:_StackFrame_GetMethod_m72881026
Mpc:__Z18Transfer_BlittableI9JSONWriteLb1E8Vector4fEvRK29SerializationCommandArgumentsR31RuntimeSerializationCommandInfo
un:FUNCTION_TABLE_viififiii
KFa:__Z30GetScriptableCullingParametersR6CameraR27ScriptableCullingParameters
nEg:_Enumerator_System_Collections_IEnumerator_Reset_m70453843_gshared
bZa:__ZThn32_NK8Renderer14GetSubsetIndexEi
K9f:__Z58RuntimeInvoker_Byte_t3683104436_IntPtr_t_Int32_t2071877448PFvvEPK10MethodInfoPvPS4_
N6d:_Dictionary_2_Do_CopyTo_TisKeyValuePair_2_t1174980068_TisRuntimeObject_m3279061992_gshared
yij:__ZL59Slider_t297367283_CustomAttributesCacheGenerator_m_MinValueP21CustomAttributesCache
z2b:__ZN13ProduceHelperI15ResourceManagerLb0EE7ProduceE18MemLabelIdentifier18ObjectCreationMode
Gca:__ZN9GfxDevice15ImmediateVertexEfff
f0b:__Z13RegisterClassI8MaterialEvv
TTi:__ZL51Evidence_t1407710183_CustomAttributesCacheGeneratorP21CustomAttributesCache
KXa:__ZNK16LightmapSettings22GetTypeVirtualInternalEv
hEh:_WindowFunction_BeginInvoke_m87819360
jKa:__ZN16GraphicsSettings13AwakeFromLoadE17AwakeFromLoadMode
CTd:_FieldAccessException__ctor_m3893881490
luc:__ZN8JSONRead21TransferSTLStyleArrayI13dynamic_arrayItLj2EEEEvRT_17TransferMetaFlags
Sp:__ZN6Object13AwakeFromLoadE17AwakeFromLoadMode
baa:__ZN13GfxDeviceGLES15SetStencilStateEPK18DeviceStencilStatei
ghg:__Z107RuntimeInvoker_Void_t1841601450_Single_t2076509932_Single_t2076509932_Single_t2076509932_Single_t2076509932PFvvEPK10MethodInfoPvPS4_
Aoj:_cycle
OZi:__ZL72PKCS12_t1362584795_CustomAttributesCacheGenerator_U3CU3Ef__switchU24map5P21CustomAttributesCache
Ed:_emscripten_glUniform1iv
PCg:_Text_get_preferredHeight_m452532789
ZWh:_AnimationOffsetPlayable_Equals_m1510591175
r6c:_String_System_IConvertible_ToDouble_m3860911722
Skb:__ZN16MemoryFileSystemD2Ev
I0g:_InternalEnumerator_1_get_Current_m3732458101_AdjustorThunk
xLg:_Dictionary_2_System_Collections_Generic_ICollectionU3CSystem_Collections_Generic_KeyValuePairU3CTKeyU2CTValueU3EU3E_Contains_m842343255_gshared
I8e:_ARC4Managed__ctor_m2922048522
Bxc:__Z17dynamic_pptr_castIP9Texture2D7TextureET_RK4PPtrIT0_E
o1e:_ReadOnlyCollection_1_System_Collections_IList_set_Item_m1272038804_gshared
KTg:_InternalEnumerator_1_System_Collections_IEnumerator_get_Current_m1931522460_AdjustorThunk
Z2c:_SecurityPermission_IsEmpty_m1869313067
arf:_X509CertificateCollection__ctor_m3709509050
Mdc:__Z37Register_UnityEngine_Camera_get_depthv
age:_EncryptedPrivateKeyInfo_get_Salt_m2734354394
vyh:_UsedByNativeCodeAttribute__ctor_m3185822159
k3e:_ReadOnlyCollection_1_System_Collections_Generic_IListU3CTU3E_set_Item_m1918537449_gshared
kUe:_Collection_1_System_Collections_ICollection_CopyTo_m3896480607_gshared
scd:_PointerEventData_set_position_m794507622
Ylh:_UnityEvent_GetDelegate_m1261032859
E$b:__ZN15ApplicationInfo16GetInstallerNameEv
XZb:__Z23ConvertIntegerToTypePtrItEbPvR14SafeBinaryRead
eC:__ZN7mecanim5human29HumanGetGoalOrientationOffsetENS0_4GoalE
Vd:_emscripten_glStencilFunc
MNh:__ZL23UnresolvedVirtualCall_6P12Il2CppObjectiPK10MethodInfo
_Ng:_DefaultComparer_GetHashCode_m3315096533_gshared
R0f:_MonoMethod_MakeGenericMethod_impl_m2063853616
N4c:__Z46il2cpp_codegen_get_marshal_directive_exceptionPKc
Vgb:__ZN9ShaderLab20SerializedSubProgram14AddMatrixParamEPKcii15ShaderParamTypei
zOa:__ZN24GenerateTypeTreeTransfer8TransferI13dynamic_arrayI8Vector3fLj4EEEEvRT_PKc17TransferMetaFlags
$d:_glGetActiveUniformBlockName
Xkd:_FontData_set_verticalOverflow_m4211463083
Kf:_emscripten_glUniform1fv
Dme:_Guid_AppendByte_m2890893073
syd:_Char_System_IConvertible_ToType_m3106771703_AdjustorThunk
suf:_Interval_Intersects_m3480157390_AdjustorThunk
pgc:__Z39Quaternion_CUSTOM_INTERNAL_CALL_InverseRK11QuaternionfRS_
e6g:_GCHandle_Alloc_m1063472408
OI:__ZN4FMOD7Channel20set3DConeOrientationEP11FMOD_VECTOR
xej:__ZL86StandaloneInputModule_t70867863_CustomAttributesCacheGenerator_m_InputActionsPerSecondP21CustomAttributesCache
ln:FUNCTION_TABLE_iiifii
P8i:__ZL54SkeletonBone_t345082847_CustomAttributesCacheGeneratorP21CustomAttributesCache
VDf:_CryptoConfig_CreateFromName_m391442950
WVh:_RectTransformUtility_INTERNAL_CALL_PixelAdjustRect_m3338747528
isi:__ZN6il2cpp2vm12GenericClass11SetupEventsEP11Il2CppClass
WIc:_tt_delta_interpolate
UCc:_tt_cmap12_get_info
skd:_U3CDelayedDestroyDropdownListU3Ec__Iterator0_Dispose_m3973609370
Lni:__ZN6il2cpp2vm15ReboxIReferenceEP14Il2CppIUnknownP11Il2CppClass
Rwe:_StreamWriter_LowLevelWrite_m4205372900
pWh:__ZN6il2cpp6icalls8mscorlib6System7Decimal14decimalCompareEP19il2cpp_decimal_reprS5_
lyi:__ZThn4_N6il2cpp2vm13CachedCCWBaseINS0_13ManagedObjectEE7ReleaseEv
e$f:_Module__ctor_m3853650010
XCd:_CollectionBase_System_Collections_IList_get_Item_m2370387510
ORi:__ZL59RemotingException_t109604560_CustomAttributesCacheGeneratorP21CustomAttributesCache
v5d:_Array_Sort_TisCustomAttributeNamedArgument_t94157543_m3436077809_gshared
szj:_glCopyTexImage2D__wrapper
Grd:_LayoutElement__ctor_m789941073
fmh:_UnityEventBase_DirtyPersistentCalls_m3176584979
$Oi:__ZL68TargetInvocationException_t4098620458_CustomAttributesCacheGeneratorP21CustomAttributesCache
UYi:__ZL56RankException_t1539875949_CustomAttributesCacheGeneratorP21CustomAttributesCache
UW:__GLOBAL__sub_I_runtime_graphics_billboard_0_cpp
JFb:__Z18ClearByDrawingQuad13GfxClearFlagsRK10ColorRGBAffjR17ShaderPassContext
R8g:_DynamicPropertyCollection_FindProperty_m1233265924
wla:__ZN6prcoreL17RemapGenericFloatI14TexFormatRHalf15TexFormatRFloatEEvPKNS_9InnerInfoE
SLb:__Z16ShouldUseShadowsb
d6:__ZN15DirectorManager21RebuildStageCallbacksEv
WFb:__ZN19RuntimeSceneManager9LoadSceneERKN4core12basic_stringIcNS0_20StringStorageDefaultIcEEEES6_S6_RK9UnityGUIDiNS_11LoadingModeE
jOh:__ZL24UnresolvedVirtualCall_31P12Il2CppObjectiS0_S0_PK10MethodInfo
$bj:__ZL115CanvasRenderer_t261436805_CustomAttributesCacheGenerator_CanvasRenderer_INTERNAL_CALL_EnableRectClipping_m610385697P21CustomAttributesCache
Gma:__ZN7ApiGLES10DrawArraysE16GfxPrimitiveTypejjj
mG:__ZN10SampleClip13LoadBaseSoundEv
Iwh:_RectOffset_get_left_m1496351507
Y9f:__Z49RuntimeInvoker_TimeSpan_t3430258949_RuntimeObjectPFvvEPK10MethodInfoPvPS4_
FP:__Z57AudioSource_CUSTOM_INTERNAL_CALL_ClearExtensionPropertiesP12Il2CppObjectRK12PropertyName
lri:__ZN15dense_hashtableINSt3__24pairIK10KeyWrapperIP12Il2CppObjectEN6il2cpp2gc9CachedCCWEEES5_NS7_5utils11PointerHashIS3_EEN14dense_hash_mapIS5_S9_SD_NS5_14EqualsComparerINS0_8equal_toIS4_EEEENS0_9allocatorISA_EEE9SelectKeyESI_SK_E15insert_noresizeERKSA_
fYe:_Collection_1_Contains_m643401393_gshared
eUa:__ZN22DeviceMVPMatricesStateC2ER9GfxDevice
$3i:__ZL111Object_t1021602117_CustomAttributesCacheGenerator_Object_DestroyImmediate_m3250094537____allowDestroyingAssets1P21CustomAttributesCache
j6c:_String__ctor_m372528291
Xm:FUNCTION_TABLE_iifii
H$a:__ZNSt3__26vectorI13dynamic_arrayI8Vector2fLj4EENS_9allocatorIS3_EEE6assignINS_11__wrap_iterIPS3_EEEENS_9enable_ifIXaasr21__is_forward_iteratorIT_EE5valuesr16is_constructibleIS3_NS_15iterator_traitsISC_E9referenceEEE5valueEvE4typeESC_SC_
SG:__GLOBAL__sub_I_runtime_video_0_cpp
GFf:_Encoding_SetFallbackInternal_m1682842442
_lh:_UnityEvent_FindMethod_Impl_m947332673
Iya:__ZNSt3__26__treeIiNS_4lessIiEE13stl_allocatorIiL18MemLabelIdentifier1ELi16EEE7destroyEPNS_11__tree_nodeIiPvEE
gc:invoke_viiifi
o5i:__ZL139AttributeHelperEngine_t958797062_CustomAttributesCacheGenerator_AttributeHelperEngine_GetParentTypeDisallowingMultipleInclusion_m3087158272P21CustomAttributesCache
Pze:_LongComparer_Compare_m3981323622
Q5h:__ZNSt3__214__split_bufferIP11Il2CppClassRNS_9allocatorIS2_EEEC2EjjS5_
Ahd:_ContentSizeFitter_get_horizontalFit_m892469688
nkj:__ZL109LayoutUtility_t4076838048_CustomAttributesCacheGenerator_LayoutUtility_U3CGetFlexibleHeightU3Em__7_m947156537P21CustomAttributesCache
qfe:__ZN23InterfaceActionInvoker2IP8String_tP12Il2CppObjectE6InvokeEjP11Il2CppClassS3_S1_S3_
EBg:_Slider_FindSelectableOnUp_m15474611
Jya:__ZNK11AssetBundle14GetPreloadDataEiR13dynamic_arrayIiLj4EE
ihe:_EncryptedData_get_EncryptedContent_m2732115576
P3i:__ZL70Time_t31991979_CustomAttributesCacheGenerator_Time_get_time_m518788937P21CustomAttributesCache
JBh:_Vector3__ctor_m2761639014
jf:_JS_Sound_SetPosition
adh:_Assertion_set_FalseExpression_m1781616372
lsf:_X509SubjectKeyIdentifierExtension_FromHexChars_m2515150420
nQa:__ZN19RenderBufferManager13GetTempBufferEii17DepthBufferFormat19RenderTextureFormatj22RenderTextureReadWrite14VRTextureUsagei23RenderTextureMemoryless
D2h:__ZL13GetSharedInstPK17Il2CppGenericInst
cKi:__ZL51IReflect_t3412036974_CustomAttributesCacheGeneratorP21CustomAttributesCache
sed:_StandaloneInputModule_SendSubmitEventToSelectedObject_m3421155293
Zuh:_Quaternion_Equals_m798965363_AdjustorThunk
bTb:__Z17PrepareSceneNodesP11CullResults
XUh:_Canvas_get_sortingLayerID_m137448982
Dah:_CallContextRemotingData_Clone_m2226242476
n$:__Z63ThreadAndSerializationSafeCheckSetMonoBehaviourBeingTransferredP13MonoBehaviour
eMi:__ZL78CultureInfo_t3500843524_CustomAttributesCacheGenerator_U3CU3Ef__switchU24map19P21CustomAttributesCache
KRb:__Z24SetupActiveLightsContextR21ActiveLightingContextRK12ActiveLightsRK11CullResultsP14ShadowMapCacheRK10MinMaxAABB
mMg:_Dictionary_2_System_Collections_Generic_ICollectionU3CSystem_Collections_Generic_KeyValuePairU3CTKeyU2CTValueU3EU3E_Contains_m3400497673_gshared
Zhc:__Z38Sprite_CUSTOM_INTERNAL_get_textureRectP12Il2CppObjectP5RectTIfE
LOd:_DBNull_System_IConvertible_ToUInt32_m2681284284
ggi:__ZNK15dense_hashtableINSt3__24pairIK10KeyWrapperIPK22Il2CppGenericParameterEPK24MonoGenericParameterInfoEES6_N6il2cpp5utils11PointerHashIS4_EEN14dense_hash_mapIS6_SA_SF_NS6_14EqualsComparerINS0_8equal_toIS5_EEEENS0_9allocatorISB_EEE9SelectKeyESK_SM_E3endEv
tbc:__ZN9TextAsset7SetTextERKN4core12basic_stringIcNS0_20StringStorageDefaultIcEEEE
AIa:__ZN6Camera8TransferI24GenerateTypeTreeTransferEEvRT_
SQg:_EqualityComparer_1__cctor_m416314417_gshared
Ha:invoke_iiiiiiif
Ea:invoke_iiiiiiii
Eqf:_X509ChainElementCollection_Contains_m3599995067
bVb:__ZN8Renderer17PendingAddToSceneEv
nDj:b123
mDj:b122
pDj:b125
oDj:b124
smj:_BreakPoint_share_m806091185
rDj:b126
BDj:b129
jhc:__Z52Register_UnityEngine_RectTransform_INTERNAL_get_rectv
e_:__Z21PostprocessStacktracePKcRN4core12basic_stringIcNS1_20StringStorageDefaultIcEEEE
ZMe:_List_1_ToArray_m2390522926_gshared
TPi:__ZL70TypeLibImportClassAttribute_t2390314680_CustomAttributesCacheGeneratorP21CustomAttributesCache
Y6a:__ZN18StreamedBinaryReadILb0EE21TransferSTLStyleArrayI13dynamic_arrayI16SplashScreenLogoLj4EEEEvRT_17TransferMetaFlags
pgb:__ZNSt3__26vectorIPN9ShaderLab9SubShaderENS_9allocatorIS3_EEE21__push_back_slow_pathIKS3_EEvRT_
rXd:_Array_InternalArray__ICollection_Remove_TisX509ChainStatus_t4278378721_m4127982424_gshared
Wdc:__Z47Register_UnityEngine_Camera_get_allCamerasCountv
Obj:__ZL92Canvas_t209405766_CustomAttributesCacheGenerator_Canvas_GetDefaultCanvasMaterial_m4265316988P21CustomAttributesCache
VXc:___clang_call_terminate
Kx:__ZThn148_NK26AnimatorControllerPlayable24HasStateMachineBehaviourEv
ZQc:__ZN22BaseUnityConnectClient20StartEventDispatcherEv
$8b:__ZNSt3__26vectorIj13stl_allocatorIjL18MemLabelIdentifier1ELi16EEE6assignIPKtEENS_9enable_ifIXaasr21__is_forward_iteratorIT_EE5valuesr16is_constructibleIjNS_15iterator_traitsIS9_E9referenceEEE5valueEvE4typeES9_S9_
UA:__ZN7mecanim9animation16EvaluateAvatarIKEPKNS0_14AvatarConstantEPKNS0_11AvatarInputEPNS0_12AvatarOutputEPNS0_12AvatarMemoryEPNS0_15AvatarWorkspaceEb
ena:__ZL25ProgramUniformMatrix4x3fvPK7ApiGLESjiihPKv
oZb:__Z29StdTemplateConversionFunctionIsiEbPvR14SafeBinaryRead
$Ib:__ZN12InputManager13InputEndFrameEv
WEd:_SyncHashtable__ctor_m2029869827
b5h:__ZNSt3__26__treeIP11Il2CppClassNS_4lessIS2_EENS_9allocatorIS2_EEE25__emplace_unique_key_argsIS2_JRKS2_EEENS_4pairINS_15__tree_iteratorIS2_PNS_11__tree_nodeIS2_PvEEiEEbEERKT_DpOT0_
sji:__ZN6il2cpp2vm6Thread5SetupEP12Il2CppThread
z4e:_ReadOnlyCollection_1_System_Collections_IList_Remove_m2200089035_gshared
fUe:_Collection_1_CheckWritable_m2756357359_gshared
Fpj:___munmap
$od:_InputField_get_characterLimit_m2386380888
oph:_Mesh_GetIndices_m197815493
eKd:_Convert_ToInt64_m1722087499
ag:_localtime_r
UVi:__ZL81AppDomain_t2719102437_CustomAttributesCacheGenerator_assembly_resolve_in_progressP21CustomAttributesCache
FPi:__ZL65InterfaceTypeAttribute_t4113096249_CustomAttributesCacheGeneratorP21CustomAttributesCache
dg:_strftime
wpa:__ZN7Texture33SetStoredColorSpaceNoDirtyNoApplyE17TextureColorSpace
O2:__ZN12FileAccessorD2Ev
DIa:__ZN10ColorRGBAf8TransferI18StreamedBinaryReadILb0EEEEvRT_
PMa:__ZN14VertexDataInfoC2Ev
xui:__ZN6il2cpp2gc16GarbageCollector14CollectALittleEv
$Wg:_InternalEnumerator_1_get_Current_m2415979394_gshared
xxb:__ZL17Transfer_GUIStyleI18StreamedBinaryReadILb1EELb1EEvRK29SerializationCommandArgumentsR31RuntimeSerializationCommandInfo
Eyg:_ScrollRect_SetDirtyCaching_m1491302821
w5h:__ZN6il2cpp6icalls8mscorlib6SystemL9IsPrivateEPK12PropertyInfo
Scg:__Z72RuntimeInvoker_DateTime_t693205669_DateTime_t693205669_Int32_t2071877448PFvvEPK10MethodInfoPvPS4_
CTf:_CustomAttributeData_GetCustomAttributes_m3258419955
voh:_Matrix4x4_GetColumn_m83396621
uZ:__ZN9shadertag10InitializeEv
dMb:__ZN13BatchRenderer20RenderSingleWithPassER17ShaderPassContextPK18SharedMaterialDataP6ShaderPN9ShaderLab4PassEiPKNS7_10GrabPassesEjib15BatchBreakCause
lrg:__Z71RuntimeInvoker_CustomAttributeNamedArgument_t94157543_Int32_t2071877448PFvvEPK10MethodInfoPvPS4_
WEf:_EncoderFallback__ctor_m1639180960
W1g:_InternalEnumerator_1_MoveNext_m1441038493_gshared
w_a:__ZN15QualitySettings14QualitySetting8TransferI24GenerateTypeTreeTransferEEvRT_
E1d:_Array_InternalArray__ICollection_CopyTo_TisParameterModifier_t1820634920_m4127516211_gshared
LEf:_DecoderReplacementFallback__ctor_m2344783488
fCe:_OutOfMemoryException__ctor_m239206850
Ryh:_Sprite_get_rect_m3985037234
uld:_GraphicRegistry_UnregisterGraphicForCanvas_m820096873
qKc:__Z28Font_Get_Custom_PropMaterialP12Il2CppObject
Ceg:__Z88RuntimeInvoker_RuntimeObject_RuntimeObject_RuntimeObject_RuntimeObject_Int32_t2071877448PFvvEPK10MethodInfoPvPS4_
uVe:_Collection_1_Remove_m4136193368_gshared
ebd:_EventTrigger_OnPointerUp_m2791622548
brg:__Z60RuntimeInvoker_DictionaryEntry_t3048875398_Int32_t2071877448PFvvEPK10MethodInfoPvPS4_
NAg:_Shadow_set_useGraphicAlpha_m141905402
g8b:__ZN22BlockMemoryCacheWriter14LockCacheBlockEjPPhS1_
jvi:__ZN6il2cpp2os6Thread10RunWrapperEPv
Elc:__ZNSt3__218__insertion_sort_3IRPFbPKN5IMGUI9GUIWindowES4_EPPS2_EEvT0_SA_T_
OMh:_GenericEqualityComparer_1_Equals_m1109000020_gshared
Paj:__ZL61GUISkin_t1436893342_CustomAttributesCacheGenerator_m_textAreaP21CustomAttributesCache
hXf:_GenericTypeParameterBuilder_HasElementTypeImpl_m2592272488
wtc:__Z22TransferField_NonArrayI8JSONRead27Converter_SimpleNativeClassI8GUIStyleEEvRK23StaticTransferFieldInfoR31RuntimeSerializationCommandInfoRT0_
R$h:__ZN15dense_hashtableI10KeyWrapperIPK19Il2CppGenericMethodES4_N6il2cpp8metadata23Il2CppGenericMethodHashEN14dense_hash_setIS4_S7_NS4_14EqualsComparerINS6_26Il2CppGenericMethodCompareEEENSt3__29allocatorIS4_EEE8IdentityESB_SE_E16reset_thresholdsEv
VGe:__ZN23InterfaceActionInvoker2IP24ObjectU5BU5D_t3614634134iE6InvokeEjP11Il2CppClassP12Il2CppObjectS1_i
Jg:_llvm_eh_typeid_for
W$b:__Z13RegisterClassI10GameObjectEvv
W0h:__ZNK15dense_hashtableINSt3__24pairIK10KeyWrapperIN6il2cpp5utils13dynamic_arrayIPK10Il2CppTypeLj4EEEEPFvvEEESA_NS3_8metadata19Il2CppSignatureHashEN14dense_hash_mapISA_SD_SG_NSA_14EqualsComparerINSF_22Il2CppSignatureCompareEEENS0_9allocatorISE_EEE9SelectKeyESK_SM_E5beginEv
GLi:__ZL53HashValues_t2390200547_CustomAttributesCacheGeneratorP21CustomAttributesCache
opf:_X509BasicConstraintsExtension_get_PathLengthConstraint_m3004531343
Fy:__ZNK23AnimationPlayableOutput7GetTypeEv
qNi:__ZL125GenericTypeParameterBuilder_t1370236603_CustomAttributesCacheGenerator_GenericTypeParameterBuilder_GetConstructors_m103067670P21CustomAttributesCache
JFh:_GUIUtility_BeginGUI_m2381890998
Yye:_MissingMemberException__ctor_m4277447068
aHe:_List_1_Find_m1881447651_gshared
kac:__Z26scripting_class_has_parent17ScriptingClassPtrS_
Mzb:__Z18Transfer_BlittableI18StreamedBinaryReadILb0EELb1E8Vector4fEvRK29SerializationCommandArgumentsR31RuntimeSerializationCommandInfo
WLh:_EqualityComparer_1__ctor_m3155445483_gshared
Hti:__ZN6il2cpp2vm6Method8GetParamEPK10MethodInfoj
Gqe:_Int64_CompareTo_m1953686218
jMh:_GenericComparer_1__ctor_m221205314_gshared
jlg:__Z31RuntimeInvoker_Axis_t2427050347PFvvEPK10MethodInfoPvPS4_
QBj:_glBindVertexArray__wrapper
KXc:_DSA_Create_m3450041777
sSa:__ZN8Material8TransferI14SafeBinaryReadEEvRT_
rVa:__ZN12CubemapArray17UploadToGfxDeviceEv
ezg:_ScrollRect_AdjustBounds_m1033723448
TXb:__ZN18ScreenManagerWebGL13SetShowCursorEb
bZe:_Collection_1_get_Item_m3791221403_gshared
G8h:_SessionStateChanged_EndInvoke_m2606584272
cji:__ZN24dense_hashtable_iteratorINSt3__24pairIK10KeyWrapperIP11Il2CppClassES4_EES5_N6il2cpp8metadata16SZArrayClassHashEN14dense_hash_mapIS5_S4_SA_NS5_14EqualsComparerINS9_19SZArrayClassCompareEEENS0_9allocatorIS7_EEE9SelectKeyESE_SG_E30advance_past_empty_and_deletedEv
$3:__ZN13RuntimeStaticI21AssetReferenceStorageLb0EE16StaticInitializeEPv
aqf:_X509Chain_CheckRevocationOnChain_m2441901351
eyi:__ZN6il2cpp2vm13ManagedObject14QueryInterfaceERK10Il2CppGuidPPv
sNf:_Type_GetMethod_m3650909507
KG:__ZN11AudioSource4StopEb
goj:_frexp
rpb:__ZN14SafeBinaryRead21TransferSTLStyleArrayI13dynamic_arrayI10Matrix4x4fLj4EEEEvRT_17TransferMetaFlags
gZe:_Collection_1_CheckWritable_m732350052_gshared
pJa:__ZN15LODGroupManager26CollectAllLODGroupManagersERK16CoreCameraValuesR13dynamic_arrayIPS_Lj4EEb
txd:_Byte_System_IConvertible_ToDecimal_m1036493607
LVi:__ZL47Timer_t791717973_CustomAttributesCacheGeneratorP21CustomAttributesCache
rFb:__Z25GetSplashScreenBackgroundRK5RectTIfE
gVg:_InternalEnumerator_1_System_Collections_IEnumerator_get_Current_m1679297177_gshared
qgj:__ZL65Image_t2042527209_CustomAttributesCacheGenerator_m_PreserveAspectP21CustomAttributesCache
s2g:_DefaultComparer_Compare_m1247109616_gshared
x4g:_ResourceManager__ctor_m498829021
ksa:__ZN18GlslGpuProgramGLESD2Ev
rXb:__ZN13RenderTexture14SetVolumeDepthEi
pog:__Z88RuntimeInvoker_Int32_t2071877448_UIVertex_t1204258818_UIVertex_t1204258818_RuntimeObjectPFvvEPK10MethodInfoPvPS4_
dBf:_SerializationCallbacks__ctor_m722356782
auc:__ZN10Matrix4x4f8TransferI8JSONReadEEvRT_
owc:__ZN14SafeBinaryRead21TransferSTLStyleArrayI13dynamic_arrayIN4core17string_with_labelILi35EEELj4EEEEvRT_17TransferMetaFlags
Wvh:_Rect_set_width_m2294291744
GPi:__ZL49Marshal_t785896760_CustomAttributesCacheGeneratorP21CustomAttributesCache
b$:__ZN17PersistentManager18ReadObjectThreadedEi
wea:__ZN25TransformFeedbackSkinning31CleanupTransformFeedbackShadersEv
eJa:__Z22scripting_object_unbox18ScriptingObjectPtr
sxc:__ZNK20TextRenderingPrivate8FontImpl19GetCharacterAdvanceEjijfPj
jEi:__ZN6il2cpp6icalls8mscorlib4Mono8Security12Cryptography18KeyPairPersistence16_IsUserProtectedEP12Il2CppString
v2e:_ReadOnlyCollection_1_Contains_m3936562733_gshared
Olf:_DefaultUriParser__ctor_m4218024811
$Uf:_DerivedType_GetField_m3960169619
lPd:_Decimal_System_IConvertible_ToInt16_m3159038792_AdjustorThunk
h3f:__Z59RuntimeInvoker_Int64_t909078037_RuntimeObject_RuntimeObjectPFvvEPK10MethodInfoPvPS4_
Qrg:__Z41RuntimeInvoker_KeyValuePair_2_t3716250094PFvvEPK10MethodInfoPvPS4_
k0a:__ZN10VertexData8TransferI18StreamedBinaryReadILb0EEEEvRT_
Oig:__Z73RuntimeInvoker_Single_t2076509932_Vector4_t2243707581_Vector4_t2243707581PFvvEPK10MethodInfoPvPS4_
Nhe:_PKCS12_GetExistingParameters_m2413397265
kSh:_Nullable_1_get_Value_m1743067844_gshared
tXe:_Collection_1_ClearItems_m4268731177_gshared
W8a:__ZN14PreloadManager16UpdatePreloadingEv
uFa:__ZN12BaseRendererD2Ev
gOa:__ZN14SafeBinaryRead21TransferSTLStyleArrayI19StaticArrayTransferIiLi4EEEEvRT_17TransferMetaFlags
Vqh:_X509CertificateCollection__ctor_m858704242
tFe:_Enumerator__ctor_m425576865_AdjustorThunk
w4e:_ReadOnlyCollection_1_System_Collections_IList_Contains_m1545447998_gshared
Cvi:__ZN14dense_hash_mapI10KeyWrapperIPK19Il2CppGenericMethodEP10MethodInfoN6il2cpp8metadata23Il2CppGenericMethodHashENS4_14EqualsComparerINS8_26Il2CppGenericMethodCompareEEENSt3__29allocatorINSD_4pairIKS4_S6_EEEEEC2EjRKS9_RKSC_
vjh:_Color32_op_Implicit_m3337994915
fV:__ZNK21UnityDefaultAllocatorI17LowLevelAllocatorE8ContainsEPKv
N3h:__ZNSt3__213__vector_baseI6pollfdNS_9allocatorIS1_EEED2Ev
Wdf:_ClientSessionInfo_get_Id_m3046630969
Th:_emscripten_get_main_loop_timing
Zse:_DirectoryInfo__ctor_m3750996792
Jfd:_BaseMeshEffect_ModifyMesh_m2134816219
G4d:_Array_qsort_TisVector2_t2243707579_m3527759534_gshared
v_a:__ZN24GenerateTypeTreeTransfer21TransferSTLStyleArrayINSt3__26vectorIN15QualitySettings14QualitySettingENS1_9allocatorIS4_EEEEEEvRT_17TransferMetaFlags
Wxh:_ResourceRequest_t2560315377_marshal_pinvoke_cleanup
hNe:_List_1_System_Collections_Generic_IEnumerableU3CTU3E_GetEnumerator_m166627113_gshared
a5a:__ZNSt3__26vectorI9InputAxisNS_9allocatorIS1_EEE6resizeEj
e_d:__ZN21InterfaceFuncInvoker2Ii19Vector2_t2243707579S0_E6InvokeEjP11Il2CppClassP12Il2CppObjectS0_S0_
kMb:__ZN13BatchRendererC2ER15RenderLoopStatsRK15RenderNodeQueuebbb
e3c:_SecurityElement_IsValidAttributeValue_m483287146
Jyh:_FormerlySerializedAsAttribute__ctor_m3044655632
jib:__ZNK2UI13RectTransform22GetTypeVirtualInternalEv
YVi:__ZL56AppDomainSetup_t611332832_CustomAttributesCacheGeneratorP21CustomAttributesCache
cp:getTempRet0
$sd:_ArithmeticException__ctor_m104771799
eng:__Z79RuntimeInvoker_Boolean_t3825574718_ContentTypeU26_t1802785839_Int32_t2071877448PFvvEPK10MethodInfoPvPS4_
USf:_AssemblyTitleAttribute__ctor_m1696431446
cIh:_UnityEvent_1_RemoveListener_m2146288709_gshared
jod:_Image_AddQuad_m1603575622
gwi:__ZN24dense_hashtable_iteratorINSt3__24pairIK10KeyWrapperIPK19Il2CppGenericMethodEP10MethodInfoEES6_N6il2cpp8metadata23Il2CppGenericMethodHashEN14dense_hash_mapIS6_S9_SD_NS6_14EqualsComparerINSC_26Il2CppGenericMethodCompareEEENS0_9allocatorISA_EEE9SelectKeyESH_SJ_E30advance_past_empty_and_deletedEv
jaf:_PrivateKeyInfo_RemoveLeadingZero_m3396807048
P_e:_ReadOnlyCollection_1_System_Collections_Generic_ICollectionU3CTU3E_get_IsReadOnly_m1251192075_gshared
TGe:_List_1_GrowIfNeeded_m185971996_gshared
Rki:__ZN6il2cpp6icalls8mscorlib6System9ThreadingL21lookup_cached_cultureEP12Il2CppThreadi
DSb:__ZN18DeferredRenderLoopD2Ev
eXf:_GenericTypeParameterBuilder_GetMethods_m1243855818
$ua:__ZNK16TypeTreeIterator4NameEv
Rkj:_PCMReaderCallback_Invoke_m877950113
i7i:__ZL90PlayableBinding_t2498078091_CustomAttributesCacheGenerator_U3CstreamTypeU3Ek__BackingFieldP21CustomAttributesCache
m2:__ZN15FileSystemEntry3SetEPKc
v1g:_InternalEnumerator_1__ctor_m2808001655_gshared
EZc:_MACTripleDES__ctor_m884945242
Sxh:_RenderTexture_get_height_m428170183
WEh:_GUILayoutGroup_SetHorizontal_m4089360220
xI:__ZN20SoundChannelInstance15ParameterBuffer5ApplyEPN4FMOD7ChannelE
pxc:__ZN20TextRenderingPrivate19NativeTextGenerator9InsertTabEv
qIi:__ZL73Enum_t2459695545_CustomAttributesCacheGenerator_Enum_ToObject_m1688724857P21CustomAttributesCache
C2a:__ZN14SafeBinaryRead21TransferSTLStyleArrayI13dynamic_arrayI16BlendShapeVertexLj4EEEEvRT_17TransferMetaFlags
yRc:__ZN11UnityEngine15PlatformWrapper24GetRuntimePlatformStringEv
Ci:_glIsEnabled
Vbb:__ZN15CacheWriterBaseD2Ev
Bij:__ZL56Slider_t297367283_CustomAttributesCacheGenerator_m_ValueP21CustomAttributesCache
hob:__Z25scripting_class_get_image17ScriptingClassPtr
Pth:_PlayableAsset_Internal_CreatePlayable_m2166162235
E8a:__ZNSt3__26vectorIN4core12basic_stringIcNS1_20StringStorageDefaultIcEEEE13stl_allocatorIS5_L18MemLabelIdentifier13ELi16EEEC2INS_11__wrap_iterIPS5_EEEET_SE_RKS8_PNS_9enable_ifIXaasr21__is_forward_iteratorISE_EE5valuesr16is_constructibleIS5_NS_15iterator_traitsISE_E9referenceEEE5valueEvE4typeE
Gi:_emscripten_glDrawElementsInstanced
vx:__ZN26AnimatorControllerPlayable27SetupStateMachineBehavioursEv
L8e:_ARC4Managed_Dispose_m4102232694
d9e:_HMAC_Initialize_m3052649104
Bof:_OidCollection_get_Item_m1091387424
eib:__ZN9Transform17MainThreadCleanupEv
X6i:__ZL143UnitySynchronizationContext_t1205147244_CustomAttributesCacheGenerator_UnitySynchronizationContext_InitializeSynchronizationContext_m2786500889P21CustomAttributesCache
JAi:_GC_clear_hdr_marks
Qwj:_glScissor__wrapper
MCj:_emscripten_glCreateShader__wrapper
Nod:_InputField_get_caretSelectPositionInternal_m3523572533
gFc:_cff_fd_select_get
kPi:__ZL73CompilationRelaxationsAttribute_t238494011_CustomAttributesCacheGeneratorP21CustomAttributesCache
m3i:__ZL86Material_t193706927_CustomAttributesCacheGenerator_Material_GetTextureImpl_m2799453342P21CustomAttributesCache
OCg:_Text_get_minHeight_m1562513104
O9d:_MSCompatUnicodeTable_GetTailoringInfo_m2792223347
clf:_NameObjectCollectionBase_get_Keys_m446053925
Ri:_emscripten_glGetShaderiv
UGg:_Transform_1__ctor_m353209818_gshared
Clg:__Z30RuntimeInvoker_Axis_t375128448PFvvEPK10MethodInfoPvPS4_
xJ:__ZN4FMOD6System10getVersionEPj
o$d:_Array_InternalArray__IndexOf_TisSByte_t454417549_m1427585061_gshared
$Kc:__ZN2UI6Canvas23VirtualRedirectTransferER24GenerateTypeTreeTransfer
$Gd:_Decimal_u64_m3991988111
QCh:_YieldInstruction_t3462875981_marshal_pinvoke
NSh:_Predicate_1_BeginInvoke_m2959352225_gshared
nrh:_X509Certificate_Parse_m1764345628
Erc:__ZN9JSONWrite8TransferIN4math12int2_storageEEEvRT_PKc17TransferMetaFlags
awc:__ZN13TextRendering4Font13AwakeFromLoadE17AwakeFromLoadMode
doh:_Mathf_Pow_m1117712374
Xig:__Z70RuntimeInvoker_Void_t1841601450_Guid_t_RuntimeObject_Int32_t2071877448PFvvEPK10MethodInfoPvPS4_
KAh:_Transform_Rotate_m474267874
lba:__ZN9GfxDevice21ReleaseSharedMeshDataEP14SharedMeshData
$ie:_SmallXmlParser_Peek_m2814840810
R5a:__ZNSt3__27__sort5IRNS_6__lessINS_4pairIPKN5Unity4TypeE7Hash128EES8_EEPS8_EEjT0_SC_SC_SC_SC_T_
nWe:_Collection_1_ConvertItem_m3168406667_gshared
Qzi:_GC_unreachable_finalize_mark_proc
OCh:_WaitForSecondsRealtime_get_keepWaiting_m4138104467
Ulg:__Z70RuntimeInvoker_Single_t2076509932_Int32_t2071877448_Single_t2076509932PFvvEPK10MethodInfoPvPS4_
gng:__Z77RuntimeInvoker_Boolean_t3825574718_InputTypeU26_t4050577942_Int32_t2071877448PFvvEPK10MethodInfoPvPS4_
eVe:_Collection_1_System_Collections_ICollection_get_SyncRoot_m2547259708_gshared
bhc:__Z43RectTransform_CUSTOM_INTERNAL_get_anchorMaxP12Il2CppObjectP13Vector2fIcall
P4f:__Z50RuntimeInvoker_Void_t1841601450_Single_t2076509932PFvvEPK10MethodInfoPvPS4_
kOd:_DateTimeOffset_get_DateTime_m229084964_AdjustorThunk
CXa:__ZN8Material28UpdateHashesOnPropertyChangeEN9ShaderLab16FastPropertyNameE
Rhc:__Z53Register_UnityEngine_SortingLayer_GetLayerValueFromIDv
tse:_DirectoryInfo_get_Parent_m1198766078
LRg:_EqualityComparer_1_System_Collections_IEqualityComparer_Equals_m349194518_gshared
BCd:_CaseInsensitiveComparer_Compare_m1192858479
$mb:__Z18Transfer_BlittableI14SafeBinaryReadLb1E8Vector4fEvRK29SerializationCommandArgumentsR31RuntimeSerializationCommandInfo
ewe:_StreamAsyncResult_set_Done_m4272090534
Esd:_LayoutRebuilder_Clear_m2390054824
zWe:_Collection_1_System_Collections_IList_Insert_m2968289909_gshared
xda:__ZN13GfxDeviceGLES20SetComputeBufferDataE15ComputeBufferIDPKvjj
mTf:_Default_SelectMethod_m622251293
zL:__ZN11AudioSource12AddToManagerEv
vbd:_ExecuteEvents_Execute_m1429058057
az:__ZN11UnityEngine9Animation32CreateAnimatorGenericBindingsOptERKNS0_20AnimationSetBindingsER9TransformPKN7mecanim9animation14AvatarConstantEPKNS0_21AvatarBindingConstantEbRNS6_6memory9AllocatorER8Animator
roi:__ZN6il2cpp2vm5Image13ClassFromNameEPK11Il2CppImagePKcS6_
_sj:dynCall_vdddddd
Web:__ZN24GenerateTypeTreeTransfer21TransferSTLStyleArrayINSt3__26vectorIN9ShaderLab14SerializedPassENS1_9allocatorIS4_EEEEEEvRT_17TransferMetaFlags
UZ:__ZL32MarkLevelGameManagerDependenciesR27GarbageCollectorThreadState
Eda:__ZNK13GfxDeviceGLES26HasActiveRandomWriteTargetEv
Hxj:_glGetActiveUniformsiv__wrapper
Ohc:__Z43Register_UnityEngine_Material_EnableKeywordv
j0:__ZN13MonoBehaviour19SetupScriptingCacheE17ScriptingClassPtrP10MonoScript
e4h:__ZNSt3__214__split_bufferIP12Il2CppThreadRNS_9allocatorIS2_EEED2Ev
hr:__Z20AnimationEventToMonoRK14AnimationEventR18MonoAnimationEvent
O_:__ZNK15dense_hashtableINSt3__24pairIKiiEEi21InstanceIDHashFunctorN14dense_hash_mapIiiS4_NS0_8equal_toIiEE13stl_allocatorIS3_L18MemLabelIdentifier1ELi16EEE9SelectKeyES7_SA_E13find_positionERS2_
z$:__ZN17PersistentManager29ReadAndActivateObjectThreadedEiRK26SerializedObjectIdentifierP14SerializedFilebb
PFg:_ShimEnumerator_get_Current_m3610131784_gshared
LQe:_List_1_Sort_m2158253314_gshared
P6i:__ZL74UnityEventBase_t828812576_CustomAttributesCacheGenerator_m_PersistentCallsP21CustomAttributesCache
G6:__ZZN15DirectorManager15InitializeClassEvEN52PreLateUpdateDirectorUpdateAnimationBeginRegistrator7ForwardEv
TNg:_DefaultComparer__ctor_m2265472997_gshared
Pmi:__ZN6il2cpp2vm13LivenessState18ShouldProcessValueEP12Il2CppObjectP11Il2CppClass
Fwa:__ZN4PPtrI6SpriteE8TransferI14SafeBinaryReadEEvRT_
utg:__Z49RuntimeInvoker_UIVertex_t1204258818_RuntimeObjectPFvvEPK10MethodInfoPvPS4_
S9f:__Z52RuntimeInvoker_Void_t1841601450_TimeSpan_t3430258949PFvvEPK10MethodInfoPvPS4_
iii:__ZN15dense_hashtableINSt3__24pairIK10KeyWrapperIP11Il2CppClassES4_EES5_N6il2cpp8metadata16SZArrayClassHashEN14dense_hash_mapIS5_S4_SA_NS5_14EqualsComparerINS9_19SZArrayClassCompareEEENS0_9allocatorIS7_EEE9SelectKeyESE_SG_E16reset_thresholdsEv
uoh:_Matrix4x4_GetHashCode_m375571566
XFh:_InvokableCall_1__ctor_m1584932671_gshared
reb:__ZNSt3__26vectorIN9ShaderLab14SerializedPassENS_9allocatorIS2_EEE8__appendEj
Idb:__ZNSt3__26vectorIN9ShaderLab20SerializedSubProgram13BufferBindingENS_9allocatorIS3_EEEC2INS_11__wrap_iterIPS3_EEEET_SB_RKS5_PNS_9enable_ifIXaasr21__is_forward_iteratorISB_EE5valuesr16is_constructibleIS3_NS_15iterator_traitsISB_E9referenceEEE5valueEvE4typeE
wef:_Context_get_SupportedCiphers_m2172827298
S4b:__ZZL23RegisterLightPropertiesR22GenericPropertyBindingEN20Wrapper_LightColorb213GetFloatValueEPv
yih:_Camera__ctor_m2624089815
k$a:__ZNK13ScreenManager21IsMultiDisplayEnabledEv
knj:_Shake_Start_m225329643
cmg:__Z133RuntimeInvoker_RuntimeObject_Vector2_t2243707579_Vector2_t2243707579_Single_t2076509932_Int32_t2071877448_RuntimeObject_RuntimeObjectPFvvEPK10MethodInfoPvPS4_
jXa:__ZN9Texture2D23VirtualRedirectTransferER18StreamedBinaryReadILb0EE
mXh:_Animator_get_hasBoundPlayables_m2257984562
ERd:_Double_System_IConvertible_ToUInt16_m286326038_AdjustorThunk
lzf:_TypeInfo__ctor_m1475908211
L_h:__ZN30dense_hashtable_const_iteratorINSt3__24pairIK10KeyWrapperIPKcEP11Il2CppClassEES5_N6il2cpp5utils11StringUtils12StringHasherIS4_EEN14dense_hash_mapIS5_S8_SE_NS5_14EqualsComparerINSB_13VmStringUtils21CaseSensitiveComparerEEENS0_9allocatorIS9_EEE9SelectKeyESJ_SL_E30advance_past_empty_and_deletedEv
c8i:__ZL73g_UnityEngine_TextRenderingModule_Assembly_CustomAttributesCacheGeneratorP21CustomAttributesCache
S0:__ZN16ScriptingManager27NativeTypeForScriptingClassE17ScriptingClassPtr
bqf:_X509Chain_WrapUp_m1072032285
Ish:_X509CertificateEnumerator_System_Collections_IEnumerator_MoveNext_m1448966539
mCc:_get_sfnt_table
Kdf:_TlsServerHelloDone__ctor_m2125611008
c0b:__Z13RegisterClassI5LightEvv
ucd:_PointerEventData_set_pressPosition_m2094137883
QYa:__ZN8Renderer20RendererAddedToSceneEv
rEf:_DES_get_Key_m2584608215
YTb:__ZL22ScheduleSceneNodesJobsP25ScheduleSceneNodesJobDataj
Fk:_emscripten_set_canvas_size
x7e:_BigInteger_op_Subtraction_m972393015
_db:__ZNSt3__26vectorIN9ShaderLab20SerializedSubProgramENS_9allocatorIS2_EEE8__appendEj
PV:__ZN20DynamicHeapAllocatorI17LowLevelAllocatorE8AllocateEji
LMb:__ZN20DynamicPropertySheet15SetVectorQueuedERKN9ShaderLab16FastPropertyNameERK8Vector4fN19ShaderPropertySheet8SetFlagsE
R7c:_String_Format_m1263743648
jJi:__ZL69RuntimeArray_CustomAttributesCacheGenerator_Array_Reverse_m3883292526P21CustomAttributesCache
h2e:_ReadOnlyCollection_1_System_Collections_IEnumerable_GetEnumerator_m4248982967_gshared
cA:__ZN7mecanim9animation22EvaluateAvatarRetargetEPKNS0_14AvatarConstantEPKNS0_11AvatarInputEPNS0_12AvatarOutputEPNS0_12AvatarMemoryEPNS0_15AvatarWorkspaceEb
Psd:_LayoutRebuilder_GetHashCode_m2745108660
nPa:__ZN14RenderSettings23VirtualRedirectTransferER19StreamedBinaryWriteILb0EE
bqc:__ZL26Transfer_SimpleNativeClassI9JSONWrite10RectOffsetLb0EEvRK29SerializationCommandArgumentsR31RuntimeSerializationCommandInfo
o2a:__ZN14SafeBinaryRead21TransferSTLStyleArrayI13dynamic_arrayI12BoneWeights4Lj16EEEEvRT_17TransferMetaFlags
iAi:_GC_push_conditional
Fha:__ZN17GenericDynamicVBO10AllocateVBEjR21DynamicVBOChunkHandle
rIe:_List_1_get_Item_m1547593893_gshared
Kse:_Path_GetPathRoot_m1269357080
Spi:__ZN30dense_hashtable_const_iteratorI10KeyWrapperIP18Il2CppGenericClassES3_N6il2cpp8metadata22Il2CppGenericClassHashEN14dense_hash_setIS3_S6_NS3_14EqualsComparerINS5_25Il2CppGenericClassCompareEEENSt3__29allocatorIS3_EEE8IdentityESA_SD_EppEv
ADd:_KeyNotFoundException__ctor_m264393096
Jad:_EventSystem_SetSelectedGameObject_m2211816110
eHg:_Transform_1__ctor_m4161450529_gshared
dl:_glMapBufferRange
bXa:__ZN9Texture2D8TransferI18StreamedBinaryReadILb0EEEEvRT_
Lfc:__Z31Input_CUSTOM_GetMouseButtonDowni
Ieg:__Z41RuntimeInvoker_HandshakeState_t1820731088PFvvEPK10MethodInfoPvPS4_
Wgc:__Z75Register_UnityEngine_Playables_PlayableHandle_INTERNAL_CALL_IsValidInternalv
b7b:__ZN13PlayableGraph4PlayEv
kEa:__ZNK9Transform16GetLocalPositionEv
qtd:_Array_System_Collections_ICollection_get_Count_m2897196527
dya:__ZN13LoadOperation19IntegrateTimeSlicedEi
tSg:_ArrayReadOnlyList_1_get_Item_m176001975_gshared
Rtf:_InterpreterFactory__ctor_m3331468903
sie:_X501__cctor_m3795360380
Pda:__ZN13GfxDeviceGLES22DispatchComputeProgramE12ObjectHandleI18ComputeProgram_TagPvE15ComputeBufferIDj
zHb:__ZN20DefaultGfxDeviceImpl32InitStereoGlobalsBuffersPlatformEiijPKv
Bag:__Z60RuntimeInvoker_Void_t1841601450_StreamingContext_t1417235061PFvvEPK10MethodInfoPvPS4_
ZJd:_Convert_ToInt32_m2297793940
tab:__Z17TransformAABBSlowRK4AABBRK10Matrix4x4fRS_
chi:__ZN13Il2CppHashMapINSt3__24pairIPK9FieldInfoP11Il2CppClassEEj17ReflectionMapHashIS7_ENS0_8equal_toIS7_EENS0_9allocatorINS1_IK10KeyWrapperIS7_EjEEEEEC2EjRKS9_RKSB_
Jcb:__ZN9ShaderLab21SerializedShaderState8TransferI14SafeBinaryReadEEvRT_
lqj:_ftruncate
h0c:_RSAPKCS1SignatureFormatter_SetKey_m2365816458
wne:_Int16_GetHashCode_m304503362_AdjustorThunk
bGc:_cf2_stack_pushInt
pD:__ZN7mecanim9animation20DestroyLayerConstantEPNS0_13LayerConstantERNS_6memory9AllocatorE
xuh:_PropertyName__ctor_m4147171238_AdjustorThunk
bJf:_CompressedStack__ctor_m276924800
Ybd:_ExecuteEvents_get_cancelHandler_m1964324668
fTa:__ZN15SerializeTraitsINSt3__24pairIN4core12basic_stringIcNS2_20StringStorageDefaultIcEEEES6_EEE8TransferI24GenerateTypeTreeTransferEEvRS7_RT_
fAj:b89
eAj:b88
Xnh:_Mathf_Sin_m712860563
aaj:__ZL70GUISettings_t622856320_CustomAttributesCacheGenerator_m_SelectionColorP21CustomAttributesCache
WBh:_Vector3_Dot_m827632793
Gzj:b81
Fzj:b80
Mpa:__ZN7ApiGLES19CreateSparseTextureEjj14GraphicsFormatiiiiRiS1_S1_
C1:__ZN18ResourceImageGroup7CleanupEv
Zzj:b85
Yzj:b84
$zj:b87
_zj:b86
yp:__ZN11Quaternionf8TransferI24GenerateTypeTreeTransferEEvRT_
gqg:__Z68RuntimeInvoker_Void_t1841601450_Int32_t2071877448_Double_t4078015681PFvvEPK10MethodInfoPvPS4_
y4b:__ZN13ProduceHelperI4MeshLb0EE7ProduceE18MemLabelIdentifier18ObjectCreationMode
haf:_PrivateKeyInfo_Decode_m1053025782
Hrf:_X509ChainElementCollection_System_Collections_ICollection_CopyTo_m1467895312
vhe:_PKCS12_Decrypt_m2457743414
xUa:__ZN8Playable19SetOutputConnectionEPS_i
a_h:__ZN15dense_hashtableINSt3__24pairIK10KeyWrapperIPK11Il2CppClassEPKcEES6_N6il2cpp5utils11PointerHashIS3_EEN14dense_hash_mapIS6_S9_SE_NS6_14EqualsComparerINS0_8equal_toIS5_EEEENS0_9allocatorISA_EEE9SelectKeyESJ_SL_EC2ERKSO_j
Sl:_glDeleteShader
V2i:__ZL88Mesh_t1356156583_CustomAttributesCacheGenerator_Mesh_Internal_Create_m384282753____mono0P21CustomAttributesCache
uTd:_Exception_GetType_m3898489832
Ela:__ZN6prcoreL17RemapGenericFloatI15TexFormatRGHalf16TexFormatRGFloatEEvPKNS_9InnerInfoE
YRe:_Stack_1_Peek_m1548778538_gshared
UEh:_GUILayoutUtility_get_spaceStyle_m4248899869
KAg:_Shadow_set_effectColor_m3110056844
zbc:__Z27scripting_add_internal_callPKcPKv
U2d:_Array_InternalArray__Insert_TisUriScheme_t1876590943_m2728325409_gshared
Uaj:__ZL72GUISkin_t1436893342_CustomAttributesCacheGenerator_m_verticalSliderThumbP21CustomAttributesCache
Ogi:__ZN13Il2CppHashMapINSt3__24pairIPK9EventInfoP11Il2CppClassEEj17ReflectionMapHashIS7_ENS0_8equal_toIS7_EENS0_9allocatorINS1_IK10KeyWrapperIS7_EjEEEEEC2EjRKS9_RKSB_
coh:_Mathf_Max_m2902748112
Cpa:__Z17GetPlayerSettingsv
DA:__ZN34BlobWriteTransferSTLStyleArrayImplI22OffsetPtrArrayTransferIiEEclERS1_17TransferMetaFlagsR9BlobWrite
Vsh:_X509Store_CheckStore_m1027496478
Zgh:_AddComponentMenu__ctor_m686408932
GOi:__ZL82MethodBase_t904190842_CustomAttributesCacheGenerator_MethodBase_Invoke_m1075809207P21CustomAttributesCache
ys:__ZN26AnimatorControllerPlayable18SetLayerAutoWeightEv
rQc:__Z44Register_UnityEngine_Canvas_get_pixelPerfectv
A7c:_String_Contains_m4017059963
c6d:_Array_swap_TisCustomAttributeNamedArgument_t94157543_TisCustomAttributeNamedArgument_t94157543_m3600072996_gshared
_1g:_DefaultComparer_Compare_m1606207039_gshared
ENc:__ZN2UI14CanvasRenderer12SyncMaterialENS0_8SyncFlagE
bEi:__ZN6il2cpp2vm9Parameter30GetDefaultParameterValueObjectEPK10MethodInfoPK13ParameterInfoPb
KKh:_Action_EndInvoke_m4281032350
H3d:_Array_InternalArray__set_Item_TisLabelData_t3712112744_m2253365137_gshared
x$f:_MonoCMethod_get_Attributes_m3914742834
EUf:_ConstructorBuilder_get_DeclaringType_m4264602248
_gf:_RecordProtocol_InternalReceiveRecordCallback_m2228921492
Ywe:_StringReader__ctor_m643998729
Fmf:_IPv6Address_TryParse_m2220524278
Xkj:_PCMReaderCallback_EndInvoke_m4163012370
xsd:_U3CDelayedSetDirtyU3Ec__Iterator0_System_Collections_Generic_IEnumeratorU3CobjectU3E_get_Current_m2210283424
cCc:_UNITY_tt_face_done_kern
I8g:_Context_get_DefaultContext_m2211922324
yTf:_CustomAttributeData_get_NamedArguments_m708818174
S2a:__ZN12BoneWeights48TransferI24GenerateTypeTreeTransferEEvRT_
yaf:_RSAManaged_GetPaddedValue_m2972141669
tzg:_ScrollRect_OnDrag_m1424848249
Qff:_TlsServerCertificate_ProcessAsSsl3_m277089231
gZd:_Array_InternalArray__IEnumerable_GetEnumerator_TisUInt16_t986882611_m3665860884_gshared
MEb:__Z19scripting_gc_enablev
gIb:__ZZ23InitPlayerLoopCallbacksvEN41InitializationPlayerUpdateTimeRegistrator7ForwardEv
Tdh:_AnchorInfo__ctor_m617409099
TYb:__Z29StdTemplateConversionFunctionIihEbPvR14SafeBinaryRead
fXf:_GenericTypeParameterBuilder_GetMethodImpl_m528545634
sPc:__Z55Register_UnityEngine_CanvasRenderer_DisableRectClippingv
wuf:_Interval_CompareTo_m2909556284_AdjustorThunk
p2a:__ZN14SafeBinaryRead21TransferSTLStyleArrayI13dynamic_arrayI11ColorRGBA32Lj4EEEEvRT_17TransferMetaFlags
vta:__ZN9GfxDevice22UploadTextureCubeArrayE9TextureIDPKhjii14GraphicsFormati18TextureUploadFlags
RIi:__ZL87RuntimeArray_CustomAttributesCacheGenerator_Array_CreateInstance_m679102425____lengths1P21CustomAttributesCache
uvg:_Navigation_t1571958496_marshal_pinvoke
ntf:_Interpreter_GetLastDefined_m2450713313
kdh:_Parser_ParseAssertionType_m3316669790
Egb:__ZN9ShaderLab7Program27CreateFromSerializedProgramERKNS_17SerializedProgramE10ShaderTypeiP16PropertyNamesSetPK6Shader
lAg:_Selectable_get_isPointerDown_m774209881
uIi:__ZL73Enum_t2459695545_CustomAttributesCacheGenerator_Enum_ToObject_m2460371738P21CustomAttributesCache
_hb:__ZNSt3__27__sort4IRNS_6__lessIN4core12basic_stringIcNS2_20StringStorageDefaultIcEEEES6_EEPS6_EEjT0_SA_SA_SA_T_
Etj:dynCall_viiiifii
vzf:_TypeInfo__ctor_m1219583114
qfi:__ZN6il2cpp2gc19AppendOnlyGCHashMapINSt3__24pairIPK11Il2CppImageP11Il2CppClassEEP22Il2CppReflectionModule17ReflectionMapHashIS9_ENS2_8equal_toIS9_EEEC2Ev
__:__Z20GetPersistentManagerv
gJc:_UNITY_TT_Set_Var_Design
H8g:_Context_Finalize_m1386439645
FX:__ZN21SystemInfoStringCache16StaticInitializeEPv
Vbf:_TlsStream__ctor_m4117943603
dci:__ZN15dense_hashtableINSt3__24pairIK10KeyWrapperIPK10Il2CppTypeEjEES6_N6il2cpp8metadata14Il2CppTypeHashEN14dense_hash_mapIS6_jSB_NS6_14EqualsComparerINSA_26Il2CppTypeEqualityComparerEEENS0_9allocatorIS8_EEE9SelectKeyESF_SH_E12maybe_shrinkEv
aCg:_Text_FontTextureChanged_m4236993972
Hui:__ZN6il2cpp2gc16GarbageCollector23MakeDescriptorForObjectEPji
Dqi:__ZNK10KeyWrapperIP12Il2CppObjectE14EqualsComparerINSt3__28equal_toIS1_EEEclERKS2_S9_
W1f:_ParameterModifier_t1820634920_marshal_pinvoke
_Bb:__ZNK13MonoBehaviour7GetNameEv
zbb:__ZN19ScriptingInvocation28AdjustArgumentsToMatchMethodEv
cqi:__ZN15dense_hashtableI10KeyWrapperIP18Il2CppGenericClassES3_N6il2cpp8metadata22Il2CppGenericClassHashEN14dense_hash_setIS3_S6_NS3_14EqualsComparerINS5_25Il2CppGenericClassCompareEEENSt3__29allocatorIS3_EEE8IdentityESA_SD_E6insertERKS3_
lG:__Z15_CheckFMODError11FMOD_RESULTPKciS1_
i9c:_AbstractEventData_Use_m1797212290
$La:__Z20RenderMultipleMeshesRK15RenderNodeQueueRK18RenderMultipleData17ShaderChannelMask
Kfj:__ZL150U3CDelayedDestroyDropdownListU3Ec__Iterator0_t3461999471_CustomAttributesCacheGenerator_U3CDelayedDestroyDropdownListU3Ec__Iterator0_Reset_m3485957852P21CustomAttributesCache
Q3f:__Z199RuntimeInvoker_Void_t1841601450_ByteU2AU26_t3544685828_ByteU2AU26_t3544685828_DoubleU2AU26_t3349029_UInt16U2AU26_t1636670495_UInt16U2AU26_t1636670495_UInt16U2AU26_t1636670495_UInt16U2AU26_t1636670495PFvvEPK10MethodInfoPvPS4_
$9h:__ZN6il2cpp2vm4Type19GetGenericParameterEPK10Il2CppType
UOc:__Z51Register_UnityEngine_CanvasGroup_get_blocksRaycastsv
t0g:_InternalEnumerator_1_get_Current_m2826780083_gshared
fXd:_Array_InternalArray__ICollection_Remove_TisCustomAttributeNamedArgument_t94157543_m2838387005_gshared
kkj:__ZL105LayoutUtility_t4076838048_CustomAttributesCacheGenerator_LayoutUtility_U3CGetMinHeightU3Em__4_m1769295917P21CustomAttributesCache
CNg:_Dictionary_2_GetEnumerator_m1752238884_gshared
G1g:_InternalEnumerator_1__ctor_m2782443954_AdjustorThunk
sd:_glBeginQuery
gSf:_Assembly_GetCustomAttributes_m95309865
EJb:__ZN6Camera12RenderStereoENS_10RenderFlagE8CullFlagPNS_24PerformEyeRenderFunctionE
nkb:__ZN20LocalFileSystemPosix10ToAbsoluteEPKc
Bmd:_GridLayoutGroup__ctor_m1099847132
_W:__GLOBAL__sub_I_runtime_input_0_cpp
QGd:_Convert_ToBoolean_m48997236
NSd:_Enum_ToObject_m275924358
zm:f0
mwa:__ZN9BehaviourD0Ev
HAd:_ArrayListWrapper_set_Capacity_m2792463350
jLa:__Z32TransferEnumWithNameForceIntSizeI14SafeBinaryRead7HDRModeEvRT_RT0_PKc17TransferMetaFlags
bpj:_getcwd
fHf:_StringBuilder_Append_m1128243247
Udh:_AnchorInfo_get_Offset_m142119297
nxa:__ZN25ThreadsafeLinearAllocatorD2Ev
NLd:_DateTime_get_Year_m1985210972
O9a:__Z21SendMessageToEveryoneRK17MessageIdentifier11MessageData
pHh:_UnityAction_1_EndInvoke_m902670333_gshared
J4:__ZN21BillboardBatchManager16StaticInitializeEPv
YY:__ZN12_GLOBAL__N_138ArchiveRedirectFileSystemStaticDestroyEPv
lTd:_EventHandler_Invoke_m1137722757
wfg:__Z70RuntimeInvoker_Boolean_t3825574718_Int32_t2071877448_Int16_t4041245914PFvvEPK10MethodInfoPvPS4_
oVa:__ZN12CubemapArray34UpdateFileTextureUploadInstructionEP26FileAssetUploadInstructionj
tAe:_MonoType_IsSubclassOf_m2211166238
m2f:_TypeFilter_EndInvoke_m997625354
IVe:_Collection_1_System_Collections_ICollection_CopyTo_m2859266050_gshared
Lpa:__Z23CreateSparseTextureGLES9TextureIDii14GraphicsFormati
P2g:_Comparer_1__ctor_m2876014041_gshared
TAi:_GC_continue_reclaim
Gre:_InvalidCastException__ctor_m2730571470
Irf:_X509ChainElementCollection_System_Collections_IEnumerable_GetEnumerator_m2559704689
IZi:__ZL86BigInteger_t925946153_CustomAttributesCacheGenerator_BigInteger_op_Implicit_m622924526P21CustomAttributesCache
tfj:__ZL59Dropdown_t1985816271_CustomAttributesCacheGenerator_m_ValueP21CustomAttributesCache
Vtf:_InterpreterFactory_set_Gap_m2761943153
Yof:_PublicKey_get_Key_m126090744
iyc:__ZNSt3__23mapIN20TextRenderingPrivate7FontRefEP11FT_FaceRec_NS_4lessIS2_EENS_9allocatorINS_4pairIKS2_S4_EEEEEixERS9_
Cza:__ZN17ArchiveFileSystem10AddStorageEP20ArchiveStorageReader
CPh:__ZL25UnresolvedVirtualCall_104P12Il2CppObjectS0_S0_S0_iPK10MethodInfo
IKd:_Convert_ToSingle_m690748777
d3h:__ZN6il2cpp2vm13MetadataCache37GetParameterDefaultValueDataFromIndexEi
SPg:_EqualityComparer_1_System_Collections_IEqualityComparer_GetHashCode_m1203798961_gshared
oYh:__ZN6il2cpp2vm5Class15GetEnumBaseTypeEP11Il2CppClass
Wse:_DirectoryNotFoundException__ctor_m3713860966
rWa:__ZNK9Texture2D16GetNpotTexelSizeEv
$Vg:_InternalEnumerator_1__ctor_m245588437_gshared
ysf:_Capture_get_Text_m3472127896
zug:_Mask_get_rectTransform_m3304369086
Yig:__Z78RuntimeInvoker_Void_t1841601450_ScriptableRenderContext_t4271526_RuntimeObjectPFvvEPK10MethodInfoPvPS4_
Kha:__ZN9GfxDevice22GetDefaultVertexBufferE26GfxDefaultVertexBufferTypej
w2i:__ZL83Input_t1785128008_CustomAttributesCacheGenerator_Input_get_mousePresent_m1100327283P21CustomAttributesCache
E1e:_ReadOnlyCollection_1_System_Collections_ICollection_CopyTo_m1129689124_gshared
tpj:___fseeko_unlocked
Azj:_glGetActiveUniform__wrapper
lpj:_sscanf
SYe:_Collection_1_Contains_m1999290510_gshared
E2a:__ZN14SafeBinaryRead21TransferSTLStyleArrayINSt3__26vectorI17BlendShapeChannelNS1_9allocatorIS3_EEEEEEvRT_17TransferMetaFlags
MFb:__Z17BeginSplashScreenv
Ifb:__ZN9ShaderLab16SerializedShader8TransferI19StreamedBinaryWriteILb0EEEEvRT_
NOf:_UInt32_Parse_m2400360707
xC:__ZN7mecanim9animation18CreateAvatarMemoryEPKNS0_14AvatarConstantERNS_6memory9AllocatorE
mGd:_Stack_Pop_m3788808882
o4g:_Enumerator_VerifyCurrent_m4246196125_AdjustorThunk
AMg:_Dictionary_2_pick_value_m3484897877_gshared
blh:_ArgumentCache__ctor_m1191928438
MNd:_DateTime_op_Equality_m1867073872
mB:__ZN7mecanim8skeleton16SkeletonPoseCopyIN4math4trsXENS2_7affineXEEEvPKNS0_13SkeletonPoseTIT_EEPNS5_IT0_EE
ivb:__Z18Transfer_BlittableI19StreamedBinaryWriteILb0EELb0EaEvRK29SerializationCommandArgumentsR31RuntimeSerializationCommandInfo
pha:__ZN18GfxFramebufferGLES18GetFramebufferNameERK20GfxRenderTargetSetup
smc:__Z30Event_Get_Custom_PropCharacterP12Il2CppObject
$5:__ZN13PlayableGraph27SchedulePlayableDestructionERK9HPlayable
Kwj:_glGetFramebufferAttachmentParameteriv__wrapper
wVc:__Z13RegisterClassI20UnityConnectSettingsEvv
eob:__Z22scripting_array_length17ScriptingArrayPtr
a3c:_SecurityElement_GetAttribute_m4288291176
Lgh:_UriParser_get_DefaultPort_m1377931533
YIh:_IndexedSet_1_get_Count_m2839545138_gshared
CVa:__ZN14SafeBinaryRead20TransferTypelessDataEjPvi
nPi:__ZL66StringFreezingAttribute_t2691375565_CustomAttributesCacheGeneratorP21CustomAttributesCache
BMe:_List_1_AddCollection_m3284813601_gshared
MDc:_Horizontal_Sweep_Init
Sij:__ZL102ToggleGroup_t1030026315_CustomAttributesCacheGenerator_ToggleGroup_U3CActiveTogglesU3Em__1_m4052653494P21CustomAttributesCache
QM:__ZN13dynamic_arrayI12SoundChannelLj4EE9push_backERKS0_
kpa:__Z19GetActiveColorSpacev
jQg:_EqualityComparer_1__cctor_m1672307556_gshared
Jxf:_SoapTypeAttribute_get_IsInteropXmlElement_m2941294827
vBc:_UNITY_tt_face_load_kern
bFe:_Enumerator_System_Collections_IEnumerator_get_Current_m3542273247_gshared
Yyd:_Char_System_IConvertible_ToUInt32_m1557991717_AdjustorThunk
kGf:_Encoding_get_UTF8Unmarked_m628720656
yoe:_NumberFormatter_RoundBits_m1545255255
qY:__Z6StrCmpPKcS0_
lag:__Z119RuntimeInvoker_Void_t1841601450_RuntimeObject_Int64U26_t763825331_ObjectU26_t597476745_SerializationInfoU26_t4051840202PFvvEPK10MethodInfoPvPS4_
mhb:__Z21CheckGpuProgramUsable20ShaderGpuProgramType
XSf:_Binder__cctor_m3736115807
Qti:__ZN6il2cpp2os9Directory20GetFileSystemEntriesERKNSt3__212basic_stringIcNS2_11char_traitsIcEENS2_9allocatorIcEEEESA_iiPi
log:__Z84RuntimeInvoker_Int32_t2071877448_Color32_t874517518_Color32_t874517518_RuntimeObjectPFvvEPK10MethodInfoPvPS4_
vNg:_Dictionary_2_OnDeserialization_m2160537783_gshared
rvd:_Attribute_GetHashCode_m2653962112
hxc:__ZN20TextRenderingPrivate19NativeTextGenerator5SetupEv
vah:_AsyncResult_GetReplyMessage_m262842621
jRb:__ZNK15SharedLightData24GetFinalShadowResolutionEv
CDe:_Enumerator__ctor_m3021143890_AdjustorThunk
V6a:__ZN12AspectRatios8TransferI18StreamedBinaryReadILb0EEEEvRT_
ZKi:__ZL66X509ExtensionCollection_t1640144839_CustomAttributesCacheGeneratorP21CustomAttributesCache
C6b:__ZN10GameObject14CopyPropertiesERS_
LQh:__ZL25UnresolvedVirtualCall_167P12Il2CppObject19Vector3_t2243707580S1_PK10MethodInfo
gnc:__Z44Register_UnityEngine_GUIStyle_get_fixedWidthv
H$c:_RSACryptoServiceProvider_Common_m2581564813
vrh:_X509CertificateEnumerator_MoveNext_m4060814498
yxh:_Vector2_Scale_m2260641886
Yue:_MemoryStream_CheckIfClosedThrowDisposed_m2253054610
RSg:_ArrayReadOnlyList_1_GetEnumerator_m634288642_gshared
i$a:__ZNK13ScreenManager12IsFullScreenEv
Opj:_rand
lxj:_emscripten_glFramebufferRenderbuffer__wrapper
tig:__Z72RuntimeInvoker_Boolean_t3825574718_Ray_t2469606224_SingleU26_t4173844468PFvvEPK10MethodInfoPvPS4_
pui:__ZN6il2cpp5utils9PathUtils7CombineIcEENSt3__212basic_stringIT_NS3_11char_traitsIS5_EENS3_9allocatorIS5_EEEERKNS0_10StringViewIS5_EERKSA_
J4e:_ReadOnlyCollection_1_GetEnumerator_m2481390116_gshared
F7f:__Z77RuntimeInvoker_Void_t1841601450_RuntimeObject_Int32_t2071877448_RuntimeObjectPFvvEPK10MethodInfoPvPS4_
apb:__ZN14SafeBinaryRead21TransferSTLStyleArrayINSt3__26vectorI17AnimationCurveTplIfE13stl_allocatorIS4_L18MemLabelIdentifier1ELi16EEEEEEvRT_17TransferMetaFlags
xdi:__ZN15dense_hashtableINSt3__24pairIK10KeyWrapperINS1_IPK11Il2CppImageP11Il2CppClassEEEjEES9_17ReflectionMapHashIS8_EN14dense_hash_mapIS9_jSD_NS9_14EqualsComparerINS0_8equal_toIS8_EEEENS0_9allocatorISB_EEE9SelectKeyESI_SK_E12expand_arrayEjN21dense_hash_map_traits17integral_constantIbLb0EEE
zAf:_ObjectManager_RegisterObject_m872610295
HTb:__Z22PrepareOptimizedPlanesPK5PlaneiPKN4math7_float4E
Bwh:_RectOffset_t3387826427_marshal_pinvoke
pld:_Graphic_SetVerticesDirty_m1607014370
DU:__ZN11UnityEngine15CloudWebService17WebFileDownloaderINS0_20WebRequestRestClientENS0_23WebRequestRestHeaderMapEE10InitializeERKN4core12basic_stringIcNS5_20StringStorageDefaultIcEEEE
H4:__ZN17UniqueIDGenerator15CreatePureIndexEv
g9e:_MD2__ctor_m3133818738
Rr:__ZN11UnityEngine9Animation28GenericAnimationBindingCache15DidReloadDomainEv
Fje:_AppDomain_InternalGetProcessGuid_m1278588156
Eqd:_InputField_MoveRight_m386206014
MEd:_HashValues_get_Count_m234926373
K7a:__ZNSt3__26vectorIN15ResourceManager10DependencyE13stl_allocatorIS2_L18MemLabelIdentifier52ELi16EEE6assignINS_11__wrap_iterIPS2_EEEENS_9enable_ifIXaasr21__is_forward_iteratorIT_EE5valuesr16is_constructibleIS2_NS_15iterator_traitsISC_E9referenceEEE5valueEvE4typeESC_SC_
O5f:__Z116RuntimeInvoker_Boolean_t3825574718_RuntimeObject_Int32_t2071877448_RuntimeObject_Int32_t2071877448_Int32_t2071877448PFvvEPK10MethodInfoPvPS4_
ase:_BinaryReader_ReadBoolean_m2892291883
EXh:__ZN15dense_hashtableINSt3__24pairIK10KeyWrapperIPK22Il2CppGenericParameterEP11Il2CppClassEES6_N6il2cpp5utils11PointerHashIS4_EEN14dense_hash_mapIS6_S9_SE_NS6_14EqualsComparerINS0_8equal_toIS5_EEEENS0_9allocatorISA_EEE9SelectKeyESJ_SL_E14squash_deletedEv
ySg:_ArrayReadOnlyList_1_Clear_m2539474626_gshared
Hki:__ZN6il2cpp6icalls8mscorlib6System9Threading6Thread22CurrentThread_internalEv
Lbj:__ZL85Canvas_t209405766_CustomAttributesCacheGenerator_Canvas_get_sortingLayerID_m137448982P21CustomAttributesCache
b5b:__ZZL23RegisterLightPropertiesR22GenericPropertyBindingEN18Wrapper_LightRange13SetFloatValueEPvf
FSi:__ZL73AsymmetricSignatureDeformatter_t3580832979_CustomAttributesCacheGeneratorP21CustomAttributesCache
kna:__ZNSt3__26vectorI27ComputeShaderBuiltinSamplerNS_9allocatorIS1_EEE21__push_back_slow_pathIKS1_EEvRT_
Tff:_TlsServerCertificate_validateCertificates_m1988583701
nKi:__ZL61DllImportAttribute_t3000813225_CustomAttributesCacheGeneratorP21CustomAttributesCache
x4f:__Z66RuntimeInvoker_Int32_t2071877448_RuntimeObject_Int32U26_t455636984PFvvEPK10MethodInfoPvPS4_
nQh:__ZL25UnresolvedVirtualCall_143P12Il2CppObjectaaPK10MethodInfo
_Fa:__ZNK9Transform18TransformDirectionERK8Vector3f
yAa:__ZNK17ArchiveFileSystem12GetAssetGUIDERK13FileEntryData
dhb:__ZNSt3__26vectorIN9ShaderLab20SerializedSubProgram15MatrixParameterENS_9allocatorIS3_EEE21__push_back_slow_pathIKS3_EEvRT_
mCj:_emscripten_glClearStencil__wrapper
Ipg:__Z60RuntimeInvoker_Void_t1841601450_ResourceCacheItem_t333236149PFvvEPK10MethodInfoPvPS4_
GQg:_EqualityComparer_1_get_Default_m1852501307_gshared
Q1h:__ZN15dense_hashtableINSt3__24pairIK10KeyWrapperIPK11Il2CppClassEPKcEES6_N6il2cpp5utils11PointerHashIS3_EEN14dense_hash_mapIS6_S9_SE_NS6_14EqualsComparerINS0_8equal_toIS5_EEEENS0_9allocatorISA_EEE9SelectKeyESJ_SL_E12resize_deltaEjj
yrj:__ZNK10__cxxabiv120__si_class_type_info27has_unambiguous_public_baseEPNS_19__dynamic_cast_infoEPvi
Wke:_NumberFormatInfo_get_PercentNegativePattern_m1162448153
HLi:__ZL56SyncHashtable_t1343674558_CustomAttributesCacheGeneratorP21CustomAttributesCache
_uj:_glTexSubImage3D__wrapper
Ksf:_FactoryCache_Add_m2602974721
Jha:__Z30AddDefaultStreamsToMeshBuffersR9GfxDeviceR11MeshBuffersj17ShaderChannelMaskS3_
AY:__ZL16GetInterfaceImpl18UnityInterfaceGUID
hle:_RegionInfo_construct_internal_region_from_name_m3316088619
HYh:__ZN6il2cpp2vmL17SetupFieldOffsetsENS0_15FieldLayoutKindEP11Il2CppClassjRKNSt3__26vectorIjNS4_9allocatorIjEEEE
QGe:_List_1_System_Collections_IList_get_Item_m936612973_gshared
axi:__ZN6il2cpp6icalls8mscorlib6System15MonoCustomAttrs27GetCustomAttributesInternalEP12Il2CppObjectP20Il2CppReflectionTypeb
nJc:_UNITY_TT_Set_MM_Blend
ofa:__Z24PluginsSetGraphicsDevicePvi18GfxDeviceEventType
bX:__GLOBAL__sub_I_runtime_math_random_0_cpp
JAf:_ObjectReader_ReadAssembly_m869834280
Xyh:_Sprite_INTERNAL_get_textureRect_m127050026
XFb:__ZN14PreloadManager35WaitForAllAsyncOperationsToCompleteEv
b4e:_ReadOnlyCollection_1_System_Collections_IList_get_Item_m1831743662_gshared
UZe:_Collection_1_IsSynchronized_m971497175_gshared
i_:__ZNK18ScriptingObjectPtr17ToScriptingStringEv
Ibd:_ExecuteEvents_Execute_m1617536317
ZBg:_Text_get_cachedTextGeneratorForLayout_m1357670532
SH:__ZL31InitializeAudioScriptingClassesv
Q1i:__ZL75Screen_t786852042_CustomAttributesCacheGenerator_Screen_get_dpi_m2147924568P21CustomAttributesCache
UKb:__Z14SortGUIByDepthP10GUIElementS0_
ape:_NumberFormatter_NumberToString_m126384393
Oyj:_emscripten_glVertexAttrib4fv__wrapper
XX:__ZN13RuntimeStaticI13dynamic_arrayIPK31TransferFunctionScriptingTraitsLj4EELb0EE16StaticInitializeEPv
mvf:_LogicalCallContext__ctor_m3173272863
WB:__ZN12_GLOBAL__N_120ProcessRootMotionMixER33AnimationPlayableEvaluationOutputR35AnimationPlayableEvaluationConstantR32AnimationPlayableEvaluationInputS1_f
eze:_MonoCustomAttrs__cctor_m2608447972
Ine:_Int32_FindSign_m3803672540
i2i:__ZL98TouchScreenKeyboard_t601950206_CustomAttributesCacheGenerator_TouchScreenKeyboard_Open_m4126304679P21CustomAttributesCache
pmg:__Z95RuntimeInvoker_Void_t1841601450_ObjectU5BU5DU26_t3223402458_Int32_t2071877448_Int32_t2071877448PFvvEPK10MethodInfoPvPS4_
Pkb:__ZNK20LocalFileSystemPosix21GetAvailableDiskSpaceEPKcRy
JX:__ZNSt3__26__treeIiNS_4lessIiEENS_9allocatorIiEEE7destroyEPNS_11__tree_nodeIiPvEE
lTh:_Predicate_1__ctor_m2995226103_gshared
Lbf:_CipherSuite_InitializeCipher_m229247572
rpf:_X509Certificate2__ctor_m1095336775
yaa:__ZNK9GfxDevice14GetWorldMatrixEv
l1f:_MonoProperty_GetGetMethod_m1100580870
bMg:_Dictionary_2__ctor_m1950568359_gshared
Xvi:__ZN15dense_hashtableINSt3__24pairIK10KeyWrapperIPK19Il2CppGenericMethodEP10MethodInfoEES6_N6il2cpp8metadata23Il2CppGenericMethodHashEN14dense_hash_mapIS6_S9_SD_NS6_14EqualsComparerINSC_26Il2CppGenericMethodCompareEEENS0_9allocatorISA_EEE9SelectKeyESH_SJ_E13set_empty_keyERKSA_
djb:__Z19scripting_array_new17ScriptingClassPtrjj
EM:__ZN11SoundHandle13CreateChannelEb
I9f:__Z90RuntimeInvoker_Void_t1841601450_IntPtr_t_Int32_t2071877448_RuntimeObject_Int32_t2071877448PFvvEPK10MethodInfoPvPS4_
TXa:__ZN14SafeBinaryRead21TransferSTLStyleArrayI13dynamic_arrayI12LightmapDataLj4EEEEvRT_17TransferMetaFlags
Yje:_ArgumentException__ctor_m3312963299
feb:__ZNSt3__26vectorIN9ShaderLab20SerializedSubProgram16TextureParameterENS_9allocatorIS3_EEE6assignIPS3_EENS_9enable_ifIXaasr21__is_forward_iteratorIT_EE5valuesr16is_constructibleIS3_NS_15iterator_traitsISA_E9referenceEEE5valueEvE4typeESA_SA_
c3e:_ReadOnlyCollection_1_get_Item_m1696267180_gshared
u0h:__ZN13Il2CppHashMapIN6il2cpp5utils13dynamic_arrayIPK10Il2CppTypeLj4EEEPFvvENS0_8metadata19Il2CppSignatureHashENS9_22Il2CppSignatureCompareENSt3__29allocatorINSC_4pairIK10KeyWrapperIS6_ES8_EEEEEC2EjRKSA_RKSB_
dSh:_U3CCreateWhereIteratorU3Ec__Iterator1D_1_MoveNext_m3533253043_gshared
Yfi:__ZN15dense_hashtableINSt3__24pairIK10KeyWrapperIPK22Il2CppGenericParameterEPK24MonoGenericParameterInfoEES6_N6il2cpp5utils11PointerHashIS4_EEN14dense_hash_mapIS6_SA_SF_NS6_14EqualsComparerINS0_8equal_toIS5_EEEENS0_9allocatorISB_EEE9SelectKeyESK_SM_E15set_deleted_keyERKSB_
PWg:_InternalEnumerator_1_System_Collections_IEnumerator_Reset_m2726857860_AdjustorThunk
a$b:__ZN6prcoreL11inner_clearILj2EEEvPhjjj
fq:__Z14resize_trimmedINSt3__26vectorIN4core12basic_stringIcNS2_20StringStorageDefaultIcEEEENS0_9allocatorIS6_EEEEEvRT_j
uDe:_Enumerator_System_Collections_IEnumerator_get_Current_m2853089017_AdjustorThunk
Hg:_emscripten_exit_fullscreen
Cod:_InputField_get_mesh_m3276583786
h6g:_GCHandle_Free_m1639542352_AdjustorThunk
Def:_Context_set_ClientRandom_m631392719
_si:__ZN6il2cpp6icalls8mscorlib6System6String19InternalAllocateStrEi
Cuc:__Z29Transfer_Blittable_ArrayFieldI8JSONRead11QuaternionfEvRT_R9ArrayInfoRK23StaticTransferFieldInfo
tRi:__ZL65SoapParameterAttribute_t2780084514_CustomAttributesCacheGeneratorP21CustomAttributesCache
wkb:__ZN20LocalFileSystemPosix8SetFlagsER13FileEntryDatajj
Sdc:__Z45Register_UnityEngine_Camera_get_targetDisplayv
e4b:__ZNK24RendererAnimationBinding15GenerateBindingERKN4core12basic_stringIcNS0_20StringStorageDefaultIcEEEEbRN11UnityEngine9Animation14GenericBindingE
EKa:__Z15GetFlareManagerv
C$b:__ZN15ApplicationInfo24GetApplicationIdentifierEv
O2e:_ReadOnlyCollection_1_System_Collections_IList_Contains_m927375828_gshared
Ava:__ZN9Behaviour8TransferI18StreamedBinaryReadILb0EEEEvRT_
_y:__ZN8Animator13GetAvatarRootEv
P$e:_ReadOnlyCollection_1_System_Collections_Generic_ICollectionU3CTU3E_Clear_m388357963_gshared
Nnj:___toread
dEb:__ZNSt3__26vectorI10vector_mapIiiNS_4lessIiEE13stl_allocatorINS_4pairIiiEEL18MemLabelIdentifier38ELi16EEES4_IS9_LS7_38ELi16EEE26__swap_out_circular_bufferERNS_14__split_bufferIS9_RSA_EE
$rj:___cxa_is_pointer_type
S7c:_String_Concat_m56707527
YB:__ZN7mecanim9animation16EvaluateAvatarDXEPKNS0_14AvatarConstantEPKNS0_11AvatarInputEPNS0_12AvatarMemoryEPNS0_15AvatarWorkspaceEPNS0_12AvatarOutputE
Aoa:__ZN4gles20DestroyRenderSurfaceEP7ApiGLESP17RenderSurfaceGLES
tDe:_Enumerator_System_Collections_IEnumerator_get_Current_m2853089017_gshared
ejc:__Z34Transform_CUSTOM_SetAsFirstSiblingP12Il2CppObject
Sai:__ZNK15dense_hashtableINSt3__24pairIK10KeyWrapperINS1_IPK14Il2CppAssemblyP11Il2CppClassEEEjEES9_17ReflectionMapHashIS8_EN14dense_hash_mapIS9_jSD_NS9_14EqualsComparerINS0_8equal_toIS8_EEEENS0_9allocatorISB_EEE9SelectKeyESI_SK_E10test_emptyEj
sFe:_Enumerator_get_Current_m827571811_AdjustorThunk
d8i:__ZL62Font_t4239498691_CustomAttributesCacheGenerator_textureRebuiltP21CustomAttributesCache
Pva:__ZN17PersistentManager40GlobalToLocalSerializedFileIndexInternalERK26SerializedObjectIdentifier
ER:__ZN11UnityEngine15CloudWebService17SessionEventQueue14ParseEventDataERKN4core12basic_stringIcNS2_20StringStorageDefaultIcEEEE
s9c:_BaseEventData_get_selectedObject_m3551206992
Mae:_SimpleCollator_CompareOrdinal_m2176988387
i6i:__ZL47Rect_t3681755626_CustomAttributesCacheGeneratorP21CustomAttributesCache
XTd:_CCGregorianCalendar_GetYear_m1289900195
_oe:_Int16_ToString_m2592645088
W0i:__ZL90CullingGroup_t1091689465_CustomAttributesCacheGenerator_CullingGroup_SendEvents_m386073533P21CustomAttributesCache
Hfa:__ZN13TranslateGLES4InitERK12GraphicsCaps16GfxDeviceLevelGL
hBb:__Z29Transfer_Blittable_ArrayFieldI18StreamedBinaryReadILb0EE10ColorRGBAfEvRT_R9ArrayInfoRK23StaticTransferFieldInfo
cCf:_SerializationInfoEnumerator_Reset_m2206466680
jxj:_emscripten_glGetShaderPrecisionFormat__wrapper
UMh:_GenericEqualityComparer_1_Equals_m1934771410_gshared
TLi:__ZL57DebuggingModes_t2073970606_CustomAttributesCacheGeneratorP21CustomAttributesCache
cEi:__ZN6il2cpp5utils9Exception26FormatInvalidCastExceptionEPK11Il2CppClassS4_
DWe:_Collection_1_System_Collections_IList_get_IsFixedSize_m993584401_gshared
m2b:__ZN13ProduceHelperI10TagManagerLb0EE7ProduceE18MemLabelIdentifier18ObjectCreationMode
HEi:__ZN6il2cpp2os6Memory12AlignedAllocEjj
H_g:_InternalEnumerator_1__ctor_m691972083_gshared
yyi:__ZN6il2cpp8metadataL7CompareEPK10Il2CppTypeS3_
$qb:__Z18Transfer_BlittableI17RemapPPtrTransferLb0E11ColorRGBA32EvRK29SerializationCommandArgumentsR31RuntimeSerializationCommandInfo
wUf:_TypeBuilder_get_is_created_m736553860
qaf:_RSAManaged__ctor_m1370411656
xzb:__Z18Transfer_BlittableI18StreamedBinaryReadILb0EELb1E10ColorRGBAfEvRK29SerializationCommandArgumentsR31RuntimeSerializationCommandInfo
gVa:__ZN12CubemapArray23VirtualRedirectTransferER17RemapPPtrTransfer
Auh:_PropertyName_op_Equality_m112228798
Fbc:__ZL27GetComponentsImplementationILb0ELi0EEbR10GameObjectbRK17CompareParametersRK39GetComponentsImplementation_ReturnValue
LCb:__ZN9Scripting36IsSystemCollectionsGenericDictionaryE17ScriptingClassPtr
Twg:_Raycast3DCallback_EndInvoke_m3234280377
yjg:__Z34RuntimeInvoker_KeyCode_t2283395152PFvvEPK10MethodInfoPvPS4_
cuh:_PlayableHandle_op_Equality_m2854547329
did:_ColorTweenCallback__ctor_m3619686788
g2:__ZL16ReadTypeTreeImplILb0EEbR8TypeTreeRK16TypeTreeIteratorRPKhS6_i
Yx:__ZN27AnimationLayerMixerPlayable16SetLayerMaskCopyEjRKN7mecanim6bitsetILj70EEEPKNS0_8skeleton12SkeletonMaskE
EPa:__ZNK22BuiltinResourceManager21GetResourceInstanceIDEPKN5Unity4TypeERKN4core12basic_stringIcNS4_20StringStorageDefaultIcEEEE
Efc:__Z42Register_UnityEngine_RectOffset_set_bottomv
RAd:_ArrayListWrapper_IndexOf_m3574835167
Rmc:__Z28GUIStyleState_CUSTOM_CleanupP12Il2CppObject
ZMb:__ZN28LightProbeProxyVolumeContext8CopyFromERKS_
Wfd:_U3COnFinishSubmitU3Ec__Iterator0_System_Collections_Generic_IEnumeratorU3CobjectU3E_get_Current_m1823105495
CEa:__ZN23TransformChangeDispatch32QueueTransformChangeIfHasChangedER18TransformHierarchy
A1c:_SymmetricAlgorithm_get_FeedbackSize_m544664262
Boa:__ZN7ApiGLES18DeleteRenderbufferERj
fna:__ZL23ProgramUniformMatrix4fvPK7ApiGLESjiihPKv
Noa:__ZN7ApiGLES13CreateTextureEjj14GraphicsFormatiiiii
H4b:__ZN13ProduceHelperI11LightProbesLb0EE7ProduceE18MemLabelIdentifier18ObjectCreationMode
xlg:__Z41RuntimeInvoker_SelectionState_t3187567897PFvvEPK10MethodInfoPvPS4_
g$g:_InternalEnumerator_1_MoveNext_m3629145604_gshared
Pdb:__ZN9ShaderLab20SerializedSubProgram15MatrixParameter8TransferI14SafeBinaryReadEEvRT_
D4f:__Z51RuntimeInvoker_Int32_t2071877448_Single_t2076509932PFvvEPK10MethodInfoPvPS4_
Evd:_BitConverter_AmILittleEndian_m2716658112
Hbc:__ZL27GetComponentsImplementationILb0ELi1EEbR10GameObjectbRK17CompareParametersRK39GetComponentsImplementation_ReturnValue
uIc:_Round_Down_To_Grid
VIf:_UTF8Decoder__ctor_m1460357288
Nea:__ZN13RenderTexture7ReleaseEv
$rc:__Z18Transfer_BlittableI8JSONReadLb1EN4math12int3_storageEEvRK29SerializationCommandArgumentsR31RuntimeSerializationCommandInfo
N3a:__ZN10MeshFilter23VirtualRedirectTransferER14SafeBinaryRead
Tlh:_UnityAction_BeginInvoke_m1146054769
fHd:_Convert_ToByte_m1201588964
X3a:__ZN12MeshRenderer17MainThreadCleanupEv
Yra:__ZN22CreateGpuProgramOutput12CreateParamsEv
aJ:__ZN10ObjectPoolIN4FMOD7ChannelENS0_8ChannelIEE7GetFreeEi
mNi:__ZL55EventBuilder_t2927243889_CustomAttributesCacheGeneratorP21CustomAttributesCache
zCf:_RuntimeMethodHandle_GetHashCode_m2682236001_AdjustorThunk
Hlj:_AudioListenerExtension_get_audioListener_m2614481031
Tpg:__Z54RuntimeInvoker_Void_t1841601450_UILineInfo_t3621277874PFvvEPK10MethodInfoPvPS4_
p9h:__ZNSt3__26vectorIiNS_9allocatorIiEEE21__push_back_slow_pathIiEEvOT_
Akg:__Z45RuntimeInvoker_HorizontalWrapMode_t2027154177PFvvEPK10MethodInfoPvPS4_
xfa:__ZNK14GfxContextGLES13GetDefaultFBOEv
qXd:_Array_InternalArray__ICollection_Remove_TisSByte_t454417549_m2474211570_gshared
x3c:_Evidence_get_IsSynchronized_m1427392003
axh:_RectTransform_set_anchorMax_m1168582032
u8b:__Z13GetImagePixelI10ColorRGBAfET_PKhii13TextureFormat15TextureWrapModeS5_ii
g7h:_il2cpp_class_is_enum
yji:__ZN6il2cpp2vm6Thread49CheckCurrentThreadForInterruptAndThrowIfNecessaryEv
KHa:__ZNSt3__23mapIN9ShaderLab16FastPropertyNameEN18UnityPropertySheet11UnityTexEnvENS_4lessIS2_EENS_9allocatorINS_4pairIKS2_S4_EEEEEixERS9_
Rna:__ZNK13TranslateGLES25GetTextureTargetDimensionEj
l3d:_Array_InternalArray__set_Item_TisByte_t3683104436_m1694926640_gshared
gXe:_Collection_1_System_Collections_IList_Contains_m1897568526_gshared
LWf:_FieldBuilder_get_FieldType_m2267463269
$ud:_SimpleEnumerator_Clone_m3032847657
dch:_PatternCompiler_EmitInfo_m597931026
H7e:_ModulusRing_Multiply_m3113924743
uic:__Z47Texture2D_CUSTOM_INTERNAL_CALL_GetPixelBilinearP12Il2CppObjectffR10ColorRGBAf
$Z:__ZN9Scripting12LogExceptionE21ScriptingExceptionPtriPKcb
qef:_Context_get_ServerSettings_m225713600
Hi:_emscripten_glVertexAttrib4f
t$e:_ReadOnlyCollection_1_System_Collections_IEnumerable_GetEnumerator_m531171980_gshared
j3a:__ZN10Matrix4x4f8TransferI19StreamedBinaryWriteILb0EEEEvRT_
Gwh:_RectOffset__ctor_m976836251
N5d:_Array_Sort_TisUILineInfo_t3621277874_m3105833015_gshared
OAe:_MonoType_GetGenericArguments_m2708198481
jOb:__ZN11HaloManager21ReleaseGeometryJobMemEP25DynamicVBOGeometryJobData
WGe:_List_1_AddEnumerable_m2489692396_gshared
Ekg:__Z51RuntimeInvoker_Color_t2020392075_Single_t2076509932PFvvEPK10MethodInfoPvPS4_
mMh:_GenericEqualityComparer_1_GetHashCode_m3450627064_gshared
lJf:_WaitHandle__ctor_m1256161634
Zw:__ZN7mecanim12statemachine24CreateStateMachineMemoryEPKNS0_20StateMachineConstantERNS_6memory9AllocatorE
MHg:_Enumerator_get_Current_m419581838_AdjustorThunk
$ca:__ZN9GfxDevice18SetGlobalDepthBiasEff
v4h:__ZN6il2cpp6icalls8mscorlib6System8MonoType12get_AssemblyEP20Il2CppReflectionType
jvh:_Vector3_get_normalized_m1057036856
Wsf:_Group_get_Success_m2001463544
G4c:_SecurityException_get_PermissionType_m3543350822
Vi:_emscripten_glGetPointerv
MB:__ZN8Animator22ApplyBuiltinRootMotionEv
Mpi:__ZN15dense_hashtableI10KeyWrapperIP18Il2CppGenericClassES3_N6il2cpp8metadata22Il2CppGenericClassHashEN14dense_hash_setIS3_S6_NS3_14EqualsComparerINS5_25Il2CppGenericClassCompareEEENSt3__29allocatorIS3_EEE8IdentityESA_SD_E5clearEv
DFb:__Z26ApplyMaterialPassWithCacheRK18SharedMaterialDataR17ShaderPassContextP6ShaderPN9ShaderLab4PassEibPKNS6_10GrabPassesEPNS6_11SubProgramsEPK22DeviceRenderStateBlock
UWd:_Array_InternalArray__ICollection_Remove_TisKeyValuePair_2_t3716250094_m2566517826_gshared
wni:__ZN30dense_hashtable_const_iteratorINSt3__24pairIK10KeyWrapperIP14Il2CppIUnknownEjEES5_N6il2cpp5utils11PointerHashIS3_EEN14dense_hash_mapIS5_jSB_NS5_14EqualsComparerINS0_8equal_toIS4_EEEENS0_9allocatorIS7_EEE9SelectKeyESG_SI_EppEv
XZa:__ZN8Renderer23VirtualRedirectTransferER14SafeBinaryRead
AVf:_DerivedType_get_UnderlyingSystemType_m3904230233
Dcd:_PointerEventData_get_rawPointerPress_m448871540
AMa:__Z27ConvertSubMeshesToTrianglesR13dynamic_arrayI7SubMeshLj4EERS_ItLj2EE
CYh:__ZN6il2cpp2vmL15GetBitmapNoInitEP11Il2CppClassPjRjj
p_b:__ZL13MotionHandleriPK27EmscriptenDeviceMotionEventPv
Rqf:_X509Certificate2Collection__ctor_m819526826
yH:__ZN12AudioManager5ResetEv
Ytg:__Z75RuntimeInvoker_RuntimeObject_Single_t2076509932_RuntimeObject_RuntimeObjectPFvvEPK10MethodInfoPvPS4_
U8e:_KeyBuilder_Key_m3814433741
Zje:_ArgumentException__ctor_m158205422
g_d:_Array_compare_TisVector3_t2243707580_m3709184876_gshared
fnd:_HorizontalLayoutGroup_SetLayoutHorizontal_m3237355818
wB:__ZN7mecanim5human14RetargetToTDoFEPKNS0_5HumanEPNS0_9HumanPoseEPNS_8skeleton13SkeletonPoseTIN4math4trsXEEESB_
Lfi:__ZNK15dense_hashtableINSt3__24pairIK10KeyWrapperIPK14Il2CppAssemblyEPK22Il2CppMonoAssemblyNameEES6_N6il2cpp5utils11PointerHashIS4_EEN14dense_hash_mapIS6_SA_SF_NS6_14EqualsComparerINS0_8equal_toIS5_EEEENS0_9allocatorISB_EEE9SelectKeyESK_SM_E10test_emptyEj
mui:__ZN6il2cpp6icalls8mscorlib6System11Environment20GetWindowsFolderPathEi
X_g:_InternalEnumerator_1_Dispose_m3642485841_AdjustorThunk
Nv:__ZN7mecanim5human18HumanPoseBlendNodeERNS0_9HumanPoseEPS1_f
yzc:_UNITY_FT_RoundFix
Wgb:__ZN9ShaderLab20SerializedSubProgram15AddTextureParamEPKcii16TextureDimension
QQ:__ZN23CloudWebServicesManager23VirtualRedirectTransferER17RemapPPtrTransfer
oUe:__ZN21InterfaceFuncInvoker1Ib40CustomAttributeTypedArgument_t1498197914E6InvokeEjP11Il2CppClassP12Il2CppObjectS0_
cgh:_Uri_get_Parser_m2250631932
Z3a:__ZNK12MeshRenderer22GetTypeVirtualInternalEv
Pzh:_Touch_get_type_m1491424279_AdjustorThunk
ild:_Graphic_set_color_m646149893
YMg:_Dictionary_2_System_Collections_ICollection_get_IsSynchronized_m960517203_gshared
tSa:__ZN14SafeBinaryRead19TransferSTLStyleMapINSt3__23mapIN4core12basic_stringIcNS3_20StringStorageDefaultIcEEEES7_NS1_4lessIS7_EE13stl_allocatorINS1_4pairIKS7_S7_EEL18MemLabelIdentifier1ELi16EEEEEEvRT_17TransferMetaFlags
SNf:_Type_MakeByRefType_m1323101575
gNc:__ZN2UI6Canvas27UpdateEventIndexesRecursiveERi
KR:__ZN11UnityEngine15CloudWebService16SessionContainer21PrepareDataErrorEventERN4core12basic_stringIcNS2_20StringStorageDefaultIcEEEE
_zc:_UNITY_FT_Outline_New
R9i:__ZL98Event_t3028476042_CustomAttributesCacheGenerator_Event_Internal_MakeMasterEventCurrent_m3691313142P21CustomAttributesCache
Vvi:__ZNSt3__218uninitialized_copyIPNS_4pairIK10KeyWrapperIPK19Il2CppGenericMethodEP10MethodInfoEESB_EET0_T_SD_SC_
Evb:__Z19TransferField_ArrayI19StreamedBinaryWriteILb0EE27Converter_SimpleNativeClassI8GUIStyleEEvRK23StaticTransferFieldInfoR31RuntimeSerializationCommandInfoRT0_
dyg:_Scrollbar_SetDirection_m3264558284
wzj:_emscripten_glCopyTexSubImage2D__wrapper
c$a:__ZNK13ScreenManager12GetIsFocusedEv
mBi:_maybe_finalize
Zth:_PlayableHandle_IsValidInternal_m3315870994
azf:_RemotingServices_RegisterInternalChannels_m1827304423
Prc:__Z35Transfer_Blittable_FixedBufferFieldI8JSONReadiEvRK29SerializationCommandArgumentsR31RuntimeSerializationCommandInfo
y3h:__ZNSt3__213__vector_baseIN6il2cpp2os19SocketHandleWrapperENS_9allocatorIS3_EEED2Ev
qde:_ASN1_get_Length_m3359111015
Bhg:__Z66RuntimeInvoker_InternalShaderChannel_t3331827198_Int32_t2071877448PFvvEPK10MethodInfoPvPS4_
ffg:__Z77RuntimeInvoker_RuntimeObject_Int32_t2071877448_RuntimeObject_SByte_t454417549PFvvEPK10MethodInfoPvPS4_
cc:invoke_viiffi
Kv:__ZN7mecanim18ValueArrayBlendEndILb0EEEvPKNS_10ValueArrayERKNS_14ValueArrayMaskERKNS_16ValueArrayWeightERS1_
gYb:__ZN13sorted_vectorINSt3__24pairIN4core12basic_stringIcNS2_20StringStorageDefaultIcEEEEPK17MessageIdentifierEEN10vector_mapIS6_S9_NS0_4lessIS6_EENS0_9allocatorISA_EEE13value_compareESF_E10insert_oneERKSA_
LB:__ZNSt3__227__insertion_sort_incompleteIRPFbPKN8Animator11AnimatorJobES4_EPS4_EEbT0_S9_T_
vR:__ZNSt3__26__treeINS_12__value_typeIN4core12basic_stringIcNS2_20StringStorageDefaultIcEEEEjEENS_19__map_value_compareIS6_S7_NS_4lessIS6_EELb1EEE13stl_allocatorIS7_L18MemLabelIdentifier88ELi16EEE4findIS6_EENS_15__tree_iteratorIS7_PNS_11__tree_nodeIS7_PvEEiEERKT_
fKf:_Thread_GetCachedCurrentUICulture_m5590127
shg:__Z36RuntimeInvoker_Matrix4x4_t2933234003PFvvEPK10MethodInfoPvPS4_
dVa:__ZNK12CubemapArray20GetRuntimeMemorySizeEv
xEh:_GUILayoutEntry_get_margin_m3913640621
Q7g:_CrossAppDomainSink_get_TargetDomainId_m775204051
Heb:__Z14resize_trimmedINSt3__26vectorIN9ShaderLab18SerializedPropertyENS0_9allocatorIS3_EEEEEvRT_j
CPe:_List_1_CheckMatch_m4018158235_gshared
wqb:__Z18Transfer_BlittableI17RemapPPtrTransferLb0EN4math12int3_storageEEvRK29SerializationCommandArgumentsR31RuntimeSerializationCommandInfo
nbe:_Context_t2636657155_marshal_pinvoke_back
y1h:__ZN6il2cpp2vm13MetadataCache38GetMethodInfoFromMethodDefinitionIndexEi
rxd:_Byte_System_IConvertible_ToDateTime_m1583041031
UOh:__ZL24UnresolvedVirtualCall_68P12Il2CppObjectS0_iS0_S0_S0_S0_S0_S0_PK10MethodInfo
b0a:__ZN10VertexData8TransferI24GenerateTypeTreeTransferEEvRT_
qcj:__ZL100CanvasRenderer_t261436805_CustomAttributesCacheGenerator_CanvasRenderer_get_absoluteDepth_m606892957P21CustomAttributesCache
Avi:__ZN13Il2CppHashMapIPK19Il2CppGenericMethodP10MethodInfoN6il2cpp8metadata23Il2CppGenericMethodHashENS6_26Il2CppGenericMethodCompareENSt3__29allocatorINS9_4pairIK10KeyWrapperIS2_ES4_EEEEEC2EjRKS7_RKS8_
hhe:_EncryptedData_get_EncryptionAlgorithm_m1301274243
W4i:__ZL68DrivenTransformProperties_t2488747555_CustomAttributesCacheGeneratorP21CustomAttributesCache
cTb:__ZL10CullLightsRK22SceneCullingParametersR11CullResults
okd:_Dropdown__cctor_m264401557
sud:_Array_IndexOf_m2819632474
uvh:_Ray_GetPoint_m2427899009_AdjustorThunk
y3g:_Comparer_1__cctor_m3996541505_gshared
Uw:__ZN7mecanim12statemachine20GetBlendTreeConstantERKNS0_13StateConstantEi
W_b:__Z40GetTemporaryCachePathApplicationSpecificv
gba:__ZN9GfxDevice16EndAsyncJobFrameEv
nod:_Image_get_minWidth_m1809071077
hei:__ZNK15dense_hashtableINSt3__24pairIK10KeyWrapperINS1_IPK12PropertyInfoP11Il2CppClassEEEjEES9_17ReflectionMapHashIS8_EN14dense_hash_mapIS9_jSD_NS9_14EqualsComparerINS0_8equal_toIS8_EEEENS0_9allocatorISB_EEE9SelectKeyESI_SK_E10test_emptyERK30dense_hashtable_const_iteratorISB_S9_SD_SM_SI_SK_E
oBc:_UNITY_tt_face_load_hhea
H9g:_ContextAttribute_IsNewContextOK_m2186905629
FGd:_Convert_ToBase64String_m1936815455
Pk:___syscall3
Sk:___syscall6
Cca:__ZN9GfxDevice15GetNextCPUFenceEv
Uk:___syscall4
bQd:_Decimal_ToString_m759431975
ZXe:_Collection_1_System_Collections_IList_get_IsFixedSize_m2204750039_gshared
Klb:__ZNSt3__26__treeINS_12__value_typeIN4core12basic_stringIcNS2_20StringStorageDefaultIcEEEEPN16MemoryFileSystem4NodeEEENS_19__map_value_compareIS6_SA_NS_4lessIS6_EELb1EEE13stl_allocatorISA_L18MemLabelIdentifier55ELi16EEE7destroyEPNS_11__tree_nodeISA_PvEE
Vfd:_ColorBlock_get_fadeDuration_m987725262
ehj:__ZL195U3CMouseDragOutsideRectU3Ec__Iterator1_t2599668326_CustomAttributesCacheGenerator_U3CMouseDragOutsideRectU3Ec__Iterator1_System_Collections_Generic_IEnumeratorU3CobjectU3E_get_Current_m2602955272P21CustomAttributesCache
xgg:__Z86RuntimeInvoker_Void_t1841601450_RuntimeObject_Vector3U26_t425862308_RayU26_t3651946800PFvvEPK10MethodInfoPvPS4_
MDf:_CryptographicException__ctor_m2415891459
tba:__ZN9GfxDevice27UpdateComputeSkinPoseBufferE15ComputeBufferIDP12SkinMeshInfo
KJe:_List_1_AddCollection_m3266731889_gshared
zRi:__ZL59ITrackingHandler_t2759960940_CustomAttributesCacheGeneratorP21CustomAttributesCache
il:_emscripten_glShaderBinary
CKf:_DelegatePInvokeWrapper_ThreadStart_t3437517264
F4d:_Array_qsort_TisVector2_t2243707579_TisVector2_t2243707579_m3308480721_gshared
XS:__ZN15DownloadHandler19OnFinishReceiveDataEv
Hkb:__ZNK20LocalFileSystemPosix6ExistsERK13FileEntryData
PXg:_InternalEnumerator_1_Dispose_m4038440306_AdjustorThunk
xdg:__Z21RuntimeInvoker_Guid_tPFvvEPK10MethodInfoPvPS4_
MDh:_GUI_CallWindowDelegate_m2603162942
Vkf:_DictionaryNodeEnumerator_get_DictionaryNode_m3521889822
Ut:__ZN7mecanim5human19MaskHasLeftFootGoalERKNS_6bitsetILj70EEE
xog:__Z101RuntimeInvoker_Int32_t2071877448_RuntimeObject_Color32_t874517518_Int32_t2071877448_Int32_t2071877448PFvvEPK10MethodInfoPvPS4_
CQc:__Z58Register_UnityEngine_Canvas_GetETC1SupportedCanvasMaterialv
byb:__ZN17AnimationCurveTplIfE8TransferI18StreamedBinaryReadILb1EEEEvRT_
dOd:_DateTimeOffset_GetHashCode_m3312197462_AdjustorThunk
TSc:__ZN18UnityConnectClientD2Ev
snf:_ServicePoint_set_UseNagleAlgorithm_m2618011464
y6h:_il2cpp_set_data_dir
Zfh:_Uri_get_IsUnc_m2111738174
RXi:__ZL79Convert_t2607082565_CustomAttributesCacheGenerator_Convert_ToUInt64_m1691869628P21CustomAttributesCache
kDa:__ZN16LevelGameManager23VirtualRedirectTransferER19StreamedBinaryWriteILb0EE
Y$a:__Z32TransferEnumWithNameForceIntSizeI14SafeBinaryRead16GfxPrimitiveTypeEvRT_RT0_PKc17TransferMetaFlags
m2g:_DefaultComparer__ctor_m1961329658_gshared
iZf:_ParameterBuilder_get_Attributes_m2421099277
Img:__Z66RuntimeInvoker_Void_t1841601450_ObjectU26_t597476745_RuntimeObjectPFvvEPK10MethodInfoPvPS4_
ZZf:_TypeBuilder_IsValueTypeImpl_m1499671481
XRc:__ZN11UnityEngine15PlatformWrapper30GetGraphicsDriverLibraryStringEv
AFg:_Enumerator_VerifyState_m262343092_AdjustorThunk
kKe:_List_1_get_Count_m1752597149_gshared
aaf:_EncryptedPrivateKeyInfo_Decode_m1706190306
GJg:_ValueCollection_GetEnumerator_m401908452_gshared
yzb:__Z18Transfer_BlittableI18StreamedBinaryReadILb0EELb0E4AABBEvRK29SerializationCommandArgumentsR31RuntimeSerializationCommandInfo
Ilj:_AudioListener_ClearExtensionProperties_m2267088681
ED:__ZN16MecanimAnimation24DeleteAnimatedPropertiesERP26IAnimatedPropertyEvaluator
Fag:__Z42RuntimeInvoker_CspProviderFlags_t105264000PFvvEPK10MethodInfoPvPS4_
ZKd:_Convert_ToUInt16_m1665900934
p6e:_Converter_2_BeginInvoke_m898151494_gshared
ele:_RegionInfo__ctor_m2058831971
lJb:__Z14DrawGUITextureRK5RectTIfEP7Texture11ColorRGBA32P8Materiali
eCg:_Text_get_supportRichText_m3291105891
zA:__ZN9BlobWrite8TransferI22OffsetPtrArrayTransferIKN4math7_float4EEEEvRT_PKc17TransferMetaFlags
h4e:_ReadOnlyCollection_1_get_Count_m336636247_gshared
DFh:_GUIUtility_set_systemCopyBuffer_m3458871692
kRa:__ZN15TextureSettings8TransferI24GenerateTypeTreeTransferEEvRT_
nbh:_MatchCollection_GetEnumerator_m3516985966
yrc:__ZN9JSONWrite8TransferI4AABBEEvRT_PKc17TransferMetaFlags
iGf:_UTF7Encoding__ctor_m2365939916
kBa:__ZN25MultiBlocksMemoryFileData9SetLengthEy
iXh:_Animator_SetTrigger_m2003713590
dkh:_DelegatePInvokeWrapper_StateChanged_t2480912210
Qug:_MatEntry__ctor_m3650167335
IJh:_ListPool_1_U3Cs_ListPoolU3Em__0_m441310157_gshared
hWa:__ZNK9Texture2D20GetRuntimeMemorySizeEv
YNf:_TypeInitializationException__ctor_m2993591639
YYd:_Array_InternalArray__IEnumerable_GetEnumerator_TisRefEmitPermissionSet_t2708608433_m3450905212_gshared
Inc:__ZN5Unity9rapidjson13GenericReaderINS0_4UTF8IcEES3_13JSONAllocatorE9ParseTrueILj0ENS0_19GenericStringStreamIS3_EENS0_15GenericDocumentIS3_S4_S4_EEEEvRT0_RT1_
qm:_emscripten_glUniform2iv
OSi:__ZL46DES_t1353513560_CustomAttributesCacheGeneratorP21CustomAttributesCache
ene:_Int16_System_IConvertible_ToInt64_m733340257
gXi:__ZL79Convert_t2607082565_CustomAttributesCacheGenerator_Convert_ToSingle_m2156102599P21CustomAttributesCache
Vxc:_UNITY_FT_Outline_Transform
oic:__Z60Register_UnityEngine_Sprites_DataUtility_Internal_GetMinSizev
VYh:__ZN6il2cpp2vm5Class10GetMethodsEP11Il2CppClassPPv
SVc:__ZNK25UnityWebRequestJavaScript17GetUploadProgressEv
TOb:__Z30AddDefaultStreamsToMeshBuffersR9GfxDeviceR11MeshBuffersRK16DrawBuffersRange17ShaderChannelMaskS6_
qog:__Z86RuntimeInvoker_Int32_t2071877448_Vector2_t2243707579_Vector2_t2243707579_RuntimeObjectPFvvEPK10MethodInfoPvPS4_
eoa:__ZN7ApiGLES17DeleteFramebufferERN2gl6HandleILNS0_10ObjectTypeE9EEES3_
$qa:__ZN15UniformTFMethod13MapBoneBufferEj
ndf:_RecordProtocol_SendAlert_m2816808523
ZLc:__ZN2UI14CanvasRendererD2Ev
F7i:__ZL113PlayerConnection_t3517219175_CustomAttributesCacheGenerator_PlayerConnection_ConnectedCallbackInternal_m286884446P21CustomAttributesCache
Pvf:_MethodCall_get_LogicalCallContext_m3769562079
$ji:__ZN6il2cpp6icalls8mscorlib6System5Array8SetValueEP11Il2CppArrayP12Il2CppObjectS5_
jxe:_SynchronizedReader_Read_m1399666181
Q$f:_MonoEvent_get_Name_m2796714646
xEb:__Z9SetupArgviPPKc
WWh:_AnimationOffsetPlayable__ctor_m1644499845
Cpg:__Z53RuntimeInvoker_Void_t1841601450_LabelData_t3712112744PFvvEPK10MethodInfoPvPS4_
qZd:_Array_InternalArray__IEnumerable_GetEnumerator_TisHitInfo_t1761367055_m2486283755_gshared
Scd:_PointerEventData_set_worldNormal_m2025727441
JAh:_Transform_INTERNAL_get_worldToLocalMatrix_m2822011810
uef:_Context_get_SentConnectionEnd_m3114190867
Mva:__ZN12ImmediatePtrI10GameObjectE8TransferI19StreamedBinaryWriteILb0EEEEvRT_
hVa:__ZN12CubemapArray23VirtualRedirectTransferER24GenerateTypeTreeTransfer
aOh:__ZL24UnresolvedVirtualCall_22P12Il2CppObjectS0_iS0_S0_S0_PK10MethodInfo
M2:__ZN12FileAccessor4OpenER15FileSystemEntry14FilePermission16FileAutoBehavior
sLa:__ZNSt3__26vectorI4PPtrI6ShaderE13stl_allocatorIS3_L18MemLabelIdentifier53ELi16EEE8__appendEj
Pti:__ZN6il2cpp2os9Directory6CreateERKNSt3__212basic_stringIcNS2_11char_traitsIcEENS2_9allocatorIcEEEEPi
DLa:__ZN4PPtrI6ShaderE8TransferI18StreamedBinaryReadILb0EEEEvRT_
mZa:__ZN23TransformChangeDispatch32QueueTransformChangeIfHasChangedERK15TransformAccess
vcd:_PointerEventData_set_clickTime_m3931922487
R1:__ZN15dense_hashtableINSt3__24pairIKiP4RTTIEEiN11TypeManager27HashFunctorPersistentTypeIDEN14dense_hash_mapIiS4_S7_NS0_8equal_toIiEE13stl_allocatorIS5_L18MemLabelIdentifier7ELi16EEE9SelectKeyESA_SD_E12maybe_shrinkEv
qoe:_NumberFormatter_AppendNonNegativeNumber_m629862866
OTa:__ZNSt3__26vectorINS_4pairIN9ShaderLab16FastPropertyNameEN18UnityPropertySheet11UnityTexEnvEEENS_9allocatorIS6_EEE21__push_back_slow_pathIKS6_EEvRT_
VAa:__ZN15ArchiveReadFile5WriteEyPKvPy
b5g:_ResourceInfo__ctor_m2401359321_AdjustorThunk
iui:__ZN6il2cpp2os26LibraryNamePrefixAndSuffixC2EPKcS3_
K3d:_Array_InternalArray__set_Item_TisMonoResource_t3127387157_m732733855_gshared
gIh:_UnityEvent_1_Invoke_m1599856953_gshared
NDd:_Hashtable__ctor_m392789568
fIf:_UTF7Encoding__cctor_m4192443836
B:tempValue
GZb:__Z29StdTemplateConversionFunctionIaiEbPvR14SafeBinaryRead
Okh:_Display_get_systemHeight_m3140485477
cbj:__ZL65GUISkin_t1436893342_CustomAttributesCacheGenerator_m_CustomStylesP21CustomAttributesCache
hHe:_List_1_Insert_m4101600027_gshared
ine:_Int16_System_IConvertible_ToSingle_m3277935657
D_:__Z29scripting_class_from_fullnamePKcS0_S0_
_Bh:_Vector3_get_sqrMagnitude_m1445517847_AdjustorThunk
Rwg:_Raycast3DCallback_Invoke_m2271859924
tx:__ZN26AnimatorControllerPlayable18DeallocateBindingsEv
VM:__ZN11AudioSource19CreateOpenALRolloffEfff
bCc:_UNITY_FT_Stream_ReadAt
l6f:__Z38RuntimeInvoker_MemberTypes_t3343038963PFvvEPK10MethodInfoPvPS4_
cEg:_Enumerator_get_CurrentKey_m2387752419_AdjustorThunk
J0h:__ZN15dense_hashtableINSt3__24pairIK10KeyWrapperIN6il2cpp5utils13dynamic_arrayIPK10Il2CppTypeLj4EEEEPFvvEEESA_NS3_8metadata19Il2CppSignatureHashEN14dense_hash_mapISA_SD_SG_NSA_14EqualsComparerINSF_22Il2CppSignatureCompareEEENS0_9allocatorISE_EEE9SelectKeyESK_SM_E9set_valueEPSE_RKSE_
Llh:_UnityEventBase_FindMethod_m2780816114
aOf:_UInt16_System_IConvertible_ToBoolean_m887616848
HN:__ZN11AudioModule22CreateAudioClipFromWWWEP10IWWWStreamPKcbbi
WGf:_StringBuilder_set_Length_m3039225444
Kkj:_AudioClipPlayable_Equals_m2652916719_AdjustorThunk
Klg:__Z37RuntimeInvoker_AspectMode_t1166448724PFvvEPK10MethodInfoPvPS4_
SXe:_Collection_1_System_Collections_IList_Contains_m3870109702_gshared
wWd:_Array_InternalArray__ICollection_Contains_TisRaycastResult_t21186376_m3188614988_gshared
ILd:_CultureAwareComparer_GetHashCode_m3681260951
gOc:__Z13RegisterClassIN2UI11CanvasGroupEEvv
U$i:__ZL90Application_t354826772_CustomAttributesCacheGenerator_Application_get_platform_m1727035749P21CustomAttributesCache
lJh:_U3CStartU3Ec__Iterator0__ctor_m951808111_gshared
c$b:__ZN6prcoreL11inner_clearILj4EEEvPhjjj
_wg:_Selectable__ctor_m1440593935
cQh:__ZL25UnresolvedVirtualCall_132P12Il2CppObject17Color_t2020392075faaaPK10MethodInfo
_5:__ZNK8Playable6HandleEv
Yrj:___cxa_guard_abort
TTf:_CustomAttributeTypedArgument_t1498197914_marshal_pinvoke_back
O0:__ZN14MessageHandler28MessageIDToMessageIdentifierEi
jmf:_HttpRequestCreator_Create_m3607509610
Iaj:__ZL50GUISkin_t1436893342_CustomAttributesCacheGeneratorP21CustomAttributesCache
x0a:__ZNK11SpriteAtlas20GetRuntimeRenderDataEPK6Sprite
DQe:_List_1_Shift_m3824049528_gshared
Izf:_ArrayFixupRecord__ctor_m3659990982
Gef:_Context_get_RandomCS_m3946020109
aIi:__ZL72IntPtr_t_CustomAttributesCacheGenerator_IntPtr_op_Inequality_m3044532593P21CustomAttributesCache
Ajd:_Dropdown_get_onValueChanged_m3334401942
ECi:__ZN6il2cpp2vm10WaitHandle19NewManualResetEventEb
I1e:_ReadOnlyCollection_1_System_Collections_IList_Contains_m3707723158_gshared
byc:__ZN20TextRenderingPrivate15DynamicFontData36GetFaceForCharacterIfAvailableInFontERKNS_7FontRefERK13dynamic_arrayI4PPtrIN13TextRendering4FontEELj4EEj
Qlj:_AudioExtensionManager_GetReadyToPlay_m3272224102
pv:__ZN7mecanim14ValueArrayCopyILb0EEEvPKNS_10ValueArrayEPS1_
VE:__Z51Register_UnityEngine_Animator_get_hasBoundPlayablesv
uSh:_Nullable_1_ToString_m1238126148_AdjustorThunk
iaj:__ZL87GUIStyle_t1799908754_CustomAttributesCacheGenerator_GUIStyle_get_fixedWidth_m2528231637P21CustomAttributesCache
Fd:emscriptenWebGLGetUniform
ro:FUNCTION_TABLE_iiiiiiiiiii
zVa:__Z32TransferEnumWithNameForceIntSizeI14SafeBinaryRead13TextureFormatEvRT_RT0_PKc17TransferMetaFlags
Ghj:__ZL86Scrollbar_t3248359358_CustomAttributesCacheGenerator_Scrollbar_ClickRepeat_m3403943364P21CustomAttributesCache
JUb:__ZL10CleanUpJobP20CullingGroupsJobData
bzd:_Char_CompareTo_m3044885427_AdjustorThunk
nte:_FileStream_GetSecureFileName_m508045384
SOb:__Z20IsRunningNativeTestsv
i_g:_InternalEnumerator_1_System_Collections_IEnumerator_get_Current_m2035754659_AdjustorThunk
s5a:__ZN11TimeManager23VirtualRedirectTransferER17RemapPPtrTransfer
cJb:__ZN13RenderManager15BatchModeUpdateEv
SSh:_Predicate_1_EndInvoke_m973058386_gshared
F2i:__ZL52LayerMask_t3188175821_CustomAttributesCacheGeneratorP21CustomAttributesCache
F$a:__ZN14SafeBinaryRead21TransferSTLStyleArrayI13dynamic_arrayI8Vector2fLj4EEEEvRT_17TransferMetaFlags
Ova:__ZN17PersistentManager51InstanceIDToLocalSerializedObjectIdentifierInternalEiR31LocalSerializedObjectIdentifier
iJ:__ZL16FMOD_ErrorString11FMOD_RESULT_658
f2f:_StrongNameKeyPair_System_Runtime_Serialization_IDeserializationCallback_OnDeserialization_m2330221363
YGc:_UNITY_FT_Create_Class_cff_services
k2g:_DefaultComparer__ctor_m1661558765_gshared
hd:_glVertexAttribIPointer
aRf:_UnhandledExceptionEventHandler_EndInvoke_m2207457167
QJg:_Dictionary_2_System_Collections_ICollection_get_IsSynchronized_m304009368_gshared
SYc:_HMAC_set_HashName_m457235014
G8b:__ZNK6Sprite10GetPaddingE20SpriteRenderDataMode
YXh:__ZN6il2cpp2vm5Class11GetPtrClassEPK10Il2CppType
GVd:_Array_InternalArray__ICollection_Contains_TisTableRange_t2011406615_m605506746_gshared
kKg:_Dictionary_2_Add_m1296007576_gshared
HKd:_Decimal_op_Explicit_m729046406
WDf:_CryptoConfig_CreateFromName_m2169102076
Ild:_Graphic_OnEnable_m2900261811
ZDf:_CryptographicUnexpectedOperationException__ctor_m3552441227
OMb:__ZN14qsort_internal5QSortIP15RODataDepthPassi17ROSorterDepthPassEEvT_S4_T0_T1_
NAd:_ArrayListWrapper_Clear_m321161741
Iqd:_InputField_LineDownCharacterPosition_m2690468785
aCc:_UNITY_ft_glyphslot_alloc_bitmap
R5d:_Array_Sort_TisVector2_t2243707579_TisVector2_t2243707579_m2582252549_gshared
aQf:_UInt64_System_IConvertible_ToDouble_m2828923873
x$h:__ZN15dense_hashtableI10KeyWrapperIPK17Il2CppGenericInstES4_N6il2cpp8metadata21Il2CppGenericInstHashEN14dense_hash_setIS4_S7_NS4_14EqualsComparerINS6_24Il2CppGenericInstCompareEEENSt3__29allocatorIS4_EEE8IdentityESB_SE_E16reset_thresholdsEv
BLe:_List_1_System_Collections_IList_set_Item_m1129584681_gshared
NJf:_SendOrPostCallback__ctor_m107067079
xDc:_ft_raster1_render
$jc:__Z47Register_UnityEngine_Mesh_RecalculateBoundsImplv
sHe:_List_1_set_Capacity_m491101164_gshared
Iqj:__ZNKSt3__221__basic_string_commonILb1EE20__throw_length_errorEv
tHf:_StringBuilder_Insert_m1733097906
B3g:_Comparer_1__ctor_m1157133632_gshared
bjf:_SslStreamBase_get_HashStrength_m480059173
i6e:_Comparison_1_EndInvoke_m2678763282_gshared
koc:__ZN5Unity9rapidjson6WriterI16TempBufferWriterNS0_4UTF8IcEES4_13JSONAllocatorE11WriteStringEPKcj
uIg:_ValueCollection_System_Collections_Generic_ICollectionU3CTValueU3E_Clear_m3271993638_gshared
hgg:__Z35RuntimeInvoker_Position_t3781184359PFvvEPK10MethodInfoPvPS4_
qGd:_Enumerator_MoveNext_m1419609883
KI:__ZN4FMOD7Channel19setReverbPropertiesEPK29FMOD_REVERB_CHANNELPROPERTIES
m0:__ZN13MonoBehaviour22GetScriptFullClassNameEv
P7h:_il2cpp_object_get_class
jNi:__ZL111DerivedType_t1016359113_CustomAttributesCacheGenerator_DerivedType_MakeGenericType_m742223168____typeArguments0P21CustomAttributesCache
gvh:_RangeInt_get_end_m480861812
d4e:_ReadOnlyCollection_1_Contains_m1816350632_gshared
smf:_ServicePointManager_FindServicePoint_m3137356168
uCb:__ZN13MonoBehaviour9CallAwakeEv
Vlh:_UnityEvent__ctor_m3488719202
YPa:__ZN20SphericalHarmonicsL211AddWeightedERKS_f
_dj:__ZL106PointerEventData_t1599784723_CustomAttributesCacheGenerator_PointerEventData_set_pressPosition_m2094137883P21CustomAttributesCache
idd:_PointerInputModule_GetPointerData_m1695674453
Iag:__Z90RuntimeInvoker_Void_t1841601450_RuntimeObject_RuntimeObject_RuntimeObject_SByte_t454417549PFvvEPK10MethodInfoPvPS4_
Jrb:__Z19TransferField_ArrayI17RemapPPtrTransfer27Converter_SimpleNativeClassI8GUIStyleEEvRK23StaticTransferFieldInfoR31RuntimeSerializationCommandInfoRT0_
JZ:__ZL22StaticInitializeShaderPv
DLd:_Convert_ToUInt64_m345450801
xSh:_Predicate_1_BeginInvoke_m2559992383_gshared
Soc:__ZN9JSONWrite8TransferI10ColorRGBAfEEvRT_PKc17TransferMetaFlags
HNe:_List_1_Find_m1270109362_gshared
I0:__Z25scripting_method_get_name18ScriptingMethodPtr
aqb:__Z19TransferField_ArrayI14SafeBinaryRead16Converter_StringEvRK23StaticTransferFieldInfoR31RuntimeSerializationCommandInfoRT0_
cqj:_rename
dBi:_GC_exit_check
dBe:_NotSupportedException__ctor_m3232764727
Llf:_TypeConverterAttribute_Equals_m2330345916
Hfg:__Z90RuntimeInvoker_Boolean_t3825574718_Int32_t2071877448_Int32U26_t455636984_Int32_t2071877448PFvvEPK10MethodInfoPvPS4_
eRh:__ZL25UnresolvedVirtualCall_188P12Il2CppObjectiPK10MethodInfo
h$:__Z20UnlockObjectCreationv
x2i:__ZL89Input_t1785128008_CustomAttributesCacheGenerator_Input_INTERNAL_CALL_GetTouch_m1374677231P21CustomAttributesCache
IYg:_InternalEnumerator_1_System_Collections_IEnumerator_get_Current_m1038263751_gshared
Ygg:__Z54RuntimeInvoker_Int32_t2071877448_LayerMask_t3188175821PFvvEPK10MethodInfoPvPS4_
Pse:_MonoIO_CreateDirectory_m379525469
vYb:__ZNSt3__26vectorINS_4pairIN4core12basic_stringIcNS2_20StringStorageDefaultIcEEEES6_EE13stl_allocatorIS7_L18MemLabelIdentifier38ELi16EEE6insertENS_11__wrap_iterIPKS7_EERSD_
$Zd:__ZN21InterfaceFuncInvoker2Ii22UILineInfo_t3621277874S0_E6InvokeEjP11Il2CppClassP12Il2CppObjectS0_S0_
qA:__ZN9BlobWrite8TransferI22OffsetPtrArrayTransferI9OffsetPtrIN7mecanim12statemachine18StateMachineMemoryEEEEEvRT_PKc17TransferMetaFlags
PWc:__ZNK14TransportProtoI12HeaderHelper15DownloadHandler13UploadHandler14ResponseHelperE13IsSynchronousEv
kAc:_UNITY_ft_smooth_renderer_class_pic_free
lOe:_List_1_System_Collections_IList_Remove_m3763718607_gshared
Zhf:_SslClientStream_remove_PrivateKeySelection_m427666577
N6c:_String_Concat_m2000667605
hYh:__ZN24dense_hashtable_iteratorINSt3__24pairIK10KeyWrapperIPK22Il2CppGenericParameterEP11Il2CppClassEES6_N6il2cpp5utils11PointerHashIS4_EEN14dense_hash_mapIS6_S9_SE_NS6_14EqualsComparerINS0_8equal_toIS5_EEEENS0_9allocatorISA_EEE9SelectKeyESJ_SL_E30advance_past_empty_and_deletedEv
swi:__ZN6il2cpp2vm6String8NewUtf16EPKDsi
sbj:__ZL61Tile_t429716126_CustomAttributesCacheGenerator_m_ColliderTypeP21CustomAttributesCache
mti:__ZN6il2cpp2os10ThreadImpl12QueueUserAPCEPFvPvES2_
DF:__Z32TransferEnumWithNameForceIntSizeI14SafeBinaryReadN10SampleClip17CompressionFormatEEvRT_RT0_PKc17TransferMetaFlags
JSc:__ZN22BaseUnityConnectClient10QueueEventERN11UnityEngine15CloudWebService17CloudServiceEventEPKcjb
qlg:__Z71RuntimeInvoker_Bounds_t3033363703_RuntimeObject_Matrix4x4U26_t266301477PFvvEPK10MethodInfoPvPS4_
r9d:_ExecuteEvents_GetEventHandler_TisRuntimeObject_m3333041576_gshared
FLe:__ZN23InterfaceActionInvoker2IP28UICharInfoU5BU5D_t2749705857iE6InvokeEjP11Il2CppClassP12Il2CppObjectS1_i
oCh:_Vector4__ctor_m3879980823_AdjustorThunk
_0c:_SHA384Managed_unpackWord_m2501009050
Azc:_UNITY_FT_Hypot
Hvd:_BitConverter_ToInt64_m1329623425
_1b:__ZN8RendererC2E12RendererType18MemLabelIdentifier18ObjectCreationMode
xUi:__ZL95ASCIIEncoding_t3022927988_CustomAttributesCacheGenerator_ASCIIEncoding_GetByteCount_m1396020051P21CustomAttributesCache
a7h:_il2cpp_class_is_abstract
pdj:__ZL92PointerEventData_t1599784723_CustomAttributesCacheGenerator_U3CpointerDragU3Ek__BackingFieldP21CustomAttributesCache
yf:_emscripten_glGetError
Bfi:__ZN15dense_hashtableINSt3__24pairIK10KeyWrapperIPK14Il2CppAssemblyEPK22Il2CppMonoAssemblyNameEES6_N6il2cpp5utils11PointerHashIS4_EEN14dense_hash_mapIS6_SA_SF_NS6_14EqualsComparerINS0_8equal_toIS5_EEEENS0_9allocatorISB_EEE9SelectKeyESK_SM_E14squash_deletedEv
v3f:__Z70RuntimeInvoker_Boolean_t3825574718_RuntimeObject_UInt64U26_t1611942494PFvvEPK10MethodInfoPvPS4_
vJ:__Z14FMOD_FILE_SeekPvjS_
Svf:_MethodCall_get_Properties_m1893707917
rIi:__ZL72Enum_t2459695545_CustomAttributesCacheGenerator_Enum_ToObject_m604645223P21CustomAttributesCache
FFg:_ShimEnumerator_get_Entry_m2387156530_gshared
IIi:__ZL82RuntimeArray_CustomAttributesCacheGenerator_Array_SetValue_m2421438042____indices1P21CustomAttributesCache
h1h:__ZN14dense_hash_mapI10KeyWrapperIN6il2cpp5utils13dynamic_arrayIPK10Il2CppTypeLj4EEEEPFvvENS1_8metadata19Il2CppSignatureHashENS8_14EqualsComparerINSB_22Il2CppSignatureCompareEEENSt3__29allocatorINSG_4pairIKS8_SA_EEEEEC2EjRKSC_RKSF_
KZi:__ZL87BigInteger_t925946153_CustomAttributesCacheGenerator_BigInteger_op_Equality_m2683055762P21CustomAttributesCache
MQh:__ZL25UnresolvedVirtualCall_168P12Il2CppObject19Vector3_t2243707580PK10MethodInfo
MVb:__ZNK13RenderTexture32CalculateNeedsInvertedProjectionEv
E_b:__ZN10systeminfo18GetOperatingSystemEv
Gf:emscriptenWebGLGet
$2:__Z19CanReplaceComponentRN5Unity9ComponentEPKNS_4TypeEPN4core12basic_stringIcNS5_20StringStorageDefaultIcEEEE
HJi:__ZL77RuntimeArray_CustomAttributesCacheGenerator_Array_ConstrainedCopy_m1922927602P21CustomAttributesCache
i3b:__ZN12CubemapArray11InitTextureEiii13TextureFormatb
AMe:_List_1_GrowIfNeeded_m2433342921_gshared
Aac:__Z17GetSceneBuildInfoRKN4core12basic_stringIcNS_20StringStorageDefaultIcEEEEiR14SceneBuildInfo
oCa:__ZNK15Lz4Decompressor20DecompressStreamInitEPPv
tci:__ZN24dense_hashtable_iteratorINSt3__24pairIK10KeyWrapperIPK10Il2CppTypeEjEES6_N6il2cpp8metadata14Il2CppTypeHashEN14dense_hash_mapIS6_jSB_NS6_14EqualsComparerINSA_26Il2CppTypeEqualityComparerEEENS0_9allocatorIS8_EEE9SelectKeyESF_SH_E30advance_past_empty_and_deletedEv
OUe:_Collection_1_set_Item_m3803272710_gshared
Y0f:_MonoMethodInfo_t3646562144_marshal_pinvoke_cleanup
Bpf:_X509Certificate2_get_SignatureAlgorithm_m3069898012
imf:_HttpRequestCreator__ctor_m2513916021
wqe:_Int64_System_IConvertible_ToSingle_m1678482180
ZA:__ZN7mecanim5human13HumanFixTwistEPKNS0_5HumanEPNS_8skeleton13SkeletonPoseTIN4math4trsXEEES9_iiRKf
DPb:__ZL24AssignProjectorQueuesJobP30AssignProjectorQueuesJobHeader
xLf:_TimeSpan_get_Hours_m3804628138
Rkd:_FontData_set_alignByGeometry_m2819509290
zqi:__ZN14dense_hash_mapI10KeyWrapperIP12Il2CppObjectEN6il2cpp2gc9CachedCCWENS4_5utils11PointerHashIS1_EENS3_14EqualsComparerINSt3__28equal_toIS2_EEEENSB_9allocatorINSB_4pairIKS3_S6_EEEEEC2EjRKS9_RKSE_
wch:_Regex__ctor_m3250610064
P0h:__ZN15dense_hashtableINSt3__24pairIK10KeyWrapperIN6il2cpp5utils13dynamic_arrayIPK10Il2CppTypeLj4EEEEPFvvEEESA_NS3_8metadata19Il2CppSignatureHashEN14dense_hash_mapISA_SD_SG_NSA_14EqualsComparerINSF_22Il2CppSignatureCompareEEENS0_9allocatorISE_EEE9SelectKeyESK_SM_E4swapERSP_
Tgb:__ZN9ShaderLab20SerializedSubProgram14SetConstBufferEPKci
ake:_ArgumentNullException__ctor_m911049464
t$f:_TargetParameterCountException__ctor_m2760108938
lxf:_SoapAttribute_SetReflectionObject_m2774156012
K5e:_Comparison_1_Invoke_m345024424_gshared
sFc:_cf2_getStdVW
Q2e:_ReadOnlyCollection_1_System_Collections_IList_Insert_m3936197025_gshared
mTd:_EventHandler_BeginInvoke_m3027583606
qW:__Z40DebugStringToFilePostprocessedStacktraceRK21DebugStringToFileData
Etc:__Z29Transfer_Blittable_ArrayFieldI8JSONReadjEvRT_R9ArrayInfoRK23StaticTransferFieldInfo
A9g:_ContextAttribute__ctor_m4006843177
KZg:_InternalEnumerator_1_get_Current_m314017974_AdjustorThunk
mg:__setLetterbox
tue:_MemoryStream__ctor_m1043059966
$Ta:__ZNSt3__26__treeINS_12__value_typeIN9ShaderLab16FastPropertyNameEfEENS_19__map_value_compareIS3_S4_NS_4lessIS3_EELb1EEENS_9allocatorIS4_EEE12__find_equalIS3_EERPNS_16__tree_node_baseIPvEENS_21__tree_const_iteratorIS4_PNS_11__tree_nodeIS4_SE_EEiEESH_RKT_
rLi:__ZL57CollectionBase_t1101587467_CustomAttributesCacheGeneratorP21CustomAttributesCache
Owf:__ZN21InterfaceFuncInvoker3IP12Il2CppObjectP6Type_t28StreamingContext_t1417235061PS1_E6InvokeEjP11Il2CppClassS1_S3_S4_S5_
J2a:__ZNSt3__26vectorI17BlendShapeChannelNS_9allocatorIS1_EEE6assignINS_11__wrap_iterIPS1_EEEENS_9enable_ifIXaasr21__is_forward_iteratorIT_EE5valuesr16is_constructibleIS1_NS_15iterator_traitsISA_E9referenceEEE5valueEvE4typeESA_SA_
Rrd:_LayoutElement_set_preferredWidth_m3072758716
UGb:__Z12SetGfxDeviceP9GfxDevice
kof:_AsnEncodedData_ToString_m724151831
plh:_Object_CompareBaseObjects_m1461253683
x_b:__ZN11TimeManager11GetRealtimeEv
JTe:_Collection_1_System_Collections_IList_get_IsFixedSize_m2408637569_gshared
ZIf:_UTF8Encoding_GetByteCount_m1469571127
PJ:__ZN29AudioEffectInternalDefinitionC2EP26UnityAudioEffectDefinitionb
D$f:_MonoMethodInfo_GetDeclaringType_m4186531677
Lxf:_SoapTypeAttribute_SetReflectionObject_m1566293812
sOg:_DefaultComparer__ctor_m418731767_gshared
eD:__ZN4PPtrI6AvatarE8TransferI18StreamedBinaryReadILb0EEEEvRT_
_Mh:_Enumerator_System_Collections_IEnumerator_Reset_m2573763156_AdjustorThunk
ezf:_RemotingServices_CreateClientProxy_m1631035355
GQf:_UInt64_ToString_m2892887310
sja:_stbir_resize
Hvi:__ZN15dense_hashtableINSt3__24pairIK10KeyWrapperIPK19Il2CppGenericMethodEP10MethodInfoEES6_N6il2cpp8metadata23Il2CppGenericMethodHashEN14dense_hash_mapIS6_S9_SD_NS6_14EqualsComparerINSC_26Il2CppGenericMethodCompareEEENS0_9allocatorISA_EEE9SelectKeyESH_SJ_EC2ERKSM_j
S3a:__ZN4PPtrI4MeshE8TransferI14SafeBinaryReadEEvRT_
qBa:__Z37ReadDirectoryInfo_UnityWebAndUnityRawR12FileAccessorRKN20ArchiveStorageHeader6HeaderERNS1_13DirectoryInfoE
PYd:_Array_InternalArray__IEnumerable_GetEnumerator_TisInt64_t909078037_m1219751804_gshared
sZ:__ZNSt3__26__treeINS_12__value_typeIPKciEENS_19__map_value_compareIS3_S4_15compare_tstringIS3_ELb1EEENS_9allocatorIS4_EEE7destroyEPNS_11__tree_nodeIS4_PvEE
jKi:__ZL96RuntimeTypeHandle_t2330101084_CustomAttributesCacheGenerator_RuntimeTypeHandle_Equals_m452760426P21CustomAttributesCache
ANg:_Dictionary_2_ToTValue_m1381983709_gshared
XAe:_MulticastDelegate_KPM_m1592985119
GRh:__ZL25UnresolvedVirtualCall_216P12Il2CppObjectiPK10MethodInfo
nTc:__ZN13dynamic_arrayIN4core12basic_stringIcNS0_20StringStorageDefaultIcEEEELj4EE6assignEPKS4_S7_
D_e:_Collection_1_ConvertItem_m3941916604_gshared
Lza:__ZN15dense_hashtableINSt3__24pairIKN4core12basic_stringIcNS2_20StringStorageDefaultIcEEEEP20ArchiveStorageReaderEES6_20StringHash32FunctionIS6_EN14dense_hash_mapIS6_S9_SC_NS0_8equal_toIS6_EE13stl_allocatorISA_L18MemLabelIdentifier55ELi16EEE9SelectKeyESF_SI_E5clearEv
SMc:__ZN2UI6Canvas26MarkAllNestedCanvasesDirtyEv
Kni:__ZN6il2cpp2vm12ReboxIfBoxedEP14Il2CppIUnknownP11Il2CppClass
XDb:__ZN25PathNamePersistentManagerD2Ev
a$:__ZN17PersistentManager48IntegrateObjectAndUnlockIntegrationMutexInternalEi
y3e:_ReadOnlyCollection_1_System_Collections_IList_get_IsReadOnly_m3872065502_gshared
QNi:__ZL112TypeBuilder_t3308873219_CustomAttributesCacheGenerator_TypeBuilder_MakeGenericType_m4282022646____typeArguments0P21CustomAttributesCache
t9:__ZZ29InitializeSortingGroupManagerPvEN44PostLateUpdateSortingGroupsUpdateRegistrator7ForwardEv
kp:__ZN6Object12SetHideFlagsENS_9HideFlagsE
mxj:_emscripten_glGetFramebufferAttachmentParameteriv__wrapper
CJb:__ZN13RendererScene15InitializeUmbraEv
SNa:__Z28CalculateGlobalMatrixInverse23TransformAccessReadOnly
sKi:__ZL60SecurityAttribute_t2016950496_CustomAttributesCacheGeneratorP21CustomAttributesCache
ddd:_PointerEventData_ToString_m1218584363
yyd:_Char_System_IConvertible_ToChar_m1489061093_AdjustorThunk
nIf:_UTF7Encoding_GetCharCount_m2589913583
B8h:_AnalyticsSessionInfo_CallSessionStateChanged_m2293069762
jve:_MemoryStream_CalculateNewCapacity_m3533542025
vFi:__ZN6il2cpp6icalls8mscorlib6System6Object7GetTypeEP12Il2CppObject
agh:_Uri_Reduce_m2577728307
XLf:_TimeSpan_Equals_m4102942751_AdjustorThunk
tIg:_ValueCollection_System_Collections_Generic_ICollectionU3CTValueU3E_Add_m1903672223_gshared
dWc:__ZN12HeaderHelper14SetUnvalidatedERKN4core12basic_stringIcNS0_20StringStorageDefaultIcEEEES6_b
QF:__ZN4FMOD6SoundI7releaseEv
NIi:__ZL70RuntimeArray_CustomAttributesCacheGenerator_Array_SetValue_m1489959987P21CustomAttributesCache
Edd:_MouseButtonEventData__ctor_m618518000
UBa:__ZN10MemoryFile9SetLengthEy
SOf:_UInt16_ToString_m2038947049_AdjustorThunk
Otb:__ZN5RectTIiE8TransferI24GenerateTypeTreeTransferEEvRT_
ZXa:__ZN14SafeBinaryRead21TransferSTLStyleArrayI13dynamic_arrayI7Hash128Lj8EEEEvRT_17TransferMetaFlags
WCb:__Z28scripting_class_is_interface17ScriptingClassPtr
Ch:_glTexStorage2D
XRa:__ZNK9ShaderLab10SubProgram14EnsureCompiledEv
y2f:__Z79RuntimeInvoker_Boolean_t3825574718_RuntimeObject_RuntimeObject_SByte_t454417549PFvvEPK10MethodInfoPvPS4_
CBf:_ObjectManager_RecordFixup_m3572285566
jMi:__ZL55DaylightTime_t3800227331_CustomAttributesCacheGeneratorP21CustomAttributesCache
nFd:_SortedList_InitTable_m460350503
y0:__Z18BuildScriptClassId17ScriptingClassPtr
iWg:_InternalEnumerator_1_get_Current_m4279678504_AdjustorThunk
nq:__ZNK16LevelGameManager7GetNameEv
LTe:_Collection_1_System_Collections_IList_get_Item_m2415649949_gshared
ZXf:_ILTokenInfo_t149559338_marshal_pinvoke_cleanup
MAa:__ZL31DeleteLastPathNameComponentImplRKN4core12basic_stringIcNS_20StringStorageDefaultIcEEEEPKc
T$b:__Z13RegisterClassI18DelayedCallManagerEvv
XSc:__ZN18UnityConnectClient15GetCloudServiceEv
Xrb:__Z18Transfer_BlittableI24GenerateTypeTreeTransferLb0EiEvRK29SerializationCommandArgumentsR31RuntimeSerializationCommandInfo
s3h:__ZN6il2cpp2os19SocketHandleWrapperD2Ev
QCb:__ZL28SerializationCommandGroupForRK31TransferFunctionScriptingTraits17ScriptingClassPtr17ScriptingFieldPtrRK20CoreScriptingClasses
VEa:__ZN10TagManager32RegisterDefaultTagsAndLayerMasksEv
AJh:_TweenRunner_1_StopTween_m2135918118_gshared
tJg:_ValueCollection_get_Count_m4142113966_gshared
W1h:__ZN15dense_hashtableINSt3__24pairIK10KeyWrapperIPKcEP11Il2CppClassEES5_N6il2cpp5utils11StringUtils12StringHasherIS4_EEN14dense_hash_mapIS5_S8_SE_NS5_14EqualsComparerINSB_13VmStringUtils21CaseSensitiveComparerEEENS0_9allocatorIS9_EEE9SelectKeyESJ_SL_E15insert_noresizeERKS9_
UJf:_SynchronizationLockException__ctor_m549086841
jAd:_ArrayList_InsertRange_m1478230997
Gfa:__ZN4gles8InitCapsEP7ApiGLESP12GraphicsCapsR16GfxDeviceLevelGL
Mja:__ZN6prcore14BlitImageFloatERK14ImageReferenceRS0_NS0_8BlitModeE
cvd:_Swapper_EndInvoke_m677693941
cLa:__Z24CalculateVertexLightDataRK15SharedLightDataR14GfxVertexLight
qjh:_Color_get_black_m455352838
ki:_glEnable
jbb:__ZN15dense_hashtableINSt3__24pairIKiiEEi21InstanceIDHashFunctorN14dense_hash_mapIiiS4_NS0_8equal_toIiEE13stl_allocatorIS3_L18MemLabelIdentifier1ELi16EEE9SelectKeyES7_SA_E12maybe_shrinkEv
TRa:__ZNK9ShaderLab7Program28BeginReadUnsupportedVariantsEv
lLb:__ZNK25CameraStackRenderingState21GetImageEffectTextureEb
vCf:_RuntimeMethodHandle__ctor_m2437574937_AdjustorThunk
w8a:__ZNSt3__26vectorIN30RuntimeInitializeOnLoadManager9ClassInfoE13stl_allocatorIS2_L18MemLabelIdentifier13ELi16EEE7reserveEj
CIi:__ZL72RuntimeArray_CustomAttributesCacheGenerator_Array_get_Length_m1498215565P21CustomAttributesCache
dpc:__Z35Transfer_Blittable_FixedBufferFieldI9JSONWriteiEvRK29SerializationCommandArgumentsR31RuntimeSerializationCommandInfo
rOf:_UInt16_System_IConvertible_ToInt64_m2835280558_AdjustorThunk
Ecj:__ZL53g_UnityEngine_Assembly_CustomAttributesCacheGeneratorP21CustomAttributesCache
bTh:_Predicate_1_BeginInvoke_m3926587117_gshared
YD:__ZZN8Animator15InitializeClassEvEN31FunctorImpl_427kDidModifyAvatar4CallEPviR11MessageData
h1e:_ReadOnlyCollection_1_System_Collections_IList_Remove_m2779327941_gshared
lx:__ZN26AnimatorControllerPlayable17ProcessRootMotionEP35AnimationPlayableEvaluationConstantP32AnimationPlayableEvaluationInputP33AnimationPlayableEvaluationOutput
Q2f:__Z94RuntimeInvoker_Boolean_t3825574718_Int32_t2071877448_SByte_t454417549_ExceptionU26_t1467204777PFvvEPK10MethodInfoPvPS4_
Tid:_DefaultControls_CreateToggle_m1568873127
ZPe:_List_1__cctor_m1022807427_gshared
fLi:__ZL63KeyNotFoundException_t1722175009_CustomAttributesCacheGeneratorP21CustomAttributesCache
lNg:_Dictionary_2_InitArrays_m2270022740_gshared
SGd:_Convert_ToBoolean_m2188088811
xRc:__ZN11UnityEngine7Connect15DeviceInfoEvent16CollectExtraInfoEv
EHf:_UnicodeEncoding_GetChars_m3765282346
jre:_IntPtr__ctor_m4104029105
ZRi:__ZL114BinaryFormatter_t1866979105_CustomAttributesCacheGenerator_BinaryFormatter_get_DefaultSurrogateSelector_m219714691P21CustomAttributesCache
W_g:_InternalEnumerator_1_System_Collections_IEnumerator_get_Current_m771161214_AdjustorThunk
Xze:_MonoType_get_attributes_m1493788675
PCa:__ZN20ArchiveStorageReader10InitializeER15FileSystemEntryyb
fqj:_atol
AJd:_Convert_ToDouble_m4236754739
gif:_SslClientStream_get_PrivateKeyCertSelectionDelegate_m3715949545
R_h:__ZN15dense_hashtableINSt3__24pairIK10KeyWrapperIPKcEP11Il2CppClassEES5_N6il2cpp5utils11StringUtils12StringHasherIS4_EEN14dense_hash_mapIS5_S8_SE_NS5_14EqualsComparerINSB_13VmStringUtils21CaseSensitiveComparerEEENS0_9allocatorIS9_EEE9SelectKeyESJ_SL_EC2EjRKSE_RKSJ_RKSN_
hkd:_Dropdown_CreateItem_m2702141380
K4e:_ReadOnlyCollection_1_IndexOf_m224962127_gshared
OLi:__ZL48Stack_t1043988394_CustomAttributesCacheGeneratorP21CustomAttributesCache
wo:FUNCTION_TABLE_viifi
Ung:__Z59RuntimeInvoker_Boolean_t3825574718_ResourceInfo_t3933049236PFvvEPK10MethodInfoPvPS4_
N$f:_MonoEvent_GetAddMethod_m4289563120
UJi:__ZL37Type_t_CustomAttributesCacheGeneratorP21CustomAttributesCache
ZIc:_UNITY_tt_face_free_hdmx
Lhi:__ZN15dense_hashtableINSt3__24pairIK10KeyWrapperINS1_IP11Il2CppClassjEEES4_EES6_N6il2cpp8metadata14ArrayClassHashEN14dense_hash_mapIS6_S4_SB_NS6_14EqualsComparerINSA_17ArrayClassCompareEEENS0_9allocatorIS8_EEE9SelectKeyESF_SH_E5clearEv
o_h:__ZNSt3__218uninitialized_copyIPNS_4pairIK10KeyWrapperIPK11Il2CppClassEPKcEESB_EET0_T_SD_SC_
Z8h:__ZN6il2cpp2vm14TypeNameParser5ParseEb
xwg:_ReflectionMethodsCache__ctor_m1835220
mLi:__ZL71SynchronizedArrayListWrapper_t3317806524_CustomAttributesCacheGeneratorP21CustomAttributesCache
uVc:__ZN23UnityPurchasingSettingsC2Ev
TRd:_Double_ToString_m1864290157
Grj:__ZNSt9bad_allocD0Ev
Abg:__Z50RuntimeInvoker_Int64_t909078037_Double_t4078015681PFvvEPK10MethodInfoPvPS4_
B5i:__ZL120NativeClassAttribute_t1576243993_CustomAttributesCacheGenerator_NativeClassAttribute_set_QualifiedNativeName_m4139686864P21CustomAttributesCache
NVb:__ZL10RenderFaceR9GfxDeviceR18MaterialStateCacheP13RenderTextureiif
_Ah:_SpriteAtlasManager__cctor_m453260161
yja:__ZL37stbir__resample_horizontal_downsampleP11stbir__infoiPf
$Ue:__ZN21InterfaceFuncInvoker1Ib18Color32_t874517518E6InvokeEjP11Il2CppClassP12Il2CppObjectS0_
Ebb:__ZNK5Unity9Component38MarkGameObjectAndComponentDependenciesER27GarbageCollectorThreadState
AX:__ZL16OutOfMemoryErrorjj18MemLabelIdentifieriPKc
xWc:__ZN20UnityWebRequestProtoI24UnityWebRequestTransport16AtomicRefCounter14RedirectHelper14ResponseHelper15DownloadHandler13UploadHandler12HeaderHelper14AsyncOperationED0Ev
odf:_RecordProtocol_SendRecord_m132002114
jN:__ZNK7Texture21GetShadowSamplingModeEv
Z0:__ZNK11TypeManager15ClassNameToRTTIEPKcb
p$a:__ZN13ScreenManager21OnWindowRegainedFocusEv
nAb:__Z18Transfer_BlittableI18StreamedBinaryReadILb0EELb1EdEvRK29SerializationCommandArgumentsR31RuntimeSerializationCommandInfo
Myj:_emscripten_glVertexAttrib2fv__wrapper
_le:_Guid__ctor_m2599802704
Lte:_FileStream_get_CanRead_m4148920720
oXc:__ZN13RuntimeStaticINSt3__26vectorIPN5physx15PxVehicleWheelsENS0_9allocatorIS4_EEEELb0EE13StaticDestroyEPv
Rrg:__Z31RuntimeInvoker_Link_t2723257478PFvvEPK10MethodInfoPvPS4_
Eia:__ZN4crnd12symbol_codec32decode_receive_static_data_modelERNS_25static_huffman_data_modelE
V_b:__ZN18ScriptingArguments8AddFloatEf
pke:_GregorianCalendar_set_CalendarType_m2438362222
nid:_FloatTween_get_targetValue_m2120061648_AdjustorThunk
m6f:__Z44RuntimeInvoker_RuntimeTypeHandle_t2330101084PFvvEPK10MethodInfoPvPS4_
HWd:_Array_InternalArray__ICollection_Contains_TisVector2_t2243707579_m3625698589_gshared
nRc:__ZN11UnityEngine15PlatformWrapper16GetVRRenderScaleEv
dqc:__Z18Transfer_BlittableI9JSONWriteLb0EaEvRK29SerializationCommandArgumentsR31RuntimeSerializationCommandInfo
G2f:__Z45RuntimeInvoker_SByte_t454417549_RuntimeObjectPFvvEPK10MethodInfoPvPS4_
eR:__ZN11UnityEngine15CloudWebService14DataDispatcher34OnSessionContainerArchivedAndReadyERNS0_16SessionContainerE
TVh:_RectTransformUtility_PixelAdjustPoint_m1375786599
ale:_NumberFormatInfo_GetFormat_m3247563525
nWi:__ZL77Convert_t2607082565_CustomAttributesCacheGenerator_Convert_ToByte_m2303223565P21CustomAttributesCache
QGh:_InvokableCall_3_Find_m1268604653_gshared
rub:__Z18Transfer_BlittableI19StreamedBinaryWriteILb0EELb0E8Vector3fEvRK29SerializationCommandArgumentsR31RuntimeSerializationCommandInfo
Hcb:__ZN14SafeBinaryRead19TransferSTLStyleMapINSt3__23mapIN4core12basic_stringIcNS3_20StringStorageDefaultIcEEEEiNS1_4lessIS7_EENS1_9allocatorINS1_4pairIKS7_iEEEEEEEEvRT_17TransferMetaFlags
tdi:__ZN15dense_hashtableINSt3__24pairIK10KeyWrapperINS1_IPK11Il2CppImageP11Il2CppClassEEEjEES9_17ReflectionMapHashIS8_EN14dense_hash_mapIS9_jSD_NS9_14EqualsComparerINS0_8equal_toIS8_EEEENS0_9allocatorISB_EEE9SelectKeyESI_SK_ED2Ev
TAc:_gray_move_to
kYc:_DSAParameters_t1872138834_marshal_pinvoke
Veg:__Z37RuntimeInvoker_ContentType_t859870085PFvvEPK10MethodInfoPvPS4_
ZZe:_Collection_1_System_Collections_IEnumerable_GetEnumerator_m4174600764_gshared
Fah:_ConstructionCall_InitDictionary_m4046452035
nei:__ZN6il2cpp2vm10Reflection14GetEventObjectEP11Il2CppClassPK9EventInfo
xdf:_TlsStream_Write_m2271546135
wcc:__Z30RegisterValidateMethodCallbackiPF18ScriptingMethodPtrS_17ScriptingClassPtrP6ObjectEPKc
ckb:__ZN20LocalFileSystemPosixD0Ev
NUd:_CultureInfo_ConstructInternalLocaleFromCurrentLocale_m1342751405
KGf:_Latin1Encoding_GetString_m3553289597
Jwg:_GetRayIntersectionAllNonAllocCallback_Invoke_m1247446986
qCc:_tt_cmap_init
vuc:__ZN8JSONRead8TransferI9BoundsIntEEvRT_PKc17TransferMetaFlagsb
Ia:invoke_viidi
AEg:_Enumerator_get_Current_m1020413567_AdjustorThunk
KHe:_List_1_System_Collections_IList_get_IsFixedSize_m1122077912_gshared
hqi:__ZN15dense_hashtableI10KeyWrapperIP18Il2CppGenericClassES3_N6il2cpp8metadata22Il2CppGenericClassHashEN14dense_hash_setIS3_S6_NS3_14EqualsComparerINS5_25Il2CppGenericClassCompareEEENSt3__29allocatorIS3_EEE8IdentityESA_SD_E12maybe_shrinkEv
Rxb:__Z29Transfer_Blittable_ArrayFieldI18StreamedBinaryReadILb1EEdEvRT_R9ArrayInfoRK23StaticTransferFieldInfo
oI:__ZN9AudioClip7CleanupEv
Xdi:__ZN15dense_hashtableINSt3__24pairIK10KeyWrapperINS1_IPK12PropertyInfoP11Il2CppClassEEEjEES9_17ReflectionMapHashIS8_EN14dense_hash_mapIS9_jSD_NS9_14EqualsComparerINS0_8equal_toIS8_EEEENS0_9allocatorISB_EEE9SelectKeyESI_SK_E8min_sizeEjj
QXi:__ZL79Convert_t2607082565_CustomAttributesCacheGenerator_Convert_ToUInt64_m2215781574P21CustomAttributesCache
sCh:_Vector4_set_Item_m1525226067_AdjustorThunk
QCj:_emscripten_glCheckFramebufferStatus__wrapper
Xii:__ZNK15dense_hashtableINSt3__24pairIK10KeyWrapperIP11Il2CppClassES4_EES5_N6il2cpp8metadata16SZArrayClassHashEN14dense_hash_mapIS5_S4_SA_NS5_14EqualsComparerINS9_19SZArrayClassCompareEEENS0_9allocatorIS7_EEE9SelectKeyESE_SG_E12test_deletedEj
Ysc:__Z18Transfer_BlittableI8JSONReadLb0EdEvRK29SerializationCommandArgumentsR31RuntimeSerializationCommandInfo
mng:__Z83RuntimeInvoker_Boolean_t3825574718_NavigationU26_t3929175072_Navigation_t1571958496PFvvEPK10MethodInfoPvPS4_
bMe:_List_1_TrimExcess_m2004514756_gshared
mKf:_Thread_ClrState_m822263449
gaj:__ZL81GUIStyle_t1799908754_CustomAttributesCacheGenerator_GUIStyle_get_name_m3609546529P21CustomAttributesCache
_ae:_SimpleCollator_LastIndexOfOrdinalIgnoreCase_m550798345
Hlh:_PersistentCall_get_mode_m4087575475
zaa:__ZNK9GfxDevice13GetViewMatrixEv
uih:_Bounds_Encapsulate_m17114941
Cab:__ZN17RemapPPtrTransferC2E24TransferInstructionFlagsb
$1:__ZN8TypeTree8BlobReadERPKhS1_ib
LKg:_Dictionary_2_System_Collections_Generic_ICollectionU3CSystem_Collections_Generic_KeyValuePairU3CTKeyU2CTValueU3EU3E_Remove_m3080541539_gshared
D$e:_ReadOnlyCollection_1_System_Collections_IList_get_IsFixedSize_m942145650_gshared
bIa:__ZN6CameraD0Ev
_Eh:_GUILayoutUtility_Begin_m659595645
zce:_ModulusRing_Multiply_m386339435
x7:__ZN31CanvasBatchIntermediateRenderer16StaticInitializeEPv
zmd:_GraphicRaycaster_U3CRaycastU3Em__0_m3971200721
i1e:_ReadOnlyCollection_1_System_Collections_IList_RemoveAt_m3004588099_gshared
Bw:__ZN7mecanim12AndValueMaskILb0EEEvPKNS_14ValueArrayMaskEPS1_
k8a:__ZN14SafeBinaryRead21TransferSTLStyleArrayINSt3__26vectorIi13stl_allocatorIiL18MemLabelIdentifier13ELi16EEEEEEvRT_17TransferMetaFlags
gJd:_Decimal_op_Implicit_m4246329390
cke:_ArgumentNullException__ctor_m2252076819
NWb:__ZN10GameObjectC2E18MemLabelIdentifier18ObjectCreationMode
BJc:_raccess_guess_apple_double
Apg:__Z70RuntimeInvoker_Void_t1841601450_CustomAttributeNamedArgument_t94157543PFvvEPK10MethodInfoPvPS4_
_ze:_MonoType_GetAttributeFlagsImpl_m250699879
NVf:_TypeBuilder_get_FullName_m1626507516
_Af:_SerializationInfo__ctor_m4016423422
Nma:__ZL18ProgramUniform1uivPK7ApiGLESjiihPKv
s3b:__ZN14Texture2DArray13RebuildMipMapEv
QZh:__ZN13Il2CppHashSetIPK17Il2CppGenericInstN6il2cpp8metadata21Il2CppGenericInstHashENS4_24Il2CppGenericInstCompareENSt3__29allocatorI10KeyWrapperIS2_EEEEC2EjRKS5_RKS6_
AUe:_Collection_1_Clear_m2734620236_gshared
Eui:__ZN6il2cpp2gc16GarbageCollector14RemoveWeakLinkEPPv
Ugb:__ZN9ShaderLab20SerializedSubProgram14AddVectorParamEPKcii15ShaderParamTypei
AOc:__ZN2UI14CanvasRenderer12CleanupClassEv
R3e:_ReadOnlyCollection_1_System_Collections_IEnumerable_GetEnumerator_m1734360860_gshared
WOg:_DefaultComparer__ctor_m1052417779_gshared
C4c:_SystemException__ctor_m2688248668
n5g:_ResourceSet_ReadResources_m1669023823
oie:_PKCS12_RemoveCertificate_m1590055870
Jji:__ZN6il2cpp2vm6Thread7SetNameEP12Il2CppThreadP12Il2CppString
$Ei:__ZNSt3__214__split_bufferINS_12basic_stringIDsNS_11char_traitsIDsEENS_9allocatorIDsEEEERNS4_IS6_EEEC2EjjS8_
dFb:__ZN13ScreenManager18SetAllowCursorLockEb
yS:__ZN11UnityEngine15CloudWebService10RestClientINS0_23WebRequestRestHeaderMapEE16SetRequestHeaderERKN4core12basic_stringIcNS4_20StringStorageDefaultIcEEEESA_
p8a:__ZN30RuntimeInitializeOnLoadManager15ClassMethodInfo8TransferI14SafeBinaryReadEEvRT_
$ij:__ZL73CanvasScaler_t2574720772_CustomAttributesCacheGenerator_m_ScreenMatchModeP21CustomAttributesCache
YO:__ZL22InitializeModule_Audiov
olb:__ZN16MemoryFileSystem8IsLockedERK13FileEntryData
rli:__ZN6il2cpp6icalls8mscorlib6System2IO6MonoIO5WriteEiP11Il2CppArrayiiPi
v$f:_MonoCMethod_Invoke_m931478014
o4f:__Z86RuntimeInvoker_Int32_t2071877448_Int16_t4041245914_Int32_t2071877448_Int32_t2071877448PFvvEPK10MethodInfoPvPS4_
u5g:_SatelliteContractVersionAttribute__ctor_m2605651717
Vk:_emscripten_glBindRenderbuffer
F5i:__ZL77RuntimePlatform_t1869584967_CustomAttributesCacheGenerator_OSXDashboardPlayerP21CustomAttributesCache
a9c:_DecoderExceptionFallbackBuffer_GetNextChar_m1727394816
_Ai:_GC_dirty_init
oud:_Array_Copy_m1969461849
sAf:_MessageFormatter_ReadMethodResponse_m4134629501
Gri:__ZN6il2cpp2vm5Field14GetValueObjectEP9FieldInfoP12Il2CppObject
XNc:__ZNK2UI6Canvas16GetTargetDisplayEv
$Sd:_Environment_get_OSVersion_m1247315981
o5:__ZN6Object17FindObjectsOfTypeEPKN5Unity4TypeER13dynamic_arrayIPS_Lj4EEb
F7b:__ZNSt3__26vectorINS_4pairIiiEE13stl_allocatorIS2_L18MemLabelIdentifier1ELi16EEE21__push_back_slow_pathIKS2_EEvRT_
vsf:_Capture_get_Length_m1952322390
Lqc:__ZN9JSONWrite8TransferI4PPtrI9Texture2DEEEvRT_PKc17TransferMetaFlags
oCb:__ZN13MonoBehaviour17RemoveFromManagerEv
NIa:__ZN12ImageFilters14AddImageFilterERK11ImageFilter
JOc:__ZL23RegisterModuleICalls_UIv
N_a:__ZL11DecodeValuePPKcS0_
eGg:_ShimEnumerator_MoveNext_m2013866013_gshared
FV:__ZN13MemoryManagerC2Ev
iqa:__ZN12SkinMeshInfo10DeallocateEPS_
D8i:__ZL66AnimationOffsetPlayable_t1019600543_CustomAttributesCacheGeneratorP21CustomAttributesCache
hCa:__ZN20ArchiveStorageReader28AcquireAndPrefillUnusedBlockEjPNS_11CacheResultE
m3b:__Z12NHxRoughnessIA4_tEvP9Texture2DPT_iiii
DPh:__ZL25UnresolvedVirtualCall_105P12Il2CppObjecthPK10MethodInfo
jwf:_MethodDictionary_get_SyncRoot_m673971424
K5:__ZN18AsyncUploadManagerD2Ev
Sib:__ZN9Transform5ResetEv
cub:__Z22TransferField_NonArrayI24GenerateTypeTreeTransfer16Converter_StringEvRK23StaticTransferFieldInfoR31RuntimeSerializationCommandInfoRT0_
x0i:__ZL90Camera_t189460977_CustomAttributesCacheGenerator_Camera_INTERNAL_get_pixelRect_m4124985255P21CustomAttributesCache
gCc:_UNITY_FT_CMap_New
YEb:__Z17MainLoopKeepalivePv
fbh:_MatchCollection__ctor_m1944681790
vZc:_HMACSHA512__ctor_m1667460019
B$h:__ZN15dense_hashtableI10KeyWrapperIPK17Il2CppGenericInstES4_N6il2cpp8metadata21Il2CppGenericInstHashEN14dense_hash_setIS4_S7_NS4_14EqualsComparerINS6_24Il2CppGenericInstCompareEEENSt3__29allocatorIS4_EEE8IdentityESB_SE_E12expand_arrayEjN21dense_hash_map_traits17integral_constantIbLb0EEE
Ynj:_printf_core
DGh:_InvokableCall_1_Find_m1347741199_gshared
R1c:_ToBase64Transform_get_OutputBlockSize_m949275583
NAe:_MonoType_ToString_m473949831
VTb:__Z14CalcHullBoundsPK8Vector3fPKhhRK5PlaneRK10Matrix4x4fR10MinMaxAABB
qyf:_RealProxy__ctor_m2147093603
bOe:_List_1__ctor_m3511181530_gshared
HMb:__Z19SetupLODFadeKeywordR17ShaderPassContexti
t1e:_ReadOnlyCollection_1_get_Count_m2180604490_gshared
Sub:__Z18Transfer_BlittableI19StreamedBinaryWriteILb0EELb0E5RectTIfEEvRK29SerializationCommandArgumentsR31RuntimeSerializationCommandInfo
Qij:__ZL75ToggleGroup_t1030026315_CustomAttributesCacheGenerator_U3CU3Ef__amU24cache1P21CustomAttributesCache
Npa:__ZL25CheckCopyTextureArgumentsRK7ApiGLESP11GLESTextureS3_
G9a:__ZN13dynamic_arrayI26EnlightenSystemInformationLj8EE6insertEPS0_PKS0_S4_
MBc:_tt_name_entry_ascii_from_utf16
ZAe:_MulticastNotSupportedException__ctor_m2164514827
bMd:_DateTime_System_IConvertible_ToChar_m2489529194_AdjustorThunk
Btb:__Z29Transfer_Blittable_ArrayFieldI24GenerateTypeTreeTransferyEvRT_R9ArrayInfoRK23StaticTransferFieldInfo
$I:__ZN4FMOD7SystemI9playSoundE17FMOD_CHANNELINDEXPNS_5SoundEbPPNS_7ChannelE
zIh:_UnityEvent_1_GetDelegate_m1805195420_gshared
XIi:__ZL74RuntimeArray_CustomAttributesCacheGenerator_Array_BinarySearch_m1368352453P21CustomAttributesCache
ydh:_Regex_GetGroupIndex_m1686599756
m6i:__ZL68PreferBinarySerialization_t2472773525_CustomAttributesCacheGeneratorP21CustomAttributesCache
YWi:__ZL78Convert_t2607082565_CustomAttributesCacheGenerator_Convert_ToSByte_m1183867428P21CustomAttributesCache
Aw:__ZN27AnimationLayerMixerPlayable17LayerMixerProcessEP35AnimationPlayableEvaluationConstantP32AnimationPlayableEvaluationInputP33AnimationPlayableEvaluationOutputM17AnimationPlayableFvS1_S3_S5_EMS_FvS1_S3_S5_ESA_MS_FvS5_S1_S3_S5_ifE
z8h:__ZN6il2cpp2os4File4ReadEPNS0_10FileHandleEPciPi
BH:__ZN12AudioManager23VirtualRedirectTransferER18StreamedBinaryReadILb0EE
nGe:_List_1_Remove_m2616693989_gshared
sqj:_realloc
njc:__Z57Register_UnityEngine_Transform_INTERNAL_get_localRotationv
Tzg:_ScrollRect_SetLayoutVertical_m1225848090
mqh:_Plane_ToString_m4267831659_AdjustorThunk
NMf:_Type_get_IsInterface_m3583817465
c8a:__ZN30RuntimeInitializeOnLoadManager23VirtualRedirectTransferER17RemapPPtrTransfer
kuj:dynCall_viif
d0f:_MonoField_get_DeclaringType_m1591666235
wTg:_InternalEnumerator_1__ctor_m2111763266_AdjustorThunk
Quf:_Enumerator_MoveNext_m4234629003
sGc:_cf2_hint_lock
hrb:__ZL26Transfer_SimpleNativeClassI17RemapPPtrTransfer8GradientLb0EEvRK29SerializationCommandArgumentsR31RuntimeSerializationCommandInfo
ky:__ZN17AnimationPlayable26DisconnectNoTopologyChangeEPS_i
LIi:__ZL69RuntimeArray_CustomAttributesCacheGenerator_Array_GetValue_m518505780P21CustomAttributesCache
Hcg:__Z52RuntimeInvoker_UInt64_t2909196914_Single_t2076509932PFvvEPK10MethodInfoPvPS4_
cog:__Z59RuntimeInvoker_Boolean_t3825574718_RaycastHit2D_t4063908774PFvvEPK10MethodInfoPvPS4_
cXi:__ZL78Convert_t2607082565_CustomAttributesCacheGenerator_Convert_ToSByte_m1880147062P21CustomAttributesCache
Yze:_MonoType_GetDefaultConstructor_m925465120
yNf:_Type_IsArrayImpl_m3073208555
Kuj:dynCall_viifffi
gT:__ZN13UploadHandlerD2Ev
Isj:dynCall_viiiiiffi
zc:_emscripten_glBlendFuncSeparate
nXf:_GenericTypeParameterBuilder_IsPrimitiveImpl_m1198748291
j_:__Z20scripting_string_newPKc
Ghc:__Z43Material_CUSTOM_Internal_CreateWithMaterialP12Il2CppObjectS0_
Ise:_Directory_GetCurrentDirectory_m44486537
Coi:__ZNK24NamespaceAndNamePairHashclERKNSt3__24pairIPKcS3_EE
v9i:__ZL105AudioSource_t1135106623_CustomAttributesCacheGenerator_AudioSource_ReadExtensionPropertyValue_m4251175592P21CustomAttributesCache
dSe:_Collection_1_System_Collections_ICollection_CopyTo_m1047946700_gshared
AIh:_UnityEvent_1_GetDelegate_m4072848279_gshared
Boc:__ZN9JSONWrite12AppendToNodeEPN5Unity9rapidjson12GenericValueINS1_4UTF8IcEE13JSONAllocatorEEPKcRS6_
pKd:_Convert_ToInt64_m4057339019
uii:__ZNSt3__218uninitialized_copyIPNS_4pairIK10KeyWrapperIP11Il2CppClassES4_EES8_EET0_T_SA_S9_
HB:__ZNSt3__26__sortIRPFbPKN8Animator11AnimatorJobES4_EPS4_EEvT0_S9_T_
IG:__ZN17AudioCustomFilterD2Ev
hmc:__ZN11IMGUIModule26SetDeveloperConsoleVisibleEb
Zib:__ZN9Transform16ResetReplacementEv
xoa:__ZN18GfxFramebufferGLES18ReleaseFramebufferEP17RenderSurfaceBaseP14GfxContextGLES
P8g:_Context_GetDynamicPropertyCollection_m1987747444
Epf:_X509Certificate2_get_Version_m1927399907
$5b:__ZN13ProduceHelperI6CameraLb0EE7ProduceE18MemLabelIdentifier18ObjectCreationMode
fod:_Image_RadialCut_m3229543088
EU:__ZN19CloudServiceHandler34HandleSaveFileWebRequestPlayerLoopEv
Xx:__ZN7mecanim21ValueArrayReverseCopyEPKNS_18ValueArrayConstantEPKNS_10ValueArrayES2_PS3_PKi
qG:__Z31GetParentSampleClipFromInstancePN11SoundHandle8InstanceE
w1b:__ZNK28RectTransformPropertyBinding13GetFloatValueERKN11UnityEngine9Animation10BoundCurveE
iWb:__ZN6Camera22StandaloneCustomRenderENS_10RenderFlagEP6ShaderRKN4core12basic_stringIcNS3_20StringStorageDefaultIcEEEEPNS_21PerformRenderFunctionE
H7a:__ZNSt3__26vectorI4PPtrI6ObjectE13stl_allocatorIS3_L18MemLabelIdentifier52ELi16EEE6assignINS_11__wrap_iterIPS3_EEEENS_9enable_ifIXaasr21__is_forward_iteratorIT_EE5valuesr16is_constructibleIS3_NS_15iterator_traitsISD_E9referenceEEE5valueEvE4typeESD_SD_
MFi:__ZN6il2cpp2os16ThreadLocalValue8GetValueEPPv
b2h:__ZN6il2cpp2vm13MetadataCache14GetGenericInstEPKPK10Il2CppTypej
S0c:_SHA384Managed_Initialize_m712692291
rUg:_InternalEnumerator_1__ctor_m2688327768_gshared
$O:__ZN13AudioListener17ReadExtensionNameEi
p7g:_ChannelInfo__ctor_m2502026239
Lb:invoke_iiidii
uPi:__ZL60CallingConvention_t3354538265_CustomAttributesCacheGeneratorP21CustomAttributesCache
EO:__ZN9AudioClip15InitializeClassEv
ap:setThrew
e3b:__ZL21BuildEmptyCubeTexturePKci11ColorRGBA3217TextureColorSpace
jDh:_Event_get_modifiers_m3267430607
Kcb:__ZN14SafeBinaryRead21TransferSTLStyleArrayINSt3__26vectorIN9ShaderLab20SerializedSubProgramENS1_9allocatorIS4_EEEEEEvRT_17TransferMetaFlags
Rng:__Z67RuntimeInvoker_Boolean_t3825574718_RefEmitPermissionSet_t2708608433PFvvEPK10MethodInfoPvPS4_
ied:_StandaloneInputModule_set_cancelButton_m2642677329
Xrc:__Z15Transfer_StringI8JSONReadLb1EEvRK29SerializationCommandArgumentsR31RuntimeSerializationCommandInfo
ekf:_BasicConstraintsExtension_Encode_m3738782306
ZNb:__Z25DoForwardShaderRenderLoopR17RenderLoopContextR13dynamic_arrayI16RenderObjectDataLj4EERK11CullResultsbbbN6Camera10RenderFlagE
V8d:_GameObject_GetComponent_TisRuntimeObject_m2812611596_gshared
kBc:_sfnt_load_face
xhe:_PKCS12_GetSymmetricAlgorithm_m1812022677
DIf:_UTF8Encoding_GetByteCount_m2372933408
M8g:_Context_get_NeedsContextSink_m1907794755
bBc:_UNITY_ft_service_list_lookup
AAh:_Transform_get_localScale_m46214814
T8e:_ARC4Managed_GenerateKey_m716135508
arb:__Z18Transfer_BlittableI17RemapPPtrTransferLb1E11ColorRGBA32EvRK29SerializationCommandArgumentsR31RuntimeSerializationCommandInfo
Glc:__ZN5IMGUI21SelectReceivingWindowER8GUIStateb
B_g:_InternalEnumerator_1_get_Current_m3179981210_gshared
eV:__ZN13BaseAllocator13TryDeallocateEPv
fwb:__Z29Transfer_Blittable_ArrayFieldI19StreamedBinaryWriteILb0EEfEvRT_R9ArrayInfoRK23StaticTransferFieldInfo
_td:_Array_CreateInstance_m1054139389
kJh:_U3CStartU3Ec__Iterator0_Reset_m2580847683_gshared
WUg:_InternalEnumerator_1__ctor_m967618647_AdjustorThunk
Ykb:__ZN16MemoryFileSystem5WriteER13FileEntryDatayPvPy
Pig:__Z74RuntimeInvoker_Vector4_t2243707581_Vector4_t2243707581_Vector4_t2243707581PFvvEPK10MethodInfoPvPS4_
FKg:_Dictionary_2_System_Collections_ICollection_get_IsSynchronized_m1738433079_gshared
VJa:__ZNSt3__26vectorIN12FlareManager10FlareEntryENS_9allocatorIS2_EEE21__push_back_slow_pathIKS2_EEvRT_
oTf:_Default_check_arguments_with_score_m1714931543
qYc:_SHA1_Create_m4086509717
N0f:_MonoMethodInfo_GetMethodInfo_m3298558752
iH:__ZN13AudioListener17RemoveFromManagerEv
td:_glAttachShader
lkd:_Dropdown_SetAlpha_m2769981009
sGa:__ZNK6Camera19GetProjectionMatrixEv
JSh:_Predicate_1_BeginInvoke_m1856151290_gshared
vmj:_CircleRotate_Update_m2785340121
VQd:_StackTrace__ctor_m2404985356
f0:__Z38PreallocateObjectFromPersistentManagerib
pMd:_DateTime_System_IConvertible_ToSingle_m3927769066
oWa:__ZNK9Texture2D20GetUnscaledTextureIDEv
Zui:__GLOBAL__sub_I_Thread_cpp_11756
AKd:_Convert_ToSByte_m883113940
RUh:_Canvas_get_renderOrder_m2592588836
_2i:__ZL77Mesh_t1356156583_CustomAttributesCacheGenerator_Mesh_GetIndicesImpl_m50468169P21CustomAttributesCache
PAe:_MonoType_get_ContainsGenericParameters_m3229732653
uRe:_Queue_1_Peek_m1463479953_gshared
lXh:_Animator_ResetTriggerString_m946167554
ygj:__ZL53InputField_t1631627530_CustomAttributesCacheGeneratorP21CustomAttributesCache
CDh:_GUI_set_skin_m929513544
Mfd:_ButtonClickedEvent__ctor_m938038541
gBb:__ZN18StreamedBinaryReadILb0EE21TransferSTLStyleArrayI13dynamic_arrayI4AABBLj4EEEEvRT_17TransferMetaFlags
hbg:__Z119RuntimeInvoker_Int32_t2071877448_RuntimeObject_Int32_t2071877448_Int32_t2071877448_CharU26_t1894467670_SByte_t454417549PFvvEPK10MethodInfoPvPS4_
lOf:_UInt16_System_IConvertible_ToDouble_m4100549304_AdjustorThunk
T9a:__Z29ClearRepeatingLogMessageStatev
s5c:_Single_System_IConvertible_ToInt16_m962677079
b5:__ZN21EnlightenSceneMappingaSERKS_
dZe:_Collection_1_SetItem_m546457615_gshared
cGi:__ZNK6il2cpp8metadata21Il2CppGenericInstHashclEPK17Il2CppGenericInst
G5c:_Single_System_IConvertible_ToUInt32_m2447833283
rua:__ZN7ApiGLESD2Ev
nEa:__ZN9Transform47ClearTransformHierarchyAndApplyToSerializedDataEv
YYg:_InternalEnumerator_1_get_Current_m4083613828_AdjustorThunk
ktc:__ZN8JSONRead21TransferSTLStyleArrayINSt3__26vectorI8MonoPPtr13stl_allocatorIS3_L18MemLabelIdentifier1ELi16EEEEEEvRT_17TransferMetaFlags
z_c:_RijndaelManaged_GenerateKey_m3366247933
ose:_BinaryReader_ReadUInt64_m1893783375
hIa:__ZN6Camera23VirtualRedirectTransferER19StreamedBinaryWriteILb0EE
Auj:dynCall_fidi
sbi:__ZN15dense_hashtableINSt3__24pairIK10KeyWrapperINS1_IPK9FieldInfoP11Il2CppClassEEEjEES9_17ReflectionMapHashIS8_EN14dense_hash_mapIS9_jSD_NS9_14EqualsComparerINS0_8equal_toIS8_EEEENS0_9allocatorISB_EEE9SelectKeyESI_SK_E12resize_deltaEjj
tyg:_ScrollRect_set_movementType_m3292965850
fWi:__ZL59AttributeTargets_t1984597432_CustomAttributesCacheGeneratorP21CustomAttributesCache
KT:__ZN11UnityEngine15CloudWebService14RestDownloaderD2Ev
aZb:__Z29StdTemplateConversionFunctionIjhEbPvR14SafeBinaryRead
tQh:__ZL25UnresolvedVirtualCall_149P12Il2CppObject23SpriteState_t1353336012S1_PK10MethodInfo
jHa:__ZN15dense_hashtableINSt3__24pairIKN9ShaderLab7Program23ShaderKeywordSetAndHashEPKNS2_10SubProgramEEES4_NS3_24ShaderKeywordHashFunctorEN14dense_hash_mapIS4_S8_SA_NS0_8equal_toIS4_EE13stl_allocatorIS9_L18MemLabelIdentifier67ELi16EEE9SelectKeyESD_SG_E15insert_noresizeERKS9_
XFe:_List_1_GrowIfNeeded_m2986672263_gshared
USg:_ArrayReadOnlyList_1_Remove_m2325516426_gshared
_Dd:_Hashtable_get_Count_m830088216
AQa:__ZN13RenderTexture12SetDimensionE16TextureDimension
je:_SDL_FreeRW
Ofe:_PKCS1_OS2IP_m1273945439
s0c:_SHA1Internal_FillBuff_m891541953
xZi:__ZL62ResolveEventHandler_t3842432458_CustomAttributesCacheGeneratorP21CustomAttributesCache
lPc:__Z34CanvasRenderer_Get_Custom_PropCullP12Il2CppObject
wSg:_ArrayReadOnlyList_1_get_IsReadOnly_m2717922212_gshared
KM:__ZN20SoundChannelInstance8getDelayE14FMOD_DELAYTYPEPjS1_
SDi:__ZNSt3__26__treeINS_12__value_typeIPvxEENS_19__map_value_compareIS2_S3_NS_4lessIS2_EELb1EEENS_9allocatorIS3_EEE12__find_equalIS2_EERPNS_16__tree_node_baseIS2_EESF_RKT_
kpd:_InputField_set_customCaretColor_m3534590098
Dyg:_ScrollRect_set_viewport_m323693490
wTi:__ZL66RijndaelManagedTransform_t135163252_CustomAttributesCacheGeneratorP21CustomAttributesCache
Moe:_NumberFormatter_FormatExponential_m3975285307
Ewc:__ZNSt3__26vectorIN20TextRenderingPrivate8FontImpl13CharacterInfoE13stl_allocatorIS3_L18MemLabelIdentifier1ELi16EEE8__appendEj
v:tempBigInt
re:_emscripten_glVertexAttrib1fv
Qoh:_Mesh_CheckCanAccessSubmesh_m764012688
pdb:__ZNSt3__26vectorIN9ShaderLab20SerializedSubProgram12UAVParameterENS_9allocatorIS3_EEE7reserveEj
Drj:__ZSt11__terminatePFvvE
Wpd:_InputField_get_selectionAnchorPosition_m466595604
GVi:__ZL99Thread_t241561612_CustomAttributesCacheGenerator_Thread_t241561612____ExecutionContext_PropertyInfoP21CustomAttributesCache
zJ:__ZN12AudioManager14systemCallbackEP11FMOD_SYSTEM24FMOD_SYSTEM_CALLBACKTYPEPvS3_
lkj:__ZL111LayoutUtility_t4076838048_CustomAttributesCacheGenerator_LayoutUtility_U3CGetPreferredHeightU3Em__5_m1524880643P21CustomAttributesCache
ULh:_EqualityComparer_1_System_Collections_IEqualityComparer_Equals_m1091252481_gshared
_ci:__ZN24dense_hashtable_iteratorINSt3__24pairIK10KeyWrapperINS1_IPK10MethodInfoP11Il2CppClassEEEjEES9_17ReflectionMapHashIS8_EN14dense_hash_mapIS9_jSD_NS9_14EqualsComparerINS0_8equal_toIS8_EEEENS0_9allocatorISB_EEE9SelectKeyESI_SK_E30advance_past_empty_and_deletedEv
lRh:__ZL25UnresolvedVirtualCall_195P12Il2CppObjectfPK10MethodInfo
QPa:__ZN16ReflectionProbes16UpdateSampleDataEv
c9i:__ZL107AudioClip_t1932558630_CustomAttributesCacheGenerator_AudioClip_InvokePCMReaderCallback_Internal_m4135619730P21CustomAttributesCache
d9i:__ZL112AudioClip_t1932558630_CustomAttributesCacheGenerator_AudioClip_InvokePCMSetPositionCallback_Internal_m1220105088P21CustomAttributesCache
bIh:_UnityEvent_1_AddListener_m4113183338_gshared
I6g:_SafeHandle_Finalize_m1839546519
X0a:__ZN14Texture2DArray5ResetEv
H0g:_InternalEnumerator_1_MoveNext_m252820768_AdjustorThunk
v9g:_Context_AllocateNamedDataSlot_m3200404053
GEa:__ZN14BatchAllocator6CommitE18MemLabelIdentifier
Cof:_X509EnhancedKeyUsageExtension_Decode_m3866320499
Ioe:_NumberFormatter_AppendIntegerStringWithGroupSeparator_m1401773574
NOe:_List_1_Remove_m1237648310_gshared
tbf:_CipherSuite_get_ServerHMAC_m3566778727
VLi:__ZL64DebuggerBrowsableState_t944457511_CustomAttributesCacheGeneratorP21CustomAttributesCache
Oe:_JS_Sound_Play
SQh:__ZL25UnresolvedVirtualCall_174P12Il2CppObject23RaycastResult_t21186376S1_PK10MethodInfo
uSc:__Z26GetUnityConnectSettingsPtrv
uod:_Image_IsRaycastLocationValid_m864962354
t7f:__Z181RuntimeInvoker_Void_t1841601450_RuntimeObject_Int32_t2071877448_Int32_t2071877448_RuntimeObject_Int32_t2071877448_Int32_t2071877448_RuntimeObject_Int32_t2071877448_Int32_t2071877448PFvvEPK10MethodInfoPvPS4_
lcb:__ZN9ShaderLab16SerializedShader8TransferI14SafeBinaryReadEEvRT_
kya:__ZN5Mutex7TryLockEv
fGh:_InvokableCall_1_remove_Delegate_m3013073467_gshared
w3i:__ZL99Sprite_t309593783_CustomAttributesCacheGenerator_Sprite_get_associatedAlphaSplitTexture_m1902878088P21CustomAttributesCache
$A:__ZN7mecanim8skeleton13SkeletonAlignEPKNS0_8SkeletonERKN4math7_float4ES7_i
Y3b:__ZN19ShaderPropertySheet16SetVectorIndexedEN9ShaderLab16FastPropertyNameEifRK8Vector4fNS_8SetFlagsE
gq:__ZN14SafeBinaryRead21TransferSTLStyleArrayIN4core12basic_stringIcNS1_20StringStorageDefaultIcEEEEEEvRT_17TransferMetaFlags
Myf:_RemotingConfiguration_RegisterWellKnownServiceType_m2491506630
wwg:_RectMask2D_OnCanvasHierarchyChanged_m2610677147
sQi:__ZL55_TypeBuilder_t2783404358_CustomAttributesCacheGeneratorP21CustomAttributesCache
uRh:__ZL25UnresolvedVirtualCall_204P12Il2CppObjectPK10MethodInfo
EZb:__Z29StdTemplateConversionFunctionIayEbPvR14SafeBinaryRead
Dsd:_LayoutRebuilder_Initialize_m2671585490
Dmj:_Cut_Update_m4276757078
vKe:_List_1_System_Collections_IList_IndexOf_m4061554721_gshared
lU:__ZN11UnityEngine15CloudWebService14DataDispatcher4StopEv
rdb:__ZNSt3__26vectorIN9ShaderLab20SerializedSubProgram12UAVParameterENS_9allocatorIS3_EEE8__appendEj
EUe:_Collection_1_GetEnumerator_m434271983_gshared
Tei:__ZNK15dense_hashtableINSt3__24pairIK10KeyWrapperINS1_IPK9EventInfoP11Il2CppClassEEEjEES9_17ReflectionMapHashIS8_EN14dense_hash_mapIS9_jSD_NS9_14EqualsComparerINS0_8equal_toIS8_EEEENS0_9allocatorISB_EEE9SelectKeyESI_SK_E12test_deletedERK24dense_hashtable_iteratorISB_S9_SD_SM_SI_SK_E
z2c:_X509Certificate_ToString_m1582581274
WHg:_Enumerator_get_Current_m2986380627_gshared
xza:__ZN17ScriptingGCHandle7AcquireE18ScriptingObjectPtr25ScriptingGCHandleWeakness
w8g:_LifetimeServices_set_LeaseTime_m1487876644
zUf:_ConstructorBuilder_not_supported_m3687319507
RJi:__ZL48IList_t3321498491_CustomAttributesCacheGeneratorP21CustomAttributesCache
hNc:__ZN2UI14CanvasRenderer14AttachToCanvasER8JobFencePNS_6CanvasENS0_15InstructionTypeE
x5c:_Single_System_IConvertible_ToInt64_m3555853323_AdjustorThunk
aXi:__ZL78Convert_t2607082565_CustomAttributesCacheGenerator_Convert_ToSByte_m1570938941P21CustomAttributesCache
xtj:dynCall_iifiii
gja:__Z21HasAlphaTextureFormat13TextureFormat
oO:__ZN12AudioManager6UpdateEv
$ia:__ZN14ImageReference9BlitImageERKS_NS_8BlitModeE
C0f:_MonoMethod_get_MethodHandle_m1882915015
ls:__ZN8Animator12AddToManagerEv
rOi:__ZL93ConstructorInfo_t2851816542_CustomAttributesCacheGenerator_ConstructorInfo_Invoke_m2144827141P21CustomAttributesCache
NFg:_ShimEnumerator_get_Key_m1171725158_gshared
hDb:__ZN23CachedSerializationDataD2Ev
iVb:__ZNK25CameraStackRenderingState31CalculateStereoCameraTargetTypeEv
rPa:__ZN14RenderSettings23VirtualRedirectTransferER14SafeBinaryRead
uti:__ZN6il2cpp2os10ThreadImpl15CurrentThreadIdEv
LYe:_Collection_1_System_Collections_IList_get_IsReadOnly_m4005091053_gshared
vWd:_Array_InternalArray__ICollection_Contains_TisColor32_t874517518_m2818328910_gshared
ALa:__ZN17GlobalGameManager8TransferI17RemapPPtrTransferEEvRT_
Nje:_AppDomainInitializer_EndInvoke_m4003801172
zJi:__ZL66RuntimeArray_CustomAttributesCacheGenerator_Array_Sort_m2544329074P21CustomAttributesCache
hlj:_AudioExtensionManager_WriteExtensionProperties_m4015275001
ZOa:__ZN16LevelGameManager8TransferI18StreamedBinaryReadILb0EEEEvRT_
cJc:_UNITY_tt_face_load_fpgm
cEa:__Z17IsObjectAvailablei
I4a:__ZN12InputManagerD0Ev
wai:_RaycastHit2D_get_point_m2962370910
aEi:__ZN6il2cpp6icalls8mscorlib6System11Diagnostics10StackTrace9get_traceEP15Il2CppExceptionib
Fid:_DefaultControls_CreateUIObject_m2810394112
YHa:__ZNK16LightmapSettings14GetLightProbesEv
Ayg:_ScrollRect_get_scrollSensitivity_m1160815603
yHf:_UnicodeEncoding_GetBytes_m1337660232
Jzb:__Z18Transfer_BlittableI18StreamedBinaryReadILb0EELb1EtEvRK29SerializationCommandArgumentsR31RuntimeSerializationCommandInfo
xqj:_posix_memalign
m4b:__ZN13ProduceHelperI12MeshRendererLb0EE7ProduceE18MemLabelIdentifier18ObjectCreationMode
V$i:__ZL85Application_t354826772_CustomAttributesCacheGenerator_Application_OpenURL_m2826628597P21CustomAttributesCache
RQe:_List_1_get_Count_m1249351212_gshared
O1g:_InternalEnumerator_1_get_Current_m747506907_AdjustorThunk
ohh:_LogCallback_Invoke_m115567905
Tag:__Z38RuntimeInvoker_PaddingMode_t3032142640PFvvEPK10MethodInfoPvPS4_
eif:_SslClientStream_get_ClientCertSelectionDelegate_m2316959461
KBd:_SynchronizedArrayListWrapper_get_SyncRoot_m1466044127
i0:__ZNK15MonoScriptCache7ReleaseEv
FYh:__ZN6il2cpp2vm5Class13HasReferencesEP11Il2CppClass
bg:_glBindTexture
BUe:_Collection_1_ClearItems_m3585785594_gshared
Moj:_snprintf
qjj:__ZL84HorizontalOrVerticalLayoutGroup_t1968298610_CustomAttributesCacheGenerator_m_SpacingP21CustomAttributesCache
WSf:_Binder__ctor_m1361613966
Tpd:_InputField_set_caretPosition_m888572237
QXf:_ILGenerator__cctor_m3943061018
$Ad:_ArrayListWrapper_Clone_m1506311066
KVh:_CanvasRenderer_CreateUIVertexStream_m2882962535
qbb:__Z36scripting_liveness_calculation_begin17ScriptingClassPtriPFvPP12Il2CppObjectiPvES3_PFvvES7_
NJh:_ListPool_1_Get_m4215629480_gshared
Zra:__ZN16UniformCacheGLES6CreateERK20GpuProgramParameters
MIf:_UTF8Encoding_Fallback_m811555654
tQf:_UInt64_CompareTo_m3513742483
A$d:_Array_InternalArray__IndexOf_TisPlayableBinding_t2498078091_m398853908_gshared
qyh:_ScriptableObject_t1975622470_marshal_pinvoke_cleanup
lbe:_SimpleCollator_MatchesForwardCore_m558011650
H1e:_ReadOnlyCollection_1_System_Collections_IList_Clear_m1918003010_gshared
B4f:__Z77RuntimeInvoker_Void_t1841601450_RuntimeObject_RuntimeObject_Int32_t2071877448PFvvEPK10MethodInfoPvPS4_
kxj:_emscripten_glGetProgramInfoLog__wrapper
CAh:_Transform_set_localScale_m1442831667
ID:__ZN25AnimatedPropertyEvaluator29BindCurveToScriptingObjectPtrERKN13AnimationClip10FloatCurveEj18ScriptingObjectPtrb
QIf:_UTF8Encoding_InternalGetChars_m373801468
s1:__ZN17PersistentManager23DestroyFromFileInternalEi
ePd:_Decimal_System_IConvertible_ToChar_m2425091200_AdjustorThunk
mOb:__Z19SetupMotionMatricesR6CameraR18RPDataMotionVector
TSd:_Enum_ToString_m2112979707
SRi:__ZL55SoapServices_t3397513225_CustomAttributesCacheGeneratorP21CustomAttributesCache
ywf:_MonoMethodMessage_get_MethodName_m3580519713
oC:__ZN26AnimatorControllerPlayable18PrepareForPlaybackERN7mecanim6memory9AllocatorE
aSd:_Enum_t2459695545_marshal_pinvoke_cleanup
Hyh:_HitInfo_t1761367055_marshal_pinvoke_cleanup
xZc:_HMACSHA512__cctor_m1167457383
HIf:_UTF8Encoding_GetBytes_m4170182058
XJe:_List_1_IndexOf_m2418862432_gshared
vHa:__ZN22CreateGpuProgramOutputC2Ev
mrf:_X509Chain__ctor_m2242540866
Xue:_MemoryStream_InternalConstructor_m2423667240
Ceh:_CapturingGroup_set_Index_m2175936006
txf:_SoapMethodAttribute_SetReflectionObject_m3431595769
dBg:_Slider_set_maxValue_m2951480075
B5b:__ZN8GUILayer12CleanupClassEv
frd:_InputField_OnSubmit_m2856515494
EYh:__ZN6il2cpp2vm5Class4InitEP11Il2CppClass
ga:invoke_vidi
Dhe:_DeriveBytes_Adjust_m105515328
yNc:__ZN2UI14CanvasRenderer17SyncDirtyElementsER8JobFence
Fzb:__Z18Transfer_BlittableI18StreamedBinaryReadILb0EELb0ExEvRK29SerializationCommandArgumentsR31RuntimeSerializationCommandInfo
whd:_ColorBlock_op_Inequality_m1517672458
Vwi:__ZN6il2cpp5utils11StringUtils15StringDuplicateEPKc
DWb:__Z15CanAddComponentR10GameObjectPKN5Unity4TypeE
MGa:__ZNK9ShaderLab21ShaderRasterStateDesc16ToGfxRasterStateEPK19ShaderPropertySheetS3_R14GfxRasterState
cW:_tlsf_memalign
fEf:_CspParameters__ctor_m2480441577
TFi:__ZN6il2cpp2os9EventImplC2Ebb
Y8g:_DynamicPropertyCollection_NotifyMessage_m840388347
Mfh:_Uri_ParseUri_m5711497
zD:__ZN4PPtrI13MonoBehaviourE8TransferI19StreamedBinaryWriteILb0EEEEvRT_
zgg:__Z98RuntimeInvoker_RuntimeObject_RuntimeObject_RayU26_t3651946800_Single_t2076509932_Int32_t2071877448PFvvEPK10MethodInfoPvPS4_
RY:__Z20IsMatrixBuiltinParamPKcPi
ohj:__ZL108MaskableGraphic_t540192618_CustomAttributesCacheGenerator_MaskableGraphic_ParentMaskStateChanged_m3643747340P21CustomAttributesCache
Pci:__ZN15dense_hashtableINSt3__24pairIK10KeyWrapperINS1_IPK10MethodInfoP11Il2CppClassEEEjEES9_17ReflectionMapHashIS8_EN14dense_hash_mapIS9_jSD_NS9_14EqualsComparerINS0_8equal_toIS8_EEEENS0_9allocatorISB_EEE9SelectKeyESI_SK_E16reset_thresholdsEv
F3b:__ZN8Renderer19PostInitializeClassEv
cAh:_TrackedReference_t1045890189_marshal_pinvoke_back
OTg:_InternalEnumerator_1_get_Current_m1943362081_AdjustorThunk
iCi:__ZN6il2cpp6icalls8mscorlib6System8Delegate23CreateDelegate_internalEP20Il2CppReflectionTypeP12Il2CppObjectP22Il2CppReflectionMethodb
TIi:__ZL82RuntimeArray_CustomAttributesCacheGenerator_Array_GetValue_m1507415734____indices0P21CustomAttributesCache
iTf:_Default_check_type_m2363631305
CCb:__ZN18DelayedCallManager18CancelCallDelayed2E4PPtrI6ObjectEPF15CallObjectStatePS1_PvES7_
pKe:_List_1__cctor_m911493842_gshared
qxa:__ZN25ThreadsafeLinearAllocator10ReallocateEPvji
Kmb:__Z18Transfer_BlittableI14SafeBinaryReadLb1E11QuaternionfEvRK29SerializationCommandArgumentsR31RuntimeSerializationCommandInfo
q9:__ZN18SpriteAtlasManagerD0Ev
C$d:_Array_InternalArray__IndexOf_TisRaycastHit2D_t4063908774_m3739817942_gshared
k1f:_MonoProperty_GetAccessors_m3704698731
LBi:_GC_disable
B2a:__ZN10Matrix4x4f8TransferI14SafeBinaryReadEEvRT_
mye:_UnmanagedMemoryStream_ReadByte_m2501145010
RMg:_Dictionary_2__ctor_m406310120_gshared
CAf:_ObjectRecord_UnchainFixup_m3025030310
lC:__ZN14AvatarPlayback8StopTimeEv
D3:__Z6AppendRKN4core12basic_stringIcNS_20StringStorageDefaultIcEEEEPKc
hIi:__ZL60MulticastDelegate_t3201952435_CustomAttributesCacheGeneratorP21CustomAttributesCache
pbb:__ZL14OnWorldStoppedv
twb:__Z18Transfer_BlittableI18StreamedBinaryReadILb1EELb0E8Vector3fEvRK29SerializationCommandArgumentsR31RuntimeSerializationCommandInfo
ygg:__Z81RuntimeInvoker_RuntimeObject_Ray_t2469606224_Single_t2076509932_Int32_t2071877448PFvvEPK10MethodInfoPvPS4_
rgj:__ZL61Image_t2042527209_CustomAttributesCacheGenerator_m_FillCenterP21CustomAttributesCache
fjh:_Color_ToString_m55788918_AdjustorThunk
yga:__ZN7ApiGLES18ClearBufferSubDataEjN2gl12BufferTargetEll
Gdc:__Z37Camera_Get_Custom_PropAllCamerasCountv
q1a:__ZN14Texture2DArray8TransferI18StreamedBinaryReadILb0EEEEvRT_
Wji:__ZN6il2cpp6icalls8mscorlib6System5Array9GetLengthEP11Il2CppArrayi
tSb:__Z18ApplyOcclusionMaskR19ProbeOcclusionCacheRK17LightProbeContextRK10RenderNodeb
que:_FileStreamAsyncResult__ctor_m1096228032
TDc:_Split_Cubic
cb:invoke_fiiii
HOd:_DBNull_System_IConvertible_ToSByte_m1228193074
iUe:_Collection_1__ctor_m2818834331_gshared
Efg:__Z68RuntimeInvoker_UInt16_t986882611_UInt16_t986882611_UInt16_t986882611PFvvEPK10MethodInfoPvPS4_
nHh:_UnityAction_1_Invoke_m3979091955_gshared
OWe:_Collection_1_Insert_m3041550124_gshared
Ste:_FileStream_FlushBuffer_m2594140542
i_e:_Collection_1_System_Collections_IList_get_Item_m1995028750_gshared
Ixi:__ZN6il2cpp2vm8Profiler12GCHeapResizeEx
Guj:dynCall_viiifi
$na:__ZN18GfxFramebufferGLES20ActiveContextChangedEPP17RenderSurfaceBaseS2_
Ona:__Z19PluginsRenderMarkeri
gE:__ZN10HumanTrait18InitializeBoneNameEv
X4i:__ZL130DrivenRectTransformTracker_t154385424_CustomAttributesCacheGenerator_DrivenRectTransformTracker_Clear_m4190599786____revertValues0P21CustomAttributesCache
HNg:_DefaultComparer__ctor_m899694595_gshared
wfh:__ZN23InterfaceActionInvoker1ItE6InvokeEjP11Il2CppClassP12Il2CppObjectt
W0a:__ZN14Texture2DArray21AwakeFromLoadThreadedEv
FAb:__Z29Transfer_Blittable_ArrayFieldI18StreamedBinaryReadILb0EEyEvRT_R9ArrayInfoRK23StaticTransferFieldInfo
trh:_X509CertificateEnumerator_get_Current_m3129374511
ZPg:_EqualityComparer_1_get_Default_m875724809_gshared
wpi:__ZNSt3__214__split_bufferIN6il2cpp2vm5Image20EmbeddedResourceDataERNS_9allocatorIS4_EEEC2EjjS7_
jnd:_HorizontalOrVerticalLayoutGroup_get_spacing_m2859152439
APi:__ZL57DispIdAttribute_t607560947_CustomAttributesCacheGeneratorP21CustomAttributesCache
imj:_Analyze__ctor_m2896035811
QG:__ZN12AudioManager17RemoveAudioSourceEP11AudioSource
EEh:_GUILayoutEntry_SetVertical_m861127195
IJi:__ZL83RuntimeArray_CustomAttributesCacheGenerator_RuntimeArray____LongLength_PropertyInfoP21CustomAttributesCache
Xag:__Z151RuntimeInvoker_Int32_t2071877448_RuntimeObject_Int32_t2071877448_Int32_t2071877448_RuntimeObject_Int32_t2071877448_DecoderFallbackBufferU26_t3597875002PFvvEPK10MethodInfoPvPS4_
$Kh:_AesManaged_get_KeySize_m2773901127
x8d:_Array_InternalArray__get_Item_TisUInt64_t2909196914_m2580870875_gshared
Ihi:__ZN15dense_hashtableINSt3__24pairIK10KeyWrapperINS1_IP11Il2CppClassjEEES4_EES6_N6il2cpp8metadata14ArrayClassHashEN14dense_hash_mapIS6_S4_SB_NS6_14EqualsComparerINSA_17ArrayClassCompareEEENS0_9allocatorIS8_EEE9SelectKeyESF_SH_E4swapERSK_
$If:_UTF8Decoder_GetChars_m3819660582
fQ:__ZN5physx14PxLightCpuTask12addReferenceEv
Trf:_X509ChainStatus_set_StatusInformation_m2903201015_AdjustorThunk
Xqi:__ZN6il2cpp2gc16GarbageCollector19InitializeFinalizerEv
Zx:__ZN7mecanim8skeleton18CreateSkeletonMaskEjPKNS0_19SkeletonMaskElementERNS_6memory9AllocatorE
pJi:__ZL66RuntimeArray_CustomAttributesCacheGenerator_Array_Sort_m4096942812P21CustomAttributesCache
clc:__ZN10GUIManager10DoGUIEventER10InputEventb
_bf:_Context_get_ClientWriteKey_m2235605337
Bsb:__Z35Transfer_Blittable_FixedBufferFieldI24GenerateTypeTreeTransferxEvRK29SerializationCommandArgumentsR31RuntimeSerializationCommandInfo
hJc:_UNITY_TT_Init_Glyph_Loading
mNb:__Z20CalculateSqrDistanceRK8Vector3fRK4AABB
bL:__Z32AudioMixerDuckingProcessCallbackP21UnityAudioEffectStatePfS1_jii
XTf:_CustomAttributeTypedArgument_GetHashCode_m999147081_AdjustorThunk
J2b:__ZN26CustomRenderTextureManagerD2Ev
$te:_FileStream_Read_m3880951166
Olj:_AudioExtensionManager_Update_m3727859914
GH:__ZN12AudioManager8TransferI24GenerateTypeTreeTransferEEvRT_
iia:__Z25GetBytesFromTextureFormat13TextureFormat
M1a:__ZN9Texture3D19UnloadFromGfxDeviceEb
Oki:__ZN6il2cpp6icalls8mscorlib6System9Threading6Thread20Thread_free_internalEP12Il2CppThreadi
Ksj:dynCall_iiffi
Kqb:__Z18Transfer_BlittableI17RemapPPtrTransferLb0EsEvRK29SerializationCommandArgumentsR31RuntimeSerializationCommandInfo
A6d:_Dictionary_2_Do_CopyTo_TisRuntimeObject_TisRuntimeObject_m2625001464_gshared
AYi:__ZL67Math_t2022911894_CustomAttributesCacheGenerator_Math_Min_m105057611P21CustomAttributesCache
BD:__ZN16MecanimAnimation25RegisterIAnimationBindingEPKN5Unity4TypeEiP17IAnimationBinding
h1:__Z32scripting_class_get_assemblyname17ScriptingClassPtr
pRc:__ZN11UnityEngine15PlatformWrapper15GetVRDeviceNameEv
jKg:_Dictionary_2_Resize_m2532139610_gshared
joh:_Mathf_RoundToInt_m1833913145
IOe:_List_1_IndexOf_m2019441835_gshared
TLf:_TimeSpan_Equals_m2029123271_AdjustorThunk
A2h:__ZN6il2cpp2vm13MetadataCache23GetInvokerMethodPointerEPK10MethodInfoPK20Il2CppGenericContext
sta:__ZN9GfxDevice21RegisterNativeTextureE9TextureIDi16TextureDimension
JUd:_CultureInfo__ctor_m456863818
qDi:__ZN6il2cpp6icalls8mscorlib6System10Reflection4Emit11TypeBuilder20create_generic_classEP27Il2CppReflectionTypeBuilder
n5h:__ZNSt3__26vectorIPK10MethodInfoNS_9allocatorIS3_EEE26__swap_out_circular_bufferERNS_14__split_bufferIS3_RS5_EE
LEe:_Enumerator_MoveNext_m2504790928_gshared
wij:__ZL61Slider_t297367283_CustomAttributesCacheGenerator_m_HandleRectP21CustomAttributesCache
KP:__Z60Register_UnityEngine_AudioListener_GetNumExtensionPropertiesv
Ui:_emscripten_glUniformMatrix4fv
Zhi:__ZN15dense_hashtableINSt3__24pairIK10KeyWrapperINS1_IP11Il2CppClassjEEES4_EES6_N6il2cpp8metadata14ArrayClassHashEN14dense_hash_mapIS6_S4_SB_NS6_14EqualsComparerINSA_17ArrayClassCompareEEENS0_9allocatorIS8_EEE9SelectKeyESF_SH_E13set_empty_keyERKS8_
Dhb:__ZN12ScriptMapperD2Ev
hdj:__ZL85AxisEventData_t1524870173_CustomAttributesCacheGenerator_U3CmoveDirU3Ek__BackingFieldP21CustomAttributesCache
aZc:_KeyedHashAlgorithm_Dispose_m1864300576
mrh:_X509Certificate_PEM_m49854707
cie:_PKCS12_get_RNG_m3620550062
Fof:_X509BasicConstraintsExtension__ctor_m3320418592
wqh:_ExtendedKeyUsageExtension_Decode_m901297139
oeb:__Z32TransferEnumWithNameForceIntSizeI14SafeBinaryRead7FogModeEvRT_RT0_PKc17TransferMetaFlags
Dic:__Z52Register_UnityEngine_RenderTexture_Internal_GetWidthv
OKi:__ZL89SafeWaitHandle_t481461830_CustomAttributesCacheGenerator_SafeWaitHandle__ctor_m1710231470P21CustomAttributesCache
vAi:_GC_check_leaked
Vfb:__ZN9ShaderLab20SerializedSubProgram16TextureParameter8TransferI19StreamedBinaryWriteILb0EEEEvRT_
h3d:_Array_InternalArray__Insert_TisVector4_t2243707581_m1643342708_gshared
zwa:__ZNK7Hash12812PackToUInt32Ev
Eug:_Mask_OnSiblingGraphicEnabledDisabled_m865494155
ulf:_KeysCollection_System_Collections_ICollection_get_SyncRoot_m2289369147
jei:__ZNSt3__218uninitialized_fillIPNS_4pairIK10KeyWrapperINS1_IPK12PropertyInfoP11Il2CppClassEEEjEESB_EEvT_SD_RKT0_
Y2:__ZNSt3__227__insertion_sort_incompleteIRNS_6__lessI14ObjectLoadDataS2_EEPS2_EEbT0_S6_T_
tU:__ZN11UnityEngine15CloudWebService16SessionContainer8AddEventEPNS0_14CloudEventInfoE
$ra:__Z4TrimRKN4core12basic_stringIcNS_20StringStorageDefaultIcEEEES5_
lCg:_Text_set_resizeTextMaxSize_m4034967714
tKi:__ZL55GuidAttribute_t222072359_CustomAttributesCacheGeneratorP21CustomAttributesCache
ITf:_CustomAttributeNamedArgument_Equals_m2691468532
vHi:__ZL74String_t_CustomAttributesCacheGenerator_String_Concat_m3881798623____args0P21CustomAttributesCache
JSi:__ZL103CryptoConfig_t896479599_CustomAttributesCacheGenerator_CryptoConfig_CreateFromName_m2169102076____args1P21CustomAttributesCache
P$a:__ZN10VertexData8TransferI14SafeBinaryReadEEvRT_
VI:__ZN4FMOD8ChannelI8setDelayE14FMOD_DELAYTYPEjj
aGd:_Stack__ctor_m2410583781
pBi:_GC_malloc_atomic
gTf:_Default_GetBetterMethod_m4255740863
KUf:_ConstructorBuilder_GetILGenerator_m1731893569
ypi:__ZNSt3__214__split_bufferIN6il2cpp2vm5Image20EmbeddedResourceDataERNS_9allocatorIS4_EEED2Ev
i$:__ZL20SortItemByInstanceIDRKN18AwakeFromLoadQueue4ItemES2_
OZf:_TypeBuilder_create_runtime_class_m2719530260
w$c:_RNGCryptoServiceProvider_RngClose_m2921734810
jy:__ZNK34AnimationStateMachineMixerPlayable26GetInterruptedPosePlayableEv
lUc:__ZN20UnityConnectSettings8TransferI24GenerateTypeTreeTransferEEvRT_
CA:__ZN34BlobWriteTransferSTLStyleArrayImplI22OffsetPtrArrayTransferIbEEclERS1_17TransferMetaFlagsR9BlobWrite
H$i:__ZL199U3CCreateWhereIteratorU3Ec__Iterator1D_1_t2523986802_CustomAttributesCacheGenerator_U3CCreateWhereIteratorU3Ec__Iterator1D_1_System_Collections_Generic_IEnumeratorU3CTSourceU3E_get_Current_m517722874P21CustomAttributesCache
mae:_SimpleCollator_IsHalfKana_m4255579023
kjf:_InternalAsyncResult_get_Count_m1291942796
gSe:_Collection_1_System_Collections_IList_Contains_m3365884450_gshared
Tvi:__ZNK15dense_hashtableINSt3__24pairIK10KeyWrapperIPK19Il2CppGenericMethodEP10MethodInfoEES6_N6il2cpp8metadata23Il2CppGenericMethodHashEN14dense_hash_mapIS6_S9_SD_NS6_14EqualsComparerINSC_26Il2CppGenericMethodCompareEEENS0_9allocatorISA_EEE9SelectKeyESH_SJ_E10test_emptyERK30dense_hashtable_const_iteratorISA_S6_SD_SL_SH_SJ_E
HAa:__Z16FlaggedAsSkippedIN4core12basic_stringIcNS0_20StringStorageDefaultIcEEEEEbRK13FileEntryInfoRKT_19FileEnumerationFlag
cZe:_Collection_1_set_Item_m3440986310_gshared
S4:__ZL31InitializeRendererUpdateManagerPv
Efd:_BaseMeshEffect__ctor_m2843647600
kdg:__Z106RuntimeInvoker_RuntimeObject_Int16_t4041245914_RuntimeObject_BooleanU26_t3168250738_BooleanU26_t3168250738PFvvEPK10MethodInfoPvPS4_
A2i:__ZL89Input_t1785128008_CustomAttributesCacheGenerator_Input_get_imeCompositionMode_m1132899721P21CustomAttributesCache
OO:__ZN13AudioListener12CleanupClassEv
Rdf:_ClientSessionInfo_Dispose_m2571428025
psd:_LayoutGroup_DelayedSetDirty_m4276695617
bhf:_RecordProtocol_decryptRecordFragment_m2510859489
qGh:_InvokableCall_1__ctor_m975753341_gshared
pad:_BaseRaycaster_get_sortOrderPriority_m3340181311
y5a:__ZN11TimeManager8TransferI19StreamedBinaryWriteILb0EEEEvRT_
Hue:_DelegatePInvokeWrapper_ReadDelegate_t3184826381
B$i:__ZL91HashSet_1_t2624254809_CustomAttributesCacheGenerator_HashSet_1_OnDeserialization_m627602129P21CustomAttributesCache
OEc:_compare_uni_maps
Srf:_X509ChainStatus_set_Status_m4288653744_AdjustorThunk
aSc:__ZN11UnityEngine15PlatformWrapper27GetGraphicsCapsSupportFlagsEv
zLc:__ZNSt3__218__insertion_sort_3IRPFbPN2UI6CanvasES3_EPS3_EEvT0_S8_T_
NHi:__ZL80Decimal_t724701077_CustomAttributesCacheGenerator_Decimal_op_Explicit_m714968249P21CustomAttributesCache
XPd:_Decimal_Equals_m1115043331
cwb:__ZN12NativeBufferI16Converter_StringE15SetupForWritingER9ArrayInfo
oed:_StandaloneInputModule_DeactivateModule_m2952848884
owj:___cxa_end_catch__wrapper
iJg:_ValueCollection_System_Collections_Generic_ICollectionU3CTValueU3E_Clear_m231380274_gshared
qbd:_Entry__ctor_m1176697586
nse:_BinaryReader_ReadUInt32_m1363572147
JXi:__ZL79Convert_t2607082565_CustomAttributesCacheGenerator_Convert_ToUInt32_m3391339025P21CustomAttributesCache
kDb:__ZN13MonoBehaviour22DoScriptRebuildWarningEv
Idc:__Z38Camera_CUSTOM_INTERNAL_CALL_RaycastTryP12Il2CppObjectRK3Rayfi
uCg:_Text_get_verticalOverflow_m3134063496
Qji:__ZN6il2cpp6icalls8mscorlib6System5Array13ClearInternalEP11Il2CppArrayii
k5b:__ZZL23RegisterLightPropertiesR22GenericPropertyBindingEN22Wrapper_LightSpotAngle13GetFloatValueEPv
b6g:_GCHandle_get_Target_m2327042781
Hoc:__ZN8JSONRead21TransferSTLStyleArrayI13dynamic_arrayI11KeyframeTplIfELj4EEEEvRT_17TransferMetaFlags
Lbg:__Z50RuntimeInvoker_Char_t3454481338_Single_t2076509932PFvvEPK10MethodInfoPvPS4_
MWe:_Collection_1_GetEnumerator_m1417525918_gshared
ksj:_llvm_cttz_i32
_of:_PublicKey_DecodeDSA_m1169363495
fmc:__ZN11IMGUIModule25GetGUIStyleScriptingClassEv
GHc:_tt_get_interface
s5d:_Array_Sort_TisRuntimeObject_m143182644_gshared
PDf:_AsymmetricKeyExchangeFormatter__ctor_m3362140205
zki:__ZN6il2cpp5utils9PathUtils7CombineIcEENSt3__212basic_stringIT_NS3_11char_traitsIS5_EENS3_9allocatorIS5_EEEERKSA_SC_
llf:_NameObjectCollectionBase_BaseGet_m667273025
eag:__Z104RuntimeInvoker_RuntimeObject_Byte_t3683104436_RuntimeObject_SByte_t454417549_RuntimeObject_RuntimeObjectPFvvEPK10MethodInfoPvPS4_
Mrc:__ZN9JSONWrite8TransferI13dynamic_arrayIiLj4EEEEvRT_PKc17TransferMetaFlags
l3i:__ZL82Material_t193706927_CustomAttributesCacheGenerator_Material_SetIntImpl_m1039479734P21CustomAttributesCache
d7b:__ZN13PlayableGraph21InvalidateMultithreadEv
MG:__ZL16FMOD_ErrorString11FMOD_RESULT_361
m_:__Z18ConvertUTF16toUTF8PPKtS0_PPhS2_15ConversionFlags
xFh:_GUIStyleState__ctor_m3673085649
hNf:_TypeLoadException__ctor_m1903359728
iWh:__ZL16my_g_bit_nth_msfj
gHg:_Transform_1_BeginInvoke_m3014766640_gshared
$Xc:_KeySizes__ctor_m3526899007
mii:__ZN15dense_hashtableINSt3__24pairIK10KeyWrapperIP11Il2CppClassES4_EES5_N6il2cpp8metadata16SZArrayClassHashEN14dense_hash_mapIS5_S4_SA_NS5_14EqualsComparerINS9_19SZArrayClassCompareEEENS0_9allocatorIS7_EEE9SelectKeyESE_SG_E12expand_arrayEjN21dense_hash_map_traits17integral_constantIbLb0EEE
dne:_Int16_System_IConvertible_ToInt32_m191782913_AdjustorThunk
A6i:__ZL69ArgumentCache_t4810721_CustomAttributesCacheGenerator_m_FloatArgumentP21CustomAttributesCache
fTe:_Collection_1_CopyTo_m1578267616_gshared
hFf:_EncoderReplacementFallback__ctor_m2208438262
xLb:__Z23SetupStereoFlareElementP11FlareVertexRK8Vector2fS3_S3_RK11ColorRGBA32RK10Matrix4x4fRK8Vector3fb
ifg:__Z91RuntimeInvoker_X509ChainStatusFlags_t480677120_RuntimeObject_RuntimeObject_SByte_t454417549PFvvEPK10MethodInfoPvPS4_
SYh:__ZN6il2cpp2vm5Class15GetInstanceSizeEPK11Il2CppClass
Emg:__Z37RuntimeInvoker_Enumerator_t3806193287PFvvEPK10MethodInfoPvPS4_
Xhh:_UnmarshalledAttribute__ctor_m2832569902
sa:invoke_iiiifiiii
exh:_RectTransform_set_anchoredPosition_m4223859262
pNg:_Dictionary_2_CopyTo_m1495142643_gshared
NIh:_EventFunction_1_BeginInvoke_m3064802067_gshared
Kwh:_RectOffset_get_right_m494096402
Vhi:__ZNK15dense_hashtableINSt3__24pairIK10KeyWrapperINS1_IP11Il2CppClassjEEES4_EES6_N6il2cpp8metadata14ArrayClassHashEN14dense_hash_mapIS6_S4_SB_NS6_14EqualsComparerINSA_17ArrayClassCompareEEENS0_9allocatorIS8_EEE9SelectKeyESF_SH_E12test_deletedERK30dense_hashtable_const_iteratorIS8_S6_SB_SJ_SF_SH_E
Tse:_Directory_GetFiles_m4036267478
pSd:_Enum_System_IConvertible_ToType_m2669300536
Dke:_NumberFormatInfo_get_CurrencyNegativePattern_m3972163809
Doa:__ZL19BlitFramebufferImplRN4gles23BlitFramebufferDrawQuadER9GfxDevice9TextureIDRK8Vector4f
mqb:__Z18Transfer_BlittableI17RemapPPtrTransferLb0EhEvRK29SerializationCommandArgumentsR31RuntimeSerializationCommandInfo
Ubi:__ZN15dense_hashtableINSt3__24pairIK10KeyWrapperIPK10Il2CppTypeEjEES6_N6il2cpp8metadata14Il2CppTypeHashEN14dense_hash_mapIS6_jSB_NS6_14EqualsComparerINSA_26Il2CppTypeEqualityComparerEEENS0_9allocatorIS8_EEE9SelectKeyESF_SH_E4findERS7_
ihg:__Z83RuntimeInvoker_Void_t1841601450_QuaternionU26_t4187826802_QuaternionU26_t4187826802PFvvEPK10MethodInfoPvPS4_
lzh:_StackTraceUtility_ExtractStringFromExceptionInternal_m234524721
Y$e:_ReadOnlyCollection_1_System_Collections_IList_Add_m2333231354_gshared
vyc:_UNITY_FT_List_Add
hZf:_OpCodes__cctor_m939885911
g3b:__ZN14Texture2DArray11InitTextureEiii13TextureFormatb
ikh:_CustomYieldInstruction__ctor_m1440815618
U9e:_PKCS1_RSASP1_m1748738009
Ghf:_RSASslSignatureDeformatter_SetHashAlgorithm_m4048969080
S2i:__ZL92AnimationCurve_t3306541151_CustomAttributesCacheGenerator_AnimationCurve_Cleanup_m3596170191P21CustomAttributesCache
Ugh:_UriParser_InitializeAndValidate_m251943319
J1c:_SymmetricAlgorithm_set_Padding_m3081984460
Ylj:_AudioSource_get_clip_m2622010175
h5a:__ZN9InputAxis8TransferI18StreamedBinaryReadILb0EEEEvRT_
CPb:__ZNK6Camera26GetStereoSingleCullEnabledEv
dCf:_StreamingContext_t1417235061_marshal_pinvoke_back
A8a:__Z14resize_trimmedINSt3__26vectorIN4core12basic_stringIcNS2_20StringStorageDefaultIcEEEE13stl_allocatorIS6_L18MemLabelIdentifier13ELi16EEEEEvRT_j
mAd:_ArrayList_RemoveAt_m2578928333
snb:__Z18Transfer_BlittableI14SafeBinaryReadLb0EaEvRK29SerializationCommandArgumentsR31RuntimeSerializationCommandInfo
OGh:_InvokableCall_3__ctor_m4270240248_gshared
c$e:_ReadOnlyCollection_1_System_Collections_IList_set_Item_m1233322304_gshared
Dqh:_GeneralNames_get_DNSNames_m2721668874
xbg:__Z76RuntimeInvoker_Boolean_t3825574718_TimeSpan_t3430258949_TimeSpan_t3430258949PFvvEPK10MethodInfoPvPS4_
fSd:_Enum_System_IConvertible_ToByte_m38374586
M_e:_ReadOnlyCollection_1_System_Collections_Generic_IListU3CTU3E_RemoveAt_m1592158292_gshared
SRf:_PlatformNotSupportedException__ctor_m3301654967
Avj:_emscripten_glFrustum__wrapper
thf:_ReceiveRecordAsyncResult_get_CompletedWithError_m2670396551
Usg:__Z37RuntimeInvoker_Enumerator_t2983962278PFvvEPK10MethodInfoPvPS4_
IPd:_Decimal_Equals_m1798565377
vLa:__ZN17GlobalGameManager8TransferI24GenerateTypeTreeTransferEEvRT_
Rkg:__Z38RuntimeInvoker_ContentType_t1028629049PFvvEPK10MethodInfoPvPS4_
T0i:__ZL95Component_t3819376471_CustomAttributesCacheGenerator_Component_GetComponentInParent_m1617315419P21CustomAttributesCache
Mgj:__ZL66InputField_t1631627530_CustomAttributesCacheGenerator_m_CaretColorP21CustomAttributesCache
bfb:__ZN15SerializeTraitsINSt3__26vectorIN9ShaderLab20SerializedSubProgram15MatrixParameterENS0_9allocatorIS4_EEEEE8TransferI24GenerateTypeTreeTransferEEvRS7_RT_
WVf:_TypeBuilder_check_created_m2929267877
wmj:_ClickCount__ctor_m2072851946
Xdg:__Z121RuntimeInvoker_Int64_t909078037_Int32_t2071877448_Int32_t2071877448_Int32_t2071877448_Int32_t2071877448_Int32_t2071877448PFvvEPK10MethodInfoPvPS4_
JJb:__Z20SyncFenceCullResultsR11CullResults
Pqa:__ZN15TextureTFMethod20IsBoneCountSupportedEi
qPa:__ZN14RenderSettings23VirtualRedirectTransferER24GenerateTypeTreeTransfer
oMd:_DateTime_System_IConvertible_ToSByte_m2575078084_AdjustorThunk
Mrb:__Z22TransferField_NonArrayI17RemapPPtrTransfer27Converter_SimpleNativeClassI8GUIStyleEEvRK23StaticTransferFieldInfoR31RuntimeSerializationCommandInfoRT0_
Q1b:__ZNK17AnimationCurveTplIfE20EvaluateWithoutCacheEfRf
mvi:__ZN6il2cpp2os6Thread12QueueUserAPCEPFvPvES2_
HPa:__ZN19ShaderPropertySheet10SetTextureERK23FastTexturePropertyNameP7Texture
AYd:_Array_InternalArray__IEnumerable_GetEnumerator_TisDictionaryEntry_t3048875398_m3498834924_gshared
QUe:_Collection_1_IsValidItem_m1304951912_gshared
V8b:__ZN4Mesh10SetNormalsEPK8Vector3fj
a1f:_PropertyInfo__ctor_m1808219471
CId:_Convert_ToDateTime_m4161927553
aWf:_TypeBuilder_GetConstructors_m774120094
rr:__ZN17AnimationCurveTplIfE8TransferI14SafeBinaryReadEEvRT_
$Ni:__ZL72AssemblyDefaultAliasAttribute_t1774139159_CustomAttributesCacheGeneratorP21CustomAttributesCache
D8f:__Z75RuntimeInvoker_Boolean_t3825574718_RuntimeObject_MonoIOErrorU26_t1029615899PFvvEPK10MethodInfoPvPS4_
nfh:_RegularExpression_set_GroupCount_m2991393456
DMd:_Calendar_get_EraNames_m452820602
o_a:__ZNSt3__26vectorIN15QualitySettings14QualitySettingENS_9allocatorIS2_EEE6assignIPS2_EENS_9enable_ifIXaasr21__is_forward_iteratorIT_EE5valuesr16is_constructibleIS2_NS_15iterator_traitsIS9_E9referenceEEE5valueEvE4typeES9_S9_
jwa:__ZNK5Unity9Component10GetEnabledEv
mKb:__ZNK19ShaderPropertySheet11HasPropertyERKN9ShaderLab16FastPropertyNameE
$Ld:_DateTime_System_IConvertible_ToByte_m2670443498_AdjustorThunk
JIg:_ValueCollection_System_Collections_Generic_ICollectionU3CTValueU3E_Contains_m3650367146_gshared
h7h:_il2cpp_class_get_image
C2:__Z16AsyncReadRequestP16AsyncReadCommand
BZi:__ZL81BigInteger_t925946153_CustomAttributesCacheGenerator_BigInteger__ctor_m4013661868P21CustomAttributesCache
fYh:__ZNK15dense_hashtableINSt3__24pairIK10KeyWrapperIPK22Il2CppGenericParameterEP11Il2CppClassEES6_N6il2cpp5utils11PointerHashIS4_EEN14dense_hash_mapIS6_S9_SE_NS6_14EqualsComparerINS0_8equal_toIS5_EEEENS0_9allocatorISA_EEE9SelectKeyESJ_SL_E12test_deletedEj
L7e:_BigInteger_op_Addition_m1734797151
D0a:__ZN15dense_hashtableINSt3__24pairIKN4core12basic_stringIcNS2_20StringStorageDefaultIcEEEE13dynamic_arrayI4PPtrI6SpriteELj4EEEES6_20StringHash32FunctionIS6_EN14dense_hash_mapIS6_SC_SF_NS0_8equal_toIS6_EE13stl_allocatorISD_L18MemLabelIdentifier81ELi16EEE9SelectKeyESI_SL_E4findERS7_
NTe:_Collection_1_System_Collections_IList_set_Item_m3488446830_gshared
vWf:_EnumBuilder_CreateNotSupportedException_m62763134
XVc:__ZNK12HeaderHelper3GetERKN4core12basic_stringIcNS0_20StringStorageDefaultIcEEEE
iqf:_X509Chain_CheckRevocation_m2480313486
Jye:_Math_Log_m3371716878
_4a:__ZN9InputAxis8TransferI14SafeBinaryReadEEvRT_
x$:__ZNK21ExecutionOrderManager30GetCustomAwakeFromLoadQueueForEPKN5Unity4TypeE
xVc:__Z27RegisterModule_UnityConnectv
SDd:_Hashtable__ctor_m4280223555
K1f:_ParameterInfo_get_IsRetval_m1881464570
lyf:_RealProxy__ctor_m3041043303
aoe:_NumberFormatter_Init_m2654758994
kZc:_HMACSHA1__ctor_m1168389339
nK:__ZN10ObjectPoolIN4FMOD12ChannelGroupENS0_13ChannelGroupIEE7SetSizeEi
fde:_PrimalityTest_BeginInvoke_m966469054
pih:_Bounds_get_max_m1939845278_AdjustorThunk
$1e:_ReadOnlyCollection_1_System_Collections_Generic_ICollectionU3CTU3E_Clear_m1785953911_gshared
dQf:_UInt64_System_IConvertible_ToInt16_m2797150165_AdjustorThunk
h8d:_Array_InternalArray__get_Item_TisLabelData_t3712112744_m863115768_gshared
Qpe:_Int32_Parse_m753946802
fbj:__ZL113GUITargetAttribute_t863467180_CustomAttributesCacheGenerator_GUITargetAttribute_GetGUITargetAttrValue_m3706077059P21CustomAttributesCache
XV:__Z22ValidateTlsfAllocationPvjiS_
Vlj:_AudioConfigurationChangeHandler_Invoke_m653824108
POe:_List_1_RemoveAt_m2331128844_gshared
Rgi:__ZN14dense_hash_mapI10KeyWrapperINSt3__24pairIPK9EventInfoP11Il2CppClassEEEj17ReflectionMapHashIS8_ENS9_14EqualsComparerINS1_8equal_toIS8_EEEENS1_9allocatorINS2_IKS9_jEEEEE15set_deleted_keyERSH_
k_f:_UnmanagedMarshal_ToMarshalAsAttribute_m3695569337
cpb:__Z14resize_trimmedINSt3__26vectorI17AnimationCurveTplIfE13stl_allocatorIS3_L18MemLabelIdentifier1ELi16EEEEEvRT_j
gVb:__ZN25CameraStackRenderingState19SetupLastEyeCamerasERK11CameraStack
ICa:__Z12GUIDToStringRK9UnityGUID
Ord:_LayoutElement_get_minHeight_m2070403283
nG:__ZN11SoundHandleC2ERKS_
$w:__ZN17AnimationPlayableC2E18DirectorPlayerType
N9e:_RSASslSignatureFormatter__ctor_m2530528184
K1h:__ZNK6il2cpp5utils11collections13ArrayValueMapIPK10Il2CppType17Il2CppInteropData26InteropDataToTypeConverterNS_8metadata14Il2CppTypeLessENS8_26Il2CppTypeEqualityComparerEE10find_firstERKS5_
ILa:__ZN15SerializeTraitsI12fixed_bitsetILi24EjEE8TransferI18StreamedBinaryReadILb0EEEEvRS1_RT_
Mce:_BigInteger_op_Addition_m1196561843
eZb:__Z29StdTemplateConversionFunctionItxEbPvR14SafeBinaryRead
sVh:_CanvasRenderer_INTERNAL_CALL_GetColor_m3192682614
C8g:_FormatterData__ctor_m3974986124
PMi:__ZL64FileNotFoundException_t4200667904_CustomAttributesCacheGeneratorP21CustomAttributesCache
I_c:_RijndaelManagedTransform_get_CanReuseTransform_m3735256596
r1i:__ZL97GameObject_t1756533147_CustomAttributesCacheGenerator_GameObject_GetComponentInParent_m1178052983P21CustomAttributesCache
oDd:_Comparer__cctor_m1327316974
Ose:_MonoIO_ExistsFile_m1421941572
NNd:_DateTime_op_GreaterThanOrEqual_m3818963848
av:__ZN17AnimationPlayable18DeallocateBindingsEv
PWb:__ZN6Camera25StandaloneRenderToCubemapEP7TextureiPFvPK9SceneNodePK4AABBR9IndexListPvESA_j
Iid:_DefaultControls_SetDefaultTextValues_m1707718380
Jed:_TouchInputModule_UseFakeInput_m2112019004
Iad:_EventSystem_get_baseEventDataCache_m4294741599
vPa:__ZN14RenderSettings18TransferDeprecatedI14SafeBinaryReadEEvRT_
zX:__ZN12TLSAllocatorI14StackAllocatorE8AllocateEji
x0:__ZN16ScriptingManager18GetMonoScriptCacheEi
T5f:__Z62RuntimeInvoker_Void_t1841601450_RuntimeObject_Int64_t909078037PFvvEPK10MethodInfoPvPS4_
b5i:__ZL104RectTransform_t3349966182_CustomAttributesCacheGenerator_RectTransform_INTERNAL_get_anchorMax_m190830848P21CustomAttributesCache
ZZh:__ZN15dense_hashtableINSt3__24pairIK10KeyWrapperIPK11Il2CppClassEPKcEES6_N6il2cpp5utils11PointerHashIS3_EEN14dense_hash_mapIS6_S9_SE_NS6_14EqualsComparerINS0_8equal_toIS5_EEEENS0_9allocatorISA_EEE9SelectKeyESJ_SL_E15set_deleted_keyERKSA_
Pmd:_GridLayoutGroup_CalculateLayoutInputHorizontal_m2355123124
z$i:__ZL84Locale_t4255929017_CustomAttributesCacheGenerator_Locale_GetText_m512920887____args1P21CustomAttributesCache
znb:__Z18Transfer_BlittableI14SafeBinaryReadLb1EyEvRK29SerializationCommandArgumentsR31RuntimeSerializationCommandInfo
L7i:__ZL89U3CInvokeMessageIdSubscribersU3Ec__AnonStorey0_t1899782350_CustomAttributesCacheGeneratorP21CustomAttributesCache
Ioc:__ZN8JSONRead8TransferIfEEvRT_PKc17TransferMetaFlagsb
eSg:_U3CGetEnumeratorU3Ec__Iterator0_Reset_m2980566576_gshared
T2e:_ReadOnlyCollection_1_System_Collections_ICollection_get_IsSynchronized_m4063596282_gshared
bwd:__ZN21InterfaceFuncInvoker2IP12Il2CppObjectP6Type_tS1_E6InvokeEjP11Il2CppClassS1_S3_S1_
Xqj:__ZNSt3__212basic_stringIcNS_11char_traitsIcEENS_9allocatorIcEEE6appendEPKcj
KNi:__ZL54TypeBuilder_t3308873219_CustomAttributesCacheGeneratorP21CustomAttributesCache
vla:__ZN6prcoreL17RemapGenericFloatI18TexFormatARGBFloat17TexFormatRGBAHalfEEvPKNS_9InnerInfoE
DVe:_Collection_1_CheckWritable_m691269733_gshared
LL:__ZN11AudioSource21ApplyCachedParametersE12SoundChannel
Qsg:__Z54RuntimeInvoker_Void_t1841601450_IntPtr_t_RuntimeObjectPFvvEPK10MethodInfoPvPS4_
ZWf:_GenericTypeParameterBuilder_GetAttributeFlagsImpl_m3338182267
DQ:__ZN13Simd4iFactoryIN6detail9FourTupleEEC2Eiiii
exe:_SynchronizedReader__ctor_m1408327515
Ith:_X509Store_LoadCrl_m1146720614
Iog:__Z59RuntimeInvoker_Int32_t2071877448_KeyValuePair_2_t3749587448PFvvEPK10MethodInfoPvPS4_
T3e:_ReadOnlyCollection_1_System_Collections_IList_Clear_m1858417639_gshared
VEd:_Slot_t2022531261_marshal_pinvoke_cleanup
HHh:_UnityAction_3_Invoke_m1025098032_gshared
bYa:__ZN15SerializeTraitsI33EnlightenTerrainChunksInformationE8TransferI14SafeBinaryReadEEvRS0_RT_
PSh:_Predicate_1__ctor_m1567825400_gshared
V3b:__ZNK32RendererMaterialAnimationBinding9BindValueER6ObjectRKN11UnityEngine9Animation14GenericBindingERNS3_10BoundCurveE
CUa:__Z13GetIAnimationv
Eja:__ZL18stbir__support_onef
DIe:_List_1_System_Collections_IList_Remove_m2040310137_gshared
tih:_Bounds_SetMinMax_m2094075031_AdjustorThunk
ebh:_Match_get_Regex_m3526002767
_Mi:__ZL49Stream_t3255436806_CustomAttributesCacheGeneratorP21CustomAttributesCache
tqc:__Z26Transfer_UnityEngineObjectI9JSONWriteLb0EEvRK29SerializationCommandArgumentsR31RuntimeSerializationCommandInfo
YSa:__ZNSt3__26vectorIN4core12basic_stringIcNS1_20StringStorageDefaultIcEEEE13stl_allocatorIS5_L18MemLabelIdentifier1ELi16EEE6assignINS_11__wrap_iterIPS5_EEEENS_9enable_ifIXaasr21__is_forward_iteratorIT_EE5valuesr16is_constructibleIS5_NS_15iterator_traitsISF_E9referenceEEE5valueEvE4typeESF_SF_
kPf:_UInt32_System_IConvertible_ToInt16_m2251335934_AdjustorThunk
HMc:__ZNSt3__27__sort5IRNS_6__lessIN2UI14DepthSortEntryES3_EEPS3_EEjT0_S7_S7_S7_S7_T_
Nvd:_Boolean_System_IConvertible_ToType_m3990189691
Ddi:__ZNSt3__218uninitialized_copyIPNS_4pairIK10KeyWrapperINS1_IPK11Il2CppImageP11Il2CppClassEEEjEESC_EET0_T_SE_SD_
Omj:_LetStart_SelectScene_m3484372922
Ba:invoke_vdd
y8:__ZN14dense_hash_mapIN4core12basic_stringIcNS0_20StringStorageDefaultIcEEEE13dynamic_arrayI4PPtrI6SpriteELj4EE20StringHash32FunctionIS4_ENSt3__28equal_toIS4_EE13stl_allocatorINSC_4pairIKS4_S9_EEL18MemLabelIdentifier81ELi16EEE15set_deleted_keyERSH_
t_g:_InternalEnumerator_1_Dispose_m3838127340_AdjustorThunk
FRd:_Double_System_IConvertible_ToUInt32_m624993430
Ddj:__ZL89PointerEventData_t1599784723_CustomAttributesCacheGenerator_U3CdraggingU3Ek__BackingFieldP21CustomAttributesCache
gKc:__ZZ29InitializeTextRenderingModulevEN27cleanupAfterLoadRegistrator7ForwardEv
PKf:_Scheduler_Add_m376749205
zw:__ZN27AnimationLayerMixerPlayable24ProcessAnimationLayerMixEP33AnimationPlayableEvaluationOutputP35AnimationPlayableEvaluationConstantP32AnimationPlayableEvaluationInputS1_if
TUb:__Z29PluginsIssueRenderingExtEvent26UnityRenderingExtEventTypePv
D3h:_WebRequestUtils_RedirectTo_m675215376
b0g:_InternalEnumerator_1_Dispose_m3464626239_AdjustorThunk
W2b:__Z14RandomRotationP9Texture2DPhiiii
gCe:_OutOfMemoryException__ctor_m1932883273
XYg:_InternalEnumerator_1_MoveNext_m1594563423_AdjustorThunk
vae:_SimpleCollator_IsIgnorable_m2485013022
qMe:_List_1_System_Collections_IList_Insert_m2036969360_gshared
pqd:_InputField_GetUnclampedCharacterLineFromPosition_m1912794077
gue:_ReadDelegate__ctor_m885671467
jOd:_DateTimeOffset_ToString_m2121173678_AdjustorThunk
YZi:__ZL50X509Crl_t1699034837_CustomAttributesCacheGeneratorP21CustomAttributesCache
Ldg:__Z74RuntimeInvoker_RuntimeObject_RuntimeObject_Int16_t4041245914_RuntimeObjectPFvvEPK10MethodInfoPvPS4_
gj:_JS_WebRequest_SetResponseHandler
BBj:_glDeleteProgram__wrapper
Pdc:__Z50Register_UnityEngine_Camera_INTERNAL_get_pixelRectv
Gmj:_GoLeft_Start_m4106831782
Nka:__ZN6prcoreL18BlitFloatToIntegerERK14ImageReferenceRS0_
Fie:_X509CertificateCollection_get_Item_m410866272
CLb:__Z13GetIPhysics2Dv
OT:__ZN11UnityEngine15CloudWebService14RestDownloader17OnCompleteContentEv
hnd:_LayoutGroup_SetChildAlongAxis_m1615929339
Pdg:__Z75RuntimeInvoker_RuntimeObject_RuntimeObject_Double_t4078015681_RuntimeObjectPFvvEPK10MethodInfoPvPS4_
bdg:__Z200RuntimeInvoker_Boolean_t3825574718_RuntimeObject_RuntimeObject_RuntimeObject_Int32_t2071877448_DateTimeU26_t3448131235_SByte_t454417549_BooleanU26_t3168250738_SByte_t454417549_ExceptionU26_t1467204777PFvvEPK10MethodInfoPvPS4_
Qa:invoke_viffi
vy:__ZN17AnimationPlayable28UpdateInternalStateRecursiveILi1ELb0EEEvPK35AnimationPlayableEvaluationConstant
iri:__ZN6il2cpp2gcL10CleanupCCWEPvS1_
Ta:invoke_vifff
vTg:_InternalEnumerator_1__ctor_m2111763266_gshared
egc:__Z53Register_UnityEngine_Input_INTERNAL_get_mousePositionv
nAj:_glGetVertexAttribiv__wrapper
Ne:_emscripten_request_fullscreen
CRh:__ZL25UnresolvedVirtualCall_212P12Il2CppObjecti40CustomAttributeTypedArgument_t1498197914PK10MethodInfo
gEb:__ZN20LocalFileSystemWebGL6DeleteER13FileEntryDatab
uPd:_Decimal_System_IConvertible_ToUInt16_m1621568250
Pe:_emscripten_glDisableVertexAttribArray
Sm:FUNCTION_TABLE_iiiifiiii
JLf:_TimeSpan_get_TotalMinutes_m1645177229_AdjustorThunk
ic:invoke_fifffi
YHg:_Enumerator__ctor_m3539306986_gshared
hha:__ZN4gles23ClearCurrentFramebufferEP7ApiGLESbbbRK10ColorRGBAffi
Vw:__ZN7mecanim12statemachine20CreateStateWorkspaceEjjjRNS_6memory9AllocatorE
Vde:__ZN21InterfaceFuncInvoker3IP22ByteU5BU5D_t3397334013S1_iiE6InvokeEjP11Il2CppClassP12Il2CppObjectS1_ii
uUg:_InternalEnumerator_1_System_Collections_IEnumerator_get_Current_m3680087284_gshared
_e:_emscripten_glDeleteObjectARB
Vf:_IMG_Load
Wxe:_UnexceptionalStreamReader_Read_m3839775235
inh:_Input_get_compositionCursorPos_m1028058884
bma:__ZN6prcoreL27StretchGenericFloatBilinearI18TexFormatARGBFloatEEvPKNS_9InnerInfoE
Eic:__Z53Register_UnityEngine_RenderTexture_Internal_GetHeightv
$8d:_Dropdown_GetOrAddComponent_TisRuntimeObject_m2875934266_gshared
zyf:_RealProxy_SetTargetDomain_m3940877656
Ola:__ZN6prcoreL17RemapGenericFloatI17TexFormatRGBAHalf18TexFormatARGBFloatEEvPKNS_9InnerInfoE
lSd:_Enum_System_IConvertible_ToInt32_m2459904362
Sdg:__Z61RuntimeInvoker_RuntimeObject_Double_t4078015681_RuntimeObjectPFvvEPK10MethodInfoPvPS4_
lbg:__Z211RuntimeInvoker_Int32_t2071877448_RuntimeObject_Int32_t2071877448_Int32_t2071877448_Int32_t2071877448_Int32_t2071877448_RuntimeObject_DecoderFallbackBufferU26_t3597875002_ByteU5BU5DU26_t790777611_SByte_t454417549PFvvEPK10MethodInfoPvPS4_
Xlc:__Z14GetBuiltinSkini
Kaf:_ContentInfo__ctor_m3871771681
E9c:_BaseInput_set_compositionCursorPos_m2632248731
ZMh:_Enumerator_System_Collections_IEnumerator_Reset_m2573763156_gshared
nqg:__Z74RuntimeInvoker_Void_t1841601450_Int32_t2071877448_MonoResource_t3127387157PFvvEPK10MethodInfoPvPS4_
Cse:_DirectoryInfo_Initialize_m2216118894
l4c:_WindowsIdentity_Dispose_m2649088337
oib:__ZN2UI13RectTransform23VirtualRedirectTransferER14SafeBinaryRead
G8a:__ZN24GenerateTypeTreeTransfer8TransferINSt3__26vectorIN4core12basic_stringIcNS3_20StringStorageDefaultIcEEEE13stl_allocatorIS7_L18MemLabelIdentifier13ELi16EEEEEEvRT_PKc17TransferMetaFlags
CTe:_Collection_1_System_Collections_IList_Contains_m323652826_gshared
RFe:_List_1_System_Collections_ICollection_get_SyncRoot_m3733894943_gshared
aLe:_List_1_Reverse_m302978607_gshared
Aeb:__ZNSt3__26vectorIN9ShaderLab20SerializedSubProgramENS_9allocatorIS2_EEE6assignIPS2_EENS_9enable_ifIXaasr21__is_forward_iteratorIT_EE5valuesr16is_constructibleIS2_NS_15iterator_traitsIS9_E9referenceEEE5valueEvE4typeES9_S9_
Fsc:__Z18Transfer_BlittableI8JSONReadLb0E8BitFieldEvRK29SerializationCommandArgumentsR31RuntimeSerializationCommandInfo
tzf:_SoapServices_RegisterInteropXmlType_m2949236705
uci:__ZNK15dense_hashtableINSt3__24pairIK10KeyWrapperIPK10Il2CppTypeEjEES6_N6il2cpp8metadata14Il2CppTypeHashEN14dense_hash_mapIS6_jSB_NS6_14EqualsComparerINSA_26Il2CppTypeEqualityComparerEEENS0_9allocatorIS8_EEE9SelectKeyESF_SH_E10test_emptyERK24dense_hashtable_iteratorIS8_S6_SB_SJ_SF_SH_E
Ruh:_Quaternion_op_Multiply_m261788240
wxb:__ZL17Transfer_GUIStyleI18StreamedBinaryReadILb1EELb0EEvRK29SerializationCommandArgumentsR31RuntimeSerializationCommandInfo
p8c:_String_CharCopy_m2550399897
Deg:__Z234RuntimeInvoker_RuntimeObject_Int16_t4041245914_RuntimeObject_Int32_t2071877448_Int32_t2071877448_Int32_t2071877448_SByte_t454417549_SByte_t454417549_SByte_t454417549_SByte_t454417549_Int16_t4041245914_SByte_t454417549_SByte_t454417549PFvvEPK10MethodInfoPvPS4_
Gcb:__ZN9ShaderLab14SerializedPass8TransferI14SafeBinaryReadEEvRT_
Pmc:__Z71Register_UnityEngine_GUILayoutUtility_INTERNAL_CALL_Internal_MoveWindowv
sO:__ZN12AudioManager16SetListenerPauseEb
x8a:__ZNSt3__26vectorIN30RuntimeInitializeOnLoadManager9ClassInfoE13stl_allocatorIS2_L18MemLabelIdentifier13ELi16EEE6assignINS_11__wrap_iterIPS2_EEEENS_9enable_ifIXaasr21__is_forward_iteratorIT_EE5valuesr16is_constructibleIS2_NS_15iterator_traitsISC_E9referenceEEE5valueEvE4typeESC_SC_
zli:__ZN6il2cpp2vm9Exception25RaiseOutOfMemoryExceptionERKNS_5utils10StringViewIDsEE
dUe:_Collection_1_IsValidItem_m2254106115_gshared
jWf:_TypeBuilder_GetEvent_m3876348075
BBg:_Slider_OnMove_m641164662
da:invoke_viiiiiiiiiii
xnj:___syscall_ret
SKf:_Scheduler__ctor_m3716265742
Kfe:_MACAlgorithm_Final_m4076939925
i9h:__ZNSt3__212basic_stringIcNS_11char_traitsIcEENS_9allocatorIcEEE6assignINS_11__wrap_iterIPKcEEEENS_9enable_ifIXaasr21__is_forward_iteratorIT_EE5valuesr38__libcpp_string_gets_noexcept_iteratorISC_EE5valueERS5_E4typeESC_SC_
vgf:_TlsServerKeyExchange_ProcessAsSsl3_m462106368
t0a:__ZN11ChannelInfo8TransferI19StreamedBinaryWriteILb0EEEEvRT_
aUg:_InternalEnumerator_1_System_Collections_IEnumerator_get_Current_m3583252352_gshared
dqh:_Object_op_Implicit_m1757773010
MVf:_EnumBuilder_get_FullName_m2818393911
R7e:_BigInteger_op_RightShift_m852685747
dwe:_StreamAsyncResult_get_Done_m2858832609
Yec:__Z34Register_UnityEngine_Gradient_Initv
dKh:_ObjectPool_1_set_countAll_m1742773675_gshared
RBf:_SerializationEntry_get_Value_m1628109884_AdjustorThunk
fad:_BaseInputModule_GetAxisEventData_m3903709281
y8d:_Array_InternalArray__get_Item_TisUriScheme_t1876590943_m1821482697_gshared
O6e:_BigInteger__ctor_m3239748086
o$a:__ZN13ScreenManager23SetIsOrientationEnabledE18EnabledOrientationb
JOh:__ZL24UnresolvedVirtualCall_57P12Il2CppObjectiPK10MethodInfo
Cyh:_HitInfo_SendMessage_m3395411273
jXi:__ZL79Convert_t2607082565_CustomAttributesCacheGenerator_Convert_ToUInt16_m1043031438P21CustomAttributesCache
Fw:__ZN7mecanim5human25HumanPoseAddOverrideLayerERNS0_9HumanPoseERKS1_fRKNS_6bitsetILj70EEE
K1b:__ZN13ProduceHelperI9TransformLb0EE7ProduceE18MemLabelIdentifier18ObjectCreationMode
URh:__ZL25UnresolvedVirtualCall_230P12Il2CppObject19Vector3_t2243707580PK10MethodInfo
seg:__Z42RuntimeInvoker_AlertDescription_t844791462PFvvEPK10MethodInfoPvPS4_
Jdh:_Alternation_get_Alternatives_m1445219249
Xdj:__ZL98PointerEventData_t1599784723_CustomAttributesCacheGenerator_PointerEventData_get_delta_m1072163964P21CustomAttributesCache
UNg:_DefaultComparer_GetHashCode_m2506382068_gshared
ARg:_EqualityComparer_1_System_Collections_IEqualityComparer_GetHashCode_m1012273405_gshared
T0d:_Array_InternalArray__ICollection_Add_TisHitInfo_t1761367055_m2956071622_gshared
P_g:_InternalEnumerator_1_MoveNext_m470170271_AdjustorThunk
LDa:__ZN10GameObject23VirtualRedirectTransferER18StreamedBinaryReadILb0EE
ADe:_Enumerator_get_Current_m2577424081_gshared
B1g:_InternalEnumerator_1_Dispose_m2270401482_AdjustorThunk
qg:_glFrontFace
qBf:_ObjectRecord_get_IsUnsolvedObjectReference_m2202692850
Lsf:_FactoryCache_Cleanup_m4130035987
g9g:__ZN23InterfaceActionInvoker1IP18Context_t502196753E6InvokeEjP11Il2CppClassP12Il2CppObjectS1_
Axh:_Vector2_op_Addition_m4229571528
w1h:__ZNK15dense_hashtableINSt3__24pairIK10KeyWrapperIPK19Il2CppGenericMethodEPK26Il2CppGenericMethodIndicesEES6_N6il2cpp8metadata23Il2CppGenericMethodHashEN14dense_hash_mapIS6_SA_SE_NS6_14EqualsComparerINSD_26Il2CppGenericMethodCompareEEENS0_9allocatorISB_EEE9SelectKeyESI_SK_E12test_deletedEj
J0b:__ZN13ProduceHelperI19LowerResBlitTextureLb0EE7ProduceE18MemLabelIdentifier18ObjectCreationMode
nRb:__ZNSt3__26vectorI16ShadowCasterData13stl_allocatorIS1_L18MemLabelIdentifier2ELi16EEE21__push_back_slow_pathIKS1_EEvRT_
OPf:_UInt32_ToString_m1783596809
OPe:_List_1_Sort_m269561757_gshared
kyj:_glUniform1i__wrapper
PKc:__Z51Register_UnityEngine_TextGenerator_GetLinesInternalv
sNh:_HashSet_1_Init_m1258286688_gshared
cth:_X509ExtensionCollection_get_Item_m4212651995
c0e:_ReadOnlyCollection_1_System_Collections_IList_RemoveAt_m525136953_gshared
l_d:__ZN21InterfaceFuncInvoker1Ii19Vector4_t2243707581E6InvokeEjP11Il2CppClassP12Il2CppObjectS0_
dla:__ZN6prcoreL17RemapGenericFloatI17TexFormatRGBFloat18TexFormatRGBAFloatEEvPKNS_9InnerInfoE
dRh:__ZL25UnresolvedVirtualCall_187P12Il2CppObject20TimeSpan_t3430258949S1_PK10MethodInfo
TPf:_UInt64_System_IConvertible_ToBoolean_m3012279573_AdjustorThunk
INf:_Type_get_IsGenericTypeDefinition_m2147901038
pVc:__ZN20UnityConnectSettings10InitializeEv
D9g:_ContextAttribute_Freeze_m4133346275
mke:_GregorianCalendar__ctor_m3794576475
JPf:_UInt32_TryParse_m4283512434
gAh:_TrackedReference_GetHashCode_m1278837032
Npi:__ZN15dense_hashtableI10KeyWrapperIP18Il2CppGenericClassES3_N6il2cpp8metadata22Il2CppGenericClassHashEN14dense_hash_setIS3_S6_NS3_14EqualsComparerINS5_25Il2CppGenericClassCompareEEENSt3__29allocatorIS3_EEE8IdentityESA_SD_E8min_sizeEjj
eG:__ZN9AudioClip11CreateSoundEv
EFg:_ShimEnumerator_MoveNext_m3313047792_gshared
Tfb:__ZN9ShaderLab20SerializedSubProgram15VectorParameter8TransferI19StreamedBinaryWriteILb0EEEEvRT_
oMf:_TimeSpan_op_Inequality_m257547441
dhi:__ZN14dense_hash_mapI10KeyWrapperINSt3__24pairIPK9FieldInfoP11Il2CppClassEEEj17ReflectionMapHashIS8_ENS9_14EqualsComparerINS1_8equal_toIS8_EEEENS1_9allocatorINS2_IKS9_jEEEEEC2EjRKSB_RKSF_
Fci:__ZNK15dense_hashtableINSt3__24pairIK10KeyWrapperINS1_IPK10MethodInfoP11Il2CppClassEEEjEES9_17ReflectionMapHashIS8_EN14dense_hash_mapIS9_jSD_NS9_14EqualsComparerINS0_8equal_toIS8_EEEENS0_9allocatorISB_EEE9SelectKeyESI_SK_E13find_positionERSA_
EVf:_EnumBuilder_get_Assembly_m4285228003
Fda:__ZN13GfxDeviceGLES20CreateComputeProgramEPKhj
uId:_DateTimeFormatInfo_get_RoundtripPattern_m562440017
KUc:__ZN11UnityEngine7Connect16PersistentValues13RestoreValuesER8JSONRead
hJh:_U3CStartU3Ec__Iterator0_System_Collections_Generic_IEnumeratorU3CobjectU3E_get_Current_m1702093362_gshared
bBa:__ZN20ArchiveStorageReader31TryToReadDirectoryFromBlockDataEyPKvj
TOg:_DefaultComparer__ctor_m3947565964_gshared
kRd:_Double_System_IConvertible_ToByte_m3004284950_AdjustorThunk
xzf:_TypeEntry_get_AssemblyName_m1762285107
Pni:__ZN6il2cpp2vmL11GetIdentityEP14Il2CppIUnknown
jfe:_SmallXmlParser_ReadCDATASection_m2558307107
eAi:_GC_push_gc_structures
Wkj:_PCMReaderCallback_BeginInvoke_m2451387560
qfd:_AspectRatioFitter_get_aspectRatio_m3023618874
Ulf:_ServicePointManager_get_ServerCertificateValidationCallback_m1409951209
K5h:__ZN6il2cpp6icalls8mscorlib6SystemL8IsPublicEPK9EventInfo
Juf:_Enumerator__ctor_m3782962052
Dfi:__ZN15dense_hashtableINSt3__24pairIK10KeyWrapperIPK14Il2CppAssemblyEPK22Il2CppMonoAssemblyNameEES6_N6il2cpp5utils11PointerHashIS4_EEN14dense_hash_mapIS6_SA_SF_NS6_14EqualsComparerINS0_8equal_toIS5_EEEENS0_9allocatorISB_EEE9SelectKeyESK_SM_E4swapERSP_
WFd:_Enumerator_get_Current_m1271212567
qxi:__ZThn4_N6il2cpp2vm13ComObjectBase18ReleaseMarshalDataEP13Il2CppIStream
csa:__Z22GetShaderCachePathGLESv
vcg:__Z51RuntimeInvoker_UInt16_t986882611_Double_t4078015681PFvvEPK10MethodInfoPvPS4_
Emf:_IPAddress_ParseIPV6_m2209709575
fyg:_U3CClickRepeatU3Ec__Iterator0_MoveNext_m1747924386
O5e:_Comparison_1_Invoke_m1670081898_gshared
WCg:_Toggle_set_group_m3833595685
Jsd:_LayoutRebuilder_ForceRebuildLayoutImmediate_m566681977
M0a:__ZNSt3__213__stable_sortIRNS_4lessI4PPtrI11SpriteAtlasEEENS_11__wrap_iterIPS4_EEEEvT0_SA_T_NS_15iterator_traitsISA_E15difference_typeEPNSD_10value_typeEi
Qra:__ZNSt3__26vectorIPN19ConstantBuffersGLES11ConstBufferENS_9allocatorIS3_EEE21__push_back_slow_pathIKS3_EEvRT_
$0d:_Array_InternalArray__ICollection_Add_TisVector4_t2243707581_m698578249_gshared
Iuh:_PropertyName_ToString_m1129982609_AdjustorThunk
pY:__ZN8keywords6CreateEPKc
S:Math_imul
C_a:__ZN11PlayerPrefs6GetIntERKN4core12basic_stringIcNS0_20StringStorageDefaultIcEEEEi
v0h:__ZN6il2cpp5utils13dynamic_arrayIPK10Il2CppTypeLj4EEC2ERKS5_
O4c:_SecurityFrame_t1002202659_marshal_pinvoke_back
xKc:__Z45TextGenerator_CUSTOM_INTERNAL_get_rectExtentsP12Il2CppObjectP5RectTIfE
Ppe:_Int32_Equals_m321398519_AdjustorThunk
bYd:_SetPropertyUtility_SetStruct_TisChar_t3454481338_m2333420724_gshared
gUe:_Collection_1_IsSynchronized_m2601980439_gshared
rEd:_Hashtable_ContainsKey_m2716576664
Hbh:_PatternCompiler_EmitCategory_m1696942454
FPd:_Decimal_decimalFloorAndTrunc_m3655683429
t1d:_Array_InternalArray__ICollection_CopyTo_TisInt32_t2071877448_m984622488_gshared
b_:__ZN18ScriptingArguments9AddObjectE18ScriptingObjectPtr
OOc:__Z39CanvasGroup_Get_Custom_PropInteractableP12Il2CppObject
_Q:__ZN11UnityEngine15CloudWebService16SessionContainerD2Ev
VUc:__ZL38InitializeUnityConnectScriptingClassesv
CVb:__ZN13ProbeRenderer8ConvolveEbijjb
xha:__ZN17GenericDynamicVBOC2ER9GfxDevice13GfxBufferModejj
a9g:_Context_get_HasDynamicSinks_m1998518649
Ykc:__ZZN10GUIManager14InitGUIManagerEvEN41PreUpdateIMGUISendQueuedEventsRegistrator7ForwardEv
jHh:_UnityAction_1_Invoke_m2903588655_gshared
rS:__ZN11UnityEngine15CloudWebService17SessionEventQueue10PurgeItemsEj
j9c:_AbstractEventData_get_used_m4208553917
hWb:__ZN6Camera16StandaloneRenderENS_10RenderFlagEP6ShaderRKN4core12basic_stringIcNS3_20StringStorageDefaultIcEEEE
btd:_Array_System_Collections_IList_get_Item_m2088124007
vtd:_Array_GetLength_m2083296647
kHh:_UnityAction_1_BeginInvoke_m53286204_gshared
pVa:__ZNK12CubemapArray13GetIsReadableEv
bCd:_SynchronizedArrayListWrapper_ToArray_m1522185111
Qwb:__Z18Transfer_BlittableI18StreamedBinaryReadILb1EELb1EtEvRK29SerializationCommandArgumentsR31RuntimeSerializationCommandInfo
q4c:_SecurityContext_get_FlowSuppressed_m420202521
a8f:__Z55RuntimeInvoker_DayOfWeek_t721777893_DateTime_t693205669PFvvEPK10MethodInfoPvPS4_
Oba:__ZN9GfxDevice20DeallocRenderSurfaceEP17RenderSurfaceBase
kRf:_ValueType_ToString_m3796301715
wna:__ZN20GpuProgramParameters36UpdatePrepareValuesMaximumBufferSizeEv
wgc:__Z53Register_UnityEngine_Quaternion_INTERNAL_CALL_Inversev
A4d:_Array_qsort_TisUICharInfo_t3056636800_m2607408901_gshared
myh:_Screen_get_height_m3831644396
zFa:__ZN12BaseRenderer23RendererBecameInvisibleEv
Mwc:__ZN20TextRenderingPrivate8FontImpl13CharacterInfo8TransferI18StreamedBinaryReadILb0EEEEvRT_
dub:__Z29Transfer_Blittable_ArrayFieldI24GenerateTypeTreeTransferfEvRT_R9ArrayInfoRK23StaticTransferFieldInfo
qRi:__ZL56SoapAttribute_t1982224933_CustomAttributesCacheGeneratorP21CustomAttributesCache
Y3:__ZNSt3__26__treeINS_12__value_typeIN4core12basic_stringIcNS2_20StringStorageDefaultIcEEEES6_EENS_19__map_value_compareIS6_S7_NS_4lessIS6_EELb1EEE13stl_allocatorIS7_L18MemLabelIdentifier13ELi16EEE7destroyEPNS_11__tree_nodeIS7_PvEE
n6f:__Z76RuntimeInvoker_RuntimeObject_RuntimeObject_SByte_t454417549_SByte_t454417549PFvvEPK10MethodInfoPvPS4_
wXb:__ZN19CustomRenderTexture9AddParentE4PPtrIS_E
TUg:_InternalEnumerator_1_MoveNext_m930150026_AdjustorThunk
qZa:__ZN8Gradient8TransferI14SafeBinaryReadEEvRT_
BIh:_UnityEvent_1_Invoke_m1533100983_gshared
XSa:__ZNSt3__26vectorIN4core12basic_stringIcNS1_20StringStorageDefaultIcEEEE13stl_allocatorIS5_L18MemLabelIdentifier1ELi16EEE7reserveEj
Ylf:_FileWebRequest__ctor_m4003648606
Fij:__ZL71SpriteState_t1353336012_CustomAttributesCacheGenerator_m_DisabledSpriteP21CustomAttributesCache
nSd:_Enum_System_IConvertible_ToSByte_m3488526280
a_f:_TypeBuilder_ToString_m1952363535
Eab:__ZN18IDCollectorFunctorD0Ev
A1h:__ZNK15dense_hashtableI10KeyWrapperIPK19Il2CppGenericMethodES4_N6il2cpp8metadata23Il2CppGenericMethodHashEN14dense_hash_setIS4_S7_NS4_14EqualsComparerINS6_26Il2CppGenericMethodCompareEEENSt3__29allocatorIS4_EEE8IdentityESB_SE_E4findERKS4_
skb:__ZNK20LocalFileSystemPosix9IsSymLinkERK13FileEntryData
_yi:_GC_new_free_list_inner
GNg:_DefaultComparer_Equals_m85211180_gshared
iXe:_Collection_1_System_Collections_IList_IndexOf_m1950953062_gshared
dAe:_MonoType_InternalGetEvent_m532443236
bWe:_Collection_1_IndexOf_m2700825189_gshared
c3g:_Comparer_1_get_Default_m2605397692_gshared
UCh:_MathfInternal__cctor_m2774058555
lqb:__Z35Transfer_Blittable_FixedBufferFieldI17RemapPPtrTransferiEvRK29SerializationCommandArgumentsR31RuntimeSerializationCommandInfo
ttc:__ZN8JSONRead8TransferI10RectOffsetEEvRT_PKc17TransferMetaFlagsb
yoi:__ZNK15dense_hashtableINSt3__24pairIK10KeyWrapperINS1_IPKcS4_EEEiEES6_24NamespaceAndNamePairHashN14dense_hash_mapIS6_iS9_NS6_14EqualsComparerI26NamespaceAndNamePairEqualsEENS0_9allocatorIS8_EEE9SelectKeyESD_SF_E12test_deletedERK24dense_hashtable_iteratorIS8_S6_S9_SH_SD_SF_E
$R:__ZN9JSONWrite8TransferIN11UnityEngine15CloudWebService14DataErrorEvent15FileErrorDetailEEEvRT_PKc17TransferMetaFlags
Q8c:_Decoder__ctor_m2623573910
RKa:__Z21ClearFenceWithoutSyncR8JobFence
hJ:__ZN12SoundManager20RegisterModifiedClipEP10SampleClip
EL:__ZN11AudioSource4PlayEd
r$h:__ZN15dense_hashtableI10KeyWrapperIPK17Il2CppGenericInstES4_N6il2cpp8metadata21Il2CppGenericInstHashEN14dense_hash_setIS4_S7_NS4_14EqualsComparerINS6_24Il2CppGenericInstCompareEEENSt3__29allocatorIS4_EEE8IdentityESB_SE_E13set_empty_keyERKS4_
rkb:__ZNK20LocalFileSystemPosix8IsHiddenERK13FileEntryData
AQg:_EqualityComparer_1_System_Collections_IEqualityComparer_Equals_m3589836321_gshared
vfe:_SmallXmlParser_IsNameChar_m1561000202
Xrh:_X501__cctor_m2610532554
MPi:__ZL95SafeHandle_t2733794115_CustomAttributesCacheGenerator_SafeHandle_DangerousGetHandle_m1328172664P21CustomAttributesCache
Hog:__Z48RuntimeInvoker_Int32_t2071877448_Link_t865133271PFvvEPK10MethodInfoPvPS4_
KEg:_Enumerator_VerifyState_m3173176371_gshared
r8c:_StringComparer__ctor_m2275216983
Ihj:__ZL120U3CClickRepeatU3Ec__Iterator0_t4156771994_CustomAttributesCacheGenerator_U3CClickRepeatU3Ec__Iterator0__ctor_m1515509136P21CustomAttributesCache
MOe:_List_1_CheckCollection_m2220107869_gshared
jWa:__ZN7Cubemap23VirtualRedirectTransferER18StreamedBinaryReadILb0EE
vdf:_RecordProtocol_EncodeRecord_m3884270352
F0c:_SHA256_Create_m896954069
kIc:_Read_CVT
nLd:_Convert_ToUInt32_m776714429
oBa:__ZN12FileAccessor4SeekEx10FileOrigin
Tsb:__ZL26Transfer_SimpleNativeClassI24GenerateTypeTreeTransfer17AnimationCurveTplIfELb0EEvRK29SerializationCommandArgumentsR31RuntimeSerializationCommandInfo
tuc:__ZN8JSONRead21TransferSTLStyleArrayI13dynamic_arrayI9BoundsIntLj4EEEEvRT_17TransferMetaFlags
lYa:__ZN24GenerateTypeTreeTransfer8TransferI13dynamic_arrayI33EnlightenTerrainChunksInformationLj4EEEEvRT_PKc17TransferMetaFlags
Xtd:_Array_CreateInstance_m3327690220
$4:__ZN16LightmapSettings20DidChangeActiveSceneEP10UnitySceneS1_
tub:__Z18Transfer_BlittableI19StreamedBinaryWriteILb0EELb0EN4math12int3_storageEEvRK29SerializationCommandArgumentsR31RuntimeSerializationCommandInfo
Hkj:__ZL59g_AssemblyU2DCSharp_Assembly_CustomAttributesCacheGeneratorP21CustomAttributesCache
Y5h:__ZN6il2cpp5utils9PathUtils8BasenameIcEENSt3__212basic_stringIT_NS3_11char_traitsIS5_EENS3_9allocatorIS5_EEEERKSA_
Bmc:__Z35Register_UnityEngine_Event_get_typev
ige:_PrivateKeyInfo_DecodeRSA_m1427048948
Lli:__ZN6il2cpp2vm9Exception23GetInvalidCastExceptionERKNS_5utils10StringViewIDsEE
V7e:_BigInteger_op_GreaterThanOrEqual_m2643115413
oSf:_Assembly_FillName_m1934025015
Fre:_IntPtr_op_Explicit_m1073656736
k7c:_String_IndexOf_m2126171214
ere:_Int64_ToString_m1544341651_AdjustorThunk
wy:__ZN8Animator28BuildControllerPlayableCacheEv
Xle:_Guid_CheckNull_m2903986431
pZi:__ZL62CrossContextDelegate_t754146990_CustomAttributesCacheGeneratorP21CustomAttributesCache
m$:__Z63ThreadAndSerializationSafeCheckGetMonoBehaviourBeingTransferredv
KBi:_GC_enable
qff:_TlsClientCertificateVerify_ProcessAsSsl3_m3377063356
aed:_StandaloneInputModule_set_repeatDelay_m2820945738
fte:_EndOfStreamException__ctor_m4268387737
TOf:_UInt16_ToString_m4213290405
$fc:__Z37Register_UnityEngine_Input_GetAxisRawv
AQe:_List_1_GetIndex_m433539411_gshared
uSi:__ZL59StreamingContext_t1417235061_CustomAttributesCacheGeneratorP21CustomAttributesCache
w7g:_ChannelServices_RegisterChannel_m3832858065
uSd:_Enum_GetName_m1226611481
A6e:_Func_2_Invoke_m4121137703_gshared
qL:__ZN11AudioSource5ResetEv
LLb:__ZN12ImageFilters27SetSurfaceUseResolvedBufferEP13RenderTextureb
Jsg:__Z74RuntimeInvoker_DictionaryEntry_t3048875398_RuntimeObject_Int32_t2071877448PFvvEPK10MethodInfoPvPS4_
Rbg:__Z53RuntimeInvoker_DateTime_t693205669_Single_t2076509932PFvvEPK10MethodInfoPvPS4_
$0a:__ZN14Texture2DArray23VirtualRedirectTransferER18StreamedBinaryReadILb0EE
ieh:_Literal_CompileLiteral_m276843152
fib:__ZN2UI13RectTransform13AwakeFromLoadE17AwakeFromLoadMode
eeh:_Reference__ctor_m4110013284
MQb:__ZN14qsort_internal30FindAndMovePivotToLastPositionIP20ShadowCasterSortDatai26ShadowCasterSortDataSorterEEvT_S4_T0_T1_
X$h:__ZNK15dense_hashtableI10KeyWrapperIPK19Il2CppGenericMethodES4_N6il2cpp8metadata23Il2CppGenericMethodHashEN14dense_hash_setIS4_S7_NS4_14EqualsComparerINS6_26Il2CppGenericMethodCompareEEENSt3__29allocatorIS4_EEE8IdentityESB_SE_E3endEv
rmb:__Z18Transfer_BlittableI14SafeBinaryReadLb1EiEvRK29SerializationCommandArgumentsR31RuntimeSerializationCommandInfo
BRh:__ZL25UnresolvedVirtualCall_211P12Il2CppObject38CustomAttributeNamedArgument_t94157543PK10MethodInfo
Qab:__ZN17PersistentManager13GetAllFileIDsERKN4core12basic_stringIcNS0_20StringStorageDefaultIcEEEER13dynamic_arrayIxLj8EE
r1e:_ReadOnlyCollection_1_GetEnumerator_m713393110_gshared
syf:_ProxyAttribute_GetPropertiesForNewContext_m3587421540
vud:_Array_LastIndexOf_m4096535198
cAd:_ArrayList_Add_m1719188324
ARd:_Double_System_IConvertible_ToSByte_m1653690240_AdjustorThunk
Beg:__Z59RuntimeInvoker_RuntimeObject_Byte_t3683104436_RuntimeObjectPFvvEPK10MethodInfoPvPS4_
gih:_Bounds_get_size_m3951110137
Ak:_glGetStringi
uFh:_GUIStyleState_t3801000545_marshal_pinvoke
Upi:__ZNK15dense_hashtableI10KeyWrapperIP18Il2CppGenericClassES3_N6il2cpp8metadata22Il2CppGenericClassHashEN14dense_hash_setIS3_S6_NS3_14EqualsComparerINS5_25Il2CppGenericClassCompareEEENSt3__29allocatorIS3_EEE8IdentityESA_SD_E10test_emptyERK30dense_hashtable_const_iteratorIS3_S3_S6_SF_SA_SD_E
bVd:_CultureInfo_set_NumberFormat_m1618950525
W1a:__ZN18StreamedBinaryReadILb0EE21TransferSTLStyleArrayI13dynamic_arrayI8Vector4fLj4EEEEvRT_17TransferMetaFlags
tqf:_X509Store__ctor_m1573680316
Iqf:_X509Chain_get_CertificateCollection_m324631835
NQg:_EqualityComparer_1__cctor_m1011898363_gshared
$ed:_AnimationTriggers__ctor_m2623627182
J_d:_Array_InternalArray__IndexOf_TisClientCertificateType_t4001384466_m1168139450_gshared
dA:__ZN8Animator9WriteStepEy
MWf:_FieldBuilder_get_Name_m2243491233
NS:__ZN11UnityEngine15CloudWebService20WebRequestRestClient18GetResponseHeadersEv
s7b:__ZN16PropertyAccessorC2Ev
L_a:__ZNSt3__23mapIN4core12basic_stringIcNS1_20StringStorageDefaultIcEEEE9PrefValueNS_4lessIS5_EENS_9allocatorINS_4pairIKS5_S6_EEEEEixERSB_
mxb:__Z35Transfer_Blittable_FixedBufferFieldI18StreamedBinaryReadILb1EEaEvRK29SerializationCommandArgumentsR31RuntimeSerializationCommandInfo
W6b:__ZN15DirectorManager22ConstructPlayableGraphEv
b$a:__ZN13ScreenManager16SetScreenTimeoutEi
urb:__Z18Transfer_BlittableI17RemapPPtrTransferLb0EdEvRK29SerializationCommandArgumentsR31RuntimeSerializationCommandInfo
C1c:_SymmetricAlgorithm_set_IV_m4262655606
WBg:_StencilMaterial__cctor_m2963056855
ALh:_EqualityComparer_1_System_Collections_IEqualityComparer_Equals_m315020809_gshared
RTf:_CustomAttributeNamedArgument_GetHashCode_m3715408876_AdjustorThunk
EKc:__Z38Register_UnityEngine_Font_HasCharacterv
Npf:_X509Certificate2_AppendBuffer_m3517242299
LUb:__Z35IntersectSpherePlaneBoundsOptimizedRKN4math7_float4EPS1_i
ZUd:_CultureInfo_get_IsNeutralCulture_m3874876470
tQd:_Delegate_CreateDelegate_m3813023227
tgh:_Uri_get_AbsoluteUri_m2120317928
Gsi:__ZN6il2cpp2os5posix15PosixWaitObject13InterruptWaitEv
$hd:_ColorTween_TweenValue_m3279916815
mad:_BaseInputModule_IsModuleSupported_m4272494372
A4:__Z22CleanupLODGroupManagerPv
U0d:_Array_InternalArray__ICollection_Add_TisContentType_t1028629049_m2984242302_gshared
xmc:__Z21Event_CUSTOM_PopEventP12Il2CppObject
kl:_glUniform3fv
QEi:__ZNK6il2cpp8metadata24Il2CppGenericInstCompareclERK10KeyWrapperIPK17Il2CppGenericInstES8_
B7a:__ZNSt3__218__insertion_sort_3IRN15ResourceManager10Dependency6SorterEPS2_EEvT0_S6_T_
lFe:_Enumerator_System_Collections_IEnumerator_Reset_m3796537546_AdjustorThunk
qJc:_UNITY_FT_Init_Class_tt_service_gx_multi_masters
_dg:__Z53RuntimeInvoker_Int32_t2071877448_TimeSpan_t3430258949PFvvEPK10MethodInfoPvPS4_
p_g:_InternalEnumerator_1_System_Collections_IEnumerator_Reset_m3249248421_AdjustorThunk
p4f:__Z64RuntimeInvoker_RuntimeObject_Int32_t2071877448_Int16_t4041245914PFvvEPK10MethodInfoPvPS4_
Oze:_IntComparer_Compare_m3057931085
uPb:__ZNK16LightmapSettings31GetRealtimeLightmapDecodeValuesEv
yK:__ZN5audio5mixer12SetSuspendedERNS0_16AudioMixerMemoryEb
Lbb:__ZN17PersistentManager21UnloadNonDirtyStreamsEv
E7f:__Z63RuntimeInvoker_DSAParameters_t1872138834_BooleanU26_t3168250738PFvvEPK10MethodInfoPvPS4_
aog:__Z62RuntimeInvoker_Boolean_t3825574718_PlayableBinding_t2498078091PFvvEPK10MethodInfoPvPS4_
Ami:__ZN6il2cpp2vm13LivenessStateC2EP11Il2CppClassjPFvPP12Il2CppObjectiPvES7_PFvvESB_
p9d:_Array_ConvertAll_TisRuntimeObject_TisRuntimeObject_m2423585546_gshared
oKb:__ZN12ImageFilters4BlitER17ShaderPassContextP7TextureP13RenderTextureiPK18SharedMaterialDataPKcP6ShaderiNS_9BlitFlagsE11CubemapFaceRK8Vector2fSH_
bof:_Oid__ctor_m1936781897
BS:__ZN11UnityEngine15CloudWebService10RestClientINS0_23WebRequestRestHeaderMapEED2Ev
f5g:_ResourceSet__ctor_m1222864106
pSe:_Collection_1_System_Collections_IList_get_Item_m3376056117_gshared
Gl:_emscripten_glDepthMask
tbd:__ZN23InterfaceActionInvoker1IP28PointerEventData_t1599784723E6InvokeEjP11Il2CppClassP12Il2CppObjectS1_
bHi:__ZL76UInt16_t986882611_CustomAttributesCacheGenerator_UInt16_TryParse_m1818885113P21CustomAttributesCache
kFe:_Enumerator_VerifyState_m3639069574_gshared
Iia:__ZN4crnd25static_huffman_data_model22prepare_decoder_tablesEv
PRe:_Enumerator_MoveNext_m689054299_gshared
s7e:_ModulusRing_Difference_m662924064
SZg:_InternalEnumerator_1_MoveNext_m1869236997_gshared
Dgd:_CanvasUpdateRegistry_ObjectValidForUpdate_m855695984
spd:_InputField_set_onValueChanged_m2406388125
wlc:__Z23GUIStatePopDisplayIndexv
__e:_ReadOnlyCollection_1_System_Collections_ICollection_get_SyncRoot_m2702046016_gshared
sX:__ZL22CleanupUnityWebStreamsPv
wzb:__Z18Transfer_BlittableI18StreamedBinaryReadILb0EELb0E10ColorRGBAfEvRK29SerializationCommandArgumentsR31RuntimeSerializationCommandInfo
Qkf:_ListDictionary_Add_m4276262662
e5:__Znaj
i$c:_RIPEMD160Managed_GGG_m1639995340
$Bj:_emscripten_glEnableClientState__wrapper
jZ:__ZN17MessageIdentifierC2EPKcNS_7OptionsEPKN5Unity4TypeES1_
sHg:_Enumerator_System_Collections_IEnumerator_get_Current_m1648049763_gshared
hSi:__ZL66ISerializationSurrogate_t1282780357_CustomAttributesCacheGeneratorP21CustomAttributesCache
n8f:__Z31RuntimeInvoker_Char_t3454481338PFvvEPK10MethodInfoPvPS4_
tFa:__ZN11GameManager15ThreadedCleanupEv
eNe:_List_1__ctor_m1337392449_gshared
SP:__Z55Register_UnityEngine_AudioSource_get_spatializeInternalv
I0a:__ZN15dense_hashtableINSt3__24pairIKN4core12basic_stringIcNS2_20StringStorageDefaultIcEEEE13dynamic_arrayI4PPtrI6SpriteELj4EEEES6_20StringHash32FunctionIS6_EN14dense_hash_mapIS6_SC_SF_NS0_8equal_toIS6_EE13stl_allocatorISD_L18MemLabelIdentifier81ELi16EEE9SelectKeyESI_SL_E12resize_deltaEjj
Hwe:_TextWriter__ctor_m2225796097
i8g:__ZN21InterfaceFuncInvoker0IP24StringU5BU5D_t1642385972E6InvokeEjP11Il2CppClassP12Il2CppObject
Nxa:__ZN14SafeBinaryRead8TransferI14ConstantStringEEvRT_PKc17TransferMetaFlags
afa:__ZNK6Camera16GetStereoEnabledEv
w3b:__ZN12LightManager15InitializeClassEv
VGa:__ZN9ShaderLab11shaderprops16GetComputeBufferEPK19ShaderPropertySheetS3_NS_16FastPropertyNameE
A7i:__ZL86Logger_t3328995178_CustomAttributesCacheGenerator_Logger_set_filterLogType_m3982626604P21CustomAttributesCache
p_:__ZN18ScriptingArgumentsC2Ev
wMf:_TimeZone_IsDaylightSavingTime_m875882154
hTg:_ArrayReadOnlyList_1_Insert_m503707439_gshared
xxj:_emscripten_glBlendFuncSeparate__wrapper
hcf:_CipherSuiteCollection_System_Collections_IList_set_Item_m750275607
Zsj:dynCall_iiiiiiiiii
Jfa:__Z17HasSampledTexture14GraphicsFormat13formatSupport
mLb:__ZNK25CameraStackRenderingState27GetStereoImageEffectTextureEb
k0c:_SHA1CryptoServiceProvider__ctor_m3127563759
qp:__ZN8Vector3f8TransferI14SafeBinaryReadEEvRT_
u3h:__ZN6il2cpp6icalls6System6System3Net7Sockets6Socket7ReceiveEiP11Il2CppArrayiiNS4_11SocketFlagsEPi
V9b:__ZN13BuildSettings13GetSceneIndexERKN4core12basic_stringIcNS0_20StringStorageDefaultIcEEEE
vkj:__ZL103BaseVertexEffect_t2504093552_CustomAttributesCacheGenerator_BaseVertexEffect_ModifyVertices_m3446986347P21CustomAttributesCache
uo:FUNCTION_TABLE_ii
pIg:_Enumerator_MoveNext_m335649778_AdjustorThunk
nFa:__ZN10TagManager8TransferI18StreamedBinaryReadILb0EEEEvRT_
A2f:__Z45RuntimeInvoker_Char_t3454481338_RuntimeObjectPFvvEPK10MethodInfoPvPS4_
Vpc:__Z18Transfer_BlittableI9JSONWriteLb0E8BitFieldEvRK29SerializationCommandArgumentsR31RuntimeSerializationCommandInfo
NPf:_UInt32_ToString_m3894907091_AdjustorThunk
nZd:_Array_InternalArray__IEnumerable_GetEnumerator_TisPlayableBinding_t2498078091_m2095426925_gshared
toh:_Matrix4x4__ctor_m828876617_AdjustorThunk
dTh:_Predicate_1__ctor_m2863314033_gshared
TUd:_CultureInfo_get_TextInfo_m1582311326
X$d:_Array_ForEach_TisRuntimeObject_m1849351808_gshared
UFg:_ShimEnumerator_get_Key_m616785465_gshared
Z3i:__ZL76Object_t1021602117_CustomAttributesCacheGenerator_Object_Destroy_m3959286051P21CustomAttributesCache
$ee:_SmallXmlParser_Error_m1832158746
Htf:_RepeatContext_get_IsLazy_m1620488045
zk:_glDeleteVertexArrays
NCa:__Z24CreateDirectoryRecursiveRKN4core12basic_stringIcNS_20StringStorageDefaultIcEEEE
Svj:b41
wfb:__ZN9ShaderLab20SerializedSubProgram8TransferI18StreamedBinaryReadILb0EEEEvRT_
hwe:_StreamAsyncResult_get_AsyncWaitHandle_m4218169359
Rvj:b40
rTb:__Z9EndJobSetR8JobFence11JobPriority
ugf:_TlsServerSettings_set_SignedParams_m1826385315
jLc:__ZN2UI13CanvasManager9AddCanvasEPNS_6CanvasE
T1a:__ZN9Texture3D8TransferI19StreamedBinaryWriteILb0EEEEvRT_
QLb:__ZNK6Camera22CalculateRenderingPathEv
nrc:__ZN9JSONWrite8TransferI5RectTIfEEEvRT_PKc17TransferMetaFlags
NB:__ZN11UnityEngine9Animation37SetGenericRootTransformPropertyValuesERKNS0_30AnimatorGenericBindingConstantERKN7mecanim10ValueArrayER9Transformbb
Yoa:__Z13ConvertMipmap14GraphicsFormatPKvS_Pviiii
Naf:_ContentInfo_get_Content_m1802070908
TGh:_InvokableCall_4_Find_m2012236736_gshared
zrb:__ZL12InvokeMethodI17RemapPPtrTransferEvRK29SerializationCommandArgumentsR31RuntimeSerializationCommandInfo
xie:_X509Certificate_get_PublicKey_m714501701
Kfg:__Z70RuntimeInvoker_Boolean_t3825574718_UInt16_t986882611_Int32_t2071877448PFvvEPK10MethodInfoPvPS4_
zrd:_U3CMouseDragOutsideRectU3Ec__Iterator1_System_Collections_IEnumerator_get_Current_m561728752
Jhh:_AsyncOperation_InternalDestroy_m2067452588
XBc:_tt_sbit_decoder_load_image
z7c:_String_LastIndexOf_m290475879
T4i:__ZL92Transform_t3275118058_CustomAttributesCacheGenerator_Transform_SetAsFirstSibling_m1896679420P21CustomAttributesCache
a_d:__ZN21InterfaceFuncInvoker1Ii22UILineInfo_t3621277874E6InvokeEjP11Il2CppClassP12Il2CppObjectS0_
i4i:__ZL113PlayableHandle_t213697122_CustomAttributesCacheGenerator_PlayableHandle_INTERNAL_CALL_IsValidInternal_m3649184361P21CustomAttributesCache
tod:_Image_get_layoutPriority_m2151045813
xii:__ZN15dense_hashtableINSt3__24pairIK10KeyWrapperIP11Il2CppClassES4_EES5_N6il2cpp8metadata16SZArrayClassHashEN14dense_hash_mapIS5_S4_SA_NS5_14EqualsComparerINS9_19SZArrayClassCompareEEENS0_9allocatorIS7_EEE9SelectKeyESE_SG_EC2EjRKSA_RKSE_RKSI_
j5d:_Array_Sort_TisInt32_t2071877448_m1860415737_gshared
xxe:_TextReader_Read_m975794707
qlc:__ZNSt3__24listIN10GUIManager12SortedScriptE11memory_poolIS2_EE6__sortI13OldSortScriptEENS_15__list_iteratorIS2_PvEESA_SA_jRT_
XPf:_UInt64_System_IConvertible_ToChar_m1930853313_AdjustorThunk
lff:_TlsClientCertificate_SendCertificates_m1096074091
Zed:_UIBehaviour_OnCanvasHierarchyChanged_m762109874
bFd:_SyncHashtable_get_Item_m408601391
QSi:__ZL45DSA_t903174880_CustomAttributesCacheGeneratorP21CustomAttributesCache
VRe:_Stack_1_System_Collections_ICollection_CopyTo_m2104527616_gshared
qHf:_StringBuilder_AppendFormat_m1666670800
hjg:__Z97RuntimeInvoker_Boolean_t3825574718_RuntimeObject_TextGenerationSettings_t2543476768_RuntimeObjectPFvvEPK10MethodInfoPvPS4_
VSc:__ZN18UnityConnectClient12CloseServiceEv
crb:__Z18Transfer_BlittableI17RemapPPtrTransferLb1E8BitFieldEvRK29SerializationCommandArgumentsR31RuntimeSerializationCommandInfo
Nki:__ZN6il2cpp6icalls8mscorlib6System9ThreadingL11ThreadStartEPv
Z6:__ZN15DirectorManager12OnSampleTimeEv
R2e:_ReadOnlyCollection_1_System_Collections_IList_Remove_m3878418841_gshared
xpd:_InputField_EnforceContentType_m1902926812
kZa:__ZN15dense_hashtableINSt3__24pairIKiiEEi21InstanceIDHashFunctorN14dense_hash_mapIiiS4_NS0_8equal_toIiEE13stl_allocatorIS3_L18MemLabelIdentifier67ELi16EEE9SelectKeyES7_SA_E12resize_deltaEjj
Cva:__ZN12CachedReader10Align4ReadEv
qgh:_Uri_op_Equality_m110355127
p_e:_Collection_1_CopyTo_m42272870_gshared
Qhh:_DefaultExecutionOrder_get_order_m3383619944
s$:__ZN15dense_hashtableINSt3__24pairIKiP6ObjectEEi21InstanceIDHashFunctorN14dense_hash_mapIiS4_S6_NS0_8equal_toIiEE13stl_allocatorIS5_L18MemLabelIdentifier67ELi16EEE9SelectKeyES9_SC_E12maybe_shrinkEv
xai:_RaycastHit2D_get_point_m2962370910_AdjustorThunk
nwa:__ZNK9Behaviour22GetTypeVirtualInternalEv
cgd:_CanvasScaler_set_referencePixelsPerUnit_m1188599784
Bqg:__Z74RuntimeInvoker_Void_t1841601450_Int32_t2071877448_RaycastHit2D_t4063908774PFvvEPK10MethodInfoPvPS4_
E5e:_Comparison_1_EndInvoke_m179917407_gshared
i1b:__ZNK28MonoBehaviourPropertyBinding12SetPPtrValueERKN11UnityEngine9Animation10BoundCurveEi
wVb:__Z21GetScriptingArraySize17ScriptingArrayPtr
jwc:__ZN20TextRenderingPrivate8FontImpl8TransferI14SafeBinaryReadEEvRT_
Odh:__ZN23InterfaceActionInvoker1IP19LinkRef_t2090853131E6InvokeEjP11Il2CppClassP12Il2CppObjectS1_
gmc:__ZN11IMGUIModule21ClearDeveloperConsoleEv
g3f:__Z110RuntimeInvoker_Boolean_t3825574718_RuntimeObject_SByte_t454417549_Int64U26_t763825331_ExceptionU26_t1467204777PFvvEPK10MethodInfoPvPS4_
Kca:__ZN9GfxDevice17ImmediateTexCoordEifff
Ech:_Parser_ParseRegularExpression_m2390577313
CDc:_ft_black_new
Uud:_Array_double_swapper_m1175307080
Ldh:_Alternation_AddAlternative_m623421443
irf:_X509CertificateEnumerator_System_Collections_IEnumerator_Reset_m327358896
qeg:__Z65RuntimeInvoker_Void_t1841601450_Byte_t3683104436_Byte_t3683104436PFvvEPK10MethodInfoPvPS4_
K3c:_Hash__ctor_m2554411450
xoe:_NumberFormatter_AppendDigits_m1308372770
m9:__ZN30dense_hashtable_const_iteratorINSt3__24pairIKN4core12basic_stringIcNS2_20StringStorageDefaultIcEEEE10vector_setI4PPtrI11SpriteAtlasENS0_4lessISB_EE13stl_allocatorISB_L18MemLabelIdentifier81ELi16EEEEES6_20StringHash32FunctionIS6_EN14dense_hash_mapIS6_SH_SK_NS0_8equal_toIS6_EESE_ISI_LSF_81ELi16EEE9SelectKeyESN_SO_EC2EPK15dense_hashtableISI_S6_SK_SQ_SN_SO_EPKSI_SX_b
n5c:_Single_System_IConvertible_ToDateTime_m2510003459_AdjustorThunk
CQd:_Delegate_RemoveImpl_m3666700529
svj:_emscripten_glUniform4f__wrapper
hlf:_NameObjectCollectionBase_OnDeserialization_m3478980442
kkh:_CustomYieldInstruction_MoveNext_m3850519634
jpd:_InputField_set_caretColor_m2252440840
gD:__ZN8Animator8TransferI19StreamedBinaryWriteILb0EEEEvRT_
UFa:__ZNK6Camera16GetProjectionFarEv
q8e:_ASN1_get_Count_m3992276234
Rye:_MissingFieldException__ctor_m1161042282
W_d:_Array_InternalArray__IndexOf_TisSlot_t2267560602_m1912863273_gshared
fph:_Mesh_get_uv3_m1531319041
KUa:__ZNK14PlayableOutput11DerivesFromE17ScriptingClassPtr
YVa:__ZN7Texture34CreateFileTextureUploadInstructionE18TextureUploadFlagsj
yca:__ZN9GfxDevice21ResetDynamicResourcesEv
mqa:__ZN13ComputeShader14SetBufferParamEjRKN9ShaderLab16FastPropertyNameE15ComputeBufferID
bNa:__ZThn280_N31CanvasBatchIntermediateRenderer20OnAssetBoundsChangedEv
Y5e:_Comparison_1_EndInvoke_m4174686984_gshared
fCf:_StreamingContext__ctor_m3063421596_AdjustorThunk
E2e:_ReadOnlyCollection_1_System_Collections_Generic_IListU3CTU3E_Insert_m3054305464_gshared
O0b:__ZN19LowerResBlitTexture13ApplySettingsEv
bIi:__ZL70IntPtr_t_CustomAttributesCacheGenerator_IntPtr_op_Explicit_m3896766622P21CustomAttributesCache
ZC:__ZN8Animator8TransferI14SafeBinaryReadEEvRT_
hii:__ZN15dense_hashtableINSt3__24pairIK10KeyWrapperIP11Il2CppClassES4_EES5_N6il2cpp8metadata16SZArrayClassHashEN14dense_hash_mapIS5_S4_SA_NS5_14EqualsComparerINS9_19SZArrayClassCompareEEENS0_9allocatorIS7_EEE9SelectKeyESE_SG_E4swapERSJ_
xDa:__ZN17GlobalGameManager23VirtualRedirectTransferER18StreamedBinaryReadILb0EE
n$d:_Array_InternalArray__IndexOf_TisTypeTag_t141209596_m2882894956_gshared
gBg:_Slider_get_value_m4182660424
R2:__Z23AsyncReadForceCloseFileRKN4core12basic_stringIcNS_20StringStorageDefaultIcEEEE
kt:__ZN17AnimationPlayable34CollectAnimatorControllerPlayablesER13dynamic_arrayIP26AnimatorControllerPlayableLj4EE
kO:__ZN16BaseVideoTexture19UpdateVideoTexturesEv
kMa:__Z28BuildSingleStreamChannelInfo17ShaderChannelMaskRK20VertexChannelsLayoutS_S2_P11ChannelInfo
$Ha:__ZNK16LightmapSettings23HasLightProbeTetrahedraEv
yef:_Context_get_WriteSequenceNumber_m243492531
v$a:__ZN6Sprite23VirtualRedirectTransferER19StreamedBinaryWriteILb0EE
vRg:_EqualityComparer_1_System_Collections_IEqualityComparer_GetHashCode_m3761319178_gshared
r7c:_String_LastIndexOfAny_m1473637802
Qic:__Z38Transform_CUSTOM_INTERNAL_set_positionP12Il2CppObjectRK8Vector3f
Jph:_PlayerEditorConnectionEvents_InvokeMessageIdSubscribers_m795891627
uJe:_List_1_System_Collections_ICollection_CopyTo_m3062449209_gshared
Ibi:__ZNK15dense_hashtableINSt3__24pairIK10KeyWrapperINS1_IPK9FieldInfoP11Il2CppClassEEEjEES9_17ReflectionMapHashIS8_EN14dense_hash_mapIS9_jSD_NS9_14EqualsComparerINS0_8equal_toIS8_EEEENS0_9allocatorISB_EEE9SelectKeyESI_SK_E5beginEv
$Ra:__ZNK9ShaderLab7Program19HasMatchingVariantsERK13dynamic_arrayI16ShaderKeywordSetLj4EE
TA:__ZN15SerializeTraitsIN4math4trsXEE8TransferI8BlobSizeEEvRS1_RT_
sga:__ZN14DataBufferGLES11CopySubDataEPKS_jjj
fe:_emscripten_glVertexPointer
wua:__ZNSt3__26__treeI20DeviceDepthStateGLES11memcmp_lessIS1_S1_ENS_9allocatorIS1_EEE7destroyEPNS_11__tree_nodeIS1_PvEE
eld:_Graphic__ctor_m821539719
EIe:_List_1_System_Collections_Generic_ICollectionU3CTU3E_get_IsReadOnly_m1614481629_gshared
j6h:__ZN6il2cpp2vm7Runtime47RaiseExecutionEngineExceptionIfMethodIsNotFoundEPK10MethodInfo
qRb:__Z17GetFrustumPortionPK8Vector3fffPS_
VQf:_UnauthorizedAccessException__ctor_m259001183
lni:__ZN15dense_hashtableINSt3__24pairIK10KeyWrapperIP14Il2CppIUnknownEjEES5_N6il2cpp5utils11PointerHashIS3_EEN14dense_hash_mapIS5_jSB_NS5_14EqualsComparerINS0_8equal_toIS4_EEEENS0_9allocatorIS7_EEE9SelectKeyESG_SI_E14squash_deletedEv
iNa:__ZN5Light13AwakeFromLoadE17AwakeFromLoadMode
ajd:_DefaultControls_CreateDropdown_m1384069408
Ucd:_PointerEventData_get_clickCount_m4064532478
$0e:_ReadOnlyCollection_1_System_Collections_Generic_ICollectionU3CTU3E_get_IsReadOnly_m3508872969_gshared
jTd:_EventArgs__cctor_m1350395667
mGh:_InvokableCall_1_remove_Delegate_m1748003978_gshared
Gaa:__ZNK9GfxDevice27GetPlatformAdjustedViewportEv
MTd:_CCGregorianCalendar_is_leap_year_m567513478
Iof:_Oid_get_Value_m2271181078
tvd:_Attribute_IsDefined_m2118467641
ZAh:_SpriteAtlasManager_Register_m447878083
hge:_PrivateKeyInfo_Normalize_m3959595934
wng:__Z68RuntimeInvoker_Void_t1841601450_Int32_t2071877448_Color32_t874517518PFvvEPK10MethodInfoPvPS4_
kUg:_InternalEnumerator_1_System_Collections_IEnumerator_get_Current_m3125080595_gshared
RXe:_Collection_1_System_Collections_IList_Add_m2091889616_gshared
w7b:__ZN16StreamedResource8TransferI24GenerateTypeTreeTransferEEvRT_
wkd:_DropdownItem_OnPointerEnter_m761897861
kra:__ZN10Matrix3x3f15InvertTransposeEv
TWd:_Array_InternalArray__ICollection_Remove_TisKeyValuePair_2_t1174980068_m2768765894_gshared
aJb:__Z11IsBatchmodev
zVe:_Collection_1_set_Item_m2199807215_gshared
$pb:__Z29Transfer_Blittable_ArrayFieldI14SafeBinaryRead8Vector3fEvRT_R9ArrayInfoRK23StaticTransferFieldInfo
Q9i:__ZL75Event_t3028476042_CustomAttributesCacheGenerator_Event_PopEvent_m4241312794P21CustomAttributesCache
ZOf:_UInt32_System_IConvertible_ToBoolean_m91295134
DJf:_Monitor_Monitor_test_synchronised_m1542589500
cqg:__Z66RuntimeInvoker_Void_t1841601450_Int32_t2071877448_Slot_t2022531261PFvvEPK10MethodInfoPvPS4_
_wc:__ZN20TextRenderingPrivate8FontImpl18ResetCachedTextureEv
wHi:__ZL75String_t_CustomAttributesCacheGenerator_String_Concat_m626692867____values0P21CustomAttributesCache
Wge:_SymmetricTransform_TransformFinalBlock_m4192185386
Kle:_TextInfo__ctor_m1263401274
sRf:_Version_get_Major_m3385239713
KJh:_ListPool_1_Release_m3047738410_gshared
Izi:_GC_print_finalization_stats
mef:_Context_get_SecurityProtocolFlags_m3295551796
gJg:_ValueCollection__ctor_m927733289_gshared
Ywa:__ZN11NamedObject15ThreadedCleanupEv
y_g:_InternalEnumerator_1__ctor_m2981879621_AdjustorThunk
sdc:__Z53Register_UnityEngine_Behaviour_get_isActiveAndEnabledv
Vmf:_IPAddress_ToString_m267966740
iLh:_EqualityComparer_1__ctor_m3971803374_gshared
eq:__ZNSt3__26vectorIN4core12basic_stringIcNS1_20StringStorageDefaultIcEEEENS_9allocatorIS5_EEE8__appendEj
Jmg:__Z64RuntimeInvoker_Boolean_t3825574718_IntPtr_t_ObjectU26_t597476745PFvvEPK10MethodInfoPvPS4_
R6a:__ZN26PlayerSettingsSplashScreen8TransferI17RemapPPtrTransferEEvRT_
XXg:_InternalEnumerator_1_get_Current_m3922357178_gshared
U4h:__ZN6il2cpp6icalls8mscorlib6SystemL17CollectTypeFieldsINS_5utils10functional10TrueFilterEEEvP11Il2CppClassPKS7_iRNSt3__26vectorIP9FieldInfoNSB_9allocatorISE_EEEERKT_
ifj:__ZL72ColorBlock_t2652774230_CustomAttributesCacheGenerator_m_HighlightedColorP21CustomAttributesCache
OMf:_Type_get_IsValueType_m1733572463
l$b:__Z13GetTagManagerv
jVg:_InternalEnumerator_1_Dispose_m1748410190_AdjustorThunk
vXd:_Array_InternalArray__ICollection_Remove_TisUInt16_t986882611_m65494986_gshared
s1e:_ReadOnlyCollection_1_IndexOf_m3054637117_gshared
nWh:__ZL10roundUp128PyS_
KQ:__ZN11UnityEngine15CloudWebService17CloudJobSchedulerD0Ev
m6c:_String_System_IConvertible_ToBoolean_m2696751322
e9a:__ZN18LoadSceneOperation7PerformEv
NRi:__ZL105ConfigHandler_t2180714860_CustomAttributesCacheGenerator_ConfigHandler_ValidatePath_m3188987489____paths1P21CustomAttributesCache
JLc:__ZNK2UI11CanvasGroup22GetTypeVirtualInternalEv
Aoh:_Matrix4x4_MultiplyPoint3x4_m1436516889
u7c:_String_LastIndexOfAny_m4281325295
Tlg:__Z163RuntimeInvoker_Void_t1841601450_RuntimeObject_Int32_t2071877448_SByte_t454417549_SByte_t454417549_SingleU26_t4173844468_SingleU26_t4173844468_SingleU26_t4173844468PFvvEPK10MethodInfoPvPS4_
Klc:__Z21CleanupGlobalGUIStatev
rLf:_TimeSpan__ctor_m1888018443_AdjustorThunk
usg:__Z74RuntimeInvoker_Int32_t2071877448_UIVertex_t1204258818_UIVertex_t1204258818PFvvEPK10MethodInfoPvPS4_
YEd:_SyncHashtable_get_Count_m3694444082
pzb:__Z18Transfer_BlittableI18StreamedBinaryReadILb0EELb1EN4math12int3_storageEEvRK29SerializationCommandArgumentsR31RuntimeSerializationCommandInfo
L$i:__ZL144U3CCreateWhereIteratorU3Ec__Iterator1D_1_t2523986802_CustomAttributesCacheGenerator_U3CCreateWhereIteratorU3Ec__Iterator1D_1_Dispose_m3152287270P21CustomAttributesCache
w2f:__Z56RuntimeInvoker_RuntimeObject_RuntimeObject_RuntimeObjectPFvvEPK10MethodInfoPvPS4_
Usa:__ZN22VertexDeclarationCache5ClearEv
Xbb:__ZN15CacheWriterBase18GetAddressOfMemoryEv
Qv:__Z27ProcessRootMotionEmptyMixerP35AnimationPlayableEvaluationConstantP32AnimationPlayableEvaluationInputP33AnimationPlayableEvaluationOutput
WSb:__ZN6Camera24PrepareCullingParametersERK23CameraCullingParameters13RenderingPathR11CullResults
H9b:__Z12SetIUISystemP9IUISystem
r9a:__ZN19RuntimeSceneManager22EndIntegrateMainThreadEP10UnitySceneNS_11LoadingModeE
VTi:__ZL84Evidence_t1407710183_CustomAttributesCacheGenerator_Evidence_GetHashCode_m1260371757P21CustomAttributesCache
j1e:_ReadOnlyCollection_1_System_Collections_ICollection_get_IsSynchronized_m2344337514_gshared
Brb:__Z26Transfer_UnityEngineObjectI17RemapPPtrTransferLb0EEvRK29SerializationCommandArgumentsR31RuntimeSerializationCommandInfo
Plg:__Z34RuntimeInvoker_FitMode_t4030874534PFvvEPK10MethodInfoPvPS4_
B7c:_String_IsNullOrEmpty_m2802126737
eyd:_Byte_Parse_m1442736478
Oqe:_Int64_Parse_m3258022240
l7c:_String_IndexOfOrdinal_m3591623977
_Df:_CryptoConfig_EncodeLongNumber_m2352037787
qNf:_Type_GetMethod_m475234662
V5c:_Single_GetHashCode_m3102305584
MCe:_KeyValuePair_2__ctor_m1877755778_AdjustorThunk
U6g:_ActivationServices_get_ConstructionActivator_m1726426854
Wtb:__Z29Transfer_Blittable_ArrayFieldI24GenerateTypeTreeTransfer4AABBEvRT_R9ArrayInfoRK23StaticTransferFieldInfo
uWi:__ZL76Convert_t2607082565_CustomAttributesCacheGenerator_Convert_ToChar_m245844937P21CustomAttributesCache
QVi:__ZL52Activator_t1850728717_CustomAttributesCacheGeneratorP21CustomAttributesCache
KAi:_GC_adj_bytes_allocd
LBg:_SpriteState_t1353336012_marshal_pinvoke_cleanup
P0d:_Array_InternalArray__ICollection_Add_TisKeyframe_t1449471340_m887263954_gshared
t2d:_Array_InternalArray__Insert_TisDateTime_t693205669_m1484996356_gshared
AJe:_List_1_System_Collections_IList_Remove_m3933652540_gshared
PKg:_Dictionary_2_System_Collections_IDictionary_GetEnumerator_m1484720898_gshared
tve:_MonoIO_get_ConsoleInput_m2976499023
dZf:_OpCode_get_Size_m481593949_AdjustorThunk
vCd:_BitArrayEnumerator_checkVersion_m3839504595
Jtd:_Array_GetUpperBound_m1352329707
Xmi:__ZN6il2cpp6icalls8mscorlib6System10Reflection10MonoMethod19get_base_definitionEP22Il2CppReflectionMethod
Ca:invoke_fiiifii
Y6c:_String_TrimEnd_m3153143011
$Nd:_DateTimeOffset_Equals_m3728302791_AdjustorThunk
vFh:_GUIStyleState_t3801000545_marshal_pinvoke_back
_Pa:__ZN20SphericalHarmonicsL219AddDirectionalLightERKN4math7_float3ERKNS0_7_float4E
zth:_X509Extension_Equals_m1304125015
nMf:_TimeSpan_op_GreaterThanOrEqual_m3997050520
lXi:__ZL77Convert_t2607082565_CustomAttributesCacheGenerator_Convert_ToUInt16_m36213644P21CustomAttributesCache
Q6:__Z26ScheduleJobForEachInternalR8JobFencePFvPvjES1_iPFvS1_E11JobPriority
Tof:_OidEnumerator_MoveNext_m1889267785
m9d:_Mesh_GetAllocArrayFromChannel_TisVector3_t2243707580_m799130432_gshared
NIb:__ZZ23InitPlayerLoopCallbacksvEN41PostLateUpdateProfilerEndFrameRegistrator7ForwardEv
dac:__ZN9Scripting18RaiseMonoExceptionEPKcz
dXa:__ZN9Texture2D8TransferI19StreamedBinaryWriteILb0EEEEvRT_
zkd:_OptionData__ctor_m3070653720
zJh:_TweenRunner_1_StartTween_m3792842064_gshared
W3b:__ZN9ShaderLab16FastPropertyName15InitBy28BitHashEj
v5c:_Single_System_IConvertible_ToInt32_m3269519527_AdjustorThunk
ZTh:_TextGenerationSettings_Equals_m1603221718
q0c:_SHA1Internal_ProcessBlock_m4070037334
IEa:__ZN17PersistentManager17IsObjectAvailableEi
p6g:_Marshal_copy_from_unmanaged_m98320635
z3d:_Array_InternalArray__set_Item_TisDouble_t4078015681_m24756265_gshared
Qkh:_Display_RelativeMouseAtImpl_m700362000
GBh:_Vector2_get_right_m4262310679
r1b:__ZN13ProduceHelperIN2UI13RectTransformELb0EE7ProduceE18MemLabelIdentifier18ObjectCreationMode
x2a:__ZN17PackedFloatVector12UnpackFloatsEPfiiii
SRh:__ZL25UnresolvedVirtualCall_228P12Il2CppObjectiPK10MethodInfo
DUi:__ZL113EncoderReplacementFallback_t4228544112_CustomAttributesCacheGenerator_EncoderReplacementFallback__ctor_m517300448P21CustomAttributesCache
j$e:_ReadOnlyCollection_1__ctor_m3671019970_gshared
Uy:__ZN17AnimationPlayable28UpdateInternalStateRecursiveILi3ELb0EEEvPK35AnimationPlayableEvaluationConstant
Gda:__ZN13GfxDeviceGLES21DestroyComputeProgramER12ObjectHandleI18ComputeProgram_TagPvE
UId:_Convert_ToDecimal_m2007036836
aki:__ZN6il2cpp6icalls8mscorlib6System5Array12SetValueImplEP11Il2CppArrayP12Il2CppObjecti
E4:__ZN17UniqueIDGenerator16DestroyPureIndexEj
i1:__ZL21AppendNestedClassName17ScriptingClassPtrRN4core17string_with_labelILi1EEE
gdb:__ZN14SafeBinaryRead21TransferSTLStyleArrayINSt3__26vectorIN9ShaderLab20SerializedSubProgram12UAVParameterENS1_9allocatorIS5_EEEEEEvRT_17TransferMetaFlags
$8g:_Context_NotifyDynamicSinks_m1367144344
LDg:_Enumerator__ctor_m1897170543_AdjustorThunk
hV:__ZNK13BaseAllocator10IsAssignedEv
TR:__ZN24TextDOMTransferWriteBaseI9JSONWriteE12PushMetaFlagEi
hsc:__Z18Transfer_BlittableI8JSONReadLb1E10ColorRGBAfEvRK29SerializationCommandArgumentsR31RuntimeSerializationCommandInfo
U2i:__ZL79Mesh_t1356156583_CustomAttributesCacheGenerator_Mesh_Internal_Create_m384282753P21CustomAttributesCache
$cf:_TlsClientCertificateVerify__ctor_m110646389
fma:__ZN6prcoreL26RemapGenericIntegerToFloatI17TexFormatARGB888815TexFormatRFloatEEvPKNS_9InnerInfoE
K8h:_UpdatedEventHandler__ctor_m2169897603
wV:__ZN5Mutex6UnlockEv
cRh:__ZL25UnresolvedVirtualCall_186P12Il2CppObject6Guid_tS1_PK10MethodInfo
i9g:_Context_GetServerContextSinkChain_m390126977
x9h:__ZN6il2cpp2vm17TypeNameParseInfoD2Ev
HI:__ZN4FMOD7Channel7setModeEj
axe:_StringReader_Read_m513112775
SYa:__ZNK8Renderer8GetLayerEv
jSe:_Collection_1_System_Collections_IList_Insert_m266942173_gshared
FKa:__ZN12FlareManager11DeleteFlareEi
OTe:_Collection_1_Add_m2613548553_gshared
Ux:__ZN7mecanim9animation22DestroyBlendTreeOutputEPNS0_15BlendTreeOutputERNS_6memory9AllocatorE
yNb:__ZNK6Camera20GetReplacementShaderEv
_wj:_glProgramBinary__wrapper
TOd:_Decimal__ctor_m569480123_AdjustorThunk
omf:_HttpWebRequest__cctor_m3013631978
MDi:__ZNSt3__26__treeINS_12__value_typeINS_12basic_stringIcNS_11char_traitsIcEENS_9allocatorIcEEEEPFvvEEENS_19__map_value_compareIS7_SA_NS_4lessIS7_EELb1EEENS5_ISA_EEE4findIS7_EENS_15__tree_iteratorISA_PNS_11__tree_nodeISA_PvEEiEERKT_
udb:__ZNSt3__26vectorIN9ShaderLab20SerializedSubProgram14ConstantBufferENS_9allocatorIS3_EEE7reserveEj
uja:__ZL23stbir__calculate_memoryP11stbir__info
vag:__Z83RuntimeInvoker_Void_t1841601450_Int64_t909078037_Int32_t2071877448_Int64_t909078037PFvvEPK10MethodInfoPvPS4_
adi:__ZNK15dense_hashtableINSt3__24pairIK10KeyWrapperINS1_IPK10MethodInfoP11Il2CppClassEEEjEES9_17ReflectionMapHashIS8_EN14dense_hash_mapIS9_jSD_NS9_14EqualsComparerINS0_8equal_toIS8_EEEENS0_9allocatorISB_EEE9SelectKeyESI_SK_E12test_deletedERK24dense_hashtable_iteratorISB_S9_SD_SM_SI_SK_E
CMi:__ZL90BinaryReader_t2491843768_CustomAttributesCacheGenerator_BinaryReader_ReadSByte_m1712621355P21CustomAttributesCache
D4i:__ZL101Transform_t3275118058_CustomAttributesCacheGenerator_Transform_INTERNAL_set_localPosition_m2606735056P21CustomAttributesCache
Yxg:_Scrollbar_FindSelectableOnRight_m3219495255
Anh:_Logger_IsLogTypeAllowed_m243840823
fQg:_EqualityComparer_1_System_Collections_IEqualityComparer_GetHashCode_m487741360_gshared
ALc:__ZNSt3__227__insertion_sort_incompleteIRPFbPN2UI6CanvasES3_EPS3_EEbT0_S8_T_
Xvh:_Rect_set_width_m2294291744_AdjustorThunk
BKb:__ZNK6Camera18GetRenderRectangleEv
e1h:__ZN6il2cpp5utils13dynamic_arrayIPK10Il2CppTypeLj4EE7reserveEj
Uci:__ZNK15dense_hashtableINSt3__24pairIK10KeyWrapperINS1_IPK10MethodInfoP11Il2CppClassEEEjEES9_17ReflectionMapHashIS8_EN14dense_hash_mapIS9_jSD_NS9_14EqualsComparerINS0_8equal_toIS8_EEEENS0_9allocatorISB_EEE9SelectKeyESI_SK_E3endEv
G0a:__ZN13sorted_vectorIN4core12basic_stringIcNS0_20StringStorageDefaultIcEEEENSt3__24lessIS4_EE13stl_allocatorIS4_L18MemLabelIdentifier81ELi16EEE4findIS4_EENS5_11__wrap_iterIPS4_EERKT_
c2d:_Array_InternalArray__ICollection_CopyTo_TisVector3_t2243707580_m509487340_gshared
Dbf:_CipherSuite_get_KeyBlockSize_m2993514247
Osc:__ZL26Transfer_SimpleNativeClassI8JSONRead10RectOffsetLb1EEvRK29SerializationCommandArgumentsR31RuntimeSerializationCommandInfo
WOc:__Z44CanvasRenderer_CUSTOM_INTERNAL_CALL_SetColorP12Il2CppObjectRK10ColorRGBAf
jzi:_GC_should_collect
g7g:_UrlAttribute_Equals_m1587451932
Vti:__ZNSt3__26__treeINS_12basic_stringIcNS_11char_traitsIcEENS_9allocatorIcEEEENS_4lessIS6_EENS4_IS6_EEE12__find_equalIS6_EERPNS_16__tree_node_baseIPvEESG_RKT_
Dpc:__Z18Transfer_BlittableI9JSONWriteLb1EsEvRK29SerializationCommandArgumentsR31RuntimeSerializationCommandInfo
cpe:_Int16_ToString_m4099416068_AdjustorThunk
mYc:_DSAParameters_t1872138834_marshal_pinvoke_cleanup
_va:__ZN6ObjectD2Ev
Pac:__ZN9Transform16SetLocalRotationERK11Quaternionf
vJb:__ZN13RenderManager37RenderCamerasWithScriptableRenderLoopEi
xde:_ASN1_Element_m2600236165
FY:__ZN23InstancedPropInfoStaticL16RegisterCallbackEPv
dJi:__ZL67RuntimeArray_CustomAttributesCacheGenerator_Array_IndexOf_m77084779P21CustomAttributesCache
aB:__ZN7mecanim8skeleton25SkeletonPoseComputeLocalQEPKNS0_8SkeletonEPKNS0_13SkeletonPoseTIN4math4trsXEEEPS7_ii
sri:__ZN6il2cpp2os19ReleaseSocketHandleEj
STi:__ZL59ApplicationTrust_t3968282840_CustomAttributesCacheGeneratorP21CustomAttributesCache
NKi:__ZL128SafeHandleZeroOrMinusOneIsInvalid_t1177681199_CustomAttributesCacheGenerator_SafeHandleZeroOrMinusOneIsInvalid__ctor_m3340306667P21CustomAttributesCache
AN:__ZN11AudioModule16GetDSPSampleRateEv
Lvi:__ZN15dense_hashtableINSt3__24pairIK10KeyWrapperIPK19Il2CppGenericMethodEP10MethodInfoEES6_N6il2cpp8metadata23Il2CppGenericMethodHashEN14dense_hash_mapIS6_S9_SD_NS6_14EqualsComparerINSC_26Il2CppGenericMethodCompareEEENS0_9allocatorISA_EEE9SelectKeyESH_SJ_E5clearEv
t7b:__ZN16PropertyAccessor5ClearEv
VUf:_TypeBuilder_get_next_table_index_m1415870184
_rj:___cxa_can_catch
d8e:_SequentialSearchPrimeGeneratorBase_GenerateNewPrime_m296245934
jzd:_Char_GetUnicodeCategory_m4273361321
RNb:__ZN6Camera28DefaultPerformRenderFunctionD0Ev
Fye:_Math_Round_m565516458
S8g:_Identity_get_ClientDynamicProperties_m767245959
iUg:_InternalEnumerator_1__ctor_m675130983_AdjustorThunk
lKg:_Dictionary_2_Clear_m899854001_gshared
zsi:__ZN6il2cpp2os5posix15PosixWaitObjectC2ENS2_4TypeE
KLb:__ZN6Camera21PostMultiCustomRenderENS_10RenderFlagEb
KZf:_TypeBuilder_create_generic_class_m986834171
Upa:__ZN12_GLOBAL__N_112UploadImagesEP7ApiGLESjji14GraphicsFormatPKhjS2_iiii16TextureUsageModePh
zGb:__ZN23ShaderVariantCollection13WarmupShadersEv
uAh:_Transform_set_rotation_m2824446320
lef:_Context_set_ProtocolNegotiated_m1177527245
bPf:_UInt32_System_IConvertible_ToChar_m1056040486
P0:__Z25GetCommonScriptingClassesv
Ujf:_TlsStream_get_Length_m1562309511
V9a:__Z27scripting_gc_collect_unsafei
FN:__ZN11AudioModule20SuspendVideoTexturesEv
yCd:_CaseInsensitiveComparer__ctor_m1125492797
IP:__Z59Register_UnityEngine_AudioExtensionManager_GetAudioListenerv
r3b:__ZN12CubemapArrayC2E18MemLabelIdentifier18ObjectCreationMode
Gsg:__Z73RuntimeInvoker_DictionaryEntry_t3048875398_RuntimeObject_SByte_t454417549PFvvEPK10MethodInfoPvPS4_
gHd:_Convert_ToByte_m395020137
ntb:__Z26Transfer_UnityEngineObjectI24GenerateTypeTreeTransferLb0EEvRK29SerializationCommandArgumentsR31RuntimeSerializationCommandInfo
yai:_RaycastHit2D_get_normal_m1680752829
Kzc:_UNITY_FT_GlyphLoader_CheckPoints
lMe:_List_1_System_Collections_ICollection_CopyTo_m1995866425_gshared
Pxe:_TextWriter_WriteLine_m1754475888
BKa:__ZN15SharedLightData7PrecalcEv
NFa:__ZN10Matrix4x4fmLERKS_
yq:__ZN4PPtrI9TransformE8TransferI18StreamedBinaryReadILb0EEEEvRT_
$7d:_Array_InternalArray__get_Item_TisDouble_t4078015681_m2215331088_gshared
B4i:__ZL95Transform_t3275118058_CustomAttributesCacheGenerator_Transform_INTERNAL_set_position_m502085109P21CustomAttributesCache
$Ti:__ZL57PrincipalPolicy_t289802916_CustomAttributesCacheGeneratorP21CustomAttributesCache
Lwb:__Z35Transfer_Blittable_FixedBufferFieldI18StreamedBinaryReadILb1EEsEvRK29SerializationCommandArgumentsR31RuntimeSerializationCommandInfo
JWe:_Collection_1_ClearItems_m3446813399_gshared
dKg:_Dictionary_2_Init_m3666073812_gshared
DNe:_List_1_AsReadOnly_m1681105545_gshared
PAa:__ZN15ArchiveReadFileD0Ev
Pge:_SymmetricTransform_TransformBlock_m1524716432
GFh:_GUIUtility_TakeCapture_m1786193394
SZd:_Array_compare_TisColor32_t874517518_m3842009370_gshared
Wjg:__Z105RuntimeInvoker_Boolean_t3825574718_RuntimeObject_Vector2_t2243707579_RuntimeObject_Vector2U26_t3911752445PFvvEPK10MethodInfoPvPS4_
gSc:__ZN11UnityEngine15PlatformWrapper18GetOperatingSystemEv
I9:__ZNSt3__26vectorIP14DataBufferGLESNS_9allocatorIS2_EEE21__push_back_slow_pathIKS2_EEvRT_
A0g:_InternalEnumerator_1__ctor_m2458691472_AdjustorThunk
L3e:_ReadOnlyCollection_1_System_Collections_Generic_ICollectionU3CTU3E_Remove_m974176789_gshared
qQd:_Delegate_return_type_match_m4278947849
Zqd:_InputField_GenerateHightlight_m1346735465
tp:__ZN15SerializeTraitsI13dynamic_arrayIiLj4EEE19ResizeSTLStyleArrayERS1_i
hmh:_UnityEventBase_ToString_m2323130098
Ufh:_Uri_ParseNoExceptions_m1151989845
zGd:_GC_SuppressFinalize_m953228702
zzc:_FT_MSB
Oif:_InternalAsyncResult_get_ProceedAfterHandshake_m552962842
szf:_SoapServices_PreLoad_m490411755
g5b:__ZZL23RegisterLightPropertiesR22GenericPropertyBindingEN29Wrapper_LightShadowNormalBias13GetFloatValueEPv
Ewh:_RectOffset__ctor_m2517237351
N7f:__Z63RuntimeInvoker_RuntimeObject_Int32_t2071877448_SByte_t454417549PFvvEPK10MethodInfoPvPS4_
gEi:__ZN6il2cpp6icalls8mscorlib4Mono8Security12Cryptography18KeyPairPersistence10_CanSecureEP12Il2CppString
YRg:_Action_1_Invoke_m4180501989_gshared
QAg:_Slider__ctor_m3124136916
t2g:_DefaultComparer__ctor_m3180706193_gshared
eOe:_List_1_System_Collections_Generic_IEnumerableU3CTU3E_GetEnumerator_m3625278020_gshared
$9:__ZN13GfxDeviceGLES14SetRasterStateEPK17DeviceRasterState
acg:__Z51RuntimeInvoker_Int16_t4041245914_Single_t2076509932PFvvEPK10MethodInfoPvPS4_
Inb:__Z30TransferField_LinearCollectionI14SafeBinaryReadEvRK29SerializationCommandArgumentsR31RuntimeSerializationCommandInfo
Ppd:_InputField_set_caretPositionInternal_m231166704
Hdf:_TlsServerHello__ctor_m3032108168
Sua:__ZN14SafeBinaryRead11EndTransferEv
xNi:__ZL98ILGenerator_t99948092_CustomAttributesCacheGenerator_ILGenerator_Mono_GetCurrentOffset_m3553856682P21CustomAttributesCache
aob:__ZN14SafeBinaryRead8TransferI8MonoPPtrEEvRT_PKc17TransferMetaFlags
cNg:_Dictionary_2_System_Collections_Generic_ICollectionU3CSystem_Collections_Generic_KeyValuePairU3CTKeyU2CTValueU3EU3E_Remove_m1705959559_gshared
Kyh:_SerializeField__ctor_m2670658200
i0g:_InternalEnumerator_1_System_Collections_IEnumerator_get_Current_m1533037706_gshared
Uqa:__ZN21UniformBufferTFMethod13MapBoneBufferEj
xhf:_RecordProtocol_SendChangeCipherSpec_m3542001341
k4d:_Array_InternalArray__set_Item_TisVector3_t2243707580_m1390667454_gshared
Tkc:__ZN12GUIClipState10BeginOnGUIER10InputEvent
pki:__ZNSt3__26vectorIcNS_9allocatorIcEEEC2Ej
Mee:_KeyPairPersistence_CanSecure_m2251009700
Gw:__ZN7mecanim5human14HumanPoseClearERNS0_9HumanPoseERKNS_6bitsetILj70EEE
RDb:__ZN9TextAsset15ThreadedCleanupEv
Zwf:_ReturnMessage_get_Properties_m531965085
WWf:_GenericTypeParameterBuilder_IsSubclassOf_m563999142
yTd:_Exception_ToString_m627574695
q_f:_AddEventAdapter_Invoke_m3970567975
R6:__Z21CompleteFenceInternalR8JobFence
rmc:__Z30Event_Get_Custom_PropModifiersP12Il2CppObject
Lbi:__ZN30dense_hashtable_const_iteratorINSt3__24pairIK10KeyWrapperINS1_IPK9FieldInfoP11Il2CppClassEEEjEES9_17ReflectionMapHashIS8_EN14dense_hash_mapIS9_jSD_NS9_14EqualsComparerINS0_8equal_toIS8_EEEENS0_9allocatorISB_EEE9SelectKeyESI_SK_E30advance_past_empty_and_deletedEv
uNg:_Dictionary_2_ContainsValue_m2375979648_gshared
Bt:__ZN7mecanim9animation16CreateClipOutputEPKNS0_4ClipERNS_6memory9AllocatorE
u2d:_Array_InternalArray__Insert_TisDecimal_t724701077_m1429254816_gshared
VJh:_ListPool_1_Get_m2998644518_gshared
fbg:__Z191RuntimeInvoker_Int32_t2071877448_RuntimeObject_Int32_t2071877448_Int32_t2071877448_RuntimeObject_Int32_t2071877448_SByte_t454417549_Int32U26_t455636984_BooleanU26_t3168250738_SByte_t454417549PFvvEPK10MethodInfoPvPS4_
lmj:_BeLive__ctor_m2220824422
vLf:_TimeSpan_get_Days_m1002111510
zBb:__ZNSt3__218__stable_sort_moveIRN10vector_mapI17ScriptingClassPtrPKN5Unity4TypeENS_4lessIS2_EENS_9allocatorINS_4pairIS2_S6_EEEEE13value_compareENS_11__wrap_iterIPSB_EEEEvT0_SJ_T_NS_15iterator_traitsISJ_E15difference_typeEPNSM_10value_typeE
acb:__ZN6Shader21AwakeFromLoadThreadedEv
hla:__ZN6prcoreL17RemapGenericFloatI17TexFormatRGBFloat17TexFormatRGBAHalfEEvPKNS_9InnerInfoE
Igj:__ZL70InputField_t1631627530_CustomAttributesCacheGenerator_m_CharacterLimitP21CustomAttributesCache
VOe:_List_1_get_Capacity_m2443158653_gshared
rXc:__ZN13RuntimeStaticINSt3__26vectorIjNS0_9allocatorIjEEEELb0EE16StaticInitializeEPv
qT:__ZN13UploadHandler10OnSentDataEj
pFi:__ZN6il2cpp2os9SemaphoreC2Eii
gUg:_InternalEnumerator_1_get_Current_m2960188445_AdjustorThunk
igg:__Z56RuntimeInvoker_UriHostNameType_t2148127109_RuntimeObjectPFvvEPK10MethodInfoPvPS4_
cob:__ZNSt3__26vectorI8MonoPPtr13stl_allocatorIS1_L18MemLabelIdentifier1ELi16EEE8__appendEj
pCg:_Text_set_alignByGeometry_m1514652028
oMb:__ZN14qsort_internal30FindAndMovePivotToLastPositionIP17RODataReplacementi19ROSorterReplacementEEvT_S4_T0_T1_
dra:__ZN15UniformTFMethod20IsBoneCountSupportedEi
Ute:_FileStream_get_Position_m465478322
L$h:__ZN14dense_hash_setI10KeyWrapperIPK19Il2CppGenericMethodEN6il2cpp8metadata23Il2CppGenericMethodHashENS4_14EqualsComparerINS6_26Il2CppGenericMethodCompareEEENSt3__29allocatorIS4_EEEC2EjRKS7_RKSA_
gtj:dynCall_viidi
y2d:_Array_InternalArray__Insert_TisInt64_t909078037_m3039874636_gshared
twd:_Convert_ToInt16_m1787678274
$Cg:_ToggleGroup_NotifyToggleOn_m997426227
$s:__ZN8Playable18OnApplicationPauseEb
Hhf:_RSASslSignatureDeformatter_SetKey_m1150106904
B_:__ZN24ScriptingMethodFiltering17FilterOnSignatureENS_18MethodSearchFilterE
mUf:_TypeBuilder_get_Module_m1668298460
Ixg:_Scrollbar_ClickRepeat_m3403943364
DO:__ZN13ProduceHelperI9AudioClipLb0EE7ProduceE18MemLabelIdentifier18ObjectCreationMode
VXb:__ZN18ScreenManagerWebGL13SetLockCursorE14CursorLockMode
eGc:_cf2_arrstack_finalize
jAe:_MonoType_GetMethodsByName_m1854415088
ZDg:_Enumerator_get_CurrentValue_m3147984131_gshared
cVf:_DerivedType_GetMethods_m165266904
uge:_RSAManaged_EncryptValue_m4089823119
c1b:__ZN13MonoBehaviour19HandleNotificationsEPviR11MessageData
Ajh:_Component_get_gameObject_m2159020946
VFi:__ZN6il2cpp2os9EventImpl5ResetEv
f2h:__ZN6il2cpp2vm13MetadataCache23GetMethodGenericContextEPK10MethodInfo
kOg:_DefaultComparer_GetHashCode_m926363525_gshared
mDh:_Event_get_keyCode_m4176847855
Iyg:_ScrollRect_get_verticalScrollbar_m2455612493
Iue:_ReadDelegate_Invoke_m2091885836
lWf:_TypeBuilder_GetField_m2112455315
Bwj:b58
Cwj:b59
jwj:b52
uwj:b53
hwj:b50
iwj:b51
zwj:b56
Awj:b57
xwj:b54
ywj:b55
qce:_Kernel_Multiply_m3585610531
ebf:_CertificateSelectionCallback_EndInvoke_m3525317639
hL:__ZN4PPtrI15AudioMixerGroupE8TransferI18StreamedBinaryReadILb0EEEEvRT_
VLd:_DateTime__ctor_m3604679583_AdjustorThunk
tai:_RaycastHit2D_t4063908774_marshal_pinvoke
_ud:_SimpleEnumerator_Reset_m1341779532
U9h:__ZNSt3__214__split_bufferINS_12basic_stringIcNS_11char_traitsIcEENS_9allocatorIcEEEERNS4_IS6_EEEC2EjjS8_
Jfe:_MACAlgorithm_Core_m2390605245
m$g:_InternalEnumerator_1_System_Collections_IEnumerator_get_Current_m30488070_gshared
X5b:__ZN10GameObject12CleanupClassEv
LXg:_InternalEnumerator_1_System_Collections_IEnumerator_Reset_m2624612805_AdjustorThunk
z3f:__Z77RuntimeInvoker_Byte_t3683104436_RuntimeObject_Int32_t2071877448_RuntimeObjectPFvvEPK10MethodInfoPvPS4_
Paa:__ZN9GfxDevice25SetShaderPropertiesSharedERK19ShaderPropertySheet
TIh:_IndexedSet_1_GetEnumerator_m3646001838_gshared
Z5f:__Z96RuntimeInvoker_Int32_t2071877448_RuntimeObject_Int32_t2071877448_Int32_t2071877448_RuntimeObjectPFvvEPK10MethodInfoPvPS4_
BDb:__ZN10MonoScript17MainThreadCleanupEv
Wha:__ZN18AsyncUploadManager19AsyncResourceUploadER9GfxDeviceii9TextureID
Vvg:_VertexHelper_AddUIVertexTriangleStream_m4009409241
$2g:_Comparer_1__ctor_m844571340_gshared
E4b:__ZL25InitializeDefaultMaterialv
uPc:__Z53Register_UnityEngine_CanvasRenderer_get_materialCountv
VW:__GLOBAL__sub_I_runtime_graphics_lod_0_cpp
xBa:__ZN19FileAccessorHandlerD2Ev
F3g:_Comparer_1__ctor_m2941434245_gshared
DDg:_VertexHelper_AddVert_m3290455716
DZg:_InternalEnumerator_1_System_Collections_IEnumerator_Reset_m4085710193_AdjustorThunk
tNi:__ZL126GenericTypeParameterBuilder_t1370236603_CustomAttributesCacheGenerator_GenericTypeParameterBuilder_MakeGenericType_m2955814622P21CustomAttributesCache
Vya:__ZN17PersistentManager12UnloadStreamERKN4core12basic_stringIcNS0_20StringStorageDefaultIcEEEEb
s$b:__ZN14dense_hash_mapIN4core12basic_stringIcNS0_20StringStorageDefaultIcEEEE10vector_setI4PPtrI11SpriteAtlasENSt3__24lessIS8_EE13stl_allocatorIS8_L18MemLabelIdentifier81ELi16EEE20StringHash32FunctionIS4_ENS9_8equal_toIS4_EESC_INS9_4pairIKS4_SF_EELSD_81ELi16EEEixERSL_
Q_a:__ZN13ScreenManager17RequestResolutionEiibi
vEf:_DESTransform__ctor_m4096028381
F7h:_il2cpp_unity_liveness_calculation_from_statics
D6d:_Dictionary_2_Do_CopyTo_TisDictionaryEntry_t3048875398_TisDictionaryEntry_t3048875398_m983412647_gshared
jx:__ZNK26AnimatorControllerPlayable11DerivesFromE17ScriptingClassPtr
KKf:_Scheduler_get_Instance_m1989471839
CZa:__ZN8Renderer8TransferI17RemapPPtrTransferEEvRT_
htg:__Z76RuntimeInvoker_Boolean_t3825574718_UIVertex_t1204258818_UIVertex_t1204258818PFvvEPK10MethodInfoPvPS4_
_Ve:_Collection_1_Contains_m1299140035_gshared
wwj:_glBlitFramebuffer__wrapper
V0d:_Array_InternalArray__ICollection_Add_TisUICharInfo_t3056636800_m968274080_gshared
bKh:_ObjectPool_1__ctor_m1532275833_gshared
Wda:__ZN13GfxDeviceGLES19SetSinglePassStereoE16SinglePassStereo
_sg:__Z72RuntimeInvoker_Boolean_t3825574718_Color32_t874517518_Color32_t874517518PFvvEPK10MethodInfoPvPS4_
rlj:_AudioSourceExtension_set_audioSource_m650845743
ARe:_Queue_1_System_Collections_ICollection_get_IsSynchronized_m3521628381_gshared
XOh:__ZL24UnresolvedVirtualCall_71P12Il2CppObjectS0_S0_iS0_S0_S0_PK10MethodInfo
WHi:__ZL64IntPtr_t_CustomAttributesCacheGenerator_IntPtr__ctor_m3803259710P21CustomAttributesCache
JNe:_List_1_GetIndex_m3262928832_gshared
$hc:__Z33Sprite_CUSTOM_INTERNAL_get_borderP12Il2CppObjectP8Vector4f
UVb:__ZN16ReflectionProbes9GetCameraEv
Jgb:__ZL18IsGpuProgramUsable20ShaderGpuProgramTypePK6Shader
Wje:_ArgumentException__ctor_m2105824819
ZNc:__ZN2UI6Canvas17SetSortingLayerIDEi
Ffd:_BaseMeshEffect_get_graphic_m3358796463
wsi:__ZN6il2cpp2vm11MethodStack23CleanupForCurrentThreadEv
JCh:_YieldInstruction__ctor_m3378690795
wSh:_Predicate_1_Invoke_m695569038_gshared
xDe:_Enumerator_VerifyState_m825848279_AdjustorThunk
xLa:__ZN20TierGraphicsSettings8TransferI24GenerateTypeTreeTransferEEvRT_
zFh:_GUIStyleState_Cleanup_m824895509
f4f:__Z77RuntimeInvoker_Int32_t2071877448_RuntimeObject_RuntimeObject_SByte_t454417549PFvvEPK10MethodInfoPvPS4_
Opb:__ZN14SafeBinaryRead21TransferSTLStyleArrayI13dynamic_arrayI4AABBLj4EEEEvRT_17TransferMetaFlags
tTa:__ZN18UnityPropertySheet8TransferI19StreamedBinaryWriteILb0EEEEvRT_
Vff:_TlsServerCertificate_checkServerIdentity_m3836435780
I7:__ZNSt3__26__treeINS_12__value_typeIiN11TypeManager18TypeCallbackStructEEENS_19__map_value_compareIiS4_NS_4lessIiEELb1EEENS_9allocatorIS4_EEE7destroyEPNS_11__tree_nodeIS4_PvEE
whe:_PKCS12_Decrypt_m2353135969
TNi:__ZL93TypeBuilder_t3308873219_CustomAttributesCacheGenerator_TypeBuilder_IsAssignableTo_m3210661829P21CustomAttributesCache
wjh:_Color32_ToString_m685380321
R$f:_MonoEvent_ToString_m386956596
K5i:__ZL70RuntimePlatform_t1869584967_CustomAttributesCacheGenerator_FlashPlayerP21CustomAttributesCache
p5d:_Array_Sort_TisRuntimeObject_m3309514378_gshared
bdd:_PointerEventData_get_pointerPress_m880101744
bfa:__ZL19GetCameraTargetRectRK6Camerabb
gRc:__ZN11UnityEngine7Connect17XRDeviceInfoEventD0Ev
qGg:_Transform_1_BeginInvoke_m1786442111_gshared
Ane:_Int32_GetFormatException_m1729046182
iEa:__ZN13dynamic_arrayIN10GameObject13ComponentPairELj4EE6insertEPS1_RKS1_
ESe:_Collection_1_get_Count_m3834276648_gshared
dV:__ZN21UnityDefaultAllocatorI17LowLevelAllocatorE10DeallocateEPv
INa:__ZN15SharedLightData22UpdateCookieTextureRefEv
wr:__ZN15PackedIntVector8TransferI14SafeBinaryReadEEvRT_
v_f:_FieldInfo_get_IsLiteral_m267898096
ybj:__ZL84Canvas_t209405766_CustomAttributesCacheGenerator_Canvas_get_isRootCanvas_m3746337338P21CustomAttributesCache
Q5f:__Z45RuntimeInvoker_RuntimeObject_Int64_t909078037PFvvEPK10MethodInfoPvPS4_
Vif:_SslStreamBase_EndNegotiateHandshake_m1732321201
OGg:_Transform_1_BeginInvoke_m1167293475_gshared
kH:__ZN13AudioListener8DoUpdateEv
Vnc:__ZN5Unity9rapidjson13GenericReaderINS0_4UTF8IcEES3_13JSONAllocatorE9ParseTrueILj1ENS0_25GenericInsituStringStreamIS3_EENS0_15GenericDocumentIS3_S4_S4_EEEEvRT0_RT1_
bHd:__Z13bankers_roundd
G6a:__ZN14SafeBinaryRead8TransferI5RectTIfEEEvRT_PKc17TransferMetaFlags
qi:_emscripten_glGenFramebuffers
jEd:_Hashtable_CopyTo_m2778915805
D7:__ZN17BaseObjectManager16StaticInitializeEPv
sUf:_ConstructorBuilder_get_IsCompilerContext_m2796899803
E_d:_Array_IndexOf_TisUIVertex_t1204258818_m613887160_gshared
zcb:__ZNSt3__26vectorIN9ShaderLab26SerializedShaderDependencyENS_9allocatorIS2_EEE26__swap_out_circular_bufferERNS_14__split_bufferIS2_RS4_EE
Cid:_FloatTween_GetDuration_m1757342579_AdjustorThunk
CHd:_DateTime_CoreParse_m2014268103
h5g:_ResourceSet_Dispose_m2968479859
qwa:__ZN9Behaviour23VirtualRedirectTransferER17RemapPPtrTransfer
jqc:__Z18Transfer_BlittableI9JSONWriteLb0EyEvRK29SerializationCommandArgumentsR31RuntimeSerializationCommandInfo
DRa:__ZN13RenderTexture15ThreadedCleanupEv
IZd:_Array_BinarySearch_TisRuntimeObject_m3361740551_gshared
iVa:__ZN12CubemapArray23VirtualRedirectTransferER14SafeBinaryRead
$kh:_DrivenRectTransformTracker_Clear_m4190599786
Ft:__ZN21AnimationClipPlayable16ProcessHumanPassEPK35AnimationPlayableEvaluationConstantPK32AnimationPlayableEvaluationInputP33AnimationPlayableEvaluationOutput
S3e:_ReadOnlyCollection_1_System_Collections_IList_Add_m616574295_gshared
Bne:_Int32_ProcessTrailingWhitespace_m2812079777
dfa:__ZN18ProceduralMaterial9ReloadAllEbb
ghc:__Z43RectTransform_CUSTOM_INTERNAL_set_sizeDeltaP12Il2CppObjectRK13Vector2fIcall
Rnf:_WebProxy__ctor_m3679722173
JWg:_InternalEnumerator_1_Dispose_m2743309309_AdjustorThunk
Foi:__ZN15dense_hashtableINSt3__24pairIK10KeyWrapperINS1_IPKcS4_EEEiEES6_24NamespaceAndNamePairHashN14dense_hash_mapIS6_iS9_NS6_14EqualsComparerI26NamespaceAndNamePairEqualsEENS0_9allocatorIS8_EEE9SelectKeyESD_SF_E6insertERKS8_
Iwa:__ZN24GenerateTypeTreeTransfer18BeginArrayTransferEPKcS1_Ri17TransferMetaFlags
jia:__Z16DecompressCrunchPKhRjR13TextureFormatiiii18MemLabelIdentifier
XPe:_List_1__ctor_m2082969060_gshared
km:___syscall51
om:___syscall54
ppi:__ZNSt3__26__treeINS_12__value_typeIP24Il2CppReflectionAssemblyPvEENS_19__map_value_compareIS3_S5_NS_4lessIS3_EELb1EEENS_9allocatorIS5_EEE12__find_equalIS3_EERPNS_16__tree_node_baseIS4_EESH_RKT_
whb:__ZN9ShaderLab9SubShader19CreateFromSubShaderERKS0_
Kbj:__ZL84Canvas_t209405766_CustomAttributesCacheGenerator_Canvas_get_targetDisplay_m150918273P21CustomAttributesCache
mvb:__Z18Transfer_BlittableI19StreamedBinaryWriteILb0EELb1EjEvRK29SerializationCommandArgumentsR31RuntimeSerializationCommandInfo
XC:__ZNK8Animator20IsAnyRendererVisibleEv
LGc:_cff_builder_add_point1
zpi:__ZN6il2cpp2vm5Image21GetCachedResourceDataEPK11Il2CppImageRKNSt3__212basic_stringIcNS5_11char_traitsIcEENS5_9allocatorIcEEEE
qnd:_HorizontalOrVerticalLayoutGroup_set_childControlWidth_m4209477792
aeg:__Z54RuntimeInvoker_TimeSpan_t3430258949_Double_t4078015681PFvvEPK10MethodInfoPvPS4_
K0d:_Array_InternalArray__ICollection_Add_TisUInt32_t2149682021_m2629016323_gshared
Lmb:__Z18Transfer_BlittableI14SafeBinaryReadLb0E10ColorRGBAfEvRK29SerializationCommandArgumentsR31RuntimeSerializationCommandInfo
za:invoke_iiiiiiiiii
iP:__ZN11AudioSource25GetNumExtensionPropertiesEv
oN:__ZNK7Texture10GetVRUsageEv
m2d:_Array_InternalArray__Insert_TisKeyValuePair_2_t888819835_m975554221_gshared
tag:__Z59RuntimeInvoker_RuntimeObject_Int64_t909078037_RuntimeObjectPFvvEPK10MethodInfoPvPS4_
f9a:__ZN18LoadSceneOperation19IntegrateTimeSlicedEi
VKf:_Scheduler_SchedulerThread_m2209572785
Bae:_SortKeyBuffer_GetResultAndReset_m2516956577
L9i:__ZL79Event_t3028476042_CustomAttributesCacheGenerator_Event_get_character_m788279814P21CustomAttributesCache
a_b:__ZN10FileSystem19SetCurrentDirectoryERKN4core12basic_stringIcNS0_20StringStorageDefaultIcEEEE
cKh:_ObjectPool_1_get_countAll_m4217365918_gshared
j1:__ZN16ScriptingManager24NotifyScriptCacheReleaseEi
pTg:_InternalEnumerator_1_get_Current_m2151132603_gshared
eNi:__ZL63UnmanagedMemoryStream_t822875729_CustomAttributesCacheGeneratorP21CustomAttributesCache
kdc:__Z47Register_UnityEngine_Coroutine_ReleaseCoroutinev
Rth:_PlayableBehaviour__ctor_m1589016632
XH:__ZN15AudioReverbZone13SetFMODValuesEv
KZ:__ZL19StaticDestroyShaderPv
ae:_glRenderbufferStorageMultisample
Hxf:_SoapTypeAttribute_get_XmlTypeName_m2546866572
svh:_Ray_GetPoint_m2427899009
ry:__ZN23AnimationPlayableOutput17SetTargetAnimatorEP8Animator
f0e:_ReadOnlyCollection_1_System_Collections_IList_get_IsFixedSize_m158012227_gshared
Grc:__ZN9JSONWrite8TransferI13dynamic_arrayIN4math12int3_storageELj4EEEEvRT_PKc17TransferMetaFlags
Msh:_X509Chain__ctor_m1113875360
d3e:_ReadOnlyCollection_1__ctor_m2387481411_gshared
ogf:_TlsServerHello_processProtocol_m1241336522
MZi:__ZL79ModulusRing_t80355992_CustomAttributesCacheGenerator_ModulusRing_Pow_m661630322P21CustomAttributesCache
SWd:_Array_InternalArray__ICollection_Remove_TisKeyValuePair_2_t888819835_m1287715465_gshared
XUg:_InternalEnumerator_1_System_Collections_IEnumerator_Reset_m324760031_AdjustorThunk
G9g:_ContextAttribute_IsContextOK_m3281216012
Tve:_PathTooLongException__ctor_m3212099251
HCj:_pthread_cond_broadcast__wrapper
uBf:_ObjectManager_RaiseDeserializationEvent_m1611173032
Fr:__ZN17PackedFloatVector8TransferI18StreamedBinaryReadILb0EEEEvRT_
R1i:__ZL88Screen_t786852042_CustomAttributesCacheGenerator_Screen_t786852042____width_PropertyInfoP21CustomAttributesCache
kWa:__ZN7Cubemap23VirtualRedirectTransferER17RemapPPtrTransfer
dnj:_Restart__ctor_m56152370
ffc:__Z37Register_UnityEngine_Screen_get_widthv
kkd:_DropdownItem_get_image_m2752143412
MOh:__ZL24UnresolvedVirtualCall_60P12Il2CppObjectaPK10MethodInfo
j8b:__ZN22BlockMemoryCacheWriter11GetPathNameEv
Lld:_Graphic_Rebuild_m2617722358
Q8h:_RaycastHit_get_point_m3350410423
RPi:__ZL86SafeHandle_t2733794115_CustomAttributesCacheGenerator_SafeHandle_SetHandle_m1980208835P21CustomAttributesCache
INd:_DateTime_ToString_m3108726445_AdjustorThunk
XQ:__ZN19CloudServiceHandlerD2Ev
K7d:_Array_InternalArray__get_Item_TisTableRange_t2011406615_m602485977_gshared
Sqd:_InputField_Append_m2623574152
Qje:_ApplicationException__ctor_m1120437222
t0f:_MonoMethod__ctor_m4091684020
Yo:stackAlloc
Ddc:__Z44Camera_CUSTOM_INTERNAL_CALL_ScreenPointToRayP12Il2CppObjectRK8Vector3fR3Ray
_Ba:__ZN25SingleBlockMemoryFileData4LockEPPv
Rjb:__ZN12HandlerChain5TouchER13FileEntryData
sYf:_MethodBuilder_GetHashCode_m1713271764
Dng:__Z50RuntimeInvoker_Boolean_t3825574718_Link_t865133271PFvvEPK10MethodInfoPvPS4_
LSe:_Collection_1_IsSynchronized_m1319022347_gshared
K9d:_MSCompatUnicodeTable_GetResource_m3816716847
qfc:__Z32RectOffset_Get_Custom_PropBottomP12Il2CppObject
Ytd:_Array_CreateInstance_m15016505
epb:__ZNSt3__26vectorI17AnimationCurveTplIfE13stl_allocatorIS2_L18MemLabelIdentifier1ELi16EEE6assignINS_11__wrap_iterIPS2_EEEENS_9enable_ifIXaasr21__is_forward_iteratorIT_EE5valuesr16is_constructibleIS2_NS_15iterator_traitsISC_E9referenceEEE5valueEvE4typeESC_SC_
apj:_stat
gHa:__ZN9ShaderLab10SubProgram7CompileEv
KUh:_Canvas_get_isRootCanvas_m3746337338
pp:__ZN11Quaternionf8TransferI14SafeBinaryReadEEvRT_
N1d:_Array_InternalArray__ICollection_CopyTo_TisUInt16_t986882611_m3228377237_gshared
SGe:_List_1_Add_m4157722533_gshared
rhj:__ZL68Navigation_t1571958496_CustomAttributesCacheGenerator_m_SelectOnDownP21CustomAttributesCache
aIa:__ZN6CameraD2Ev
i_c:_RC2_set_KeySize_m2015782960
la:invoke_iiiiiiiiiiii
wRe:_Queue_1_GetEnumerator_m2842671368_gshared
HXe:_Collection_1_SetItem_m3715941382_gshared
Bke:_NumberFormatInfo_get_CurrencyGroupSeparator_m2480433019
khe:_StrongName_get_PublicKey_m3777577320
D5g:_RuntimeCompatibilityAttribute__ctor_m1331212510
Qlh:_PersistentCallGroup_Initialize_m3729167844
LK:__ZN10AudioMixer12RebindOutputEv
nii:__ZNK15dense_hashtableINSt3__24pairIK10KeyWrapperIP11Il2CppClassES4_EES5_N6il2cpp8metadata16SZArrayClassHashEN14dense_hash_mapIS5_S4_SA_NS5_14EqualsComparerINS9_19SZArrayClassCompareEEENS0_9allocatorIS7_EEE9SelectKeyESE_SG_E5beginEv
xYh:__ZN6il2cpp2vm17SetupFieldsLockedEP11Il2CppClassRKNS_2os12FastAutoLockE
mL:__ZN11AudioSourceD0Ev
xIe:_List_1_System_Collections_ICollection_CopyTo_m1530390632_gshared
mZe:_Collection_1_System_Collections_IEnumerable_GetEnumerator_m1452790461_gshared
vWg:_InternalEnumerator_1_System_Collections_IEnumerator_Reset_m3194282029_AdjustorThunk
hlb:__ZN16MemoryFileSystem4NameEv
NJe:__ZN21InterfaceFuncInvoker0I18Color32_t874517518E6InvokeEjP11Il2CppClassP12Il2CppObject
sad:_BaseRaycaster_OnEnable_m3641767070
QPe:_List_1_ToArray_m2810936944_gshared
B6e:_Func_2_BeginInvoke_m669892004_gshared
_7e:_PrimeGeneratorBase_get_PrimalityTest_m308005118
zIi:__ZL71Enum_t2459695545_CustomAttributesCacheGenerator_Enum_Format_m2294492821P21CustomAttributesCache
Sjc:__Z13SetCopyBufferRKN4core12basic_stringIcNS_20StringStorageDefaultIcEEEE
dIe:_List_1_CheckIndex_m2328469916_gshared
Qdg:__Z75RuntimeInvoker_RuntimeObject_RuntimeObject_Decimal_t724701077_RuntimeObjectPFvvEPK10MethodInfoPvPS4_
tQe:_List_1_AddRange_m3345533268_gshared
xyc:_UNITY_FT_New_Size
Abc:__Z42ScriptingGetComponentsOfTypeFromGameObjectRK26ScriptingGetComponentsArgs
BDh:_GUI_set_changed_m3199207797
SQe:_List_1_get_Item_m3157283227_gshared
NZd:__ZN21InterfaceFuncInvoker2Ii38CustomAttributeNamedArgument_t94157543S0_E6InvokeEjP11Il2CppClassP12Il2CppObjectS0_S0_
p9i:__ZL92AudioSource_t1135106623_CustomAttributesCacheGenerator_AudioSource_get_isPlaying_m1207358099P21CustomAttributesCache
TKd:_Convert_ToString_m2915777777
QTa:__ZNSt3__27__sort4IRPFbRKNS_4pairIN9ShaderLab16FastPropertyNameEN18UnityPropertySheet11UnityTexEnvEEES8_EPS6_EEjT0_SD_SD_SD_T_
aGc:_cf2_hintmap_build
h6i:__ZL54PropertyName_t217228410_CustomAttributesCacheGeneratorP21CustomAttributesCache
WDc:_Line_Up
RAe:_MonoType_GetGenericTypeDefinition_m2363776160
mRe:_Queue_1__ctor_m1845245813_gshared
vef:_Context_set_SentConnectionEnd_m2641458842
he:_emscripten_glBufferSubData
hxd:_Buffer_BlockCopyInternal_m2627156229
srb:__Z18Transfer_BlittableI17RemapPPtrTransferLb1EyEvRK29SerializationCommandArgumentsR31RuntimeSerializationCommandInfo
Eld:_Graphic_set_material_m329335629
bad:_ExecuteEvents_get_pointerExitHandler_m3250605428
jka:__ZN6prcoreL12RemapGenericI15TexFormatRGB88817TexFormatARGB8888EEvPKNS_9InnerInfoE
Op:__Z17CalculateGlobalRS23TransformAccessReadOnly
vmg:__Z70RuntimeInvoker_DictionaryEntry_t3048875398_RuntimeObject_RuntimeObjectPFvvEPK10MethodInfoPvPS4_
SAf:__ZN21InterfaceFuncInvoker1IP12Il2CppObject28StreamingContext_t1417235061E6InvokeEjP11Il2CppClassS1_S2_
kce:_Kernel_multiByteDivide_m735279869
MMg:_Dictionary_2_ToTValue_m542772656_gshared
OUc:__ZN23UnityPurchasingSettings10InitializeER6Object
kRh:__ZL25UnresolvedVirtualCall_194P12Il2CppObject6Guid_tS1_PK10MethodInfo
tKf:_Thread_GetNewManagedId_internal_m3211695465
dWh:_UISystemProfilerApi_EndSample_m3264820872
Hha:__ZN17GenericDynamicVBO17DrawChunkInternalERK21DynamicVBOChunkHandle17ShaderChannelMaskS3_P17VertexDeclarationP16DrawBuffersRangeij
pXc:__ZN13RuntimeStaticINSt3__26vectorIN5physx25PxVehicleWheelQueryResultENS0_9allocatorIS3_EEEELb0EE16StaticInitializeEPv
Kpb:__ZN14SafeBinaryRead21TransferSTLStyleArrayI13dynamic_arrayI9BoundsIntLj4EEEEvRT_17TransferMetaFlags
Pbb:__ZN22MemoryCacherReadBlocks14LockCacheBlockEjPPhS1_
iwd:_Boolean_System_IConvertible_ToChar_m2637404801_AdjustorThunk
Grg:__Z55RuntimeInvoker_UICharInfo_t3056636800_Int32_t2071877448PFvvEPK10MethodInfoPvPS4_
p4c:_SecurityContext_Capture_m2535194991
tOf:_UInt16_System_IConvertible_ToSByte_m3044765342_AdjustorThunk
hVf:_DerivedType_IsArrayImpl_m684825803
TGi:__ZL47Byte_t3683104436_CustomAttributesCacheGeneratorP21CustomAttributesCache
AKb:__ZNK9GfxDevice26GetSinglePassStereoEyeMaskEv
Lcg:__Z66RuntimeInvoker_Void_t1841601450_Int64_t909078037_Int32_t2071877448PFvvEPK10MethodInfoPvPS4_
wxc:__ZN20TextRenderingPrivate8FontImpl16CacheFontForTextEPtiifjPK13dynamic_arrayINS_16TextFormatChangeELj4EE
npg:__Z52RuntimeInvoker_Int32_t2071877448_Vector3_t2243707580PFvvEPK10MethodInfoPvPS4_
D4d:_Array_qsort_TisUIVertex_t1204258818_TisUIVertex_t1204258818_m512606409_gshared
ZXc:__Z21ArrayElementTypeCheckP11Il2CppArrayPv
Mzj:_emscripten_glTexSubImage2D__wrapper
Clf:_NameValueCollection_AsSingleString_m10599052
SQb:__ZN14qsort_internal30FindAndMovePivotToLastPositionIP21ForwardRenderPassDataiN23ForwardShaderRenderLoop18RenderObjectSorterILb0EEEEEvT_S6_T0_T1_
RBe:_Object_InternalGetHashCode_m1371384246
Mvg:_Navigation_get_defaultNavigation_m2185194207
Cjj:__ZL73LayoutElement_t2808691390_CustomAttributesCacheGenerator_m_FlexibleHeightP21CustomAttributesCache
vpe:_Int32_System_IConvertible_ToSByte_m1449623243_AdjustorThunk
ije:_AccessViolationException__ctor_m1270251537
AQc:__Z42Register_UnityEngine_Canvas_get_rootCanvasv
dth:_X509ExtensionCollection_IndexOf_m3972100651
$nb:__Z14resize_trimmedINSt3__26vectorI8MonoPPtr13stl_allocatorIS2_L18MemLabelIdentifier1ELi16EEEEEvRT_j
Qe:_TTF_RenderText_Solid
nPf:_UInt32_System_IConvertible_ToInt64_m3091851828
_ye:_MissingMethodException__ctor_m3898429715
Tyf:_RemotingConfiguration_RegisterClientProviderTemplate_m514821425
MEg:_Enumerator_System_Collections_IEnumerator_Reset_m3085583937_gshared
R7:__ZN15dense_hashtableINSt3__24pairIKPKcPK4RTTIEES3_N11TypeManager23ConstCharPtrHashFunctorEN14dense_hash_mapIS3_S7_SA_NS9_19ConstCharPtrEqualToE13stl_allocatorIS8_L18MemLabelIdentifier7ELi16EEE9SelectKeyESC_SF_E15insert_noresizeERKS8_
vge:_RSAManaged_ExportParameters_m2873993187
CGd:_Convert__cctor_m926133987
IRe:_Enumerator__ctor_m2816143215_AdjustorThunk
jVc:__ZN11UnityEngine7Connect16PersistentValuesC2Ev
Dqf:_X509Chain_FindParent_m404663796
Ppc:__Z18Transfer_BlittableI9JSONWriteLb0E5RectTIiEEvRK29SerializationCommandArgumentsR31RuntimeSerializationCommandInfo
Zye:_MissingMemberException__ctor_m2164043278
wWh:__ZL7log2_32j
oVe:_Collection_1_CopyTo_m2282972507_gshared
Kfd:_BaseVertexEffect__ctor_m358261091
moa:__Z15IsIEEE754Format14GraphicsFormat
Grb:__Z19TransferField_ArrayI17RemapPPtrTransfer27Converter_UnityEngineObjectEvRK23StaticTransferFieldInfoR31RuntimeSerializationCommandInfoRT0_
Za:invoke_iifiii
U3:__ZN13RuntimeStaticINSt3__23mapIN4core12basic_stringIcNS2_20StringStorageDefaultIcEEEES6_NS0_4lessIS6_EE13stl_allocatorINS0_4pairIKS6_S6_EEL18MemLabelIdentifier13ELi16EEEELb0EE16StaticInitializeEPv
$Si:__ZL53HMACSHA384_t3026079344_CustomAttributesCacheGeneratorP21CustomAttributesCache
Zqe:_NumberFormatter_InitDecHexDigits_m1612588520
cca:__ZN13GfxDeviceGLES15UploadTexture2DE9TextureID16TextureDimensionPKhiii14GraphicsFormati18TextureUploadFlags16TextureUsageMode
W5c:_Single_GetHashCode_m3102305584_AdjustorThunk
Waj:__ZL77GUISkin_t1436893342_CustomAttributesCacheGenerator_m_horizontalScrollbarThumbP21CustomAttributesCache
u6d:_Array_swap_TisVector3_t2243707580_m3036634038_gshared
OJ:__ZN4FMOD6System9createDSPEP20FMOD_DSP_DESCRIPTIONPPNS_3DSPE
Px:__ZN7mecanim9animation26DestroyControllerWorkspaceEPNS0_19ControllerWorkspaceERNS_6memory9AllocatorE
Wgh:_UriParser_set_SchemeName_m3624672465
RF:__ZN4FMOD8ChannelI11EndCallbackEv
T1c:_ToBase64Transform_TransformBlock_m2201454137
Wlc:__ZN8GUIStyle14SetDefaultFontEPN13TextRendering4FontE
eZf:_OpCode_get_StackBehaviourPop_m3787015663_AdjustorThunk
Ebh:_PatternCompiler_EmitCount_m3609178511
i_a:__ZN15QualitySettings23VirtualRedirectTransferER24GenerateTypeTreeTransfer
udj:__ZL89PointerEventData_t1599784723_CustomAttributesCacheGenerator_U3CpositionU3Ek__BackingFieldP21CustomAttributesCache
k8h:__ZN6il2cpp2os10FileHandleC2Ev
hcg:__Z48RuntimeInvoker_SByte_t454417549_SByte_t454417549PFvvEPK10MethodInfoPvPS4_
F6f:__Z65RuntimeInvoker_Void_t1841601450_SByte_t454417549_SByte_t454417549PFvvEPK10MethodInfoPvPS4_
Fsg:__Z54RuntimeInvoker_KeyValuePair_2_t888819835_RuntimeObjectPFvvEPK10MethodInfoPvPS4_
Csg:__Z65RuntimeInvoker_DictionaryEntry_t3048875398_IntPtr_t_RuntimeObjectPFvvEPK10MethodInfoPvPS4_
HUi:__ZL84Encoding_t663144255_CustomAttributesCacheGenerator_Encoding_GetByteCount_m4104502544P21CustomAttributesCache
Jbd:__ZN23InterfaceActionInvoker1IP25AxisEventData_t1524870173E6InvokeEjP11Il2CppClassP12Il2CppObjectS1_
Xxf:_ObjRef_set_TypeInfo_m1661789743
h$h:__ZN30dense_hashtable_const_iteratorINSt3__24pairIK10KeyWrapperIPK19Il2CppGenericMethodEPK26Il2CppGenericMethodIndicesEES6_N6il2cpp8metadata23Il2CppGenericMethodHashEN14dense_hash_mapIS6_SA_SE_NS6_14EqualsComparerINSD_26Il2CppGenericMethodCompareEEENS0_9allocatorISB_EEE9SelectKeyESI_SK_EppEv
wkf:_HybridDictionary_Add_m1037587952
$xc:_UNITY_FT_Request_Metrics
VHa:__Z37GetBarycentricCoordinatesForOuterCellPPK8Vector3fRK13dynamic_arrayIS_Lj4EERS0_RK11TetrahedronR8Vector4fRf
bni:__ZN6il2cpp6icalls8mscorlib6System10Reflection10MonoMethod29get_IsGenericMethodDefinitionEP22Il2CppReflectionMethod
Hji:__ZN6il2cpp2vm6Thread21AllocThreadStaticDataEi
reh:__ZN23InterfaceActionInvoker4IiibP19LinkRef_t2090853131E6InvokeEjP11Il2CppClassP12Il2CppObjectiibS1_
FHd:_DateTime_YearMonthDayFormats_m4204607055
khd:_ColorBlock_set_disabledColor_m3502887543_AdjustorThunk
Rvi:__ZN30dense_hashtable_const_iteratorINSt3__24pairIK10KeyWrapperIPK19Il2CppGenericMethodEP10MethodInfoEES6_N6il2cpp8metadata23Il2CppGenericMethodHashEN14dense_hash_mapIS6_S9_SD_NS6_14EqualsComparerINSC_26Il2CppGenericMethodCompareEEENS0_9allocatorISA_EEE9SelectKeyESH_SJ_EppEv
uO:__Z13RegisterClassI13AudioListenerEvv
crg:__Z48RuntimeInvoker_Link_t865133271_Int32_t2071877448PFvvEPK10MethodInfoPvPS4_
PKh:_Aes__ctor_m4020215067
mpc:__Z18Transfer_BlittableI9JSONWriteLb0E8Vector3fEvRK29SerializationCommandArgumentsR31RuntimeSerializationCommandInfo
x4:__ZN13RuntimeStaticI17UniqueIDGeneratorLb0EE13StaticDestroyEPv
Pf:_emscripten_glUniform4i
gTi:__ZL46MD5_t1507972490_CustomAttributesCacheGeneratorP21CustomAttributesCache
Jld:_Graphic_OnDisable_m2360886868
hKh:_ObjectPool_1_Release_m1615270002_gshared
$e:_emscripten_glUniform4f
vj:___unlock
Kyi:_GC_default_oom_fn
Jza:__ZN15dense_hashtableINSt3__24pairIKN4core12basic_stringIcNS2_20StringStorageDefaultIcEEEEP20ArchiveStorageReaderEES6_20StringHash32FunctionIS6_EN14dense_hash_mapIS6_S9_SC_NS0_8equal_toIS6_EE13stl_allocatorISA_L18MemLabelIdentifier55ELi16EEE9SelectKeyESF_SI_ED2Ev
pzg:_ScrollRect_InternalCalculateOffset_m3083065267
tZg:_InternalEnumerator_1_System_Collections_IEnumerator_Reset_m1561424184_AdjustorThunk
uYb:__ZN13sorted_vectorINSt3__24pairIN4core12basic_stringIcNS2_20StringStorageDefaultIcEEEES6_EEN10vector_mapIS6_S6_27compare_tstring_insensitiveIS6_E13stl_allocatorIS7_L18MemLabelIdentifier38ELi16EEE13value_compareESD_E9erase_oneIS6_EEjRKT_
CCd:_Comparer_Compare_m4132969818
XL:__ZN20SoundChannelInstance19setReverbPropertiesEP29FMOD_REVERB_CHANNELPROPERTIES
trd:_U3CCaretBlinkU3Ec__Iterator0_System_Collections_Generic_IEnumeratorU3CobjectU3E_get_Current_m3541562536
w1g:_InternalEnumerator_1__ctor_m2808001655_AdjustorThunk
z_g:_InternalEnumerator_1_System_Collections_IEnumerator_Reset_m2571770313_AdjustorThunk
A_f:_FieldInfo_get_UMarshal_m1934544188
AOg:_DefaultComparer_Equals_m2171836276_gshared
t8:__ZN13RuntimeStaticI18SpriteAtlasManagerLb0EE13StaticDestroyEPv
Zli:__ZN6il2cpp2vm9Exception18GetFormatExceptionEPKc
dRi:__ZL55IMessageSink_t2189618969_CustomAttributesCacheGeneratorP21CustomAttributesCache
zjc:__Z40Register_UnityEngine_Transform_IsChildOfv
foh:_Mathf_Floor_m484333823
uAd:_ArrayList_Sort_m923359189
KCg:_Text_CalculateLayoutInputVertical_m1732119136
Mmh:_Gradient_Init_m3042650694
rec:__Z45Register_UnityEngine_Display_GetSystemExtImplv
mua:__ZN9GfxDevice31DrawIndexedNullGeometryIndirectE16GfxPrimitiveTypeP9GfxBuffer15ComputeBufferIDj
Eu:__ZN7mecanim9animation23TransformValuesFromClipEiiiRKNS_10ValueArrayERKNS0_10ClipOutputERKNS0_12ClipBindingsERS1_RNS_14ValueArrayMaskEb
Die:_X509Certificate_GetSubjectName_m2120755276
c9:__ZN30dense_hashtable_const_iteratorINSt3__24pairIKN4core12basic_stringIcNS2_20StringStorageDefaultIcEEEE13dynamic_arrayI4PPtrI6SpriteELj4EEEES6_20StringHash32FunctionIS6_EN14dense_hash_mapIS6_SC_SF_NS0_8equal_toIS6_EE13stl_allocatorISD_L18MemLabelIdentifier81ELi16EEE9SelectKeyESI_SL_EC2EPK15dense_hashtableISD_S6_SF_SN_SI_SL_EPKSD_SU_b
tWh:__ZL17log2withScale_128yyi
i3i:__ZL58ResourceRequest_t2560315377_CustomAttributesCacheGeneratorP21CustomAttributesCache
IMc:__ZNSt3__218__insertion_sort_3IRNS_6__lessIN2UI14DepthSortEntryES3_EEPS3_EEvT0_S7_T_
s1b:__ZN2UI13RectTransform15InitializeClassEv
Q5:__ZN13RuntimeStaticI15DirectorManagerLb0EE16StaticInitializeEPv
itc:__ZN8JSONRead8TransferI23ManagedObjectTransfererEEvRT_PKc17TransferMetaFlagsb
uKf:_Thread_get_ManagedThreadId_m1995754972
hRh:__ZL25UnresolvedVirtualCall_191P12Il2CppObjectsPK10MethodInfo
M9c:_BaseInput_get_touchCount_m998724785
v5a:__ZN11TimeManager6UpdateEv
Nsh:_X509Chain_get_Status_m2726750609
krd:_InputField_get_preferredWidth_m3185355225
oYe:_Collection_1_RemoveItem_m1406181352_gshared
lKf:_Thread_SetState_m3198426726
OAd:_ArrayListWrapper_Contains_m1158465965
h6d:_Array_swap_TisColor32_t874517518_m2203309732_gshared
U7e:_BigInteger_op_LessThan_m3825358479
hpj:_fflush
xGa:__ZN17LightProbeContext4InitERK16LightmapSettingsRK14RenderSettings
wwd:_Convert_ToInt32_m55151042
mGi:__GLOBAL__sub_I_Error_cpp
nlj:_AudioSource_INTERNAL_CALL_ReadExtensionPropertyName_m3694806886
Pdh:_Alternation_GetWidth_m4218808325
y4e:_ReadOnlyCollection_1_System_Collections_IList_Insert_m2651065875_gshared
GIa:__ZN10ColorRGBAf8TransferI19StreamedBinaryWriteILb0EEEEvRT_
Rzc:_ft_bitmap_glyph_bbox
Jlf:_TypeConverterAttribute__ctor_m4061167050
nRh:__ZL25UnresolvedVirtualCall_197P12Il2CppObject22ColorBlock_t2652774230PK10MethodInfo
jRe:_Enumerator_MoveNext_m3315718998_gshared
rsi:__ZNSt3__26vectorI20Il2CppStackFrameInfoNS_9allocatorIS1_EEE7reserveEj
k5i:__ZL75SpriteAtlasManager_t308281693_CustomAttributesCacheGenerator_atlasRequestedP21CustomAttributesCache
GMg:_Dictionary_2_ContainsValue_m2760581195_gshared
tAi:_GC_reclaim_uninit
hUb:__Z34ProcessIndexListIsNodeVisibleStep2RK22SceneCullingParametersPK9SceneNodePK4AABBR9IndexList
zDb:__ZN10MonoScriptD2Ev
Aka:__ZN6prcoreL12RemapGenericI17TexFormatARGB888817TexFormatBGRA8888EEvPKNS_9InnerInfoE
wBg:_Slider_OnRectTransformDimensionsChange_m4109401172
Nnf:_WebHeaderCollection_Get_m3391944907
Nfc:__Z39Input_CUSTOM_INTERNAL_get_mousePositionP8Vector3f
XCc:_tt_cmap13_char_next
jzf:_ServerIdentity__ctor_m1576469955
thb:__ZN9ShaderLab4Pass16SetupPassOptionsEv
ch:_JS_Sound_ReleaseInstance
y5i:__ZL72IL2CPPStructAlignmentAttribute_t130316838_CustomAttributesCacheGeneratorP21CustomAttributesCache
bba:__ZN13GfxDeviceGLES19DrawBuffersIndirectEP9GfxBufferPK18VertexStreamSourceiP17VertexDeclaration17ShaderChannelMask16GfxPrimitiveType15ComputeBufferIDj
PMe:_List_1_Shift_m439051997_gshared
Sid:_DefaultControls_CreateScrollbar_m770089625
m6g:_InAttribute__ctor_m1401060713
xyj:_emscripten_glPixelStorei__wrapper
Cfg:__Z98RuntimeInvoker_Void_t1841601450_Int32_t2071877448_Int32_t2071877448_SByte_t454417549_RuntimeObjectPFvvEPK10MethodInfoPvPS4_
hPd:_Decimal_System_IConvertible_ToDecimal_m1541432424_AdjustorThunk
IAb:__Z29Transfer_Blittable_ArrayFieldI18StreamedBinaryReadILb0EEaEvRT_R9ArrayInfoRK23StaticTransferFieldInfo
Am:FUNCTION_TABLE_diddi
YEf:_EncoderExceptionFallbackBuffer__ctor_m3538569575
Dhc:__Z26Material_CUSTOM_SetIntImplP12Il2CppObjectii
r6i:__ZL108StackTraceUtility_t1881293839_CustomAttributesCacheGenerator_StackTraceUtility_ExtractStackTrace_m2375126700P21CustomAttributesCache
jne:_Int16_System_IConvertible_ToSingle_m3277935657_AdjustorThunk
l5h:__ZNSt3__26vectorIPK10MethodInfoNS_9allocatorIS3_EEE21__push_back_slow_pathIRKS3_EEvOT_
djf:_SslStreamBase_get_KeyExchangeAlgorithm_m3712013038
fah:_InternalRemotingServices__cctor_m3821625125
Dfc:__Z42Register_UnityEngine_RectOffset_get_bottomv
rHf:_StringBuilder_Insert_m3322917127
JNg:_DefaultComparer_Equals_m724229128_gshared
jMe:_List_1__cctor_m1337542316_gshared
BFg:_Enumerator_VerifyCurrent_m1702320752_AdjustorThunk
Xuf:__ZN21InterfaceFuncInvoker0IP24ObjectU5BU5D_t3614634134E6InvokeEjP11Il2CppClassP12Il2CppObject
Lpb:__ZN9BoundsInt8TransferI14SafeBinaryReadEEvRT_
tJd:_Convert_ToDouble_m3520060872
Sxj:_emscripten_glUniform1f__wrapper
Rsj:dynCall_di
Nhf:_SslCipherSuite_ComputeServerRecordMAC_m1876572367
gxc:__ZN20TextRenderingPrivate19NativeTextGeneratorC2ERK11UTF16StringPNS_8FontImplE11ColorRGBA32ifRK8Vector2fbifiibffbbbP13dynamic_arrayIN2UI8UIVertexELj4EE
Voc:__Z28RegisterModule_JSONSerializev
AJf:_Interlocked_CompareExchange_m3227034792
JYc:_HashAlgorithm_get_Hash_m931854461
T7h:_il2cpp_monitor_enter
A2g:_DefaultComparer_Compare_m3564013922_gshared
vib:__ZN2UI13RectTransform8TransferI14SafeBinaryReadEEvRT_
fqc:__Z35Transfer_Blittable_FixedBufferFieldI9JSONWriteaEvRK29SerializationCommandArgumentsR31RuntimeSerializationCommandInfo
B9b:__Z20IsHumanControllingUsv
WJb:__ZNK19RenderEventsContext21ExecuteCommandBuffersEijR17ShaderPassContextR15RenderNodeQueueP19ProfilerInformationi
SWe:_Collection_1_RemoveAt_m3454169520_gshared
UV:__ZNK20DynamicHeapAllocatorI17LowLevelAllocatorE10GetPtrSizeEPKv
zzh:_Texture2D_GetPixelBilinear_m3514551520
$u:__ZN17AnimationPlayable16AllocateBindingsEPK35AnimationPlayableEvaluationConstant
Djd:_Dropdown_set_value_m2945561009
Uaa:__ZN13GfxDeviceGLES17DestroyGpuProgramEPK10GpuProgram
tke:_GregorianCalendar_GetMonth_m523739832
jmb:__Z44InitializeTransferFunctionScriptingTraitsForI18StreamedBinaryReadILb0EEEvR31TransferFunctionScriptingTraits
gQb:__ZNSt3__218__insertion_sort_3IR23CompareReflectionProbesP31RuntimeReflectionProbeBlendInfoEEvT0_S5_T_
Qrb:__ZN12NativeBufferI27Converter_SimpleNativeClassI8GradientEE15SetupForWritingER9ArrayInfo
G8:__ZNSt3__213__stable_sortIRNS_4lessIN4core12basic_stringIcNS2_20StringStorageDefaultIcEEEEEENS_11__wrap_iterIPS6_EEEEvT0_SC_T_NS_15iterator_traitsISC_E15difference_typeEPNSF_10value_typeEi
H0e:_ReadOnlyCollection_1_System_Collections_ICollection_get_IsSynchronized_m2987885125_gshared
EX:__ZN12_GLOBAL__N_113StaticDestroyEPv
Ime:_Guid_ToString_m51661589
AKg:_Dictionary_2__ctor_m1512192236_gshared
bCg:_Text_set_font_m1095513810
BCj:_glUnmapBuffer__wrapper
IMd:_DateTime_System_IConvertible_ToUInt32_m1363211018_AdjustorThunk
Dod:_InputField_get_cachedInputTextGenerator_m881618486
Egc:__Z32Mesh_CUSTOM_ExtractArrayFromListP12Il2CppObject
ZSf:_Binder_get_DefaultBinder_m965620943
Edj:__ZL87PointerEventData_t1599784723_CustomAttributesCacheGenerator_U3CbuttonU3Ek__BackingFieldP21CustomAttributesCache
Ntc:__ZN8JSONRead21TransferSTLStyleArrayINSt3__26vectorI8Gradient13stl_allocatorIS3_L18MemLabelIdentifier1ELi16EEEEEEvRT_17TransferMetaFlags
$ef:_SecurityParameters_Clear_m3409219757
S5a:__ZNSt3__218__insertion_sort_3IRNS_6__lessINS_4pairIPKN5Unity4TypeE7Hash128EES8_EEPS8_EEvT0_SC_T_
K1i:__ZL79Gradient_t3600583008_CustomAttributesCacheGenerator_Gradient_Cleanup_m594482338P21CustomAttributesCache
ytb:__ZN10RectOffset8TransferI24GenerateTypeTreeTransferEEvRT_
Yud:_SimpleEnumerator_get_Current_m482975946
Npj:_srand
Ksb:__Z18Transfer_BlittableI24GenerateTypeTreeTransferLb1E5RectTIiEEvRK29SerializationCommandArgumentsR31RuntimeSerializationCommandInfo
rIa:__ZNSt3__24listI4PPtrI6CameraENS_9allocatorIS3_EEE6removeERKS3_
Zze:_MonoTypeInfo__ctor_m1398838196
rMc:__ZN2UI13CanvasManager19RemoveDirtyRendererEPNS_6CanvasEPNS_14CanvasRendererE
Xgh:_UriParser_set_DefaultPort_m1159216960
dDg:_Toggle_Rebuild_m929023818
g0h:__ZN15dense_hashtableI10KeyWrapperIPK17Il2CppGenericInstES4_N6il2cpp8metadata21Il2CppGenericInstHashEN14dense_hash_setIS4_S7_NS4_14EqualsComparerINS6_24Il2CppGenericInstCompareEEENSt3__29allocatorIS4_EEE8IdentityESB_SE_E12resize_deltaEjj
Hac:__ZN8Material14DisableKeywordERKN4core12basic_stringIcNS0_20StringStorageDefaultIcEEEE
_ih:_CameraCallback_EndInvoke_m1254702166
URc:__ZN11UnityEngine15PlatformWrapper25GetGraphicsRendererStringEv
I4i:__ZL97Transform_t3275118058_CustomAttributesCacheGenerator_Transform_INTERNAL_get_localScale_m275445901P21CustomAttributesCache
yqd:_InputField_KeyPressed_m3066588581
BAg:_Selectable_DoStateTransition_m539253088
a1c:_SHA512_Create_m439875055
BU:__ZN11UnityEngine15CloudWebService17WebFileDownloaderINS0_20WebRequestRestClientENS0_23WebRequestRestHeaderMapEED2Ev
Qb:invoke_vi
U0c:_SHA384Managed_update_m2629600295
mjj:__ZL68GridLayoutGroup_t1515633077_CustomAttributesCacheGenerator_m_SpacingP21CustomAttributesCache
urc:__ZN9JSONWrite8TransferI13dynamic_arrayI9BoundsIntLj4EEEEvRT_PKc17TransferMetaFlags
Ob:invoke_vd
pb:invoke_vf
g0g:_InternalEnumerator_1__ctor_m32322958_AdjustorThunk
a3:__ZNK10GameObject8IsActiveEv
iBe:_NumberFormatter__cctor_m1641464619
jbj:__ZL67g_UnityEngine_PhysicsModule_Assembly_CustomAttributesCacheGeneratorP21CustomAttributesCache
eDf:_SByte_System_IConvertible_ToUInt32_m4256495110
qcd:_PointerEventData_set_eligibleForClick_m2036057844
aoa:__ZN18GfxFramebufferGLES23SetupDefaultFramebufferEPP17RenderSurfaceBaseS2_N2gl6HandleILNS3_10ObjectTypeE9EEE
ppj:_mbsinit
Icj:__ZL70EventSystem_t3466835263_CustomAttributesCacheGenerator_m_FirstSelectedP21CustomAttributesCache
l$a:__ZN13ScreenManager18RequestOrientationE17ScreenOrientation
WYh:__ZN6il2cpp2vm5Class12SetupMethodsEP11Il2CppClass
Yac:__Z39DeleteLastPathNameComponentWithAnySlashRKN4core12basic_stringIcNS_20StringStorageDefaultIcEEEE
Wkc:__ZN10GUIManager14InitGUIManagerEv
ZVi:__ZL62ApplicationException_t474868623_CustomAttributesCacheGeneratorP21CustomAttributesCache
Egj:__ZL68InputField_t1631627530_CustomAttributesCacheGenerator_m_KeyboardTypeP21CustomAttributesCache
HDg:_VerticalLayoutGroup_CalculateLayoutInputHorizontal_m497637066
Nfd:_Button_get_onClick_m1595880935
CJh:_ListPool_1_Release_m3716853512_gshared
gbg:__Z134RuntimeInvoker_Int32_t2071877448_RuntimeObject_Int32_t2071877448_Int32_t2071877448_RuntimeObject_Int32_t2071877448_Int32U26_t455636984PFvvEPK10MethodInfoPvPS4_
Jvf:_MethodCall__ctor_m4106494862
l7f:__Z167RuntimeInvoker_Void_t1841601450_SByte_t454417549_SByte_t454417549_SByte_t454417549_SByte_t454417549_SByte_t454417549_SByte_t454417549_SByte_t454417549_SByte_t454417549PFvvEPK10MethodInfoPvPS4_
dnc:__Z37Register_UnityEngine_GUIStyle_Cleanupv
Ma:invoke_iiifii
G5b:__ZN8GUILayer12AddToManagerEv
E5h:__ZN6il2cpp6icalls8mscorlib6System8MonoType13IsPointerImplEP20Il2CppReflectionType
dJd:_Convert_ToDecimal_m2284596541
Oi:_emscripten_glFramebufferRenderbuffer
YSb:__ZN19CullingGroupManager17CullAndSendEventsERK22SceneCullingParametersiRK13CullingOutputRK8JobFence
c_i:__ZL64CipherSuiteCollection_t2431504453_CustomAttributesCacheGeneratorP21CustomAttributesCache
Aog:__Z105RuntimeInvoker_Int32_t2071877448_RuntimeObject_UILineInfo_t3621277874_Int32_t2071877448_Int32_t2071877448PFvvEPK10MethodInfoPvPS4_
cgf:_TlsServerCertificateRequest_ProcessAsSsl3_m3017921864
Kqe:_Int64_GetHashCode_m4047499913
jEa:__ZN9Transform30EnsureTransformHierarchyExistsEv
p7h:_il2cpp_field_get_flags
QN:__ZN11AudioModule26SetDefaultMicrophoneDriverEPv
kig:__Z52RuntimeInvoker_Vector4_t2243707581_Color_t2020392075PFvvEPK10MethodInfoPvPS4_
uvd:_Attribute_IsDefined_m216577166
yzd:_Char_ToUpper_m109978609
DXg:_InternalEnumerator_1_get_Current_m1089848479_gshared
xRd:_Double_System_IConvertible_ToInt64_m3798425616
$dd:_StandaloneInputModule_get_repeatDelay_m3025279
F0a:__ZN14dense_hash_mapIN4core12basic_stringIcNS0_20StringStorageDefaultIcEEEE13dynamic_arrayI4PPtrI6SpriteELj4EE20StringHash32FunctionIS4_ENSt3__28equal_toIS4_EE13stl_allocatorINSC_4pairIKS4_S9_EEL18MemLabelIdentifier81ELi16EEEixERSH_
lYb:__ZNSt3__26vectorINS_4pairIN4core12basic_stringIcNS2_20StringStorageDefaultIcEEEEPK17MessageIdentifierEENS_9allocatorISA_EEE12__move_rangeEPSA_SE_SE_
hyh:_SceneManager_LoadSceneAsyncNameIndexInternal_m1250496078
pMb:__ZN14qsort_internal17MedianOfThreeSwapIP17RODataReplacement19ROSorterReplacementEEvT_S4_S4_T0_
kkg:__Z60RuntimeInvoker_FramePressState_t1414739712_Int32_t2071877448PFvvEPK10MethodInfoPvPS4_
qUe:_Collection_1_System_Collections_IList_Insert_m3303840316_gshared
NXh:__ZNK15dense_hashtableINSt3__24pairIK10KeyWrapperIPK22Il2CppGenericParameterEP11Il2CppClassEES6_N6il2cpp5utils11PointerHashIS4_EEN14dense_hash_mapIS6_S9_SE_NS6_14EqualsComparerINS0_8equal_toIS5_EEEENS0_9allocatorISA_EEE9SelectKeyESJ_SL_E3endEv
Uac:__ZN17TransformInternal36OnScaleChangedCalculateTransformTypeE15TransformAccess
SBd:_SynchronizedArrayListWrapper_InsertRange_m709359548
aAa:__ZN17ArchiveFileSystem10ToAbsoluteEPKc
O7e:_BigInteger_op_Modulus_m13450242
dId:_DateTime__ctor_m3604679583
HSc:__ZN19UnityConnectService15GetPlayerUserIdEv
VJd:_Convert_ToInt32_m2988544165
U4d:_Array_Resize_TisColor32_t874517518_m2219502085_gshared
zz:__ZN7mecanim6CRCKeyENS_7eStringE
Fjf:_SslStreamBase_get_CanWrite_m2069502593
y8b:__ZL12SetPrefValueRKN4core12basic_stringIcNS_20StringStorageDefaultIcEEEERK9PrefValue
Tcb:__ZL30ReconstructParamNamesFromTableIN9ShaderLab20SerializedSubProgram15MatrixParameterEEvRK14dense_hash_mapIiN4core17string_with_labelILi1EEE18SInt32HashFunctionNSt3__28equal_toIiEE13stl_allocatorINS8_4pairIKiS6_EEL18MemLabelIdentifier1ELi16EEERNS8_6vectorIT_NS8_9allocatorISL_EEEE
MTa:__ZL13SortTexByNameRKNSt3__24pairIN9ShaderLab16FastPropertyNameEN18UnityPropertySheet11UnityTexEnvEEES7_
Awi:__ZN6il2cpp5utils11StringUtils6PrintfEPKcz
Dii:__ZNSt3__26vectorIN6il2cpp8metadata18GenericArrayMethodENS_9allocatorIS3_EEE7reserveEj
cUa:__ZN15NameToObjectMapI6ShaderNSt3__23mapI4PPtrIS0_EN4core12basic_stringIcNS5_20StringStorageDefaultIcEEEENS1_4lessIS4_EENS1_9allocatorINS1_4pairIKS4_S9_EEEEEENS1_8multimapIS9_S4_NSA_IS9_EENSC_INSD_IKS9_S4_EEEEEEE4FindERSK_
JFg:_ShimEnumerator_Reset_m98005789_gshared
JVa:__ZN24GenerateTypeTreeTransfer21TransferResourceImageE19ActiveResourceImagePKcR13StreamingInfoPvjiPKN5Unity4TypeE
R9e:_PKCS1_Compare_m552424558
jAb:__Z18Transfer_BlittableI18StreamedBinaryReadILb0EELb0EyEvRK29SerializationCommandArgumentsR31RuntimeSerializationCommandInfo
u2e:_ReadOnlyCollection_1_System_Collections_IList_set_Item_m1377990618_gshared
SXf:_ILGenerator_make_room_m373147874
kNg:_Dictionary_2_Init_m1045257495_gshared
hzf:_SingleCallIdentity__ctor_m1512303454
Pcf:_TlsClientSettings_set_TargetHost_m3421266913
Q_d:_Array_InternalArray__IndexOf_TisKeyValuePair_2_t888819835_m2660446234_gshared
Wfe:_PKCS1_Verify_v15_m2571212635
ePa:__ZNSt3__212__deque_baseI18ReflectionProbeJobNS_9allocatorIS1_EEED2Ev
Xy:__ZN11UnityEngine9Animation27DestroyAnimationSetBindingsEPNS0_20AnimationSetBindingsERN7mecanim6memory9AllocatorE
Zcb:__ZN15dense_hashtableINSt3__24pairIKiN4core17string_with_labelILi1EEEEEi18SInt32HashFunctionN14dense_hash_mapIiS5_S7_NS0_8equal_toIiEE13stl_allocatorIS6_L18MemLabelIdentifier1ELi16EEE9SelectKeyESA_SD_E13set_empty_keyERKS6_
QD:__ZN8Animator12CleanupClassEv
OEf:_DecoderReplacementFallbackBuffer__ctor_m1305504326
Ltc:__Z13TransferFieldI8JSONReadLb0E27Converter_SimpleNativeClassI10RectOffsetEEvRK23StaticTransferFieldInfoR31RuntimeSerializationCommandInfoRT1_
j7c:_String_IndexOf_m570401060
mod:_Image_CalculateLayoutInputVertical_m1340533162
hSd:_Enum_System_IConvertible_ToDateTime_m2924690746
dkd:_Dropdown_CreateBlocker_m4109366440
EYc:_HashAlgorithm_System_IDisposable_Dispose_m2106335965
Api:__GLOBAL__sub_I_GenericMetadata_cpp
cBe:_NotImplementedException__ctor_m1305569814
_9i:__ZL67GUISettings_t622856320_CustomAttributesCacheGenerator_m_CursorColorP21CustomAttributesCache
S4h:__ZN6il2cpp6icalls8mscorlib6System8MonoType18GetFields_internalEP20Il2CppReflectionTypeiS5_
KTb:__Z24CalculateSpotLightBoundsffRK10Matrix4x4fR15SpotLightBounds
N9d:_TailoringInfo__ctor_m2248501932
QQa:__ZNK13RenderTexture21GetShadowSamplingModeEv
SQ:__ZN23CloudWebServicesManager23VirtualRedirectTransferER14SafeBinaryRead
S6f:__Z150RuntimeInvoker_Int32_t2071877448_RuntimeObject_Int32_t2071877448_Int32_t2071877448_RuntimeObject_Int32_t2071877448_Int32_t2071877448_Int32_t2071877448PFvvEPK10MethodInfoPvPS4_
oBd:_FixedSizeArrayListWrapper_InsertRange_m2690348965
cDb:__Z19ShouldTransferFieldR32SerializationCommandQueueBuilder17ScriptingClassPtriR18TransferField_InfoRK20CoreScriptingClasses
PZf:_FieldInfo_get_IsStatic_m1411173225
R0i:__ZL97Component_t3819376471_CustomAttributesCacheGenerator_Component_GetComponentInChildren_m2766208945P21CustomAttributesCache
gve:_MemoryStream_Read_m2289595005
Esa:__ZN26SinglePassStereoSupportExt21SetStereoMatrixCommonE21MonoOrStereoscopicEye24BuiltinShaderMatrixParamRK10Matrix4x4f
uK:__ZN5audio5mixer22UpdateAudioMixerMemoryERKNS0_18AudioMixerConstantERNS0_16AudioMixerMemoryEfPN4FMOD6SystemEf
Ovc:__ZL21InitializeCachedStripPv
wYc:_SignatureDescription_set_DigestAlgorithm_m3219799565
Qki:__ZN6il2cpp6icalls8mscorlib6System9Threading6Thread23GetCachedCurrentCultureEP12Il2CppThread
H7i:__ZL94PlayerEditorConnectionEvents_t2252784345_CustomAttributesCacheGenerator_messageTypeSubscribersP21CustomAttributesCache
Wzg:_Selectable_get_allSelectables_m3045831006
YFa:__ZNK6Camera22GetWorldToCameraMatrixEv
evd:_ArrayTypeMismatchException__ctor_m2892687300
msi:__ZN6il2cpp2vm12GenericClass11IsValueTypeEP18Il2CppGenericClass
o6f:__Z49RuntimeInvoker_TypeCode_t2536926201_RuntimeObjectPFvvEPK10MethodInfoPvPS4_
P4i:__ZL95Transform_t3275118058_CustomAttributesCacheGenerator_Transform_Rotate_m976738541____relativeTo1P21CustomAttributesCache
$Bb:__ZN13MonoBehaviour7SetNameEPKc
Iaf:_ContentInfo__ctor_m3579805263
w_h:__ZN15dense_hashtableINSt3__24pairIK10KeyWrapperIPKcEP11Il2CppClassEES5_N6il2cpp5utils11StringUtils12StringHasherIS4_EEN14dense_hash_mapIS5_S8_SE_NS5_14EqualsComparerINSB_13VmStringUtils21CaseSensitiveComparerEEENS0_9allocatorIS9_EEE9SelectKeyESJ_SL_E15set_deleted_keyERKS9_
czg:_ScrollRect_get_verticalNormalizedPosition_m1701804869
hX:__GLOBAL__sub_I_runtime_shaders_shaderimpl_0_cpp
dhj:__ZL138U3CMouseDragOutsideRectU3Ec__Iterator1_t2599668326_CustomAttributesCacheGenerator_U3CMouseDragOutsideRectU3Ec__Iterator1__ctor_m1439320044P21CustomAttributesCache
v9a:__ZN18AwakeFromLoadQueue5ClearEv
XHg:_Enumerator_get_Current_m2986380627_AdjustorThunk
nSb:__ZNSt3__27__sort5IR15ReflProbeSorterPP15ReflectionProbeEEjT0_S6_S6_S6_S6_T_
m6:__ZN8Playable10DisconnectEPS_i
UUg:_InternalEnumerator_1_get_Current_m1526874475_AdjustorThunk
qk:_glGenTransformFeedbacks
Mya:__ZN13LoadOperationD2Ev
Cee:_KeyPairPersistence__ctor_m1817312194
NUh:_Canvas_set_scaleFactor_m3986864146
pWd:_Array_InternalArray__ICollection_Contains_TisMark_t2724874473_m1640201705_gshared
O6g:_ActivatedClientTypeEntry_get_ContextAttributes_m53051138
SFb:__Z21PlayerStartFirstSceneb
HVf:_TypeBuilder_get_AssemblyQualifiedName_m2097258567
RTa:__ZNSt3__27__sort5IRPFbRKNS_4pairIN9ShaderLab16FastPropertyNameEN18UnityPropertySheet11UnityTexEnvEEES8_EPS6_EEjT0_SD_SD_SD_SD_T_
Vfa:__ZNK7ApiGLES18GetExtensionStringEv
gra:__ZN31TransformFeedbackSkinPoseBufferD0Ev
Txj:_emscripten_glVertexAttrib1f__wrapper
Uwg:_RaycastAllCallback__ctor_m3281594834
Rif:_SslStreamBase_get_MightNeedHandshake_m3432170694
fOg:_DefaultComparer_Equals_m1281232537_gshared
hKi:__ZL99RuntimeFieldHandle_t2331729674_CustomAttributesCacheGenerator_RuntimeFieldHandle_Equals_m1202966418P21CustomAttributesCache
Wo:FUNCTION_TABLE_iiiiiiiii
Lpd:_InputField_set_asteriskChar_m619206227
qEf:_DES_IsSemiWeakKey_m3967392585
j6e:_Comparison_1__ctor_m2159122699_gshared
pne:_Int16_System_IConvertible_ToUInt32_m883204517_AdjustorThunk
g1f:_MonoProperty_get_PropertyType_m1921201152
xid:_FloatTween_TweenValue_m3881535116_AdjustorThunk
hzi:_GC_allochblk
K9a:__Z15UnloadGameScenev
wCj:_glCheckFramebufferStatus__wrapper
vbg:__Z43RuntimeInvoker_Boolean_t3825574718_IntPtr_tPFvvEPK10MethodInfoPvPS4_
q8a:__ZNSt3__26vectorIN30RuntimeInitializeOnLoadManager15ClassMethodInfoE13stl_allocatorIS2_L18MemLabelIdentifier13ELi16EEE7reserveEj
c7i:__ZL59WriteOnlyAttribute_t14323075_CustomAttributesCacheGeneratorP21CustomAttributesCache
RCi:__ZN6il2cpp2vm6Atomic9IncrementEPVi
Gfi:__ZN15dense_hashtableINSt3__24pairIK10KeyWrapperIPK14Il2CppAssemblyEPK22Il2CppMonoAssemblyNameEES6_N6il2cpp5utils11PointerHashIS4_EEN14dense_hash_mapIS6_SA_SF_NS6_14EqualsComparerINS0_8equal_toIS5_EEEENS0_9allocatorISB_EEE9SelectKeyESK_SM_E5clearEv
GD:__ZN16MecanimAnimationD0Ev
T6e:_BigInteger_get_Rng_m2525288368
WCe:_KeyValuePair_2__ctor_m1640124561_AdjustorThunk
DCd:_CaseInsensitiveHashCodeProvider__ctor_m3775398833
Uvh:_Rect_get_width_m3473344679
$ec:__Z36Renderer_Get_Custom_PropSortingOrderP12Il2CppObject
tEh:_GUIContent__cctor_m976962423
_bi:__ZNK15dense_hashtableINSt3__24pairIK10KeyWrapperIPK10Il2CppTypeEjEES6_N6il2cpp8metadata14Il2CppTypeHashEN14dense_hash_mapIS6_jSB_NS6_14EqualsComparerINSA_26Il2CppTypeEqualityComparerEEENS0_9allocatorIS8_EEE9SelectKeyESF_SH_E13find_positionERS7_
GQa:__ZN7Texture5ResetEv
LAh:_Transform_Rotate_m976738541
ksb:__Z18Transfer_BlittableI24GenerateTypeTreeTransferLb0E8Vector2fEvRK29SerializationCommandArgumentsR31RuntimeSerializationCommandInfo
$rb:__Z18Transfer_BlittableI24GenerateTypeTreeTransferLb1EhEvRK29SerializationCommandArgumentsR31RuntimeSerializationCommandInfo
A3a:__ZN10VertexData10DeallocateEv
q9h:__ZNSt3__214__split_bufferIiRNS_9allocatorIiEEEC2EjjS3_
Dcc:__ZNK16TypeTreeIterator10ByteOffsetEv
old:_Graphic_get_rectTransform_m2697395074
v5:__ZnwjRKSt9nothrow_t
sC:__ZN8Animator11ClearObjectEv
Shg:__Z55RuntimeInvoker_Boolean_t3825574718_Playable_t1896841784PFvvEPK10MethodInfoPvPS4_
dpf:_X500DistinguishedName_Decode_m3070515374
ySa:__ZN14SafeBinaryRead19TransferSTLStyleMapINSt3__23mapI39DeprecatedFastPropertyNameSerializationN18UnityPropertySheet11UnityTexEnvENS1_4lessIS3_EENS1_9allocatorINS1_4pairIKS3_S5_EEEEEEEEvRT_17TransferMetaFlags
Wmf:_IPv6Address_set_ScopeId_m1442934355
v1i:__ZL86GameObject_t1756533147_CustomAttributesCacheGenerator_GameObject_set_layer_m3642810622P21CustomAttributesCache
WKi:__ZL72PKCS12_t1362584794_CustomAttributesCacheGenerator_U3CU3Ef__switchU24mapBP21CustomAttributesCache
vBf:_ObjectManager_RaiseOnDeserializedEvent_m512850179
I7i:__ZL87PlayerEditorConnectionEvents_t2252784345_CustomAttributesCacheGenerator_connectionEventP21CustomAttributesCache
ycc:__Z35UnregisterSerializationCacheBuilderPFv17ScriptingClassPtrR23CachedSerializationDataRbE
OGa:__Z30GetBuiltinVectorParamArraySize24BuiltinShaderVectorParam
fbi:__ZNSt3__218uninitialized_copyIPNS_4pairIK10KeyWrapperINS1_IPK14Il2CppAssemblyP11Il2CppClassEEEjEESC_EET0_T_SE_SD_
y9d:_CodePointIndexer__ctor_m797342079
q8i:__ZL93TextGenerator_t647235000_CustomAttributesCacheGenerator_TextGenerator_Dispose_cpp_m1011672971P21CustomAttributesCache
Fgj:__ZL64InputField_t1631627530_CustomAttributesCacheGenerator_m_LineTypeP21CustomAttributesCache
eTi:__ZL61KeyedHashAlgorithm_t1374150027_CustomAttributesCacheGeneratorP21CustomAttributesCache
uYa:__ZN18StreamedBinaryReadILb0EE21TransferSTLStyleArrayI13dynamic_arrayI7Hash128Lj8EEEEvRT_17TransferMetaFlags
gej:__ZL103PointerEventData_t1599784723_CustomAttributesCacheGenerator_PointerEventData_set_clickCount_m2095939005P21CustomAttributesCache
jZa:__ZN21RendererUpdateManager11AddRendererER8Renderer
p0b:__Z13RegisterClassI15ResourceManagerEvv
NBf:_SerializationEntry_t3485203212_marshal_pinvoke_back
Ujg:__Z78RuntimeInvoker_Void_t1841601450_RuntimeObject_RuntimeObject_RectU26_t844847526PFvvEPK10MethodInfoPvPS4_
Tmb:__Z35Transfer_Blittable_FixedBufferFieldI14SafeBinaryReadsEvRK29SerializationCommandArgumentsR31RuntimeSerializationCommandInfo
F2a:__ZN14SafeBinaryRead21TransferSTLStyleArrayI13dynamic_arrayIfLj4EEEEvRT_17TransferMetaFlags
EVi:__ZL79Thread_t241561612_CustomAttributesCacheGenerator_Thread_GetHashCode_m2038641494P21CustomAttributesCache
Bwi:__ZN6il2cpp5utils11StringUtils11Utf16ToUtf8EPKDs
V7a:__ZN18StreamedBinaryReadILb0EE21TransferSTLStyleArrayINSt3__26vectorIN15ResourceManager10DependencyE13stl_allocatorIS5_L18MemLabelIdentifier52ELi16EEEEEEvRT_17TransferMetaFlags
jSc:__ZN11UnityEngine15PlatformWrapper20IsRootedOrJailbrokenEv
VIb:__ZZ23InitPlayerLoopCallbacksvEN52PreLateUpdateScriptRunBehaviourLateUpdateRegistrator7ForwardEv
Fpf:_X509Certificate2_GetNameInfo_m402390219
GTb:__Z33IntersectAABBPlaneBoundsOptimizedRK4AABBPKN4math7_float4Ei
bvd:_Swapper_BeginInvoke_m2652511022
Cwh:_RectOffset_t3387826427_marshal_pinvoke_back
zrg:__Z54RuntimeInvoker_UriScheme_t1876590943_Int32_t2071877448PFvvEPK10MethodInfoPvPS4_
MWb:__ZN19ScriptingInvocation6InvokeI28ScriptingSystemTypeObjectPtrEET_P21ScriptingExceptionPtrb
fba:__ZN9GfxDevice19EndGeometryJobFrameEv
Vrb:__ZN27Converter_SimpleNativeClassI17AnimationCurveTplIfEE17ScriptingToNativeER18ScriptingObjectPtrPS1_
REi:__ZN6il2cpp8metadata24Il2CppGenericInstCompare7CompareERK10KeyWrapperIPK17Il2CppGenericInstES8_
Cmg:__Z36RuntimeInvoker_Enumerator_t132208513PFvvEPK10MethodInfoPvPS4_
e$h:__ZNK15dense_hashtableINSt3__24pairIK10KeyWrapperIPK19Il2CppGenericMethodEPK26Il2CppGenericMethodIndicesEES6_N6il2cpp8metadata23Il2CppGenericMethodHashEN14dense_hash_mapIS6_SA_SE_NS6_14EqualsComparerINSD_26Il2CppGenericMethodCompareEEENS0_9allocatorISB_EEE9SelectKeyESI_SK_E5beginEv
Fld:_Graphic_get_materialForRendering_m2600868951
Os:__ZN27AnimationLayerMixerPlayable21UpdateLayerParametersEv
vff:_TlsClientSettings_get_ClientCertificate_m89435195
DSi:__ZL61AsymmetricAlgorithm_t784058677_CustomAttributesCacheGeneratorP21CustomAttributesCache
WXf:__ZN21InterfaceFuncInvoker1IiP12MemberInfo_tE6InvokeEjP11Il2CppClassP12Il2CppObjectS1_
Nuh:_Quaternion_Internal_FromEulerRad_m1739712481
LVe:_Collection_1_System_Collections_IList_Contains_m3210868188_gshared
_dh:_AnchorInfo_get_IgnoreCase_m2406760852
O1b:__ZNK17AnimationCurveTplIfE8EvaluateEfPNS0_5CacheE
ZHb:__Z31ManagerContextInitializeClassesv
V4h:__ZNSt3__213__vector_baseIP9FieldInfoNS_9allocatorIS2_EEED2Ev
nif:_TlsException_get_Alert_m4022765752
IAc:_ft_smooth_transform
NLi:__ZL53SortedList_t3004938869_CustomAttributesCacheGeneratorP21CustomAttributesCache
Dyc:_UNITY_FT_List_Finalize
AEi:__ZN6il2cpp6icalls8mscorlib6System7Runtime8Remoting10Activation18ActivationServices34AllocateUninitializedClassInstanceEP20Il2CppReflectionType
sNb:__Z20LightAttenuateApproxRKfS0_
Sva:__ZN9Scripting30SetCachedPtrOnScriptingWrapperE18ScriptingObjectPtrP6Object
rvb:__Z18Transfer_BlittableI19StreamedBinaryWriteILb0EELb0EdEvRK29SerializationCommandArgumentsR31RuntimeSerializationCommandInfo
hW:__ZN17LowLevelAllocator6MallocEj
F8c:_ASCIIEncoding_GetBytes_m3649277167
aMg:_Dictionary_2__ctor_m2457723796_gshared
PKa:__ZN18BlockRangeInternal16PopLastNodeIndexEP10BlockRangeji
nRf:_Version__ctor_m2972638031
Rce:_Kernel_MultiplyByDword_m155008287
$1a:__ZN4MeshD0Ev
nag:__Z121RuntimeInvoker_Void_t1841601450_Int64_t909078037_RuntimeObject_RuntimeObject_Int64_t909078037_RuntimeObject_RuntimeObjectPFvvEPK10MethodInfoPvPS4_
AXc:__ZL42RequestRecreateEyeTexturesBeforeNextUpdatev
aJg:_ValueCollection_System_Collections_Generic_ICollectionU3CTValueU3E_get_IsReadOnly_m3005456072_gshared
O1e:_ReadOnlyCollection_1_System_Collections_ICollection_get_SyncRoot_m1577944046_gshared
Xea:__ZNK6Camera20IsCurrentlyRenderingEv
Du:__ZN21AnimationClipPlayable23ProcessRootMotionNoClipEPK35AnimationPlayableEvaluationConstantPK32AnimationPlayableEvaluationInputP33AnimationPlayableEvaluationOutput
dPc:__Z36CanvasRenderer_CUSTOM_SetPopMaterialP12Il2CppObjectS0_i
vTi:__ZL58RijndaelManaged_t1034060848_CustomAttributesCacheGeneratorP21CustomAttributesCache
I8h:_UpdatedEventHandler_Invoke_m4240581743
mqc:__Z18Transfer_BlittableI9JSONWriteLb0EdEvRK29SerializationCommandArgumentsR31RuntimeSerializationCommandInfo
FIa:__ZN6Camera8TransferI19StreamedBinaryWriteILb0EEEEvRT_
kwe:_TextReader__ctor_m3276128267
HHe:_List_1_System_Collections_Generic_ICollectionU3CTU3E_get_IsReadOnly_m3598018290_gshared
E0e:_ReadOnlyCollection_1_System_Collections_IList_Insert_m3679749778_gshared
iDg:_Toggle_OnDidApplyAnimationProperties_m325835214
eoj:_wctomb
dig:__Z55RuntimeInvoker_Void_t1841601450_Matrix4x4U26_t266301477PFvvEPK10MethodInfoPvPS4_
Hdc:__Z27Camera_CUSTOM_GetAllCamerasP11Il2CppArray
aCb:__ZNK13MonoBehaviour25GetNeedsPerObjectTypeTreeEv
dzb:__Z35Transfer_Blittable_FixedBufferFieldI18StreamedBinaryReadILb0EEiEvRK29SerializationCommandArgumentsR31RuntimeSerializationCommandInfo
DGd:_Convert_InternalFromBase64String_m3682756716
Wc:___cxa_rethrow
v3i:__ZL79Sprite_t309593783_CustomAttributesCacheGenerator_Sprite_get_texture_m1594695778P21CustomAttributesCache
Rrc:__Z18Transfer_BlittableI8JSONReadLb1EhEvRK29SerializationCommandArgumentsR31RuntimeSerializationCommandInfo
Zxj:_glBindRenderbuffer__wrapper
S9i:__ZL86GUI_t4082743951_CustomAttributesCacheGenerator_U3CnextScrollStepTimeU3Ek__BackingFieldP21CustomAttributesCache
pac:__ZN10systeminfo23SupportsLocationServiceEv
Ljg:__Z48RuntimeInvoker_Void_t1841601450_Rect_t3681755626PFvvEPK10MethodInfoPvPS4_
LLf:_TimeSpan_Add_m3228293154
iOg:_DefaultComparer_Equals_m4098991076_gshared
AWb:__ZN13MonoBehaviour8SetClassE17ScriptingClassPtr18ScriptingObjectPtr
naf:_RC4__cctor_m523650203
K9g:_CrossContextDelegate_Invoke_m2908136830
iKh:_Locale_GetText_m3480617287
Sje:_ApplicationIdentity_ToString_m800036884
ekb:__ZN20LocalFileSystemPosix4ReadER13FileEntryDatayyPvPy
UQb:__ZNSt3__211__sift_downIRN23ForwardShaderRenderLoop18RenderObjectSorterILb0EEEP21ForwardRenderPassDataEEvT0_S7_T_NS_15iterator_traitsIS7_E15difference_typeES7_
jye:_UnmanagedMemoryStream_get_Position_m4093669769
mRi:__ZL83MethodDictionary_t1742974787_CustomAttributesCacheGenerator_U3CU3Ef__switchU24map21P21CustomAttributesCache
J9f:__Z90RuntimeInvoker_Void_t1841601450_IntPtr_t_RuntimeObject_Int32_t2071877448_Int32_t2071877448PFvvEPK10MethodInfoPvPS4_
pCb:__ZN13MonoBehaviour5DoGUIENS_13GUILayoutTypeEii
z7e:_Kernel_Multiply_m1938858919
BVf:_DerivedType_IsDefined_m555719351
Qah:_Mark_get_IsDefined_m3332701456
Bxa:__ZNK12TLSAllocatorI14StackAllocatorE8ContainsEPKv
x5a:__ZN11TimeManager8TransferI18StreamedBinaryReadILb0EEEEvRT_
Shb:__ZN15SerializeTraitsINSt3__23mapI4PPtrI6ShaderEN4core12basic_stringIcNS5_20StringStorageDefaultIcEEEENS0_4lessIS4_EENS0_9allocatorINS0_4pairIKS4_S9_EEEEEEE8TransferI24GenerateTypeTreeTransferEEvRSH_RT_
Xfe:_EncryptedPrivateKeyInfo__ctor_m3964541963
BEf:_DESTransform__cctor_m1179482644
XPg:_EqualityComparer_1_System_Collections_IEqualityComparer_GetHashCode_m1465362976_gshared
Uph:_Object_t1021602117_marshal_pinvoke_cleanup
m2a:__ZN14BlendShapeData8TransferI14SafeBinaryReadEEvRT_
sSd:_Enum_Format_m2294492821
xWi:__ZL81Convert_t2607082565_CustomAttributesCacheGenerator_Convert_ToDateTime_m3810846875P21CustomAttributesCache
uVa:__ZN7Texture25ReloadFromStorageIfNeededEPvb
gpc:__Z35Transfer_Blittable_FixedBufferFieldI9JSONWritehEvRK29SerializationCommandArgumentsR31RuntimeSerializationCommandInfo
NRf:_OverflowException__ctor_m2564269836
TFg:_ShimEnumerator_get_Entry_m2332479818_gshared
oad:_BaseRaycaster_get_priority_m247683215
oNd:_DateTime_CheckDateTimeKind_m329345155_AdjustorThunk
RIc:_Update_Max
cki:__ZN6il2cpp6icalls8mscorlib6SystemL15ThrowNoWideningEv
W1b:__ZNK23TransformChangeDispatch24GetChangeMaskForInterestENS_12InterestTypeE
bjc:__Z45Transform_CUSTOM_INTERNAL_CALL_TransformPointP12Il2CppObjectRK8Vector3fRS1_
tVe:__ZN23InterfaceActionInvoker2Ii18Color32_t874517518E6InvokeEjP11Il2CppClassP12Il2CppObjectiS0_
y_b:__ZL10KeyHandleriPK23EmscriptenKeyboardEventPv
QSa:__ZNSt3__26__treeINS_12__value_typeI39DeprecatedFastPropertyNameSerializationfEENS_19__map_value_compareIS2_S3_NS_4lessIS2_EELb1EEENS_9allocatorIS3_EEE7destroyEPNS_11__tree_nodeIS3_PvEE
ACc:_tt_cmap4_char_index
vYg:_InternalEnumerator_1__ctor_m2582404099_gshared
kMf:_TimeSpan_op_Addition_m3421801803
Ajb:__ZNK12HandlerChain8IsHiddenERK13FileEntryData
Zfj:__ZL50Graphic_t2426225576_CustomAttributesCacheGeneratorP21CustomAttributesCache
jrb:__ZL26Transfer_SimpleNativeClassI17RemapPPtrTransfer10RectOffsetLb0EEvRK29SerializationCommandArgumentsR31RuntimeSerializationCommandInfo
ezc:__Z14ValidateFormatR13dynamic_arrayIN20TextRenderingPrivate16TextFormatChangeELj4EE
qsg:__Z114RuntimeInvoker_Int32_t2071877448_CustomAttributeTypedArgument_t1498197914_CustomAttributeTypedArgument_t1498197914PFvvEPK10MethodInfoPvPS4_
tIe:_List_1__ctor_m2672294496_gshared
kMd:_DateTime_System_IConvertible_ToInt32_m2789391054_AdjustorThunk
bhg:__Z73RuntimeInvoker_Single_t2076509932_Vector3_t2243707580_Vector3_t2243707580PFvvEPK10MethodInfoPvPS4_
zde:_ASN1Convert_FromInt32_m1541043489
tdd:_PointerInputModule_ProcessMove_m3200120346
kHd:_Convert_ToByte_m1008221737
o9e:_MD2Managed_MD2Transform_m3825201358
yWe:_Collection_1_System_Collections_IList_IndexOf_m3976312928_gshared
Fhj:__ZL69Scrollbar_t3248359358_CustomAttributesCacheGenerator_m_OnValueChangedP21CustomAttributesCache
hCe:_KeyValuePair_2__ctor_m3201181706_gshared
deb:__ZNSt3__26vectorIN9ShaderLab20SerializedSubProgram13BufferBindingENS_9allocatorIS3_EEEC2ERKS6_
Ijd:_Dropdown_AddOptions_m835420907
Jdj:__ZL107PointerEventData_t1599784723_CustomAttributesCacheGenerator_PointerEventData_get_rawPointerPress_m448871540P21CustomAttributesCache
KGa:__ZNK9ShaderLab20ShaderBlendStateDesc15ToGfxBlendStateEPK19ShaderPropertySheetS3_R13GfxBlendState
ELi:__ZL92Hashtable_t909839986_CustomAttributesCacheGenerator_Hashtable_t909839986____hcp_PropertyInfoP21CustomAttributesCache
Ugd:_CanvasUpdateRegistry_IsRebuildingLayout_m1677873278
Ay:__ZN11UnityEngine9AnimationL22GenericBindingCallbackEPvS1_i
BIc:_Compute_Point_Displacement
zhb:__ZN9ShaderLab9IntShaderC2Ev
L5h:__ZN6il2cpp6icalls8mscorlib6SystemL9IsPrivateEPK9EventInfo
tDi:__ZN6il2cpp6icalls8mscorlib6System10Reflection4Emit11TypeBuilder20setup_internal_classEP27Il2CppReflectionTypeBuilderS7_
TVg:_InternalEnumerator_1_System_Collections_IEnumerator_Reset_m3237341717_AdjustorThunk
gTg:_ArrayReadOnlyList_1_IndexOf_m1809425308_gshared
x7h:_il2cpp_gc_disable
qoc:__ZN5Unity9rapidjson6WriterI16TempBufferWriterNS0_4UTF8IcEES4_13JSONAllocatorE11WriteUint64Ey
pqf:_X509Chain_GetSubjectKeyIdentifier_m4232927227
Nwj:_glGetShaderInfoLog__wrapper
sEd:_Hashtable_Clone_m165405752
QUf:_TypeBuilder_get_Name_m170882803
nOi:__ZL61CallingConventions_t1097349142_CustomAttributesCacheGeneratorP21CustomAttributesCache
xXh:__ZN13Il2CppHashMapIPK22Il2CppGenericParameterP11Il2CppClassN6il2cpp5utils11PointerHashIS1_EENSt3__28equal_toIS2_EENS9_9allocatorINS9_4pairIK10KeyWrapperIS2_ES4_EEEEEC2EjRKS8_RKSB_
htc:__ZN8JSONRead21TransferSTLStyleArrayI31ArrayOfManagedObjectsTransfererEEvRT_17TransferMetaFlags
Sej:__ZL144U3CStartU3Ec__Iterator0_t3220237554_CustomAttributesCacheGenerator_U3CStartU3Ec__Iterator0_System_Collections_IEnumerator_get_Current_m290565900P21CustomAttributesCache
LCa:__Z15CreateDirectoryRKN4core12basic_stringIcNS_20StringStorageDefaultIcEEEE
VPa:__Z21CalculateGlobalMatrix23TransformAccessReadOnly
yKi:__ZL70InternalsVisibleToAttribute_t1037732567_CustomAttributesCacheGeneratorP21CustomAttributesCache
C5a:__ZNK13BuildSettings22GetTypeVirtualInternalEv
Sse:_MonoIO_GetCurrentDirectory_m1509324201
X0c:_SHA384Managed_adjustByteCounts_m410900820
_Hf:_UTF32Encoding_GetHashCode_m4205784236
nwb:__Z35Transfer_Blittable_FixedBufferFieldI18StreamedBinaryReadILb1EEhEvRK29SerializationCommandArgumentsR31RuntimeSerializationCommandInfo
sef:_Context_get_ReceivedConnectionEnd_m3369356276
Dki:__ZN6il2cpp6icalls8mscorlib6System10Reflection8Assembly27GetManifestResourceInternalEP24Il2CppReflectionAssemblyP12Il2CppStringPiPP22Il2CppReflectionModule
n0b:__Z13RegisterClassI14RenderSettingsEvv
hVb:__ZNK25CameraStackRenderingState25CalculateCameraTargetTypeEv
SBi:_GC_set_on_event
ctg:__Z80RuntimeInvoker_Boolean_t3825574718_Navigation_t1571958496_Navigation_t1571958496PFvvEPK10MethodInfoPvPS4_
JSe:_Collection_1_ConvertItem_m3563206219_gshared
hMf:_TimeSpan_Subtract_m3597791685_AdjustorThunk
E$f:_MonoCMethod_get_Name_m764669486
Sw:__ZN7mecanim12statemachine24CreateStateMachineOutputEPKNS0_20StateMachineConstantEjRNS_6memory9AllocatorE
ksi:__ZN6il2cpp2vm12GenericClass8GetClassEP18Il2CppGenericClass
Gba:__ZNK9GfxDevice27GetActiveRenderSurfaceWidthEv
Dag:__Z45RuntimeInvoker_SerializationEntry_t3485203212PFvvEPK10MethodInfoPvPS4_
WRc:__ZN11UnityEngine15PlatformWrapper28GetCleanGraphicsFixedVersionEv
Xkb:__ZN16MemoryFileSystem5WriteER13FileEntryDatayyPvPy
w:tempBigIntP
ARh:__ZL25UnresolvedVirtualCall_210P12Il2CppObjecti38CustomAttributeNamedArgument_t94157543PK10MethodInfo
Y9h:__ZN6il2cpp2vm4Type7GetTypeEPK10Il2CppType
auf:_Interval_t2354235237_marshal_pinvoke_cleanup
gvd:_AssemblyLoadEventHandler_Invoke_m108373765
sdd:_PointerInputModule_ShouldStartDrag_m4163638715
ufj:__ZL61Dropdown_t1985816271_CustomAttributesCacheGenerator_m_OptionsP21CustomAttributesCache
aPh:__ZL24UnresolvedVirtualCall_76P12Il2CppObjectPK10MethodInfo
ola:__ZN6prcoreL17RemapGenericFloatI18TexFormatRGBAFloat17TexFormatRGBAHalfEEvPKNS_9InnerInfoE
wJb:__Z16FindCameraStacksRKNSt3__24listI4PPtrI6CameraENS_9allocatorIS3_EEEERNS_6vectorI11CameraStackNS4_ISA_EEEE
UXa:__ZN10GISettings8TransferI14SafeBinaryReadEEvRT_
sn:FUNCTION_TABLE_vifff
F2e:_ReadOnlyCollection_1_System_Collections_Generic_ICollectionU3CTU3E_Remove_m2957273994_gshared
sXb:__ZN19CustomRenderTexture12ClearGPUDataEv
iad:_BaseInputModule_ShouldActivateModule_m2899747874
nsg:__Z86RuntimeInvoker_Int32_t2071877448_DateTimeOffset_t1362988906_DateTimeOffset_t1362988906PFvvEPK10MethodInfoPvPS4_
PQa:__ZN13RenderTexture13ApplySettingsEv
cVi:__ZL92UTF8Encoding_t111055448_CustomAttributesCacheGenerator_UTF8Encoding_GetByteCount_m2547312609P21CustomAttributesCache
rvj:_glVertexAttrib4f__wrapper
Ue:_JS_Sound_SetListenerPosition
kn:FUNCTION_TABLE_fiffi
SYf:_ModuleBuilderTokenGenerator_GetToken_m3427457873
VOc:__Z55Register_UnityEngine_CanvasGroup_get_ignoreParentGroupsv
jAg:_Selectable_get_isPointerInside_m3162215687
o_d:_Array_FindIndex_TisRuntimeObject_m4149904176_gshared
HGe:_List_1_System_Collections_IList_Contains_m149594880_gshared
xoi:__ZNK15dense_hashtableINSt3__24pairIK10KeyWrapperINS1_IPKcS4_EEEiEES6_24NamespaceAndNamePairHashN14dense_hash_mapIS6_iS9_NS6_14EqualsComparerI26NamespaceAndNamePairEqualsEENS0_9allocatorIS8_EEE9SelectKeyESD_SF_E10test_emptyERK24dense_hashtable_iteratorIS8_S6_S9_SH_SD_SF_E
dXi:__ZL78Convert_t2607082565_CustomAttributesCacheGenerator_Convert_ToSByte_m2585959569P21CustomAttributesCache
zqg:__Z77RuntimeInvoker_Void_t1841601450_Int32_t2071877448_PlayableBinding_t2498078091PFvvEPK10MethodInfoPvPS4_
UQf:_UnauthorizedAccessException__ctor_m3480402128
Oce:_BigInteger_op_Modulus_m3788401748
Jta:__ZN9GfxDevice20SetRenderSurfaceNameEP17RenderSurfaceBasePKc
kah:_ArgInfo_GetInOutArgs_m3184132151
Fbb:__ZNK8Material16MarkDependenciesER27GarbageCollectorThreadState
cvh:_Random_Range_m3327624272
AVi:__ZL85Thread_t241561612_CustomAttributesCacheGenerator_Thread_get_CurrentThread_m3667342817P21CustomAttributesCache
pqc:__ZL17Transfer_GUIStyleI9JSONWriteLb0EEvRK29SerializationCommandArgumentsR31RuntimeSerializationCommandInfo
kOb:__Z28GetHaloVertexPositionsStereoP8Vector3fRKS_S2_f
dma:__ZN6prcoreL27StretchGenericFloatBilinearI15TexFormatRGHalfEEvPKNS_9InnerInfoE
LDe:_Enumerator_MoveNext_m598197344_AdjustorThunk
cX:__GLOBAL__sub_I_runtime_misc_0_cpp
TTh:_TextGenerationSettings_t2543476768_marshal_pinvoke_back
Tsg:__Z36RuntimeInvoker_Enumerator_t442692252PFvvEPK10MethodInfoPvPS4_
Z7c:_String_JoinUnchecked_m1880555587
QGa:__ZNK9ShaderLab7Program21GetMatchingSubProgramEPK6ShaderPKNS_4PassERK16ShaderKeywordSetjPS7_R19ShaderSnippetResult
n2d:_Array_InternalArray__Insert_TisKeyValuePair_2_t1174980068_m2464431954_gshared
vhc:__Z49Register_UnityEngine_Resources_GetBuiltinResourcev
peh:_BalancingGroup_set_Balance_m3452171919
MCc:_tt_cmap10_char_index
Ejd:_Dropdown_Awake_m335654827
n5:__Z18GetITerrainManagerv
PMg:_Dictionary_2_U3CCopyToU3Em__0_m1479035402_gshared
kCd:_BitArray_set_Item_m3801461194
hed:_StandaloneInputModule_get_cancelButton_m1563746440
$Xh:__ZN15dense_hashtableINSt3__24pairIK10KeyWrapperIPK22Il2CppGenericParameterEP11Il2CppClassEES6_N6il2cpp5utils11PointerHashIS4_EEN14dense_hash_mapIS6_S9_SE_NS6_14EqualsComparerINS0_8equal_toIS5_EEEENS0_9allocatorISA_EEE9SelectKeyESJ_SL_E3endEv
I7c:_String_Remove_m3580114465
MFh:_GUIUtility_EndGUIFromException_m3100752188
uAc:_UNITY_FT_Destroy_Class_cff_field_handlers
mP:__ZN11AudioSource24ClearExtensionPropertiesE12PropertyName
Sfb:__ZN9ShaderLab22SerializedBindChannels8TransferI19StreamedBinaryWriteILb0EEEEvRT_
upb:__ZN15SerializeTraitsI5RectTIiEE8TransferI14SafeBinaryReadEEvRS1_RT_
jdg:__Z82RuntimeInvoker_Int32_t2071877448_RuntimeObject_Int32_t2071877448_Int16_t4041245914PFvvEPK10MethodInfoPvPS4_
Gnf:_WebHeaderCollection_AddWithoutValidate_m1479880592
X6g:_UrlAttribute_get_UrlValue_m3448699483
Jyc:_UNITY_FT_Stream_ReadUShort
Ypd:_InputField_OnEnable_m3797157569
Hfc:__Z51Register_UnityEngine_GUILayer_INTERNAL_CALL_HitTestv
xSa:__ZNSt3__26__treeINS_12__value_typeIN4core12basic_stringIcNS2_20StringStorageDefaultIcEEEES6_EENS_19__map_value_compareIS6_S7_NS_4lessIS6_EELb1EEE13stl_allocatorIS7_L18MemLabelIdentifier1ELi16EEE7destroyEPNS_11__tree_nodeIS7_PvEE
gSh:_Nullable_1__ctor_m796575255_gshared
Hxi:__ZN6il2cpp2vm8Profiler7GCEventE13Il2CppGCEvent
uMd:_DateTimeUtils_ToString_m3878360633
Qii:__ZN15dense_hashtableINSt3__24pairIK10KeyWrapperIP11Il2CppClassES4_EES5_N6il2cpp8metadata16SZArrayClassHashEN14dense_hash_mapIS5_S4_SA_NS5_14EqualsComparerINS9_19SZArrayClassCompareEEENS0_9allocatorIS7_EEE9SelectKeyESE_SG_E4findERS6_
bki:__ZN6il2cpp6icalls8mscorlib6SystemL16ThrowInvalidCastEPK11Il2CppClassS5_
kha:__Z13IsDepthFormat14GraphicsFormat
M6a:__ZN12AspectRatios8TransferI24GenerateTypeTreeTransferEEvRT_
zed:_StandaloneInputModule_ForceAutoSelect_m1167170508
_hh:_Bounds_GetHashCode_m458298790
rvc:__Z12FormatBufferPciPKcz
Ked:_TouchInputModule_Process_m1373751353
vwc:__ZN15SerializeTraitsI13dynamic_arrayI4PPtrIN13TextRendering4FontEELj4EEE19ResizeSTLStyleArrayERS5_i
jYf:_MethodBuilder_Invoke_m1874904900
lYh:__ZN6il2cpp2vm5Class13GetArrayClassEP11Il2CppClassj
YFb:__ZN19RuntimeSceneManager18LoadSceneAsyncIntoER10UnitySceneRKN4core12basic_stringIcNS2_20StringStorageDefaultIcEEEENS_11LoadingModeEb
mVf:_DerivedType_InvokeMember_m4149586013
_Ui:__ZL88UTF7Encoding_t741406939_CustomAttributesCacheGenerator_UTF7Encoding_GetBytes_m3015176946P21CustomAttributesCache
Wjf:_TlsStream_SetLength_m1460039587
emc:__ZN11IMGUIModule12AddGUIScriptER8ListNodeI13MonoBehaviourE
nb:invoke_difi
Ecd:_PointerEventData_set_rawPointerPress_m1484888025
Y4:__ZL50StaticRegisterSceneLoadedCallback_LightmapSettingsPv
yBd:_SimpleEnumerator_Clone_m215554974
q9f:__Z119RuntimeInvoker_Void_t1841601450_RuntimeObject_RuntimeObject_RuntimeObject_RuntimeObject_Int32_t2071877448_RuntimeObjectPFvvEPK10MethodInfoPvPS4_
yOb:__ZN29MotionVectorRenderLoopScratch15ThreadedCleanupEv
Km:FUNCTION_TABLE_iiffi
Hmd:_GridLayoutGroup_get_cellSize_m1061731753
T$a:__ZN15SerializeTraitsI13dynamic_arrayItLj2EEE19ResizeSTLStyleArrayERS1_i
Kga:__ZN21GLESGpuProgramApplier11ApplyVectorERKN20GpuProgramParameters14ValueParameterEPK8Vector4ft
WQc:__ZN22BaseUnityConnectClient17SaveSessionValuesEv
ama:__ZN6prcoreL27StretchGenericFloatBilinearI18TexFormatRGBAFloatEEvPKNS_9InnerInfoE
sfh:_Parser_IsIgnoreCase_m4155598997
WDh:_GUILayoutUtility_LayoutSingleGroup_m3024581181
sni:__ZN15dense_hashtableINSt3__24pairIK10KeyWrapperIP14Il2CppIUnknownEjEES5_N6il2cpp5utils11PointerHashIS3_EEN14dense_hash_mapIS5_jSB_NS5_14EqualsComparerINS0_8equal_toIS4_EEEENS0_9allocatorIS7_EEE9SelectKeyESG_SI_E12expand_arrayEjN21dense_hash_map_traits17integral_constantIbLb0EEE
XEc:_cff_size_done
BTb:__ZN29ExtractProjectionPlanesHelperILb1EE5ApplyERK10Matrix4x4fP5Plane
bQg:_EqualityComparer_1_System_Collections_IEqualityComparer_Equals_m3376587337_gshared
cKb:__ZN22RenderingCommandBuffer13GetAndCheckRTE24BuiltinRenderTextureTypeRKN9ShaderLab16FastPropertyNameEPKcPP13RenderTexture
IXb:__ZN6Camera34UpdatePreviousViewProjectionMatrixEv
WRa:__ZN9ShaderLab11ShaderState25RemoveUnsupportedProgramsEPK6Shader
Mgb:__ZL23AddGpuProgramParametersR20GpuProgramParametersRKNSt3__26vectorIN9ShaderLab20SerializedSubProgram15MatrixParameterENS1_9allocatorIS5_EEEERKNS2_INS4_15VectorParameterENS6_ISB_EEEEiP16PropertyNamesSet
I$i:__ZL179U3CCreateWhereIteratorU3Ec__Iterator1D_1_t2523986802_CustomAttributesCacheGenerator_U3CCreateWhereIteratorU3Ec__Iterator1D_1_System_Collections_IEnumerator_get_Current_m1354814095P21CustomAttributesCache
Ljc:__Z44Register_UnityEngine_Object_DestroyImmediatev
cMi:__ZL57CompareOptions_t2829943955_CustomAttributesCacheGeneratorP21CustomAttributesCache
$Pi:__ZL62_ConstructorBuilder_t1236878896_CustomAttributesCacheGeneratorP21CustomAttributesCache
xlf:_NameValueCollection__ctor_m1767369537
pqe:_Int64_System_IConvertible_ToInt16_m2022633688_AdjustorThunk
aCe:_OrdinalComparer__ctor_m2952942058
NTc:__ZNSt3__26__treeINS_12__value_typeIN4core12basic_stringIcNS2_20StringStorageDefaultIcEEEEN11UnityEngine7Connect19RemoteSettingsValueEEENS_19__map_value_compareIS6_SA_NS_4lessIS6_EELb1EEE13stl_allocatorISA_L18MemLabelIdentifier6ELi16EEE16__construct_nodeERKNS_4pairIKS6_S9_EE
nAh:_Transform_INTERNAL_get_localPosition_m130325652
YP:__Z71Register_UnityEngine_AudioSource_INTERNAL_CALL_ClearExtensionPropertiesv
bGi:__ZN6il2cpp8metadata25Il2CppGenericClassCompare7CompareEPK18Il2CppGenericClassS4_
cC:__ZNK8Animator20IsInMatchTargetStateEv
a1i:__ZL115DebugLogHandler_t865810509_CustomAttributesCacheGenerator_DebugLogHandler_Internal_LogException_m4229368478____obj1P21CustomAttributesCache
dH:__ZN13AudioListener23VirtualRedirectTransferER24GenerateTypeTreeTransfer
vMi:__ZL51TextInfo_t3620182823_CustomAttributesCacheGeneratorP21CustomAttributesCache
Lmc:__Z36Register_UnityEngine_GUI_set_changedv
Phd:_ColorTween_get_startColor_m278546349_AdjustorThunk
$Ff:_Encoding_get_Unicode_m1382741113
Vhh:_Behaviour_set_enabled_m602406666
x8g:_LifetimeServices_set_SponsorshipTimeout_m1403222216
$ke:_NumberFormatInfo_get_PositiveSign_m3396333026
wtg:__Z37RuntimeInvoker_Enumerator_t1147558385PFvvEPK10MethodInfoPvPS4_
Dzd:_Char_ToString_m1401375624_AdjustorThunk
Y$d:_Array_InternalArray__ICollection_Add_TisTableRange_t2011406615_m147373358_gshared
DId:_Convert_ToDateTime_m1251728572
_$d:_Array_InternalArray__ICollection_Add_TisBoolean_t3825574718_m1009318882_gshared
A3e:_ReadOnlyCollection_1_System_Collections_IList_set_Item_m1149349508_gshared
nw:__ZN27AnimationLayerMixerPlayable18SetInputConnectionEP8Playablei
H4i:__ZL101Transform_t3275118058_CustomAttributesCacheGenerator_Transform_INTERNAL_set_localRotation_m1514748659P21CustomAttributesCache
Yv:__ZN7mecanim28TransformValueArrayBlendNodeEiiiRKNS_10ValueArrayERKNS_14ValueArrayMaskERS0_RS3_RNS_16ValueArrayWeightEf
XAf:_ObjectReader_ReadObjectContent_m3949770110
AKe:_List_1_System_Collections_ICollection_get_SyncRoot_m3031553207_gshared
hph:_Mesh_get_colors32_m1054093013
MZh:__ZN6il2cpp2vm5Class40GetInterfaceInvokeDataFromVTableSlowPathEPK12Il2CppObjectPK11Il2CppClassj
GLa:__ZN20TierGraphicsSettings8TransferI18StreamedBinaryReadILb0EEEEvRT_
tah:_AsyncResult_get_NextSink_m1172723924
iji:__GLOBAL__sub_I_Thread_cpp
FSa:__ZN14SafeBinaryRead8TransferINSt3__24pairIN9ShaderLab16FastPropertyNameE10ColorRGBAfEEEEvRT_PKc17TransferMetaFlags
jWh:__ZL9rshift128PyS_
RAf:_ObjectReader_RecordFixup_m1893348030
A7d:_LayoutGroup_SetProperty_TisRuntimeObject_m1703476175_gshared
gWf:_EnumBuilder_GetElementType_m1228393631
Ygi:__ZN14dense_hash_mapI10KeyWrapperINSt3__24pairIPK12PropertyInfoP11Il2CppClassEEEj17ReflectionMapHashIS8_ENS9_14EqualsComparerINS1_8equal_toIS8_EEEENS1_9allocatorINS2_IKS9_jEEEEE13set_empty_keyERSH_
Mg:_glRenderbufferStorage
Boi:__ZNK15dense_hashtableINSt3__24pairIK10KeyWrapperINS1_IPKcS4_EEEiEES6_24NamespaceAndNamePairHashN14dense_hash_mapIS6_iS9_NS6_14EqualsComparerI26NamespaceAndNamePairEqualsEENS0_9allocatorIS8_EEE9SelectKeyESD_SF_E13find_positionERS7_
wNi:__ZL80ILGenerator_t99948092_CustomAttributesCacheGenerator_ILGenerator_Emit_m116557729P21CustomAttributesCache
R8h:_RaycastHit_get_point_m3350410423_AdjustorThunk
jgc:__Z45Register_UnityEngine_Input_get_touchSupportedv
_Rc:__ZN11UnityEngine15PlatformWrapper28GetTextureFormatSupportFlagsEv
BAc:_UNITY_FT_Create_Class_pshinter_module_class
f7c:_String_CompareOrdinalCaseInsensitiveUnchecked_m2002640463
Xwd:_Boolean_GetHashCode_m1894638460
zFc:_cf2_setError
Mje:_AppDomainInitializer_BeginInvoke_m2446455399
oIf:_UTF7Encoding_InternalGetChars_m4157428055
oab:__Z33InterpolateLightProbeCoefficientsRK17LightProbeContextRK29LightProbeSamplingCoordinatesR20SphericalHarmonicsL2
zFg:_Enumerator_Reset_m3129803197_AdjustorThunk
vIb:__ZZ23InitPlayerLoopCallbacksvEN35PreUpdateSendMouseEventsRegistrator7ForwardEv
_ee:_SmallXmlParser_HandleBufferedContent_m3397096753
wlg:__Z55RuntimeInvoker_Void_t1841601450_SpriteState_t1353336012PFvvEPK10MethodInfoPvPS4_
_ea:__ZNK6Camera25GetNormalizedViewportRectEP13RenderTextureb
Zg:_glDisable
erd:_InputField_OnDeselect_m3963675647
FVg:_InternalEnumerator_1_MoveNext_m1994485778_AdjustorThunk
iRa:__ZN13RenderTexture8TransferI24GenerateTypeTreeTransferEEvRT_
HCe:_KeyValuePair_2_get_Value_m1916631176_AdjustorThunk
rTf:_MethodBase__ctor_m3951051358
Cwa:__ZN4PPtrI9Texture2DE8TransferI14SafeBinaryReadEEvRT_
Wwi:__ZN6il2cpp5utils11StringUtils15StringDuplicateEPKDsj
qjd:_Dropdown_get_template_m3014799983
rsf:_BaseMachine_Scan_m122450399
Wu:__ZN17AnimationPlayable17ProcessRootMotionEP35AnimationPlayableEvaluationConstantP32AnimationPlayableEvaluationInputP33AnimationPlayableEvaluationOutput
oAd:_ArrayList_CopyTo_m2353632788
Emh:_GameObject_get_activeSelf_m2643917226
cOi:__ZL71AssemblyFileVersionAttribute_t2897687916_CustomAttributesCacheGeneratorP21CustomAttributesCache
P4:__ZNSt3__26vectorINS_4pairIyP17VertexDeclarationEENS_9allocatorIS4_EEE6assignIPS4_EENS_9enable_ifIXaasr21__is_forward_iteratorIT_EE5valuesr16is_constructibleIS4_NS_15iterator_traitsISB_E9referenceEEE5valueEvE4typeESB_SB_
LIe:_List_1_Add_m943275925_gshared
jDj:b119
QYc:_HMAC_get_BlockSizeValue_m603907214
sJb:__ZNK8Material12GetPassCountEv
RFd:_Enumerator__cctor_m3784927209
aDj:b110
bDj:b111
cDj:b112
esj:_bitshift64Ashr
eDj:b114
fDj:b115
gDj:b116
hDj:b117
Z0h:__ZN30dense_hashtable_const_iteratorINSt3__24pairIK10KeyWrapperIN6il2cpp5utils13dynamic_arrayIPK10Il2CppTypeLj4EEEEPFvvEEESA_NS3_8metadata19Il2CppSignatureHashEN14dense_hash_mapISA_SD_SG_NSA_14EqualsComparerINSF_22Il2CppSignatureCompareEEENS0_9allocatorISE_EEE9SelectKeyESK_SM_E30advance_past_empty_and_deletedEv
Cia:__ZN4crnd12crn_unpacker22decode_alpha_endpointsEv
fUb:__Z23CullDynamicObjectsUmbraPK4AABBPKN5Umbra15OcclusionBufferER9IndexList
TWe:_Collection_1_RemoveItem_m2565709010_gshared
Mx:__ZThn148_NK26AnimatorControllerPlayable41GetStateMachineBehaviourVectorDescriptionEv
BCc:_tt_cmap4_char_next
pRe:_Queue_1_System_Collections_ICollection_get_IsSynchronized_m307125669_gshared
Ukg:__Z49RuntimeInvoker_TouchScreenKeyboardType_t875112366PFvvEPK10MethodInfoPvPS4_
ooh:_Mathf_Approximately_m1944881077
CZe:_Collection_1_ClearItems_m1649070779_gshared
ejg:__Z444RuntimeInvoker_Boolean_t3825574718_RuntimeObject_RuntimeObject_RuntimeObject_ColorU26_t3402129837_Int32_t2071877448_Single_t2076509932_Single_t2076509932_Int32_t2071877448_SByte_t454417549_SByte_t454417549_Int32_t2071877448_Int32_t2071877448_Int32_t2071877448_Int32_t2071877448_SByte_t454417549_Int32_t2071877448_Single_t2076509932_Single_t2076509932_Single_t2076509932_Single_t2076509932_SByte_t454417549_SByte_t454417549_UInt32U26_t2197289955PFvvEPK10MethodInfoPvPS4_
Fqh:_GeneralNames_ToString_m800435094
Ifd:_BaseMeshEffect_OnDidApplyAnimationProperties_m2484799839
xUg:_InternalEnumerator_1_Dispose_m1064404287_AdjustorThunk
M8c:_ASCIIEncoding_GetString_m3931709239
vCh:_Vector4_Equals_m2166390052
Cxh:_RectTransform_SetInsetAndSizeFromParentEdge_m2595554673
BW:__GLOBAL__sub_I_runtime_assetbundles_1_cpp
tI:__ZN4FMOD7Channel11setPositionEjj
Rh:_glBindSampler
P4e:_ReadOnlyCollection_1_System_Collections_Generic_ICollectionU3CTU3E_Clear_m964488020_gshared
Y4c:_SecurityFrame_get_Domain_m3219347572_AdjustorThunk
Vh:_glGetVertexAttribiv
h7c:_String_IndexOfAny_m2027595557
a0d:_Array_InternalArray__ICollection_Add_TisChar_t3454481338_m422084244_gshared
P_h:__ZNSt3__218uninitialized_fillIPNS_4pairIK10KeyWrapperIPKcEP11Il2CppClassEES9_EEvT_SB_RKT0_
LLc:__ZN2UI11CanvasGroup23VirtualRedirectTransferER18StreamedBinaryReadILb0EE
y6g:_OutAttribute__ctor_m1447235100
M4e:_ReadOnlyCollection_1_get_Item_m3778245964_gshared
iYi:__ZL52EventArgs_t3289624707_CustomAttributesCacheGeneratorP21CustomAttributesCache
qzh:_Texture__ctor_m1220114221
utc:__ZN8JSONRead8TransferIbEEvRT_PKc17TransferMetaFlagsb
ZTe:_Collection_1_RemoveAt_m290627370_gshared
Bcd:_PointerEventData_get_lastPress_m3835070463
yof:_X509KeyUsageExtension_Decode_m3292847033
Xhg:__Z32RuntimeInvoker_Scene_t1684909666PFvvEPK10MethodInfoPvPS4_
ekg:__Z52RuntimeInvoker_RaycastResult_t21186376_RuntimeObjectPFvvEPK10MethodInfoPvPS4_
n$f:_Module_filter_by_type_name_ignore_case_m3574895736
vRi:__ZL57ProxyAttribute_t4031752430_CustomAttributesCacheGeneratorP21CustomAttributesCache
xXa:__ZN26CustomRenderTextureManager19PreAllocateMaterialEP19CustomRenderTexture
zvc:__ZN19ControllerHitReport13onObstacleHitERKN5physx23PxControllerObstacleHitE
xAf:_ObjectReader_ReadObject_m397855326
Ryi:_GC_promote_black_lists
Ind:_Image_get_fillAmount_m3354146540
iuc:__Z29Transfer_Blittable_ArrayFieldI8JSONRead8Vector4fEvRT_R9ArrayInfoRK23StaticTransferFieldInfo
sGe:_List_1_Sort_m1518807012_gshared
Qn:FUNCTION_TABLE_vf
oo:FUNCTION_TABLE_vd
tNf:_Type_GetMethod_m1930231379
qo:FUNCTION_TABLE_vi
iY:__ZN13RuntimeStaticI37UnityShaderCompilerExtPluginConfigureLb0EE16StaticInitializeEPv
yTc:__ZN11UnityEngine7Connect17DeviceStatusEvent20SetDeviceAspectRatioEf
$Mi:__ZL55StreamReader_t2360341767_CustomAttributesCacheGeneratorP21CustomAttributesCache
oae:_SimpleCollator_GetContraction_m1391584430
_wd:_CultureInfo_get_InvariantCulture_m398972276
Awd:_Boolean_System_IConvertible_ToInt64_m4142756949_AdjustorThunk
IE:__ZNK8Animator17HasBoundPlayablesEv
Jnc:__ZN5Unity9rapidjson13GenericReaderINS0_4UTF8IcEES3_13JSONAllocatorE10ParseFalseILj0ENS0_19GenericStringStreamIS3_EENS0_15GenericDocumentIS3_S4_S4_EEEEvRT0_RT1_
c9e:_HMAC_initializePad_m3828610671
PQg:_EqualityComparer_1_System_Collections_IEqualityComparer_Equals_m1089835085_gshared
W$c:_RSAParameters_t1462703416_marshal_pinvoke_cleanup
b6h:__ZN6il2cpp2vm7Runtime9SetConfigEPKc
moc:__ZN5Unity9rapidjson12PrettyWriterI16TempBufferWriterNS0_4UTF8IcEES4_13JSONAllocatorE10StartArrayEv
D8g:_ConfigHandler_OnChars_m2004226744
ta:invoke_iiifiii
Fli:__ZN6il2cpp2vm9Exception11FromNameMsgEPK11Il2CppImagePKcS6_S6_
Nke:_NumberFormatInfo_get_NumberDecimalDigits_m3706097953
fNf:_Type_internal_from_name_m1506974323
an:FUNCTION_TABLE_fiiifii
fNa:__ZN5LightD2Ev
cE:__ZN10HumanTrait15InitializeClassEv
Y6:__Z14GetTimeManagerv
Paf:_ContentInfo_get_ContentType_m2984320800
JWc:__ZN19TransportJavaScript7CleanupEv
KCa:__Z12GUIDToStringRK9UnityGUIDPc
dih:_Bounds_get_center_m2113902127_AdjustorThunk
puh:_PlayableOutputHandle_GetHashCode_m191656281
hGh:_InvokableCall_1_Invoke_m3574781157_gshared
HL:__ZN11AudioSource22UnmuteActiveVideoSinksEv
Twi:__ZN4utf88internal20is_overlong_sequenceIiEEbjT_
l9i:__ZL87AudioSource_t1135106623_CustomAttributesCacheGenerator_AudioSource_get_clip_m2622010175P21CustomAttributesCache
Pi:_glReadBuffer
yEa:__Z9SetLocalR15TransformAccessRKN4math7_float4Ey
EBd:_SynchronizedArrayListWrapper_get_Count_m4104930530
KYc:_HashAlgorithm_get_HashSize_m2625667696
ZPb:__Z30SetupBakedOcclusionForGeometrybRK26SharedLightmapSettingsDataRK15LightmapIndicesR17ShaderPassContext
dmh:_UnityEventBase_UnityEngine_ISerializationCallbackReceiver_OnBeforeSerialize_m3933203561
f5d:_Array_Resize_TisVector4_t2243707581_m1528805937_gshared
X2c:_SecurityPermission_IsSubsetOf_m1087302418
jec:__Z41Register_UnityEngine_Cursor_get_lockStatev
iDh:_Event_Internal_GetMousePosition_m2992465246
vPb:__Z14SetupLightmapsRK8Vector4fS1_R17ShaderPassContext
wfi:__ZN14dense_hash_mapI10KeyWrapperIPK14Il2CppAssemblyEPK22Il2CppMonoAssemblyNameN6il2cpp5utils11PointerHashIS2_EENS4_14EqualsComparerINSt3__28equal_toIS3_EEEENSD_9allocatorINSD_4pairIKS4_S7_EEEEE13set_empty_keyERSJ_
duf:_Interval_get_Empty_m3170923997
eQa:__ZL20InitializeGUIShadersv
N1b:__Z20DestroyObjectDelayedP6Objectf
OV:__ZN20DynamicHeapAllocatorI17LowLevelAllocatorED0Ev
tqd:_InputField_OnDrag_m726194348
l6g:_GuidAttribute__ctor_m1099153635
wbe:_PreviousInfo__ctor_m1442166472_AdjustorThunk
SMb:__ZN9DepthPassD2Ev
YMd:_DateTime_get_Kind_m1331920314_AdjustorThunk
jUh:_TextGenerator_get_rectExtents_m954923136
mH:__ZN11AudioFilter6GetDSPEv
EZf:_PropertyBuilder_get_Module_m1618339927
T_:__ZN19RuntimeSceneManager14CanUnloadSceneEP10UnityScene
rcg:__Z50RuntimeInvoker_Single_t2076509932_Int64_t909078037PFvvEPK10MethodInfoPvPS4_
UMb:__Z22ExtractRenderNodeQueueRK11CullResults15ExtractionFlagsR15RenderNodeQueue
e4d:_Array_InternalArray__set_Item_TisContentType_t1028629049_m703420360_gshared
Cti:__ZN6il2cpp2vm6Method7GetNameEPK10MethodInfo
TQe:_List_1_set_Item_m1431784996_gshared
tG:__ZN24AudioScriptBufferManagerC2Ev
Dxc:__ZNSt3__26vectorIh13stl_allocatorIhL18MemLabelIdentifier1ELi16EEE8__appendEj
f6f:__Z95RuntimeInvoker_Void_t1841601450_RuntimeObject_Int32_t2071877448_Int32_t2071877448_RuntimeObjectPFvvEPK10MethodInfoPvPS4_
Anc:__ZN8JSONRead32GetValueForKeyWithNameConversionEPKN5Unity9rapidjson12GenericValueINS1_4UTF8IcEE13JSONAllocatorEEPKc
Gxc:__ZN20TextRenderingPrivate8FontImpl16ResetPackingDataEv
O_d:_Array_InternalArray__IndexOf_TisLink_t865133271_m3612939760_gshared
anh:_Input_get_mousePresent_m1100327283
hpc:__Z18Transfer_BlittableI9JSONWriteLb0EfEvRK29SerializationCommandArgumentsR31RuntimeSerializationCommandInfo
Uha:__Z21GetAsyncUploadManagerv
Gj:_emscripten_glDetachShader
qJi:__ZL66RuntimeArray_CustomAttributesCacheGenerator_Array_Sort_m3500510484P21CustomAttributesCache
v9d:_SafeHandleZeroOrMinusOneIsInvalid_get_IsInvalid_m2033528032
pzd:_Char_IsUpper_m4083577610
Iha:__ZN17GenericDynamicVBO20ReleaseChunkInternalERK21DynamicVBOChunkHandlejj
pKc:__ZL27CleanupModule_TextRenderingv
u9d:_SafeHandleZeroOrMinusOneIsInvalid__ctor_m3340306667
Goj:_fmodl
XBf:_SerializationInfo_AddValue_m902275108
Uoj:_fmodf
MZe:_Collection_1_RemoveItem_m2272047354_gshared
Jva:__ZN12CachedWriter11Align4WriteEv
YNb:__Z20DoDeferredRenderLoopR17RenderLoopContextR13dynamic_arrayI16RenderObjectDataLj4EES4_RK11CullResultsRP13RenderTextureSA_Pb
uza:__ZNSt3__26vectorIiNS_9allocatorIiEEE21__push_back_slow_pathIKiEEvRT_
aGb:__ZN19RuntimeSceneManager11CreateSceneEv
DBh:_Vector2_op_Implicit_m385881926
NEc:_ps_get_standard_strings
YPb:__Z27SetupBakedOcclusionForLightbRK15SharedLightDataR17ShaderPassContext
qEi:__ZN6il2cpp2os5Mutex6UnlockEv
vmf:__ZN21InterfaceFuncInvoker1IP13Uri_t19570940S1_E6InvokeEjP11Il2CppClassP12Il2CppObjectS1_
nzg:_ScrollRect_OnScroll_m3346515304
krj:__ZN10__cxxabiv116__shim_type_infoD2Ev
wEe:_Enumerator_System_Collections_IEnumerator_get_Current_m3461301268_gshared
M5f:__Z63RuntimeInvoker_Void_t1841601450_Int32_t2071877448_RuntimeObjectPFvvEPK10MethodInfoPvPS4_
JLg:_Dictionary_2_CopyToCheck_m1638253305_gshared
UJb:__Z18RenderImageFiltersR10RenderLoopb
gW:__Z19free_alloc_internalPv18MemLabelIdentifier
$Oc:__Z43CanvasRenderer_Get_Custom_PropMaterialCountP12Il2CppObject
ukh:__ZN23InterfaceActionInvoker2IP21Exception_t1927440687P18Object_t1021602117E6InvokeEjP11Il2CppClassP12Il2CppObjectS1_S3_
hQb:__ZNSt3__227__insertion_sort_incompleteIR23CompareReflectionProbesP31RuntimeReflectionProbeBlendInfoEEbT0_S5_T_
w0e:_ReadOnlyCollection_1_System_Collections_Generic_IListU3CTU3E_set_Item_m25653560_gshared
lEh:_GUIContent_t4210063000_marshal_pinvoke_cleanup
Duc:__ZN8JSONRead21TransferSTLStyleArrayI13dynamic_arrayI11QuaternionfLj4EEEEvRT_17TransferMetaFlags
np:__ZN6Object23VirtualRedirectTransferER19StreamedBinaryWriteILb1EE
Lcc:__ZNK9BlobWrite24HasOffsetPtrWithDebugPtrEv
iij:__ZL68Selectable_t1490392188_CustomAttributesCacheGenerator_m_InteractableP21CustomAttributesCache
zac:__ZN19RuntimeSceneManager32LoadSceneAsyncByNameOrBuildIndexERKN4core12basic_stringIcNS0_20StringStorageDefaultIcEEEEiNS_11LoadingModeEb
cbf:_CertificateSelectionCallback_Invoke_m2902629105
p4:__ZN10InputEventD2Ev
HHd:_DateTimeFormatInfo_GetAllDateTimePatternsInternal_m1587126173
v3c:_Evidence__ctor_m1638117806
xWe:__ZN21InterfaceFuncInvoker1Ib22UICharInfo_t3056636800E6InvokeEjP11Il2CppClassP12Il2CppObjectS0_
Koe:_NumberFormatter_Append_m3268121457
zWg:_InternalEnumerator_1_Dispose_m3578333724_AdjustorThunk
Gga:__ZN15dense_hashtableINSt3__24pairIK9TextureIDiEES2_N12TextureIdMap20TextureIDHashFunctorEN14dense_hash_mapIS2_iS6_NS0_8equal_toIS2_EE13stl_allocatorIS4_L18MemLabelIdentifier67ELi16EEE9SelectKeyES9_SC_E12resize_deltaEjj
VWc:__ZN22UnityWebRequestManagerD2Ev
Bkh:_DebugLogHandler__ctor_m786660247
F$c:_RSA_ToXmlString_m4145056574
IRd:_Double_System_IConvertible_ToUInt64_m1318285078_AdjustorThunk
loj:_isalpha
Vxg:_Selectable_FindSelectable_m2739582497
tnd:_LayoutGroup_GetAlignmentOnAxis_m1783063916
wMd:_DateTimeUtils_ZeroPad_m86470512
fJi:__ZL69RuntimeArray_CustomAttributesCacheGenerator_Array_IndexOf_m2447301431P21CustomAttributesCache
pzh:_TextAreaAttribute__ctor_m2180114682
Z3h:__ZN6il2cpp2vmL17IsSocketAsyncCallEP14Il2CppDelegate
mJh:_U3CStartU3Ec__Iterator0_MoveNext_m42377021_gshared
rwi:__ZN6il2cpp2vm6String6NewLenEPKcj
bEb:__ZN17PersistentManager9AddStreamEv
dvi:__ZN6il2cpp2os6Thread12GetApartmentEv
fua:__ZN9GfxDevice28UpdateComputeConstantBuffersEjP12ObjectHandleI18ConstantBuffer_TagPvEjjPKhPKjS8_PKi
Wk:_time
kgj:__ZL79GraphicRaycaster_t410733016_CustomAttributesCacheGenerator_U3CU3Ef__amU24cache0P21CustomAttributesCache
dph:_Mesh_get_uv_m1990385212
muh:_PlayableOutput_Equals_m2167434642_AdjustorThunk
hmd:_Graphic_UnregisterDirtyLayoutCallback_m1724443555
_8e:_CryptoConvert_ToHex_m2874017189
fGc:_cf2_stack_free
Obd:_ExecuteEvents_get_pointerClickHandler_m713983310
Ku:__ZN7mecanim9animation19EvaluateFloatValuesEPKNS0_18ClipMuscleConstantEPKNS_18ValueArrayConstantEPKNS0_12ClipBindingsEPKNS0_10ClipOutputEPNS0_18AnimationNodeStateEfbb
Hjj:__ZL94LayoutGroup_t3962498969_CustomAttributesCacheGenerator_LayoutGroup_DelayedSetDirty_m4276695617P21CustomAttributesCache
JC:__ZN8Animator31ClearInternalControllerPlayableEv
MRf:_WeakReference_Finalize_m3318354542
WDa:__ZN10GameObject8TransferI24GenerateTypeTreeTransferEEvRT_
$Ee:_Enumerator_VerifyState_m3913376581_gshared
jjj:__ZL72GridLayoutGroup_t1515633077_CustomAttributesCacheGenerator_m_StartCornerP21CustomAttributesCache
G$i:__ZL83U3CCreateWhereIteratorU3Ec__Iterator1D_1_t2523986802_CustomAttributesCacheGeneratorP21CustomAttributesCache
$bg:__Z51RuntimeInvoker_Int16_t4041245914_Double_t4078015681PFvvEPK10MethodInfoPvPS4_
obi:__ZN15dense_hashtableINSt3__24pairIK10KeyWrapperINS1_IPK9FieldInfoP11Il2CppClassEEEjEES9_17ReflectionMapHashIS8_EN14dense_hash_mapIS9_jSD_NS9_14EqualsComparerINS0_8equal_toIS8_EEEENS0_9allocatorISB_EEE9SelectKeyESI_SK_E4findERSA_
TBj:_glDeleteSync__wrapper
aJd:_Decimal_op_Implicit_m623319612
wIg:_ValueCollection_System_Collections_Generic_ICollectionU3CTValueU3E_Remove_m98888100_gshared
abd:_EventTrigger_OnPointerExit_m2119176877
wKf:_ThreadAbortException__ctor_m1623816114
v2b:__ZN13ProduceHelperI30RuntimeInitializeOnLoadManagerLb0EE7ProduceE18MemLabelIdentifier18ObjectCreationMode
JVb:__ZN13RenderTexture19SetAutoGenerateMipsEb
kja:__Z20GetTextureFormatInfo13TextureFormat
N4b:__Z40InitializeLightAnimationBindingInterfacev
E8f:__Z119RuntimeInvoker_RuntimeObject_RuntimeObject_RuntimeObject_Int32_t2071877448_Int32_t2071877448_MonoIOErrorU26_t1029615899PFvvEPK10MethodInfoPvPS4_
xx:__ZN26AnimatorControllerPlayable8GetFloatEiRf
Qvg:_Shadow__ctor_m924057531
Qcd:_PointerEventData_set_worldPosition_m192283671
WTe:_Collection_1_InsertItem_m1391780791_gshared
Hxb:__ZN18StreamedBinaryReadILb1EE5AlignEv
MCi:__ZN6il2cpp5utils10MemoryPool6MallocEj
NF:__ZN11SoundHandle8InstanceD2Ev
y7:__ZN31CanvasBatchIntermediateRenderer13StaticDestroyEPv
Hth:_X509Store_BuildCrlsCollection_m52567568
w0:__ZNSt3__23mapIiP15MonoScriptCacheNS_4lessIiEE13stl_allocatorINS_4pairIKiS2_EEL18MemLabelIdentifier78ELi16EEEixERS7_
t2h:__ZNK15dense_hashtableINSt3__24pairIK10KeyWrapperIPK11Il2CppClassEPKcEES6_N6il2cpp5utils11PointerHashIS3_EEN14dense_hash_mapIS6_S9_SE_NS6_14EqualsComparerINS0_8equal_toIS5_EEEENS0_9allocatorISA_EEE9SelectKeyESJ_SL_E10test_emptyERK24dense_hashtable_iteratorISA_S6_SE_SN_SJ_SL_E
JBf:_CallbackHandler__ctor_m1235509347
H8d:_Array_InternalArray__get_Item_TisUICharInfo_t3056636800_m3872982785_gshared
E3i:__ZL98DataUtility_t4181890362_CustomAttributesCacheGenerator_DataUtility_Internal_GetMinSize_m1237486275P21CustomAttributesCache
jph:_Mesh_SetNormals_m2780518036
rSd:_Enum_ToString_m662345249
vGe:_List_1_get_Capacity_m531373308_gshared
yhg:__Z150RuntimeInvoker_Single_t2076509932_Single_t2076509932_Single_t2076509932_SingleU26_t4173844468_Single_t2076509932_Single_t2076509932_Single_t2076509932PFvvEPK10MethodInfoPvPS4_
PSi:__ZL66DESCryptoServiceProvider_t933603253_CustomAttributesCacheGeneratorP21CustomAttributesCache
gec:__Z41Register_UnityEngine_CullingGroup_Disposev
Rcg:__Z54RuntimeInvoker_Boolean_t3825574718_DateTime_t693205669PFvvEPK10MethodInfoPvPS4_
iWa:__ZN7Cubemap23VirtualRedirectTransferER19StreamedBinaryWriteILb0EE
jBa:__ZN25MultiBlocksMemoryFileData5WriteEyyPKv
pmh:_ScriptableRenderContext__ctor_m3729862500_AdjustorThunk
nMe:_List_1_System_Collections_IList_Add_m4271264217_gshared
ZRg:_Action_1_BeginInvoke_m1305519803_gshared
sgi:__ZN14dense_hash_mapI10KeyWrapperIPK10Il2CppTypeEjN6il2cpp8metadata14Il2CppTypeHashENS4_14EqualsComparerINS6_26Il2CppTypeEqualityComparerEEENSt3__29allocatorINSB_4pairIKS4_jEEEEE13set_empty_keyERSE_
Wma:__ZL17ProgramUniform2fvPK7ApiGLESjiihPKv
Ozj:b83
yxc:__ZN20TextRenderingPrivate8FontImpl21HasCharacterInTextureEjijfPj
BYg:_InternalEnumerator_1_Dispose_m219216750_AdjustorThunk
Hpj:_htonl
uea:__Z20GetBufferManagerGLESv
UZd:__ZN21InterfaceFuncInvoker1Ii18Color32_t874517518E6InvokeEjP11Il2CppClassP12Il2CppObjectS0_
xAb:__ZN18StreamedBinaryReadILb0EE21TransferSTLStyleArrayI31ArrayOfManagedObjectsTransfererEEvRT_17TransferMetaFlags
zIf:_UTF7Decoder_GetChars_m2790530452
Ipj:_htons
ssc:__Z18Transfer_BlittableI8JSONReadLb0EtEvRK29SerializationCommandArgumentsR31RuntimeSerializationCommandInfo
Jei:__ZN15dense_hashtableINSt3__24pairIK10KeyWrapperINS1_IPK9EventInfoP11Il2CppClassEEEjEES9_17ReflectionMapHashIS8_EN14dense_hash_mapIS9_jSD_NS9_14EqualsComparerINS0_8equal_toIS8_EEEENS0_9allocatorISB_EEE9SelectKeyESI_SK_E12expand_arrayEjN21dense_hash_map_traits17integral_constantIbLb0EEE
Wwb:__Z18Transfer_BlittableI18StreamedBinaryReadILb1EELb0E5RectTIiEEvRK29SerializationCommandArgumentsR31RuntimeSerializationCommandInfo
oFh:_GUIStyle_t1799908754_marshal_pinvoke_back
rCg:_Text_set_fontSize_m2101304336
wWa:__ZNK7Cubemap20GetTextureLayerCountEv
pAc:_pshinter_module_class_pic_free
shj:__ZL68Navigation_t1571958496_CustomAttributesCacheGenerator_m_SelectOnLeftP21CustomAttributesCache
gy:__ZN34AnimationStateMachineMixerPlayable13EndTransitionEv
Mwi:__ZNSt3__212basic_stringIDsNS_11char_traitsIDsEENS_9allocatorIDsEEE9__grow_byEjjjjjj
WH:__ZN12AudioManager21FixMasterGroupRoutingEv
E1c:_SymmetricAlgorithm_set_Key_m2973350820
Lfj:__ZL58FontData_t2614388407_CustomAttributesCacheGenerator_m_FontP21CustomAttributesCache
Inf:_WebHeaderCollection_IsHeaderValue_m1723393133
Iwc:__ZN20TextRenderingPrivate8FontImpl13CharacterInfo8TransferI24GenerateTypeTreeTransferEEvRT_
dFe:_Enumerator_Dispose_m3717265706_AdjustorThunk
J6f:__Z69RuntimeInvoker_Boolean_t3825574718_Int32_t2071877448_SByte_t454417549PFvvEPK10MethodInfoPvPS4_
Ati:__ZN6il2cpp2os10ThreadImpl33UnregisterCurrentThreadForCleanupEv
qw:__ZN27AnimationLayerMixerPlayable22PrepareAnimationEventsEfR13dynamic_arrayI22AnimationClipEventInfoLj4EE
Omb:__Z18Transfer_BlittableI14SafeBinaryReadLb1E4AABBEvRK29SerializationCommandArgumentsR31RuntimeSerializationCommandInfo
Jsi:__ZN6il2cpp6icalls8mscorlib6System4Enum12get_hashcodeEP12Il2CppObject
PBi:_GC_set_no_dls
fGi:__ZN6il2cpp8metadata26Il2CppGenericMethodCompare6EqualsEPK19Il2CppGenericMethodS4_
P5:__Z22CreateMutexLockedQueue18MemLabelIdentifier
yje:_AppDomain_get_CurrentDomain_m3432767403
a$a:__ZNK13ScreenManager16GetScreenTimeoutEv
BG:__ZN9AudioClip7WWWOpenEPKciPjPPvS4_
s$i:__ZL66Uri_t19570940_CustomAttributesCacheGenerator_Uri__ctor_m3854873816P21CustomAttributesCache
kaj:__ZL88GUIStyle_t1799908754_CustomAttributesCacheGenerator_GUIStyle_get_stretchWidth_m813991504P21CustomAttributesCache
Fmb:__Z18Transfer_BlittableI14SafeBinaryReadLb0E8Vector2fEvRK29SerializationCommandArgumentsR31RuntimeSerializationCommandInfo
Rij:__ZL101ToggleGroup_t1030026315_CustomAttributesCacheGenerator_ToggleGroup_U3CAnyTogglesOnU3Em__0_m1218114300P21CustomAttributesCache
h6b:__ZZN13BuildSettingsC1E18MemLabelIdentifier18ObjectCreationModeEN38initializedPreloadedPluginsRegistrator7ForwardEv
cnf:_IPv6Address_SwapUShort_m1481806078
a4d:_Array_InternalArray__set_Item_TisPlayableBinding_t2498078091_m2071396616_gshared
fxe:_SynchronizedReader_Peek_m282642073
Kdb:__ZN15SerializeTraitsIN9ShaderLab20SerializedSubProgram16TextureParameterEE8TransferI14SafeBinaryReadEEvRS2_RT_
Bxd:_Byte_System_IConvertible_ToInt16_m1575115635_AdjustorThunk
M7g:_CrossAppDomainData_get_ProcessID_m2865289777
yOf:_UInt16_System_IConvertible_ToUInt16_m1646506872_AdjustorThunk
PBh:_Vector3_set_Item_m2026854946_AdjustorThunk
_8g:_Context_get_HasGlobalDynamicSinks_m3205328884
Nae:_SimpleCollator_CompareQuick_m619038530
pij:__ZL93Selectable_t1490392188_CustomAttributesCacheGenerator_Selectable_get_isPointerDown_m774209881P21CustomAttributesCache
rjf:_SslStreamBase_EndRead_m1072850679
dbf:_CertificateSelectionCallback_BeginInvoke_m990408067
hua:__ZN9GfxDevice22DispatchComputeProgramE12ObjectHandleI18ComputeProgram_TagPvEjjj
fd:_SDL_GetTicks
Hie:_X509CertificateEnumerator_System_Collections_IEnumerator_get_Current_m1643583406
doa:__ZN18GfxFramebufferGLES20CleanupFBOMapForRBIDERKj
hdi:__ZN15dense_hashtableINSt3__24pairIK10KeyWrapperINS1_IPK11Il2CppImageP11Il2CppClassEEEjEES9_17ReflectionMapHashIS8_EN14dense_hash_mapIS9_jSD_NS9_14EqualsComparerINS0_8equal_toIS8_EEEENS0_9allocatorISB_EEE9SelectKeyESI_SK_E6insertERKSB_
nKc:__ZL34RegisterModuleICalls_TextRenderingv
MTb:__Z21CreateShadowCullerJobP30CreateUmbraShadowCullerJobData
Oma:__ZL18ProgramUniform2uivPK7ApiGLESjiihPKv
IYe:_Collection_1_System_Collections_ICollection_get_IsSynchronized_m1375670137_gshared
$lj:_AudioConfigurationChangeHandler_BeginInvoke_m1585211075
KQb:__Z33GenerateShadowCasterPartsSortDataRK16ShadowCasterDatajRK15RenderNodeQueueRKNSt3__26vectorI20ShadowCasterPartData13stl_allocatorIS7_L18MemLabelIdentifier2ELi16EEEERK10Matrix4x4fRjP20ShadowCasterSortData
Rmh:_GUILayer_INTERNAL_CALL_HitTest_m381183969
Ezd:_Char_GetTypeCode_m2251277629_AdjustorThunk
JEe:_Enumerator_Dispose_m3109097029_AdjustorThunk
zHh:_UnityAction_2_Invoke_m319876726_gshared
Jpb:__Z29Transfer_Blittable_ArrayFieldI14SafeBinaryRead9BoundsIntEvRT_R9ArrayInfoRK23StaticTransferFieldInfo
zNg:_Dictionary_2_ToTKey_m4209561517_gshared
tFc:_cf2_computeDarkening
lzi:_GC_expand_hp_inner
gqi:__ZNK15dense_hashtableI10KeyWrapperIP18Il2CppGenericClassES3_N6il2cpp8metadata22Il2CppGenericClassHashEN14dense_hash_setIS3_S6_NS3_14EqualsComparerINS5_25Il2CppGenericClassCompareEEENSt3__29allocatorIS3_EEE8IdentityESA_SD_E12test_deletedEj
cfc:__Z25Screen_Get_Custom_PropDpiv
Yvb:__Z29Transfer_Blittable_ArrayFieldI19StreamedBinaryWriteILb0EEsEvRT_R9ArrayInfoRK23StaticTransferFieldInfo
gfd:_AnimationTriggers_get_disabledTrigger_m2987312382
Jmd:_GridLayoutGroup_get_spacing_m1909275195
Iwi:__ZN4utf812find_invalidIPKcEET_S3_S3_
Xrf:_X509ExtensionCollection_System_Collections_ICollection_CopyTo_m3421329346
Fyi:_GC_err_printf
TWf:_FieldBuilder_SetValue_m3109503557
sld:_Graphic_OnBeforeTransformParentChanged_m1866292273
Opf:_X509Certificate2_Verify_m1574874641
QS:__ZN11UnityEngine15CloudWebService20WebRequestRestClient7PrepareEv
Jej:__ZL58PhysicsRaycaster_t249603239_CustomAttributesCacheGeneratorP21CustomAttributesCache
mxc:__ZN20TextRenderingPrivate19NativeTextGenerator23FixLineHorizontalOffsetEiii
TLh:_EqualityComparer_1_System_Collections_IEqualityComparer_GetHashCode_m1473684243_gshared
JFd:_SortedList_GetEnumerator_m1318483481
VDh:_GUILayoutUtility_LayoutFreeGroup_m2224160855
Arf:_X509ChainElement_set_StatusFlags_m1058207137
_kd:_FontData_UnityEngine_ISerializationCallbackReceiver_OnBeforeSerialize_m2486694676
qz:__ZN7mecanim9animation19DestroyAnimationSetEPNS0_12AnimationSetERNS_6memory9AllocatorE
gre:_IntPtr__ctor_m2996690883_AdjustorThunk
Cvj:_emscripten_glDepthRange__wrapper
x1:__ZN14SerializedFile7ReleaseEv
cUh:_TextGenerator__ctor_m1469954680
Ukb:__ZN16MemoryFileSystem4OpenER13FileEntryData14FilePermission16FileAutoBehavior
v_e:_Collection_1_Remove_m3355928137_gshared
l7:__ZN13RuntimeStaticI13RendererSceneLb0EE13StaticDestroyEPv
SO:__ZN12AudioManager12CleanupClassEv
Ssb:__Z18Transfer_BlittableI24GenerateTypeTreeTransferLb1E12PropertyNameEvRK29SerializationCommandArgumentsR31RuntimeSerializationCommandInfo
L4b:__ZN5Light15InitializeClassEv
K5a:__ZN14SafeBinaryRead21TransferSTLStyleArrayI10vector_mapIPKN5Unity4TypeE7Hash128NSt3__24lessIS5_EENS7_9allocatorINS7_4pairIS5_S6_EEEEEEEvRT_17TransferMetaFlags
AG:__ZN9AudioClip18GetQueuedAudioDataEPPvj
dKc:__ZN20TextRenderingPrivate21TextMeshGeneratorImpl14GarbageCollectEv
LOg:_DefaultComparer_GetHashCode_m3439703487_gshared
K8b:__ZNK9Texture2D17CheckHasPixelDataEv
Fub:__Z18Transfer_BlittableI19StreamedBinaryWriteILb0EELb0E9BoundsIntEvRK29SerializationCommandArgumentsR31RuntimeSerializationCommandInfo
BMb:__Z18SetShadowsKeywordsR17ShaderPassContext9LightType10ShadowType16ShadowProjectionbb
Xgi:__ZN14dense_hash_mapI10KeyWrapperINSt3__24pairIPK12PropertyInfoP11Il2CppClassEEEj17ReflectionMapHashIS8_ENS9_14EqualsComparerINS1_8equal_toIS8_EEEENS1_9allocatorINS2_IKS9_jEEEEEC2EjRKSB_RKSF_
A4b:__ZN17CollisionMeshDataC2Ev
dbh:_Regex_get_RightToLeft_m529734879
Qyg:_ScrollRect_SetDirty_m93243192
LXa:__ZN16LightmapSettings23VirtualRedirectTransferER19StreamedBinaryWriteILb0EE
MIb:__ZZ23InitPlayerLoopCallbacksvEN47PostLateUpdateMemoryFrameMaintenanceRegistrator7ForwardEv
to:FUNCTION_TABLE_viiififii
b6f:__Z78RuntimeInvoker_Int32_t2071877448_RuntimeObject_RuntimeObject_Int32_t2071877448PFvvEPK10MethodInfoPvPS4_
Yzi:_GC_push_next_marked
Bab:__ZN18IDCollectorFunctor18GenerateInstanceIDEi17TransferMetaFlags
Voe:_NumberFormatter_ToDecHex_m1474793296
F0i:__ZL81Camera_t189460977_CustomAttributesCacheGenerator_Camera_GetAllCameras_m4202293088P21CustomAttributesCache
qkg:__Z74RuntimeInvoker_Int32_t2071877448_RaycastHit_t87180320_RaycastHit_t87180320PFvvEPK10MethodInfoPvPS4_
ixa:__ZN14StackAllocatorD0Ev
Gji:__ZN6il2cpp2vm6Thread8SetStateEP12Il2CppThreadNS0_11ThreadStateE
_Be:_OperatingSystem_Clone_m1943707477
Tkd:_FontData_set_richText_m29558601
NKf:_Scheduler_Change_m4063588742
g2h:__ZN6il2cpp2vm13MetadataCache25GetMethodGenericContainerEPK10MethodInfo
c5d:_Array_Resize_TisVector2_t2243707579_m1117258774_gshared
V2:__ZNSt3__27__sort4IRNS_6__lessI14ObjectLoadDataS2_EEPS2_EEjT0_S6_S6_S6_T_
hLb:__ZNK25CameraStackRenderingState16GetCurrentCameraEv
LTg:_InternalEnumerator_1_Dispose_m1640363425_AdjustorThunk
Rya:__ZN17PersistentManager4LockEv
mbc:__Z22PlayableValidityChecksRK9HPlayableb
k7a:__ZN15ResourceManagerD2Ev
XKe:_List_1_Insert_m2532850849_gshared
Xdc:__Z41Register_UnityEngine_Camera_GetAllCamerasv
YMe:_List_1_Sort_m2659614836_gshared
$gj:__ZL154U3CCaretBlinkU3Ec__Iterator0_t906898126_CustomAttributesCacheGenerator_U3CCaretBlinkU3Ec__Iterator0_System_Collections_IEnumerator_get_Current_m2309548992P21CustomAttributesCache
mvg:_MaskableGraphic_OnCanvasHierarchyChanged_m2012659245
wia:__ZN4crnd12crn_unpacker10unpack_dxnEPPhjjjjjj
iUc:__ZN28PerformanceReportingSettings8TransferI14SafeBinaryReadEEvRT_
d2g:_DefaultComparer__ctor_m3668042_gshared
vJd:_Double_Parse_m2344589511
w0i:__ZL81Camera_t189460977_CustomAttributesCacheGenerator_Camera_get_eventMask_m3043767706P21CustomAttributesCache
zbg:__Z78RuntimeInvoker_Boolean_t3825574718_IntPtr_t_Int32_t2071877448_SByte_t454417549PFvvEPK10MethodInfoPvPS4_
Asc:__Z18Transfer_BlittableI8JSONReadLb1E5RectTIiEEvRK29SerializationCommandArgumentsR31RuntimeSerializationCommandInfo
Eki:__ZN6il2cpp2vm22EmbeddedResourceRecordC2ERKS1_
ehb:__ZNSt3__26vectorIN9ShaderLab20SerializedSubProgram15VectorParameterENS_9allocatorIS3_EEE21__push_back_slow_pathIKS3_EEvRT_
dWa:__ZN9Texture2D13AwakeFromLoadE17AwakeFromLoadMode
Wbe:_Kernel_SingleByteDivideInPlace_m1760318278
eae:_MSCompatUnicodeTableUtil__cctor_m1479836795
qfh:_PositionAssertion__ctor_m3703837499
gsd:_LayoutGroup_get_minWidth_m4111745491
Iwe:_StreamWriter_Initialize_m1707678624
bsi:__ZN6il2cpp2vm3RCW14QueryInterfaceILb0EEEP14Il2CppIUnknownP15Il2CppComObjectRK10Il2CppGuid
Jyg:_ScrollRect_set_verticalScrollbar_m2903688658
Ska:__ZN6prcoreL17RemapGenericFloatI15TexFormatRFloat18TexFormatARGBFloatEEvPKNS_9InnerInfoE
b3i:__ZL77Mesh_t1356156583_CustomAttributesCacheGenerator_Mesh_SetTriangles_m4023324404P21CustomAttributesCache
rQi:__ZL50_Thread_t1894135853_CustomAttributesCacheGeneratorP21CustomAttributesCache
soh:_Mathf__cctor_m2286160987
NXg:_InternalEnumerator_1_get_Current_m1047712960_gshared
gij:__ZL67Selectable_t1490392188_CustomAttributesCacheGenerator_m_SpriteStateP21CustomAttributesCache
hVc:__ZN11UnityEngine15PlatformWrapper20GetPlayerPrefsUInt64ERKN4core12basic_stringIcNS1_20StringStorageDefaultIcEEEEy
kQb:__ZN20ReflectionProbeCacheC2ER13BatchRendererR15RenderLoopStats
JRa:__ZN7Texture23VirtualRedirectTransferER18StreamedBinaryReadILb0EE
gyg:_U3CClickRepeatU3Ec__Iterator0_System_Collections_Generic_IEnumeratorU3CobjectU3E_get_Current_m3444627780
icj:__ZL99CanvasRenderer_t261436805_CustomAttributesCacheGenerator_CanvasRenderer_SetAlphaTexture_m1030438445P21CustomAttributesCache
$7:__ZN18AssetBundleManagerC2Ev
Sjb:__ZNK12HandlerChain6ExistsERK13FileEntryData
y$i:__ZL61ExtensionAttribute_t1840441203_CustomAttributesCacheGeneratorP21CustomAttributesCache
TJd:_Convert_ToInt32_m2734833291
$Qb:__Z30FindDirectAttenuationFromProbeP18ForwardLightsBlockbiRK10RenderNodeRK23FindForwardLightsParamsf
P4a:__ZN12InputManager23VirtualRedirectTransferER24GenerateTypeTreeTransfer
Xib:__ZN9Transform23VirtualRedirectTransferER24GenerateTypeTreeTransfer
H_a:__Z18GetLODGroupManagerv
ROe:_List_1_Sort_m3574220472_gshared
ahb:__ZNSt3__26vectorIN9ShaderLab20SerializedSubProgram12UAVParameterENS_9allocatorIS3_EEE21__push_back_slow_pathIKS3_EEvRT_
E7g:_CrossAppDomainChannel_RegisterCrossAppDomainChannel_m43456045
Grf:_X509ChainElement_Count_m228862214
vMf:_TimeZone_IsDaylightSavingTime_m1840774423
WHc:_UNITY_tt_size_ready_bytecode
Clh:_InvokableCallList_ClearPersistent_m2011323876
_vc:__ZN13TextRendering4FontD2Ev
a6a:__ZN27GenericSlowGarbageCollectorD2Ev
H2f:__Z47RuntimeInvoker_Single_t2076509932_RuntimeObjectPFvvEPK10MethodInfoPvPS4_
Syc:_UNITY_FT_Stream_Open
wmg:__Z39RuntimeInvoker_KeyValuePair_2_t38854645PFvvEPK10MethodInfoPvPS4_
Pfe:_PKCS1_RSAEP_m3065689068
Utb:__Z29Transfer_Blittable_ArrayFieldI24GenerateTypeTreeTransfer9BoundsIntEvRT_R9ArrayInfoRK23StaticTransferFieldInfo
OBa:__ZN10MemoryFile4ReadEyyPvPy
Vhb:__ZN8keywords18KeywordSetToStringERK16ShaderKeywordSetRN4core12basic_stringIcNS3_20StringStorageDefaultIcEEEE
naa:__ZN13GfxDeviceGLES26UpdateViewProjectionMatrixEv
rih:_Bounds_op_Inequality_m1440807554
EGb:__ZNSt3__26vectorIN22BuiltinResourceManager8ResourceENS_9allocatorIS2_EEE21__push_back_slow_pathIKS2_EEvRT_
iLg:_Dictionary_2_ContainsKeyValuePair_m1750905675_gshared
xTg:_InternalEnumerator_1_System_Collections_IEnumerator_Reset_m1181480250_AdjustorThunk
Dpg:__Z54RuntimeInvoker_Void_t1841601450_LabelFixup_t4090909514PFvvEPK10MethodInfoPvPS4_
$4b:__ZZL23RegisterLightPropertiesR22GenericPropertyBindingEN22Wrapper_LightIntensity13SetFloatValueEPvf
aF:__ZN4FMOD3DSP12setParameterEif
yEb:__ZN13MemoryManager16StaticInitializeEv
ZLi:__ZL53StackFrame_t2050294881_CustomAttributesCacheGeneratorP21CustomAttributesCache
lf:___cxa_free_exception
Q3e:_ReadOnlyCollection_1_System_Collections_ICollection_CopyTo_m4126742951_gshared
bJ:__ZN4FMOD22FakeModChannelCallbackEPv
rf:_emscripten_glValidateProgram
ZLa:__ZN4Mesh10CreateMeshEv
pei:__ZN6il2cpp2gc19AppendOnlyGCHashMapINSt3__24pairIPK9EventInfoP11Il2CppClassEEP21Il2CppReflectionEvent17ReflectionMapHashIS9_ENS2_8equal_toIS9_EEE3AddERKS9_SB_
TF:__ZN4FMOD7SystemI11createSoundEPKcjP22FMOD_CREATESOUNDEXINFOPPNS_5SoundE
Kzf:_ArrayFixupRecord_FixupImpl_m2377725358
QFc:_cf2_stack_clear
iRd:_Double_System_IConvertible_ToBoolean_m4251806534_AdjustorThunk
Wce:_BigInteger_op_GreaterThanOrEqual_m1998498565
XFg:_ShimEnumerator_Reset_m2247049027_gshared
pmi:__ZN6il2cpp6icalls8mscorlib6System4Type27get_IsGenericTypeDefinitionEP20Il2CppReflectionType
KVb:__ZN7Texture13SetAnisoLevelEi
cR:__ZNSt3__26__treeINS_12__value_typeIN4core12basic_stringIcNS2_20StringStorageDefaultIcEEEEjEENS_19__map_value_compareIS6_S7_NS_4lessIS6_EELb1EEE13stl_allocatorIS7_L18MemLabelIdentifier88ELi16EEE7destroyEPNS_11__tree_nodeIS7_PvEE
Zpf:_X509Chain_Process_m2508784250
MPe:_List_1_RemoveAt_m2929488689_gshared
WOh:__ZL24UnresolvedVirtualCall_70P12Il2CppObjectS0_S0_iS0_S0_PK10MethodInfo
GJc:_raccess_guess_vfat
NIg:_ValueCollection_System_Collections_IEnumerable_GetEnumerator_m2109355710_gshared
gQc:__Z44Canvas_CUSTOM_GetETC1SupportedCanvasMaterialv
_Ka:__ZN11HaloManager10UpdateHaloEiR9Transform11ColorRGBA32fjP6Object
IY:__ZN33InstancedMeshIntermediateRenderer13StaticDestroyEPv
Dne:_Int16_Parse_m3012618547
hni:__ZN14dense_hash_mapI10KeyWrapperIP14Il2CppIUnknownEjN6il2cpp5utils11PointerHashIS1_EENS3_14EqualsComparerINSt3__28equal_toIS2_EEEENS9_9allocatorINS9_4pairIKS3_jEEEEE13set_empty_keyERSF_
_8f:__Z50RuntimeInvoker_Void_t1841601450_OpCode_t2247480392PFvvEPK10MethodInfoPvPS4_
yZd:_Array_InternalArray__IEnumerable_GetEnumerator_TisVector4_t2243707581_m829381058_gshared
QJa:__Z21DestroyShadowMapCacheP14ShadowMapCache
Rw:__ZN7mecanim9animation25CreateControllerWorkspaceEPKNS0_18ControllerConstantERNS_6memory9AllocatorE
EDe:_Enumerator_VerifyState_m739025304_gshared
_id:_Graphic_RegisterDirtyVerticesCallback_m4169445219
uYi:__ZL61LoaderOptimization_t1143026982_CustomAttributesCacheGeneratorP21CustomAttributesCache
vgi:__ZN15dense_hashtableINSt3__24pairIK10KeyWrapperIPK10Il2CppTypeEjEES6_N6il2cpp8metadata14Il2CppTypeHashEN14dense_hash_mapIS6_jSB_NS6_14EqualsComparerINSA_26Il2CppTypeEqualityComparerEEENS0_9allocatorIS8_EEE9SelectKeyESF_SH_E14squash_deletedEv
Fmi:__ZN6il2cpp2vm13LivenessState5ResetEv
mmg:__Z138RuntimeInvoker_Void_t1841601450_RuntimeObject_Color32_t874517518_Int32_t2071877448_Int32_t2071877448_Single_t2076509932_Single_t2076509932PFvvEPK10MethodInfoPvPS4_
Koc:__ZN9JSONWrite8TransferI11KeyframeTplIfEEEvRT_PKc17TransferMetaFlags
YBg:_Text_get_cachedTextGenerator_m224335893
w6d:_Array_swap_TisVector4_t2243707581_m3504221493_gshared
g6i:__ZL122PropertyNameUtils_t2642641347_CustomAttributesCacheGenerator_PropertyNameUtils_PropertyNameFromString_m2013205104____name0P21CustomAttributesCache
h1g:_InternalEnumerator_1_Dispose_m4229866913_AdjustorThunk
Txf:_ObjRef_get_ChannelInfo_m53840305
Oni:__ZN6il2cpp2vm3RCW23GetOrCreateFromIUnknownEP14Il2CppIUnknownP11Il2CppClass
pHb:__ZN24BuiltinShaderParamValuesC2Ev
Zoc:__ZL41CreateJSONTransferFunctionScriptingTraitsv
Jyd:_Convert_ToInt32_m3683486440
dlg:__Z65RuntimeInvoker_Void_t1841601450_Rect_t3681755626_SByte_t454417549PFvvEPK10MethodInfoPvPS4_
C8i:__ZL65AnimationMixerPlayable_t1343787797_CustomAttributesCacheGeneratorP21CustomAttributesCache
Mte:_FileStream_get_CanWrite_m775322953
QZi:__ZL72PKCS12_t1362584795_CustomAttributesCacheGenerator_U3CU3Ef__switchU24map7P21CustomAttributesCache
$Kf:_TimerCallback_BeginInvoke_m2938818726
zCb:__Z23GetLateBehaviourManagerv
Kbd:_ExecuteEvents_Execute_m2863348178
r1:__ZN10MemoryPool10DeallocateEPv
elc:__ZN8GUIState8SetEventERK10InputEvent
xke:_NumberFormatInfo__ctor_m2752806684
Djf:_SslStreamBase_get_CanRead_m3061866682
TVe:_Collection_1_System_Collections_IList_get_IsReadOnly_m1820916678_gshared
Yna:__ZN14GfxDeviceStats10ResetFrameEv
ach:_PatternCompiler_EmitFastRepeat_m1175707353
U7d:_Array_InternalArray__get_Item_TisKeyValuePair_2_t3716250094_m3120861630_gshared
sAc:_cff_driver_class_pic_free
n7i:__ZL116PlayableAsset_t2298101656_CustomAttributesCacheGenerator_PlayableAsset_Internal_GetPlayableAssetDuration_m1006742529P21CustomAttributesCache
QOf:_UInt32_TryParse_m3987111861
cv:__ZN17AnimationPlayable22SetStateMachineMessageEN7mecanim12statemachine19StateMachineMessageE
Jtj:dynCall_vif
Ktj:dynCall_vid
GJe:_List_1_System_Collections_IList_get_Item_m3989815218_gshared
Ltj:dynCall_vii
FLa:__ZN4PPtrI8MaterialE8TransferI18StreamedBinaryReadILb0EEEEvRT_
t3i:__ZL85Sprite_t309593783_CustomAttributesCacheGenerator_Sprite_INTERNAL_get_rect_m3094981747P21CustomAttributesCache
mAb:__Z18Transfer_BlittableI18StreamedBinaryReadILb0EELb0EdEvRK29SerializationCommandArgumentsR31RuntimeSerializationCommandInfo
rbh:_Enumerator_System_Collections_IEnumerator_MoveNext_m3313126804
FMb:__ZNK17InstancedPropInfo14IsInstanceableERK19ShaderPropertySheet
Zhe:_PKCS12_Finalize_m107130293
Hua:__ZN5Unity9Component16CheckConsistencyEv
a7b:__Z38scripting_class_get_system_type_object17ScriptingClassPtr
vfd:_LayoutRebuilder_ValidController_m2595049322
Gna:__ZN7ApiGLES11CheckShaderERjb
FHa:__ZN19ShaderPropertySheet37CreateTextureAuxPropertyUninitializedEN9ShaderLab16FastPropertyNameES1_PKc
hvb:__ZL26Transfer_SimpleNativeClassI19StreamedBinaryWriteILb0EE10RectOffsetLb1EEvRK29SerializationCommandArgumentsR31RuntimeSerializationCommandInfo
wCe:_KeyValuePair_2_get_Value_m544293807_gshared
T7d:_Array_InternalArray__get_Item_TisKeyValuePair_2_t1174980068_m964958642_gshared
pTc:__ZN11UnityEngine7Connect17DeviceStatusEventD2Ev
wDd:_DictionaryEntry_get_Key_m3623293571_AdjustorThunk
Vbi:__ZN15dense_hashtableINSt3__24pairIK10KeyWrapperIPK10Il2CppTypeEjEES6_N6il2cpp8metadata14Il2CppTypeHashEN14dense_hash_mapIS6_jSB_NS6_14EqualsComparerINSA_26Il2CppTypeEqualityComparerEEENS0_9allocatorIS8_EEE9SelectKeyESF_SH_E3endEv
bRb:__Z28GetNonInterpolatedLightProbeRK17LightProbeContextjR20SphericalHarmonicsL2
l0d:_Array_InternalArray__ICollection_Add_TisDateTime_t693205669_m3559987213_gshared
eda:__ZN13GfxDeviceGLES17SetGpuProgramNameEP10GpuProgramPKc
