xc:_glClearStencil
H0d:_Array_InternalArray__ICollection_Add_TisMark_t2724874473_m1613484179_gshared
egj:__ZL80Graphic_t2426225576_CustomAttributesCacheGenerator_Graphic_OnFillVBO_m1723985607P21CustomAttributesCache
_ti:__ZN6il2cpp2vm5Array13GetByteLengthEP11Il2CppArray
Swg:_Raycast3DCallback_BeginInvoke_m3028685017
S5f:__Z79RuntimeInvoker_RuntimeObject_Int64_t909078037_Int64_t909078037_Int64_t909078037PFvvEPK10MethodInfoPvPS4_
XQg:_EqualityComparer_1__cctor_m968537130_gshared
uUh:_TextGenerator_Invalidate_m1993568841
W5e:_Comparison_1_Invoke_m353639462_gshared
oIa:__Z30GetIntermediateRendererManagerv
zld:_GraphicRegistry_RegisterGraphicForCanvas_m2284226562
Sia:__Z21SourceMipLevelForBlitiiii
ZMa:__ZN31CanvasBatchIntermediateRenderer15AddAsRenderNodeER15RenderNodeQueueRK20DeprecatedSourceData
UFd:_Enumerator_get_Key_m2908810861
EDh:_GUI_DoSetSkin_m2532620610
Qr:__ZN11UnityEngine9Animation28GenericAnimationBindingCacheD2Ev
MFe:_List_1_System_Collections_IList_IndexOf_m39706221_gshared
dLg:_Dictionary_2_Remove_m1849931834_gshared
KId:_Decimal_op_Implicit_m2971610317
REh:_GUILayoutGroup_ResetCursor_m3614985691
Xid:_Graphic_UnregisterDirtyVerticesCallback_m1526739224
nWb:__Z18RestoreRenderStateR20CameraRenderOldStateR17ShaderPassContext
CBd:_SynchronizedArrayListWrapper_get_Item_m3309425850
Vwb:__Z18Transfer_BlittableI18StreamedBinaryReadILb1EELb1E5RectTIfEEvRK29SerializationCommandArgumentsR31RuntimeSerializationCommandInfo
cmh:_UnityEventBase_RebuildPersistentCallsIfNeeded_m2776978024
Nsb:__Z18Transfer_BlittableI24GenerateTypeTreeTransferLb0E11ColorRGBA32EvRK29SerializationCommandArgumentsR31RuntimeSerializationCommandInfo
R0:__Z25scripting_class_from_name17ScriptingImagePtrPKcS1_
Zgi:__ZN14dense_hash_mapI10KeyWrapperINSt3__24pairIPK12PropertyInfoP11Il2CppClassEEEj17ReflectionMapHashIS8_ENS9_14EqualsComparerINS1_8equal_toIS8_EEEENS1_9allocatorINS2_IKS9_jEEEEE15set_deleted_keyERSH_
ZCb:__Z29scripting_class_enum_basetype17ScriptingClassPtr
qhg:__Z111RuntimeInvoker_Void_t1841601450_Vector4_t2243707581_Vector4_t2243707581_Vector4_t2243707581_Vector4_t2243707581PFvvEPK10MethodInfoPvPS4_
NXf:_GenericTypeParameterBuilder_GetHashCode_m867619899
iMf:_TimeSpan_ToString_m2947282901
tQg:_EqualityComparer_1__cctor_m3397254040_gshared
okb:__ZNK20LocalFileSystemPosix6ParentERK13FileEntryDataRN4core12basic_stringIcNS3_20StringStorageDefaultIcEEEE
S5d:_Array_Sort_TisVector2_t2243707579_m1307634946_gshared
vga:__ZN7ApiGLES17CopyBufferSubDataEjjlll
_Pf:_UInt64_System_IConvertible_ToDecimal_m4205696037
Enc:__ZN5Unity9rapidjson15GenericDocumentINS0_4UTF8IcEE13JSONAllocatorS4_E11ParseStreamILj1ES3_NS0_25GenericInsituStringStreamIS3_EEEERS5_RT1_
fSh:_U3CCreateWhereIteratorU3Ec__Iterator1D_1_Reset_m1773515612_gshared
nOb:__ZN25CameraStackRenderingState20GetOrCreateBuiltinRTE24BuiltinRenderTextureTypeii17DepthBufferFormat19RenderTextureFormatj22RenderTextureReadWrite14VRTextureUsagei
WKh:_AesManaged_CreateEncryptor_m1729287824
d1a:__ZNK14Texture2DArray26CanReuploadDataToGfxDeviceEv
ISb:__ZN17PrePassRenderLoop14RenderBasePassEP13RenderTextureRK14LightingLayersR13dynamic_arrayI16RenderObjectDataLj4EERbR10MinMaxAABB
Hyd:_Char_System_IConvertible_ToInt16_m2741348777_AdjustorThunk
slc:__ZN5IMGUI18RepaintModalWindowER8GUIState
q$e:_ReadOnlyCollection_1_System_Collections_Generic_IListU3CTU3E_set_Item_m1547026160_gshared
eHa:__ZNK15dense_hashtableINSt3__24pairIKN9ShaderLab7Program23ShaderKeywordSetAndHashEPKNS2_10SubProgramEEES4_NS3_24ShaderKeywordHashFunctorEN14dense_hash_mapIS4_S8_SA_NS0_8equal_toIS4_EE13stl_allocatorIS9_L18MemLabelIdentifier67ELi16EEE9SelectKeyESD_SG_E23find_position_with_hashERS5_j
oKi:__ZL61MarshalAsAttribute_t2900773360_CustomAttributesCacheGeneratorP21CustomAttributesCache
M$a:__Z23SetSpriteMeshIndexCountP14SharedMeshDataj
rQa:__ZN7Texture13SetFilterModeEi
Vcc:__Z46Register_UnityEngine_Application_get_isPlayingv
Zvi:__ZN6il2cpp8metadata13GenericMethod9GetMethodEPK19Il2CppGenericMethod
jq:__ZNSt3__26vectorIN4core12basic_stringIcNS1_20StringStorageDefaultIcEEEENS_9allocatorIS5_EEE7reserveEj
cLd:_Convert_ToUInt16_m2130758075
fdi:__ZN15dense_hashtableINSt3__24pairIK10KeyWrapperINS1_IPK11Il2CppImageP11Il2CppClassEEEjEES9_17ReflectionMapHashIS8_EN14dense_hash_mapIS9_jSD_NS9_14EqualsComparerINS0_8equal_toIS8_EEEENS0_9allocatorISB_EEE9SelectKeyESI_SK_E3endEv
lpf:_X509BasicConstraintsExtension_Encode_m3505127076
Eaa:__ZN13GfxDeviceGLES11SetViewportERK5RectTIiE
Vnd:_Image_get_pixelsPerUnit_m4104195799
oDg:_Toggle_InternalToggle_m2323729210
oPd:_Decimal_System_IConvertible_ToInt64_m2504363272
Fic:__Z24Time_Get_Custom_PropTimev
Ptd:_Array_GetValue_m3182152438
Pd:_emscripten_glDepthRange
CEf:_DESTransform_CipherFunct_m3559419566
w_c:_Rijndael_Create_m113171669
wYb:__ZNSt3__26vectorINS_4pairIN4core12basic_stringIcNS2_20StringStorageDefaultIcEEEES6_EE13stl_allocatorIS7_L18MemLabelIdentifier38ELi16EEE12__move_rangeEPS7_SC_SC_
ndb:__Z14resize_trimmedINSt3__26vectorIN9ShaderLab20SerializedSubProgram12UAVParameterENS0_9allocatorIS4_EEEEEvRT_j
Ync:__ZN5Unity9rapidjson13GenericReaderINS0_4UTF8IcEES3_13JSONAllocatorE11ParseObjectILj1ENS0_25GenericInsituStringStreamIS3_EENS0_15GenericDocumentIS3_S4_S4_EEEEvRT0_RT1_
Szf:_SerializationInfo_AddValue_m1781549036
mdf:_TlsServerKeyExchange_verifySignature_m3641534563
W9b:__ZN13BuildSettings34ConvertScenePathToDisplayScenePathERKN4core12basic_stringIcNS0_20StringStorageDefaultIcEEEE
X2:__ZNSt3__218__insertion_sort_3IRNS_6__lessI14ObjectLoadDataS2_EEPS2_EEvT0_S6_T_
CBg:_Slider_FindSelectableOnLeft_m3136767885
qia:__ZN4crndL20crnd_default_reallocEPvjPjbS0_
DZd:_Array_BinarySearch_TisInt32_t2071877448_m51233948_gshared
Kqj:__ZNSt3__212basic_stringIcNS_11char_traitsIcEENS_9allocatorIcEEEC2ERKS5_
nyf:_ProviderData_CopyFrom_m431414335
C0a:__ZN18SpriteAtlasManager19AddRequestingSpriteE4PPtrI6SpriteE
YHf:_UTF32Encoding_GetPreamble_m767706727
qic:__Z33Texture_CUSTOM_Internal_GetHeightP12Il2CppObject
ksd:_LayoutGroup_get_preferredHeight_m3901163825
rVb:__ZN23ScriptableRenderContextC2Ev
nId:_DateTime_AbsoluteDays_m3061694073
XIc:_UNITY_FT_Stream_GetChar
uxb:__Z18Transfer_BlittableI18StreamedBinaryReadILb1EELb1EdEvRK29SerializationCommandArgumentsR31RuntimeSerializationCommandInfo
fFg:_Enumerator_System_Collections_IEnumerator_get_Current_m229223308_gshared
gDb:__Z26BuildSerializationCacheFor17ScriptingClassPtrRb
woa:__ZN7ApiGLES15BlitFramebufferEN2gl6HandleILNS0_10ObjectTypeE9EEENS0_15FramebufferReadES3_S3_iiiiiiiiNS0_15FramebufferTypeE
Voh:_Mesh_CheckCanAccessSubmeshTriangles_m2644388378
Weg:__Z112RuntimeInvoker_RuntimeObject_RuntimeObject_RuntimeObject_RuntimeObject_RuntimeObject_RuntimeObject_RuntimeObjectPFvvEPK10MethodInfoPvPS4_
eBh:_UnitySynchronizationContext__ctor_m1804960286
lBd:_FixedSizeArrayListWrapper_AddRange_m2071800418
OD:__ZN13ProduceHelperI8AnimatorLb0EE7ProduceE18MemLabelIdentifier18ObjectCreationMode
zEb:__Z9InitInputv
ybg:__Z85RuntimeInvoker_Boolean_t3825574718_Int64_t909078037_Int64_t909078037_SByte_t454417549PFvvEPK10MethodInfoPvPS4_
zEe:_Enumerator_VerifyState_m2358705882_AdjustorThunk
eCc:_UNITY_tt_face_build_cmaps
Sxg:_Selectable_Navigate_m915280351
tlb:__ZN16MemoryFileSystem6DeleteER13FileEntryDatab
ija:__ZL21BlitScaleStbImageImplRK14ImageReferenceRS_NS_10ColorSpaceE
nxh:_RectTransform_INTERNAL_set_pivot_m4248720081
Tjf:_TlsStream_set_Position_m378064217
Fob:__Z29Transfer_Blittable_ArrayFieldI14SafeBinaryReadyEvRT_R9ArrayInfoRK23StaticTransferFieldInfo
KL:__ZN20SoundChannelInstance15setChannelGroupEPN4FMOD12ChannelGroupE
C3c:_Evidence_Equals_m2325859915
auh:_PlayableHandle_INTERNAL_CALL_GetPlayableTypeOf_m1683061051
YSf:_Default__ctor_m172834064
lc:invoke_vifffii
Cli:__ZN6il2cpp2vm9Exception27RaiseNullReferenceExceptionEv
Bdh:_Regex_IsMatch_m2159202025
mBa:__ZNK25MultiBlocksMemoryFileData5CloneEv
BBi:_GC_add_ext_descriptor
yvf:_RemotingServices_GetMethodBaseFromName_m3271095947
Lsj:dynCall_iiiiiiiiiiii
E8c:_ASCIIEncoding_GetBytes_m3617160053
qcf:_CipherSuiteCollection_System_Collections_IList_RemoveAt_m143866082
Xhb:__ZL26KeywordSetToStringDontSortRKNSt3__26vectorIN4core12basic_stringIcNS1_20StringStorageDefaultIcEEEENS_9allocatorIS5_EEEERS5_
ala:__ZN6prcoreL17RemapGenericFloatI16TexFormatRGFloat17TexFormatRGBAHalfEEvPKNS_9InnerInfoE
fG:__ZN12AudioManager22CreateFMODSoundFromWWWEP10IWWWStream15FMOD_SOUND_TYPE17FMOD_SOUND_FORMATjjbbP10SampleClip
U3b:__ZNK32RendererMaterialAnimationBinding15GenerateBindingERKN4core12basic_stringIcNS0_20StringStorageDefaultIcEEEEbRN11UnityEngine9Animation14GenericBindingE
e0:__ZN8Remapper23GetOrGenerateInstanceIDERK26SerializedObjectIdentifier
Nwe:_StreamWriter_Flush_m3426120024
Ya:invoke_iiiiiifffiiifii
rue:_MemoryStream__ctor_m1489366847
W3c:_SecurityElement_IsValidTag_m64902195
iFg:_Enumerator_System_Collections_IEnumerator_get_Current_m229223308_AdjustorThunk
b2f:_PropertyInfo_SetValue_m2961483868
uKe:_List_1_System_Collections_IList_Contains_m4193366963_gshared
uTf:_ConstructorInfo_Invoke_m2144827141
Z$a:__ZN6Sprite8TransferI24GenerateTypeTreeTransferEEvRT_
yjc:__Z48Register_UnityEngine_Transform_SetAsFirstSiblingv
a0a:__ZN7SubMesh8TransferI24GenerateTypeTreeTransferEEvRT_
f1f:_MonoProperty_get_CanWrite_m2124922514
Q4h:__ZN6il2cpp6icalls8mscorlib6SystemL16CheckMemberMatchI9FieldInfoNS_5utils10functional6FilterINSt3__212basic_stringIcNS8_11char_traitsIcEENS8_9allocatorIcEEEENS5_13VmStringUtils23CaseInsensitiveComparerEEEEEbPKT_PK11Il2CppClassSN_iRKT0_
Mpj:_poll
due:_Stream_BeginRead_m1985960185
b2b:__ZN13ProduceHelperI14Texture2DArrayLb0EE7ProduceE18MemLabelIdentifier18ObjectCreationMode
G9e:_MD4Managed_GG_m1462438360
Vgc:__Z53PlayableHandle_CUSTOM_INTERNAL_CALL_GetPlayableTypeOfR9HPlayable
Mac:__ZN9Transform23SetSiblingIndexInternalEib
Vre:_BinaryReader_CheckBuffer_m1059275266
Taa:__ZN13GfxDeviceGLES17DestroySubProgramEPN9ShaderLab10SubProgramE
Ot:__ZN7mecanim5human12HumanPoseSubERNS0_9HumanPoseERKS1_S4_
aCh:_Vector3_Max_m2076081170
s9e:_MD4_Create_m2582504069
$pi:__ZN6il2cpp8metadata15GenericMetadata15GetGenericClassEiPK17Il2CppGenericInst
swd:_Boolean_System_IConvertible_ToInt16_m977801621
enb:__Z18Transfer_BlittableI14SafeBinaryReadLb0E10Matrix4x4fEvRK29SerializationCommandArgumentsR31RuntimeSerializationCommandInfo
yCb:__Z24GetFixedBehaviourManagerv
ALb:__ZN12FlareManager9UpdateJobEP25FlareManagerUpdateJobData
t4h:__ZN6il2cpp2vm10ThreadPool4WaitEP17Il2CppAsyncResultPPv
iqh:_Plane__ctor_m730644932_AdjustorThunk
Xnj:_vfprintf
Rlc:__ZN10GUIManager12AddGUIScriptER8ListNodeI13MonoBehaviourE
qMa:__ZN19ShaderPropertySheet20ReservePropertyCountEj
iMb:__ZN20DynamicPropertySheetD0Ev
BYb:__ZN14SafeBinaryRead17RegisterConverterEPKcS1_PFbPvRS_E
MX:__ZN35RegisterRuntimeInitializeAndCleanup8RegisterEPFvPvES2_iS0_
v4e:_ReadOnlyCollection_1_System_Collections_IList_Clear_m2600246370_gshared
pee:_DSAManaged_NormalizeArray_m2287089393
Cjc:__Z21Object_CUSTOM_DestroyP12Il2CppObjectf
E0g:_InternalEnumerator_1_System_Collections_IEnumerator_get_Current_m2389982234_AdjustorThunk
Bhb:__ZN8Material26ResetAllCachedMaterialDataEP6Shader
fJc:_UNITY_TT_Get_MM_Var
AWh:__ZN6il2cpp6icalls8mscorlib6System7Decimal13decimal2Int64EP19il2cpp_decimal_reprPx
aa:invoke_diddi
$bd:_ExecuteEvents__cctor_m288775360
kLc:__ZNK2UI6Canvas13GetRenderModeEv
yJd:_Double_TryParseStringConstant_m2585405703
qmb:__Z18Transfer_BlittableI14SafeBinaryReadLb0EiEvRK29SerializationCommandArgumentsR31RuntimeSerializationCommandInfo
f3h:__ZN6il2cpp2vm13MetadataCache30GetPropertyDefinitionFromIndexEi
O4g:_ResourceEnumerator__ctor_m1679839941
H_c:_RijndaelTransform_Clear_m1652144089
Jse:_MonoIO_GetException_m2577367044
RTc:__ZN22BaseUnityConnectClient17InitializeSessionERKN4core12basic_stringIcNS0_20StringStorageDefaultIcEEEES6_N19CloudServiceHandler13InitModeFlagsE
JHg:_Enumerator_MoveNext_m1404007384_gshared
uBe:_NumberFormatter_get_IsZero_m1325357749
Soh:_Mesh_PrintErrorCantAccessIndices_m2990602703
Fyj:_emscripten_glDeleteBuffers__wrapper
Gjg:__Z121RuntimeInvoker_Void_t1841601450_Single_t2076509932_Single_t2076509932_Single_t2076509932_Single_t2076509932_RuntimeObjectPFvvEPK10MethodInfoPvPS4_
OSd:_Enum_ToObject_m322320225
rcc:__ZN13MonoBehaviour34StopCoroutineFromEnumeratorManagedE18ScriptingObjectPtr
i2c:_X509Certificate__ctor_m3860837120
emg:__Z109RuntimeInvoker_RuntimeObject_Ray_t2469606224_Single_t2076509932_Int32_t2071877448_RuntimeObject_RuntimeObjectPFvvEPK10MethodInfoPvPS4_
q4e:_ReadOnlyCollection_1_System_Collections_Generic_IListU3CTU3E_set_Item_m3663361643_gshared
$D:__ZN7mecanim9animation14AvatarConstant15InitializeClassEv
ibd:_EventTrigger_OnScroll_m626934407
L8a:__ZN30RuntimeInitializeOnLoadManager8TransferI18StreamedBinaryReadILb0EEEEvRT_
XVf:_TypeBuilder_not_supported_m3178173643
xBc:_UNITY_tt_face_load_pclt
Mbc:__ZL34GetComponentsImplementationRecurseILb1ELi0ELi2EEbR10GameObjectbRK17CompareParametersRK39GetComponentsImplementation_ReturnValue
eEi:__ZN6il2cpp6icalls8mscorlib6System9Threading5Mutex20CreateMutex_internalEbP12Il2CppStringPb
UAd:_ArrayListWrapper_Remove_m1105489978
ELb:__ZNK6Camera18WorldToScreenPointERK8Vector3fPb
hFh:_GUISkin__ctor_m2824039590
Rwd:_Boolean_CompareTo_m3691698947_AdjustorThunk
KEd:_HashKeys_CopyTo_m3566668422
Sna:__Z18IsCompressedFormat14GraphicsFormat
Pyd:_Convert_ToSByte_m2665932200
q$:__ZNSt3__227__insertion_sort_incompleteIRPFbRKN18AwakeFromLoadQueue4ItemES4_EPS2_EEbT0_S9_T_
SUf:_ILGenerator_label_fixup_m1325994348
j1h:__ZN14dense_hash_mapI10KeyWrapperIN6il2cpp5utils13dynamic_arrayIPK10Il2CppTypeLj4EEEEPFvvENS1_8metadata19Il2CppSignatureHashENS8_14EqualsComparerINSB_22Il2CppSignatureCompareEEENSt3__29allocatorINSG_4pairIKS8_SA_EEEEE15set_deleted_keyERSJ_
Ovg:_Navigation_Equals_m4214630671_AdjustorThunk
C1e:_ReadOnlyCollection_1_System_Collections_Generic_IListU3CTU3E_set_Item_m257196015_gshared
B_f:_FieldInfo_GetPseudoCustomAttributes_m2500972355
dYa:__ZN26EnlightenSystemInformation8TransferI14SafeBinaryReadEEvRT_
W7d:_Array_InternalArray__get_Item_TisLink_t2723257478_m2281261655_gshared
gVc:__ZN11UnityEngine15PlatformWrapper20SetPlayerPrefsUInt64ERKN4core12basic_stringIcNS1_20StringStorageDefaultIcEEEEy
W3a:__ZN12MeshRendererD0Ev
dP:__ZN12AudioManager35GetCurrentSpatializerDefinitionNameEv
MDd:_Hashtable__ctor_m2702360557
yh:_utime
zCh:_Vector4_get_sqrMagnitude_m641641704_AdjustorThunk
oB:__Z28SetExposedSkeletonTransformsRKN7mecanim9animation14AvatarConstantERKN11UnityEngine9Animation30AnimatorGenericBindingConstantERKNS_8skeleton13SkeletonPoseTIN4math4trsXEEERKNSA_INSB_7affineXEEERNS5_21AvatarBindingConstantEy
WXd:_PlayableHandle_IsPlayableOfType_TisAnimationLayerMixerPlayable_t3057952312_m2522157783_AdjustorThunk
e8e:_PrimalityTest_Invoke_m4058801829
on:FUNCTION_TABLE_viiiiif
Xyf:_RemotingConfiguration_SetCustomErrorsMode_m1844153208
tn:FUNCTION_TABLE_viiiiii
hVd:_CultureInfo_GetFormat_m3560116485
NC:__ZN7mecanim9animation22DestroyAvatarWorkspaceEPNS0_15AvatarWorkspaceERNS_6memory9AllocatorE
beh:_AnchorInfo_get_IsPosition_m3791659233
OSb:__ZN15LightmapSTCacheC2ER13BatchRendererR15RenderLoopStats
nlc:__ZNSt3__210__list_impIN10GUIManager12SortedScriptE11memory_poolIS2_EE5clearEv
LUa:__ZN14PlayableOutput17SetSourcePlayableEP8Playable
D8a:__ZNSt3__26vectorIN4core12basic_stringIcNS1_20StringStorageDefaultIcEEEE13stl_allocatorIS5_L18MemLabelIdentifier13ELi16EEE8__appendEj
mzf:_TrackingServices__cctor_m3639412334
dC:__ZN7mecanim9animation29MotionOutputGetDeltaTransformEPKNS0_12MotionOutputE
Z$b:__Z13RegisterClassI16GraphicsSettingsEvv
wE:__ZN8Animator14OnAddComponentEPN5Unity9ComponentE
zQe:_List_1_CheckMatch_m1184924052_gshared
Vic:__Z43Transform_CUSTOM_INTERNAL_get_localRotationP12Il2CppObjectP11Quaternionf
P4b:__ZZL23RegisterLightPropertiesR22GenericPropertyBindingEN20Wrapper_LightColorr013SetFloatValueEPvf
bi:_emscripten_glGetTexParameteriv
Baf:_RSAManaged_ImportParameters_m3060955884
o7g:_ChannelData_CopyFrom_m4049054607
g0b:__Z13RegisterClassI4MeshEvv
iUa:__ZN8PlayableD0Ev
IH:__ZN12AudioManager8TransferI19StreamedBinaryWriteILb0EEEEvRT_
Kue:_WriteDelegate_Invoke_m2103848735
jKh:_Locale_GetText_m512920887
Fyf:_RemotingConfiguration_get_ProcessId_m3870172209
Ile:_SortKey_ToString_m2406913228
Yjb:__ZN22LocalFileSystemHandler9MakeLocalER13FileEntryDatab
Gxi:__ZN6il2cpp2vm8Profiler10AllocationEP12Il2CppObjectP11Il2CppClass
FId:_Convert_ToDateTime_m1020507389
Zyc:__ZNSt3__23mapIN20TextRenderingPrivate7FontRefENS1_6OSFontENS_4lessIS2_EENS_9allocatorINS_4pairIKS2_S3_EEEEEixERS8_
Unh:_Material_SetInt_m2847439171
E8:__Z13FormatOrderedPKcz
Hse:_Path_IsPathRooted_m1347207448
AAf:_ObjectManager_RegisterObjectInternal_m879109503
EVd:_Array_get_swapper_TisVector4_t2243707581_m97441823_gshared
mwc:__ZN14SafeBinaryRead21TransferSTLStyleArrayI10vector_mapINSt3__24pairIttEEfN20TextRenderingPrivate8FontImpl14KerningCompareENS2_9allocatorINS3_IS4_fEEEEEEEvRT_17TransferMetaFlags
C0b:__Z13RegisterClassI15QualitySettingsEvv
owi:__ZN6il2cpp2vm6String21InitializeEmptyStringEP11Il2CppClass
xSb:__ZN25DeferredRenderLoopScratchD0Ev
jw:__ZN27AnimationLayerMixerPlayable14SetInputWeightEif
Kt:__ZN7mecanim9animation17EvaluateHumanPoseERKNS0_18ClipMuscleConstantERKNS0_15ClipMuscleInputEPKfRKNS0_12MotionOutputERNS_5human9HumanPoseE
ymh:_GameObject_AddComponent_m540062519
Wcb:__ZN15dense_hashtableINSt3__24pairIKiN4core17string_with_labelILi1EEEEEi18SInt32HashFunctionN14dense_hash_mapIiS5_S7_NS0_8equal_toIiEE13stl_allocatorIS6_L18MemLabelIdentifier1ELi16EEE9SelectKeyESA_SD_E9copy_fromERKSG_j
tIa:__ZN6Camera11ResetAspectEv
LNf:_Type_get_IsGenericType_m3396841573
l7a:__ZN15ResourceManagerD0Ev
npf:_X509BasicConstraintsExtension_get_HasPathLengthConstraint_m3788532759
pMa:__ZNK17InstancedPropInfo22FillInstancePropertiesER19ShaderPropertySheetjPK17BatchInstanceDatajRK15RenderNodeQueue
qHa:__ZN22CreateGpuProgramOutputD2Ev
MO:__ZN13ProduceHelperI13AudioListenerLb0EE7ProduceE18MemLabelIdentifier18ObjectCreationMode
dVh:_WillRenderCanvases_Invoke_m4267547094
EHd:_DateTimeFormatInfo_GetInstance_m3133223810
y7e:_ModulusRing_BarrettReduction_m2802101099
hjb:__ZN12HandlerChain4OpenER13FileEntryData14FilePermission16FileAutoBehavior
Cci:__ZN15dense_hashtableINSt3__24pairIK10KeyWrapperINS1_IPK10MethodInfoP11Il2CppClassEEEjEES9_17ReflectionMapHashIS8_EN14dense_hash_mapIS9_jSD_NS9_14EqualsComparerINS0_8equal_toIS8_EEEENS0_9allocatorISB_EEE9SelectKeyESI_SK_E6insertERKSB_
KIg:_ValueCollection_System_Collections_Generic_ICollectionU3CTValueU3E_Remove_m4188992987_gshared
q2:__ZN14FileCacherReadD2Ev
vab:__ZN13RendererScene23UpdatePreviousFrameDataEii
d0c:_RSAPKCS1SignatureDeformatter_VerifySignature_m1825067195
pxh:_RectTransform_remove_reapplyDrivenProperties_m52143263
VPh:__ZL25UnresolvedVirtualCall_123P12Il2CppObjectffPK10MethodInfo
hec:__Z50Register_UnityEngine_CullingGroup_FinalizerFailurev
bDe:_KeyValuePair_2_ToString_m2613351884_gshared
dbb:__ZN27UnloadUnusedAssetsOperationD0Ev
kfj:__ZL69ColorBlock_t2652774230_CustomAttributesCacheGenerator_m_DisabledColorP21CustomAttributesCache
Ywg:_Scrollbar__ctor_m2244981801
NWh:_AnimationLayerMixerPlayable__ctor_m678972180
H0c:_SHA256Managed_HashCore_m4111458495
YUd:_CultureInfo_get_CompareInfo_m3085280862
BBf:_ObjectManager_RecordDelayedFixup_m1895730844
xF:__ZN9AudioClip23VirtualRedirectTransferER18StreamedBinaryReadILb0EE
Sdf:_ClientSessionInfo_CheckDisposed_m1394638186
rDf:_SByte_Parse_m2544167007
K5c:_Single_CompareTo_m2081476257
Ebe:_BigInteger__ctor_m2945783161
Cff:_TlsClientHello_Update_m1723542631
Nwh:_RectOffset_set_top_m1587840032
Nme:_IndexOutOfRangeException__ctor_m3497760912
Bj:_glCopyTexSubImage2D
xyf:_RealProxy_InternalGetTransparentProxy_m3415358600
tEe:_Enumerator_System_Collections_IEnumerator_Reset_m2200349770_gshared
Exi:__ZN6il2cpp6icalls8mscorlib6System7Convert24InternalFromBase64StringEP12Il2CppStringb
K1c:_SymmetricAlgorithm_CreateDecryptor_m4240570785
MCg:_Text_get_preferredWidth_m3352156860
iOc:__ZN2UI13CanvasManager14GetRenderOrderEPKNS_6CanvasE
anb:__Z18Transfer_BlittableI14SafeBinaryReadLb0E5RectTIfEEvRK29SerializationCommandArgumentsR31RuntimeSerializationCommandInfo
DWc:__ZNK20UnityWebRequestProtoI24UnityWebRequestTransport16AtomicRefCounter14RedirectHelper14ResponseHelper15DownloadHandler13UploadHandler12HeaderHelper14AsyncOperationE14GetUploadBytesEv
G2e:_ReadOnlyCollection_1_System_Collections_Generic_IListU3CTU3E_RemoveAt_m878653284_gshared
sVd:_DateTimeFormatInfo_GetFormat_m3676195179
_ga:__ZN14GfxContextGLES14GetFramebufferEv
Wyj:_emscripten_glGenVertexArrays__wrapper
Nja:__ZN6prcoreL21CreateRemapAnyBlitterE13TextureFormatS0_
K9b:__ZN17AnimationCurveTplIfE16StripInvalidKeysEv
g0d:_Array_InternalArray__ICollection_Add_TisKeyValuePair_2_t3716250094_m2381539361_gshared
slh:_InvokableCall_add_Delegate_m1994890856
Oie:_X509Extension_WriteLine_m2850991173
_Mc:__ZNK2UI6Canvas17GetSortingLayerIDEv
O7h:_il2cpp_method_has_attribute
Y$b:__Z13RegisterClassI17GlobalGameManagerEvv
MZa:__ZN8Renderer24SetupNewRendererForSceneEv
cXd:_Array_InternalArray__ICollection_Remove_TisInt64_t909078037_m2653583130_gshared
gUh:_TextGenerator_Populate_Internal_m65392018
gJf:_Thread_get_ExecutionContext_m922067206
g7d:_BaseInvokableCall_ThrowOnInvalidArg_TisInt32_t2071877448_m2823200566_gshared
usc:__Z35Transfer_Blittable_FixedBufferFieldI8JSONReadtEvRK29SerializationCommandArgumentsR31RuntimeSerializationCommandInfo
k7b:__ZN14PlayableOutput6HandleEv
u$a:__ZNK6Sprite22GetTypeVirtualInternalEv
nn:FUNCTION_TABLE_iiiiiiiiiiiiii
dfg:__Z100RuntimeInvoker_Void_t1841601450_SByte_t454417549_SByte_t454417549_Int32_t2071877448_SByte_t454417549PFvvEPK10MethodInfoPvPS4_
yOa:__ZN11Tetrahedron8TransferI24GenerateTypeTreeTransferEEvRT_
oCc:_UNITY_tt_get_cmap_info
Ntb:__Z29Transfer_Blittable_ArrayFieldI24GenerateTypeTreeTransfer5RectTIiEEvRT_R9ArrayInfoRK23StaticTransferFieldInfo
gPa:__ZN16ReflectionProbes8ScheduleEN18ReflectionProbeJob7JobTypeEP15ReflectionProbei
xYe:_Collection_1_IsFixedSize_m3675221982_gshared
CFe:_Enumerator_MoveNext_m3293920409_AdjustorThunk
Xya:__Z18IsDirectoryCreatedRKN4core12basic_stringIcNS_20StringStorageDefaultIcEEEE
VLc:__ZN2UI13CanvasManagerD2Ev
a3g:_Comparer_1__cctor_m3112251759_gshared
xof:_X509KeyUsageExtension_ToString_m1992050580
Eyc:_UNITY_FT_GlyphLoader_Done
gRf:_ValueType_DefaultEquals_m2245650968
oeh:_BalancingGroup__ctor_m2474435406
Z6g:_ConstructionCall__ctor_m1143766850
b3g:_Comparer_1_System_Collections_IComparer_Compare_m3203078743_gshared
MAf:_ObjectReader_ReadArrayOfString_m3752210963
cDc:_tt_cmap14_char_var_index
oAb:__Z35Transfer_Blittable_FixedBufferFieldI18StreamedBinaryReadILb0EEdEvRK29SerializationCommandArgumentsR31RuntimeSerializationCommandInfo
xEc:_psh_globals_new
yue:_FileStream_Seek_m950719389
QId:_Decimal_stripStyles_m294582157
Q9:__ZN9GfxDevice20SetMaxBufferedFramesEi
_Ke:_List_1_RemoveAll_m4125997475_gshared
k7f:__Z98RuntimeInvoker_Void_t1841601450_Int32_t2071877448_Int32_t2071877448_RuntimeObject_SByte_t454417549PFvvEPK10MethodInfoPvPS4_
$sj:dynCall_vdd
JNc:__ZN2UIL17UnloadAllCanvasesEv
WZb:__Z23ConvertIntegerToTypePtrIsEbPvR14SafeBinaryRead
iQi:__ZL54_MethodBase_t1935530873_CustomAttributesCacheGeneratorP21CustomAttributesCache
R9f:__Z96RuntimeInvoker_Void_t1841601450_SByte_t454417549_RuntimeObject_SByte_t454417549_SByte_t454417549PFvvEPK10MethodInfoPvPS4_
pBd:_FixedSizeArrayListWrapper_Remove_m1359458911
Rih:_CameraCallback_Invoke_m2640212610
Vja:__ZN6prcoreL29inner_stretch_rgb565_bilinearEPKNS_9InnerInfoE
Kfh:_Uri__ctor_m3927533881
SPc:__Z33Canvas_Get_Custom_PropWorldCameraP12Il2CppObject
_Bg:_Text_get_mainTexture_m813502234
GFi:__ZN6il2cpp8metadata19Il2CppSignatureHash4HashERKNS_5utils13dynamic_arrayIPK10Il2CppTypeLj4EEE
IRb:__ZNK14RenderSettings19GetFlatAmbientColorEv
nja:__ZN6prcoreL10inner_flipILj4EEEvPhS1_j
Y5a:__ZN18StreamedBinaryReadILb0EE21TransferSTLStyleArrayI10vector_mapIPKN5Unity4TypeE7Hash128NSt3__24lessIS6_EENS8_9allocatorINS8_4pairIS6_S7_EEEEEEEvRT_17TransferMetaFlags
fy:__ZNK27StateMachineBehaviourPlayer15IsSenderEnabledEv
V3g:_Enumerator_VerifyState_m2118679243_gshared
Fod:_InputField_get_shouldHideMobileInput_m3694613599
tjc:__Z40Register_UnityEngine_Transform_SetParentv
Ydg:__Z56RuntimeInvoker_TimeSpan_t3430258949_TimeSpan_t3430258949PFvvEPK10MethodInfoPvPS4_
l1a:__ZN14Texture2DArray17UploadToGfxDeviceEv
a2e:_ReadOnlyCollection_1_System_Collections_Generic_IListU3CTU3E_Insert_m4216310986_gshared
O_e:_ReadOnlyCollection_1_System_Collections_Generic_IListU3CTU3E_set_Item_m1532495847_gshared
oJ:__Z14FMODMemoryFreePvjPKc
god:_Image_AddQuad_m1600600902
OFc:_cf2_glyphpath_moveTo
SNd:_DateTimeOffset__ctor_m1796624924
uad:_BaseRaycaster_OnDisable_m1716508791
Ju:__ZN7mecanim23TransformValueArrayLoopEiiiRKN4math4trsXES3_RNS_10ValueArrayEf
Mlc:__ZN5IMGUI14GUIWindowStateD2Ev
JBi:_GC_is_heap_ptr
Rzh:_TouchScreenKeyboard_Open_m2033426733
qB:__ZN7mecanim5human10RetargetToEPKNS0_5HumanEPKNS0_9HumanPoseES6_RKN4math4trsXEPS4_PNS_8skeleton13SkeletonPoseTIS8_EESF_
Bu:__ZN7mecanim9animation8SeekClipERKNS0_12StreamedClipERNS0_18StreamedClipMemoryEf
gm:_emscripten_glIsTexture
XAd:_ArrayListWrapper_CopyTo_m793444109
Nk:_emscripten_glHint
VIc:_ft_var_readpackeddeltas
aNd:_DateTime_AddMilliseconds_m1813199744_AdjustorThunk
iYf:_MethodBuilder_GetParameterCount_m467267889
kyi:__ZThn4_N6il2cpp2vm13CachedCCWBaseINS0_13ManagedObjectEE6AddRefEv
Rwb:__Z35Transfer_Blittable_FixedBufferFieldI18StreamedBinaryReadILb1EEtEvRK29SerializationCommandArgumentsR31RuntimeSerializationCommandInfo
lxh:_RectTransform_INTERNAL_get_pivot_m4220117653
raf:_RSAManaged__ctor_m1680944437
jm:_SDL_UpperBlit
cPa:__Z35GetTextureDecodeValuesWithIntensity16TextureUsageMode17TextureColorSpace10ColorSpacef
$xd:_Byte_GetHashCode_m2885528842_AdjustorThunk
Sgi:__ZN15dense_hashtableINSt3__24pairIK10KeyWrapperINS1_IPK9EventInfoP11Il2CppClassEEEjEES9_17ReflectionMapHashIS8_EN14dense_hash_mapIS9_jSD_NS9_14EqualsComparerINS0_8equal_toIS8_EEEENS0_9allocatorISB_EEE9SelectKeyESI_SK_E15set_deleted_keyERKSB_
oKg:_Dictionary_2_OnDeserialization_m2092139626_gshared
Elh:_PersistentCall__ctor_m3653852388
GCb:__ZN14SafeBinaryRead20OverrideRootTypeNameEPKc
u2:__ZN14FileCacherRead16UnlockCacheBlockEj
The:_X509Certificate_GetUnsignedBigInteger_m3491353542
Jc:_emscripten_glUniform1f
qjb:__ZNK12HandlerChain4SizeERK13FileEntryData
dzc:__Z20ParseImageParametersR11UTF16StringRiRN20TextRenderingPrivate16TextFormatChangeE
Oc:_emscripten_glUniform1i
jsb:__Z18Transfer_BlittableI24GenerateTypeTreeTransferLb1EN4math12int3_storageEEvRK29SerializationCommandArgumentsR31RuntimeSerializationCommandInfo
wY:__Z33UnregisterDeviceEventCallbackImplPFv23UnityGfxDeviceEventTypeE
exg:__Z14bankers_roundff
zeb:__ZN9ShaderLab16SerializedTagMapaSERKS0_
BR:__ZN11UnityEngine15CloudWebService16SessionContainer20RestoreSessionHeaderERKN4core12basic_stringIcNS2_20StringStorageDefaultIcEEEES8_RNS0_13SessionHeaderE
GNd:_DateTime_ToString_m1117481977
FXf:_GenericTypeParameterBuilder_GetGenericArguments_m277381309
BC:__ZN11UnityEngine9Animation27CreateAvatarBindingConstantER9TransformPKN7mecanim9animation14AvatarConstantERNS3_6memory9AllocatorE
YPf:_UInt64_System_IConvertible_ToDateTime_m2412118561
Fcc:__ZN9BlobWriteC2ER13dynamic_arrayIhLj16EE24TransferInstructionFlags19BuildTargetPlatform
E0:__ZN14MessageHandler3GetEv
ad:_emscripten_glAttachShader
T0e:_ReadOnlyCollection_1__ctor_m1539890895_gshared
P9:__ZN9GfxDevice13SetActiveTierE12GraphicsTier
mEe:_Enumerator_System_Collections_IEnumerator_get_Current_m3079057684_AdjustorThunk
F4a:__ZNSt3__26vectorIN4core12basic_stringIcNS1_20StringStorageDefaultIcEEEENS_9allocatorIS5_EEE6assignIPS5_EENS_9enable_ifIXaasr21__is_forward_iteratorIT_EE5valuesr16is_constructibleIS5_NS_15iterator_traitsISC_E9referenceEEE5valueEvE4typeESC_SC_
Jee:_KeyPairPersistence_get_UserPath_m3433052783
GHi:__ZL58Decimal_t724701077_CustomAttributesCacheGenerator_MinusOneP21CustomAttributesCache
Jmb:__Z18Transfer_BlittableI14SafeBinaryReadLb0E11QuaternionfEvRK29SerializationCommandArgumentsR31RuntimeSerializationCommandInfo
Yzb:__Z18Transfer_BlittableI18StreamedBinaryReadILb0EELb1E12PropertyNameEvRK29SerializationCommandArgumentsR31RuntimeSerializationCommandInfo
YV:_tlsf_walk_heap
rhe:_PKCS12_Decode_m731190390
PZg:_InternalEnumerator_1_get_Current_m1550231132_gshared
mRf:_Version_CheckedSet_m76493673
jb:invoke_vif
kb:invoke_vid
$qj:__ZNSt3__212basic_stringIcNS_11char_traitsIcEENS_9allocatorIcEEE6insertEjPKc
uUi:__ZL67UnverifiableCodeAttribute_t765455733_CustomAttributesCacheGeneratorP21CustomAttributesCache
lb:invoke_vii
dLb:__ZNK12ImageFilters8DoRenderER17ShaderPassContextP13RenderTextureS3_RKNSt3__26vectorI11ImageFilterNS4_9allocatorIS6_EEEE
Ixa:__ZN12TLSAllocatorI14StackAllocatorE16ThreadInitializeEP13BaseAllocator
tAd:_ArrayList_Sort_m2778059513
oaa:__ZN9GfxDevice32UpdateStereoViewProjectionMatrixE21MonoOrStereoscopicEye
PHb:__ZN15dense_hashtableINSt3__24pairIKN4core12basic_stringIcNS2_20StringStorageDefaultIcEEEEP20ArchiveStorageReaderEES6_20StringHash32FunctionIS6_EN14dense_hash_mapIS6_S9_SC_NS0_8equal_toIS6_EE13stl_allocatorISA_L18MemLabelIdentifier55ELi16EEE9SelectKeyESF_SI_E12resize_deltaEjj
Zmd:_LayoutGroup_SetChildAlongAxis_m2732017156
ZOc:__Z41CanvasRenderer_CUSTOM_DisableRectClippingP12Il2CppObject
i9e:_MD2_Create_m539024737
fgg:__Z112RuntimeInvoker_Void_t1841601450_RuntimeObject_Int32_t2071877448_Int32_t2071877448_RuntimeObject_SByte_t454417549PFvvEPK10MethodInfoPvPS4_
ZBa:__ZN25SingleBlockMemoryFileDataD0Ev
Sxa:__ZNSt3__26vectorI14ConstantStringNS_9allocatorIS1_EEE6assignINS_11__wrap_iterIPS1_EEEENS_9enable_ifIXaasr21__is_forward_iteratorIT_EE5valuesr16is_constructibleIS1_NS_15iterator_traitsISA_E9referenceEEE5valueEvE4typeESA_SA_
wR:__ZN11UnityEngine15CloudWebService16SessionContainer21ConvertFromFolderTimeERKN4core12basic_stringIcNS2_20StringStorageDefaultIcEEEEPjPt
uob:__ZNSt3__26vectorI8GUIStyle13stl_allocatorIS1_L18MemLabelIdentifier1ELi16EEE7reserveEj
Wki:__ZN6il2cpp6icalls8mscorlib6System9Threading6Thread27GetSerializedCurrentCultureEP12Il2CppThread
u$d:_Array_InternalArray__IndexOf_TisUInt32_t2149682021_m3231515987_gshared
Z1b:__Z31CalculateHierarchyTransformType23TransformAccessReadOnly
v0b:__Z13RegisterClassI11TimeManagerEvv
fJ:__ZN4FMOD8ChannelI11setPositionEjj
J8f:__Z136RuntimeInvoker_IntPtr_t_RuntimeObject_Int32_t2071877448_Int32_t2071877448_Int32_t2071877448_Int32_t2071877448_MonoIOErrorU26_t1029615899PFvvEPK10MethodInfoPvPS4_
Ezi:_GC_set_fl_marks
raa:__ZN9GfxDevice17SetStereoViewportE15StereoscopicEyeRK5RectTIiE
E7:__ZN17BaseObjectManager13StaticDestroyEPv
Amj:_ClickCount_AddCount_m634862334
AOd:_DBNull_System_IConvertible_ToChar_m3344298044
Oah:_LinkStack_Push_m2660199875
_H:__ZN4FMOD6Reverb13setPropertiesEPK22FMOD_REVERB_PROPERTIES
RMb:__ZN9DepthPass13PrepareSubsetEjRK10RenderNodeifRK17ShaderReplaceData
lrh:_X509CertificateCollection_Add_m4008705157
i9b:__Z35SetMeshComponentFromArrayFromScriptR4Mesh30InternalScriptingShaderChannel34InternalScriptingVertexChannelTypei17ScriptingArrayPtri
M2e:_ReadOnlyCollection_1_System_Collections_IList_Add_m3806843030_gshared
FVe:_Collection_1_IsFixedSize_m1816795498_gshared
cq:__ZN4core20StringStorageDefaultIcE6assignEPKcj
$qi:__ZN15dense_hashtableINSt3__24pairIK10KeyWrapperIP12Il2CppObjectEN6il2cpp2gc9CachedCCWEEES5_NS7_5utils11PointerHashIS3_EEN14dense_hash_mapIS5_S9_SD_NS5_14EqualsComparerINS0_8equal_toIS4_EEEENS0_9allocatorISA_EEE9SelectKeyESI_SK_E3endEv
Gdd:_MouseButtonEventData_ReleasedThisFrame_m482758300
iyh:_SceneManager_Internal_SceneLoaded_m1729738062
Khi:__ZN15dense_hashtableINSt3__24pairIK10KeyWrapperINS1_IP11Il2CppClassjEEES4_EES6_N6il2cpp8metadata14ArrayClassHashEN14dense_hash_mapIS6_S4_SB_NS6_14EqualsComparerINSA_17ArrayClassCompareEEENS0_9allocatorIS8_EEE9SelectKeyESF_SH_E9copy_fromERKSK_j
uBd:_ReadOnlyArrayListWrapper_set_Item_m2199017141
_Vb:__ZN6Camera6SetFarEf
grh:_DeriveBytes_DeriveIV_m3343375195
Nzc:_UNITY_FT_Init_Class_ft_bitmap_glyph_class
x$c:_RNGCryptoServiceProvider_GetBytes_m167497991
Dka:__ZN6prcoreL12RemapGenericI17TexFormatABGR888817TexFormatARGB8888EEvPKNS_9InnerInfoE
iDa:__ZN11GameManager17MainThreadCleanupEv
Myh:_SetupCoroutine_InvokeMember_m170868586
EQc:__Z50Register_UnityEngine_UISystemProfilerApi_EndSamplev
FVf:_TypeBuilder_get_Assembly_m492491492
Hb:invoke_vffff
LHc:_UNITY_tt_slot_init
IIb:__ZZ23InitPlayerLoopCallbacksvEN41PostLateUpdateUpdateResolutionRegistrator7ForwardEv
r_d:_Array_FindLastIndex_TisRuntimeObject_m986818300_gshared
EBb:__Z25scripting_array_class_get17ScriptingClassPtrj
wqc:__ZL22Transfer_ManagedObjectI9JSONWriteLb1EEvRK29SerializationCommandArgumentsR31RuntimeSerializationCommandInfo
fF:__ZNK10SampleClip22GetTypeVirtualInternalEv
wba:__ZN9GfxDevice20DestroyRenderSurfaceER12ObjectHandleI17RenderSurface_TagP17RenderSurfaceBaseE
u8:__ZN18SpriteAtlasManagerC2Ev
gua:__ZN9GfxDevice22UpdateComputeResourcesEjPK9TextureIDPK16TextureDimensionPKijPKjjPK15ComputeBufferIDS7_PK20ComputeBufferCounterjSC_S2_S5_S9_SF_
rGa:__ZN12_GLOBAL__N_15qAsinEff
B6d:_Dictionary_2_Do_ICollectionCopyTo_TisKeyValuePair_2_t3749587448_m2536766696_gshared
Jxa:__ZN12TLSAllocatorI14StackAllocatorE13ThreadCleanupEv
v_d:_Array_IndexOf_TisRuntimeObject_m1815604637_gshared
oxi:__ZThn4_N6il2cpp2vm13ComObjectBase16MarshalInterfaceEP13Il2CppIStreamRK10Il2CppGuidPvjS7_j
y2a:__ZN4Mesh27SwizzleVertexColorsIfNeededEb
pEb:__Z27FindActiveTransformWithPathPKc
Buh:_PropertyName_op_Inequality_m2830582941
Xie:_SecurityParser_OnEndElement_m2909940377
VFa:__ZNK6Camera7GetNearEv
Lna:__ZN7ApiGLES11UnmapBufferEjN2gl12BufferTargetE
yxi:__ZN6il2cpp5utilsL24Utf32CharToSurrogatePairEjRA2_Ds
PWa:__Z25GetNextAllowedTextureSizeib13TextureFormat
hEb:__ZN20LocalFileSystemWebGL4CopyER13FileEntryDataS1_
TLe:_List_1_CheckIndex_m4231572822_gshared
XT:__ZN19CloudServiceHandler6RetainEv
b4c:_StrongName_Equals_m67226644
vmc:__Z36Event_CUSTOM_Internal_SetNativeEventPv
uGa:__ZN12BaseRenderer20FlattenToRenderQueueER15RenderNodeQueueRK20DeprecatedSourceData
iye:_UnmanagedMemoryStream_get_Length_m587008850
vbb:__Z34scripting_liveness_calculation_endPv
lkc:__ZNK19RectangleCellLayout13GetCellCenterEv
_ui:__ZN6il2cpp2os6ThreadC2Ev
Q4c:_SecurityFrame_InitFromRuntimeFrame_m45195821
Bqf:_X509Chain_IsSignedWith_m292245392
Xt:__ZN21AnimationClipPlayable22ProcessAnimationNoClipEPK35AnimationPlayableEvaluationConstantPK32AnimationPlayableEvaluationInputP33AnimationPlayableEvaluationOutput
ZWd:_Array_InternalArray__ICollection_Remove_TisDateTime_t693205669_m1275668216_gshared
X0e:_ReadOnlyCollection_1_System_Collections_Generic_ICollectionU3CTU3E_Remove_m3751131234_gshared
Yrc:__Z18Transfer_BlittableI8JSONReadLb0E8Vector3fEvRK29SerializationCommandArgumentsR31RuntimeSerializationCommandInfo
s7g:_ChannelServices__cctor_m3534779830
lji:__ZN6il2cpp2vm6Thread6DetachEP12Il2CppThread
yAh:_Transform_set_localRotation_m3053695533
LDc:_Render_Single_Pass
IJd:_Convert_ToInt16_m416789348
ZEf:_EncoderExceptionFallback_Equals_m762170768
XLh:_EqualityComparer_1__cctor_m2666196678_gshared
dvc:__GLOBAL__sub_I_runtime_dynamics_2_cpp
dEg:_Enumerator_get_CurrentValue_m3147984131_AdjustorThunk
HC:__ZN7mecanim8skeleton30SkeletonBuildReverseIndexArrayEPiPKiPKNS0_8SkeletonES6_
Akc:__Z19GetGUIBlendMaterialv
kjg:__Z69RuntimeInvoker_Boolean_t3825574718_TextGenerationSettings_t2543476768PFvvEPK10MethodInfoPvPS4_
tti:__ZN6il2cpp2os10ThreadImpl5SleepEjb
kYe:_Collection_1_InsertItem_m1073626529_gshared
Lvh:_Rect_get_center_m2903917731_AdjustorThunk
wyj:_glBindSampler__wrapper
_Ca:__ZNSt3__26vectorIN20ArchiveStorageHeader12StorageBlockE13stl_allocatorIS2_L18MemLabelIdentifier55ELi16EEE8__appendEj
Hf:_emscripten_set_mouseup_callback
j7d:_BaseInvokableCall_ThrowOnInvalidArg_TisColor_t2020392075_m3638385415_gshared
XXb:__ZNK18ScreenManagerWebGL8GetWidthEv
Klj:_AudioExtensionManager_GetListenerSpatializerExtensionEditorType_m165088149
Gmd:_GridLayoutGroup_set_startAxis_m1635162426
cF:__ZN10SampleClipD2Ev
Z9g:_SynchronizationAttribute_EnterContext_m2984912761
jVd:_CultureInfo_construct_internal_locale_from_name_m971766383
Oab:__Z13GetGISettingsv
X0d:_Array_InternalArray__ICollection_Add_TisUIVertex_t1204258818_m3869382594_gshared
HT:__ZN11UnityEngine15CloudWebService20WebRequestRestClientC2Ev
fHc:_cff_cmap_unicode_init
DSd:_Enum_ToObject_m2460371738
Bce:_PrimalityTests_Test_m1088386156
ECh:_Vector4_SqrMagnitude_m1060560279
Apj:_readlink
uei:__ZN15dense_hashtableINSt3__24pairIK10KeyWrapperINS1_IPK9EventInfoP11Il2CppClassEEEjEES9_17ReflectionMapHashIS8_EN14dense_hash_mapIS9_jSD_NS9_14EqualsComparerINS0_8equal_toIS8_EEEENS0_9allocatorISB_EEE9SelectKeyESI_SK_E12resize_deltaEjj
e5d:_Array_Resize_TisVector3_t2243707580_m893658391_gshared
MVg:_InternalEnumerator_1_System_Collections_IEnumerator_get_Current_m4259662004_AdjustorThunk
B8d:_Array_InternalArray__get_Item_TisKeyframe_t1449471340_m1003508933_gshared
MEi:__ZN6il2cpp2os13SemaphoreImplC2Eii
Xbg:__Z50RuntimeInvoker_Double_t4078015681_Int64_t909078037PFvvEPK10MethodInfoPvPS4_
lhe:_StrongName_get_PublicKeyToken_m1968460885
v4a:__ZNK6Sprite9GetBoundsE8Vector2fbb
rJa:__ZNK19RenderEventsContext21CleanupCommandBuffersEv
hfa:__ZN11ContextGLES6CreateEi
Rre:_BinaryReader_Dispose_m4249456877
NId:_Double_ToString_m1085043609
MAb:__Z19TransferField_ArrayI18StreamedBinaryReadILb0EE27Converter_SimpleNativeClassI17AnimationCurveTplIfEEEvRK23StaticTransferFieldInfoR31RuntimeSerializationCommandInfoRT0_
Mbf:_CipherSuite_createEncryptionCipher_m1926075645
hqh:_Plane__ctor_m730644932
mxa:__ZN14StackAllocator16FrameMaintenanceEb
$ld:_Graphic_Raycast_m3582517890
rza:__Z18ReadStringFromFilePN4core17string_with_labelILi1EEERKNS_12basic_stringIcNS_20StringStorageDefaultIcEEEE
e3:__ZNK10GameObject20QueryComponentByTypeEPKN5Unity4TypeE
GDh:_GUISkin_MakeCurrent_m1547433985
rFe:_Enumerator_MoveNext_m1367380970_AdjustorThunk
YYf:_OpCode_GetHashCode_m2974727122
tFd:_Enumerator_Reset_m466659019
Nbf:_CipherSuite_createDecryptionCipher_m1118350455
Tbh:_PatternCompiler_EmitReference_m1381860071
tRd:_Double_System_IConvertible_ToInt16_m4200640326
_Va:__ZN11TextureData5ResetEv
Rec:__Z53Register_UnityEngine_GameObject_get_activeInHierarchyv
X8:__ZN15dense_hashtableINSt3__24pairIKN4core12basic_stringIcNS2_20StringStorageDefaultIcEEEE13dynamic_arrayI4PPtrI6SpriteELj4EEEES6_20StringHash32FunctionIS6_EN14dense_hash_mapIS6_SC_SF_NS0_8equal_toIS6_EE13stl_allocatorISD_L18MemLabelIdentifier81ELi16EEE9SelectKeyESI_SL_EC2ERKSO_j
q_:__ZL30InitializeCoreScriptingClassesv
vYe:_Collection_1_CheckWritable_m3938993573_gshared
Dg:_glBlitFramebuffer
Jce:_BigInteger_GeneratePseudoPrime_m2606361440
gqb:__Z35Transfer_Blittable_SingleValueFieldI14SafeBinaryReadhEvRT_R17GeneralMonoObjectRK23StaticTransferFieldInfo
$7b:__ZN12CachedWriter15CompleteWritingEv
gxf:_RemotingServices_GetRealProxy_m620317996
dNb:__ZN13dynamic_arrayI11CulledLightLj4EE6insertEPS0_PKS0_S4_
cVa:__ZNK12CubemapArray22GetTypeVirtualInternalEv
ISh:_Predicate_1_Invoke_m2060780095_gshared
IOa:__ZN11Tetrahedron8TransferI18StreamedBinaryReadILb0EEEEvRT_
Kn:FUNCTION_TABLE_vif
Ln:FUNCTION_TABLE_vid
Mn:FUNCTION_TABLE_vii
Gbb:__Z40scripting_liveness_calculation_from_root18ScriptingObjectPtrPv
LRa:__ZN7Texture23VirtualRedirectTransferER24GenerateTypeTreeTransfer
Jxc:_UNITY_FT_Set_Transform
nqi:__ZN6il2cpp8metadata15GenericMetadata20RegisterGenericClassEP18Il2CppGenericClass
Ffg:__Z101RuntimeInvoker_OpFlags_t378191910_SByte_t454417549_SByte_t454417549_SByte_t454417549_SByte_t454417549PFvvEPK10MethodInfoPvPS4_
byj:_glDeleteFramebuffers__wrapper
ynd:_Image_get_overrideSprite_m706080347
l7e:_BigInteger_ModInverse_m1881894572
g6h:__ZN6il2cpp2vm7Runtime17GetDelegateInvokeEP11Il2CppClass
p4b:__ZZN12MeshRenderer15InitializeClassEvEN29FunctorImpl_134kDidDeleteMesh4CallEPviR11MessageData
eYa:__ZN28EnlightenRendererInformation8TransferI14SafeBinaryReadEEvRT_
jeg:__Z88RuntimeInvoker_RuntimeObject_RuntimeObject_Int32_t2071877448_RuntimeObject_RuntimeObjectPFvvEPK10MethodInfoPvPS4_
lPi:__ZL69DefaultDependencyAttribute_t3858269114_CustomAttributesCacheGeneratorP21CustomAttributesCache
nCa:__ZNK15Lz4Decompressor16DecompressMemoryEPKvPjPvS2_
z3e:_ReadOnlyCollection_1_System_Collections_IList_get_Item_m887129009_gshared
yTa:__Z35UnityPropertySheet_MakeSortedColorsRKNSt3__23mapIN9ShaderLab16FastPropertyNameE10ColorRGBAfNS_4lessIS2_EENS_9allocatorINS_4pairIKS2_S3_EEEEEER10vector_mapIS2_S3_S5_NS6_INS7_IS2_S3_EEEEE
_Od:_Decimal_System_IConvertible_ToType_m3828527724_AdjustorThunk
rBc:_UNITY_tt_face_load_os2
a9e:_HMAC_get_Key_m2528863640
hZe:_Collection_1_IsSynchronized_m1366278230_gshared
ypb:__Z29Transfer_Blittable_ArrayFieldI14SafeBinaryRead8Vector4fEvRT_R9ArrayInfoRK23StaticTransferFieldInfo
tVd:_Array_get_swapper_TisInt32_t2071877448_m2837069166_gshared
yci:__ZN6il2cpp2gc19AppendOnlyGCHashMapINSt3__24pairIPK10MethodInfoP11Il2CppClassEEP22Il2CppReflectionMethod17ReflectionMapHashIS9_ENS2_8equal_toIS9_EEE3AddERKS9_SB_
b8g:_ConfigHandler_CheckPath_m2296459741
_cd:_PointerEventData_IsScrolling_m1971908975
zIb:__ZZ23InitPlayerLoopCallbacksvEN51PostLateUpdateUpdateCustomRenderTexturesRegistrator7ForwardEv
kPd:_Decimal_System_IConvertible_ToInt16_m3159038792
tu:__ZN7mecanim9animation12EvaluateClipEPKNS0_4ClipEPKNS0_9ClipInputEPNS0_10ClipMemoryEPNS0_10ClipOutputE
M7a:__ZNSt3__26vectorIN15ResourceManager10DependencyE13stl_allocatorIS2_L18MemLabelIdentifier52ELi16EEEC2INS_11__wrap_iterIPS2_EEEET_SB_RKS5_PNS_9enable_ifIXaasr21__is_forward_iteratorISB_EE5valuesr16is_constructibleIS2_NS_15iterator_traitsISB_E9referenceEEE5valueEvE4typeE
y0f:_MonoMethodInfo_GetReturnType_m2864247130
QUb:__ZN13RenderManager29SetCurrentCameraAndStackStateEP6CameraP25CameraStackRenderingState
tAh:_Transform_INTERNAL_get_rotation_m1873681960
hFa:__ZNSt3__26__treeINS_12__value_typeIjN4core12basic_stringIcNS2_20StringStorageDefaultIcEEEEEENS_19__map_value_compareIjS7_NS_4lessIjEELb1EEE13stl_allocatorIS7_L18MemLabelIdentifier7ELi16EEE7destroyEPNS_11__tree_nodeIS7_PvEE
Zii:__ZN15dense_hashtableINSt3__24pairIK10KeyWrapperINS1_IP11Il2CppClassjEEES4_EES6_N6il2cpp8metadata14ArrayClassHashEN14dense_hash_mapIS6_S4_SB_NS6_14EqualsComparerINSA_17ArrayClassCompareEEENS0_9allocatorIS8_EEE9SelectKeyESF_SH_E12resize_deltaEjj
Sh:_JS_WebRequest_Release
cte:_DirectoryNotFoundException__ctor_m2242202556
WR:__ZN11UnityEngine15CloudWebService14DataErrorEventD0Ev
smi:__ZN6il2cpp6icalls8mscorlib6System4Type20internal_from_handleEi
k8c:_String_CreateString_m2448464375
gsf:_X509SubjectKeyIdentifierExtension__ctor_m2959112706
eEg:_Enumerator_Reset_m1147555085_AdjustorThunk
w_f:_FieldInfo_get_IsNotSerialized_m2322769148
jqi:__ZN6il2cpp8metadata15GenericMetadata7InflateEPK19Il2CppGenericMethodPK20Il2CppGenericContext
BXa:__ZN19ShaderPropertySheet16SetArrayPropertyEN9ShaderLab16FastPropertyNameENS_12PropertyTypeEPKvj
r0f:_MonoGenericCMethod_get_ReflectedType_m2689239043
iZe:_Collection_1_IsFixedSize_m499196375_gshared
Qhd:_ColorTween_set_startColor_m3546206870_AdjustorThunk
KLc:__ZN2UI11CanvasGroup23VirtualRedirectTransferER19StreamedBinaryWriteILb0EE
TYg:_InternalEnumerator_1_get_Current_m4083613828_gshared
j8h:__ZN6il2cpp2os4File11GetStdErrorEv
hUh:_TextGenerator_INTERNAL_CALL_Populate_Internal_cpp_m106350432
Ulc:__ZN8GUIState8EndOnGUIEv
GHf:_UnicodeEncoding_GetString_m542738941
SHc:_UNITY_TT_Get_VMetrics
Dse:_Path_InsecureGetFullPath_m2635272425
HMd:_DateTime_System_IConvertible_ToUInt32_m1363211018
_uh:_Quaternion_ToString_m1042358501
dYd:_SetPropertyUtility_SetStruct_TisSingle_t2076509932_m3849235084_gshared
aia:__ZN7Texture21GetMasterTextureLimitEv
GWb:__Z12CanAddScriptR10GameObject17ScriptingClassPtrPS1_S2_
thi:__ZN6il2cpp2vm10Reflection12HasAttributeEP12Il2CppObjectP11Il2CppClass
s2c:_X509Certificate_GetExpirationDateString_m2351894475
mZ:__ZN9ShaderLabL25StaticInitializeShaderLabEPv
U:Math_max
U6h:_il2cpp_class_get_methods
Gse:_Path_CanonicalizePath_m383914732
T3g:_Enumerator_System_Collections_IEnumerator_get_Current_m1631145297_gshared
msb:__Z18Transfer_BlittableI24GenerateTypeTreeTransferLb0EN4math12int2_storageEEvRK29SerializationCommandArgumentsR31RuntimeSerializationCommandInfo
yAd:_ArrayList_Synchronized_m2395071980
evi:__ZN6il2cpp2os6Thread16GetCurrentThreadEv
y6b:__ZN10GameObject13ComponentPair15SetComponentPtrEPN5Unity9ComponentE
cye:_UnexceptionalStreamWriter_Write_m3206913035
h0b:__Z13RegisterClassI10MeshFilterEvv
pFa:__ZN10TagManager8TransferI19StreamedBinaryWriteILb0EEEEvRT_
Yab:__ZN11PreloadData23VirtualRedirectTransferER18StreamedBinaryReadILb0EE
Hz:__Z17dynamic_pptr_castIP10MonoScript6ObjectET_RK4PPtrIT0_E
FEf:_DESTransform_ProcessBlock_m2826669227
sne:_Int16_CompareTo_m3493496879
s$a:__ZN6Sprite17MainThreadCleanupEv
IK:__ZN10AudioMixer14UpdateMuteSoloEv
tEa:__ZN9Transform35SetLocalPositionWithoutNotificationERKN4math7_float3Ey
pvg:_MaskableGraphic_UnityEngine_UI_IClippable_get_gameObject_m954171032
Si:_JS_Eval_ClearTimeout
Pga:__ZN7ApiGLES16SetPatchVerticesEi
Ave:_MonoIOStat_t1621921065_marshal_pinvoke
JBa:__ZN10MemoryFileC2E18MemLabelIdentifierP14MemoryFileData14FilePermission
dyf:_TrackingServices_NotifyUnmarshaledObject_m1794048369
ZXh:__ZN6il2cpp2vm5Class20FromGenericParameterEPK22Il2CppGenericParameter
uU:__ZN19CloudServiceHandler11FlushEventsEv
f7:__ZN15GlobalCallbacksC2Ev
I3d:_Array_InternalArray__set_Item_TisLabelFixup_t4090909514_m565370771_gshared
zAi:_GC_print_static_roots
izc:_UNITY_FT_New_Memory_Face
axc:__ZN20TextRenderingPrivate21TextMeshGeneratorImpl5FlushEv
S3c:__Z15CastclassSealedP12Il2CppObjectP11Il2CppClass
yVb:__ZN16ReflectionProbes40UpdateRealtimeReflectionProbesTimeslicedEv
$7a:__ZNK30RuntimeInitializeOnLoadManager22GetTypeVirtualInternalEv
E0h:__ZN15dense_hashtableINSt3__24pairIK10KeyWrapperIN6il2cpp5utils13dynamic_arrayIPK10Il2CppTypeLj4EEEEPFvvEEESA_NS3_8metadata19Il2CppSignatureHashEN14dense_hash_mapISA_SD_SG_NSA_14EqualsComparerINSF_22Il2CppSignatureCompareEEENS0_9allocatorISE_EEE9SelectKeyESK_SM_E12resize_deltaEjj
x3b:__ZN16ReflectionProbes15InitializeClassEv
OCi:__ZN6il2cpp5utils5MatchENSt3__212basic_stringIcNS1_11char_traitsIcEENS1_9allocatorIcEEEEjRKS7_j
fAc:_UNITY_FT_Destroy_Class_psnames_module_class
vbh:_MRUList_Evict_m2430323183
z1e:_ReadOnlyCollection_1_System_Collections_Generic_ICollectionU3CTU3E_Remove_m1060547576_gshared
Eig:__Z68RuntimeInvoker_Boolean_t3825574718_Rect_t3681755626_SByte_t454417549PFvvEPK10MethodInfoPvPS4_
e8d:_Array_InternalArray__get_Item_TisRuntimeObject_m371871810_gshared
Nz:__ZN8Animator13BatchedFKPassERK13dynamic_arrayIP14PlayableOutputLj4EE
Vgf:_RecordProtocol_ProcessChangeCipherSpec_m3233959862
Z5d:_Array_Sort_TisVector4_t2243707581_m474199742_gshared
V3:__ZN13RuntimeStaticINSt3__23mapIN4core12basic_stringIcNS2_20StringStorageDefaultIcEEEES6_NS0_4lessIS6_EE13stl_allocatorINS0_4pairIKS6_S6_EEL18MemLabelIdentifier13ELi16EEEELb0EE13StaticDestroyEPv
Mxe:_TextWriter_Write_m576684782
Qj:_glIsVertexArray
XBa:__ZN25SingleBlockMemoryFileDataC2E18MemLabelIdentifierPvjb
ea:invoke_fff
qCg:_Text_get_fontSize_m3105730761
kvj:b14
kgf:_TlsServerHello_Update_m1740270635
UKc:__ZN2UI6Canvas17MainThreadCleanupEv
lka:__ZN6prcoreL12RemapGenericI17TexFormatARGB155517TexFormatRGBA8888EEvPKNS_9InnerInfoE
Yyg:_ScrollRect_Rebuild_m3423824761
EOe:_List_1_Find_m3862454845_gshared
kbh:_MatchCollection_get_Item_m2609281578
jsa:__ZN7ApiGLES13CreateProgramEv
ZKa:__ZN11HaloManager7AddHaloEv
AIf:_UTF8Encoding__ctor_m100325490
pia:__ZN4crnd12crn_unpackerD2Ev
VBg:_StencilMaterial_ClearAll_m1372779118
ak:_emscripten_glTexImage2D
Iwf:_ObjRefSurrogate_SetObjectData_m1873902916
DHc:_tt_driver_class_pic_init
f_:__ZN18ScriptingArguments9AddStringEPKc
NAi:_setup_header
asj:runPostSets
tja:__ZL23stbir__resize_arbitraryPvPKviiiS_iiiffffPfiij14stbir_datatype12stbir_filterS4_10stbir_edgeS5_16stbir_colorspace
wKe:_List_1_System_Collections_IList_Insert_m848656350_gshared
Gsb:__Z18Transfer_BlittableI24GenerateTypeTreeTransferLb1E8Vector4fEvRK29SerializationCommandArgumentsR31RuntimeSerializationCommandInfo
Zoe:_Int16_ToString_m3971652088_AdjustorThunk
lk:_pthread_detach
F3h:__ZN6il2cpp2vm19SocketPollingThread7RunLoopEv
asf:_X509ExtensionEnumerator_Reset_m3200687545
awf:_MethodDictionary_AllocInternalProperties_m3261295876
V6b:__ZN15DirectorManager20ScheduleGraphDestroyERK14HPlayableGraph
yBb:__ZNSt3__213__stable_sortIRN10vector_mapI17ScriptingClassPtrPKN5Unity4TypeENS_4lessIS2_EENS_9allocatorINS_4pairIS2_S6_EEEEE13value_compareENS_11__wrap_iterIPSB_EEEEvT0_SJ_T_NS_15iterator_traitsISJ_E15difference_typeEPNSM_10value_typeEi
lfb:__ZN9ShaderLab25SerializedTextureProperty8TransferI24GenerateTypeTreeTransferEEvRT_
S5e:_Comparison_1_Invoke_m2645957248_gshared
NCj:_emscripten_glIsShader__wrapper
lfi:__ZN6il2cpp2gc19AppendOnlyGCHashMapINSt3__24pairIPK14Il2CppAssemblyP11Il2CppClassEEP24Il2CppReflectionAssembly17ReflectionMapHashIS9_ENS2_8equal_toIS9_EEEC2Ev
GBf:_DelegatePInvokeWrapper_CallbackHandler_t362827733
Wsc:__Z18Transfer_BlittableI8JSONReadLb1EyEvRK29SerializationCommandArgumentsR31RuntimeSerializationCommandInfo
Ik:_emscripten_glMatrixMode
fs:__ZN8Animator23VirtualRedirectTransferER18StreamedBinaryReadILb0EE
Qte:_NotSupportedException__ctor_m836173213
swf:_MethodReturnDictionary__ctor_m756139344
qR:__ZN11UnityEngine15CloudWebService14DataDispatcher16PrepareDataBlockERNS0_16SessionContainerE
Msa:__ZN18GfxFramebufferGLES5ClearE13GfxClearFlagsRK10ColorRGBAffib
ocg:__Z52RuntimeInvoker_Single_t2076509932_Double_t4078015681PFvvEPK10MethodInfoPvPS4_
bAb:__ZL26Transfer_SimpleNativeClassI18StreamedBinaryReadILb0EE10RectOffsetLb0EEvRK29SerializationCommandArgumentsR31RuntimeSerializationCommandInfo
cAc:_UNITY_ft_destroy_default_module_classes
_He:_List_1_CheckMatch_m1772343151_gshared
AMb:__ZL12DepthPassJobPN21GfxDeviceAsyncCommand10ArgScratchEPKNS_3ArgE
Mdb:__ZNSt3__26vectorIN9ShaderLab20SerializedSubProgram16TextureParameterENS_9allocatorIS3_EEE6assignINS_11__wrap_iterIPS3_EEEENS_9enable_ifIXaasr21__is_forward_iteratorIT_EE5valuesr16is_constructibleIS3_NS_15iterator_traitsISC_E9referenceEEE5valueEvE4typeESC_SC_
roc:__ZN5Unity9rapidjson6WriterI16TempBufferWriterNS0_4UTF8IcEES4_13JSONAllocatorE11WriteDoubleEd
ore:_IntPtr_Equals_m1214967011_AdjustorThunk
wNe:_List_1_Add_m3591975577_gshared
Tna:__ZN14GfxDeviceStats16CopyAllDrawStatsERKS_
I0b:__Z13RegisterClassI19LowerResBlitTextureEvv
Lm:FUNCTION_TABLE_iiiiiiiiiiii
$Dh:_GUIUtility_Internal_GetPixelsPerPoint_m1075452981
iKa:__ZN16GraphicsSettingsD0Ev
Vzj:_pthread_mutex_init__wrapper
n:cttz_i8
Mzc:_UNITY_FT_GlyphLoader_Add
_Ug:_InternalEnumerator_1_System_Collections_IEnumerator_get_Current_m1004764375_AdjustorThunk
Skh:_Display_FireDisplaysUpdated_m2197288612
tId:_DateTimeFormatInfo_get_FullDateTimePattern_m2607507656
Kgf:_HttpsClientStream_RaiseServerCertificateValidation_m3356770426
Zwh:_RectTransform_INTERNAL_set_anchorMin_m3893342226
p6d:_Array_swap_TisUIVertex_t1204258818_TisUIVertex_t1204258818_m1163375424_gshared
Fl:_emscripten_glViewport
bxi:__ZN6il2cpp6icalls8mscorlib6System15MonoCustomAttrs17IsDefinedInternalEP12Il2CppObjectP20Il2CppReflectionType
VMa:__ZN4Mesh21UnswizzleVertexColorsEb
JNd:_DateTime_ToString_m2276663647_AdjustorThunk
AHc:_cff_parse_font_bbox
TP:__Z41Register_UnityEngine_AudioSource_set_mutev
t6a:__ZN14PlayerSettings23VirtualRedirectTransferER18StreamedBinaryReadILb0EE
wVd:_Array_get_swapper_TisCustomAttributeTypedArgument_t1498197914_m2780757375_gshared
QFi:__ZN6il2cpp2os5Event5ResetEv
W_e:_ReadOnlyCollection_1_System_Collections_IList_Insert_m1130110335_gshared
QKh:_AesManaged__ctor_m2322442838
Xpi:__ZN6il2cpp8metadata15GenericMetadata17InflateParametersEPK13ParameterInfohPK20Il2CppGenericContextb
Dqe:_Int64_System_IConvertible_ToUInt32_m850395426_AdjustorThunk
dIa:__ZN6Camera13AwakeFromLoadE17AwakeFromLoadMode
uZc:_HMACSHA512__ctor_m2390736870
_x:__ZNK17AnimationPlayable27GetNextCompatibleDescendantEi
pWf:_TypeBuilder_GetInterfaces_m1818658502
soe:_NumberFormatter_AppendIntegerString_m868842252
WEb:__Z25SetNeedToPerformRenderingb
M0f:_MonoMethod_GetPseudoCustomAttributes_m466965107
BDa:__ZN10GameObjectD2Ev
PMb:__ZN14qsort_internal30FindAndMovePivotToLastPositionIP15RODataDepthPassi17ROSorterDepthPassEEvT_S4_T0_T1_
UEg:_Enumerator_System_Collections_IDictionaryEnumerator_get_Value_m3005608231_gshared
Gug:_MaskUtilities_NotifyStencilStateChanged_m1527407683
l8f:__Z94RuntimeInvoker_Void_t1841601450_RuntimeObject_Int32_t2071877448_RuntimeObject_SByte_t454417549PFvvEPK10MethodInfoPvPS4_
FUb:__ZN12CullingGroup10SendEventsEPK17CullingGroupEventj
jee:_DSAManaged_GenerateKeyPair_m2711647034
_Ya:__ZThn32_NK8Renderer8GetLayerEv
B0d:_Array_InternalArray__ICollection_Add_TisResourceCacheItem_t333236149_m1151081240_gshared
qzf:_SoapServices_GetXmlTypeForInteropType_m3821579913
MAj:_emscripten_glTexParameterfv__wrapper
Qmb:__Z18Transfer_BlittableI14SafeBinaryReadLb1E9BoundsIntEvRK29SerializationCommandArgumentsR31RuntimeSerializationCommandInfo
L7h:_il2cpp_method_get_param_count
sac:__ZN10systeminfo19ISOToSystemLanguageERN4core12basic_stringIcNS0_20StringStorageDefaultIcEEEE
eei:__ZNK15dense_hashtableINSt3__24pairIK10KeyWrapperINS1_IPK12PropertyInfoP11Il2CppClassEEEjEES9_17ReflectionMapHashIS8_EN14dense_hash_mapIS9_jSD_NS9_14EqualsComparerINS0_8equal_toIS8_EEEENS0_9allocatorISB_EEE9SelectKeyESI_SK_E3endEv
$Dc:_ps_dimension_done
ufd:_LayoutRebuilder_MarkLayoutForRebuild_m640589351
IKc:__Z46Register_UnityEngine_TextGenerator_Dispose_cppv
add:_PointerEventData_get_pressEventCamera_m724559964
i3c:_String_IndexOfUnchecked_m3356721554
QXa:__ZN16LightmapSettings8TransferI14SafeBinaryReadEEvRT_
H9:__ZN17BufferManagerGLES13ReleaseBufferEP14DataBufferGLES
Tsc:__Z18Transfer_BlittableI8JSONReadLb1EjEvRK29SerializationCommandArgumentsR31RuntimeSerializationCommandInfo
arh:_PKCS12_Decrypt_m1557069392
ICg:_VertexHelper_AddUIVertexQuad_m280792808
Knf:_WebHeaderCollection_ToString_m1246460752
yWg:_InternalEnumerator_1_System_Collections_IEnumerator_get_Current_m2842514953_AdjustorThunk
Zo:stackSave
uTc:__ZN5Unity9rapidjson15GenericDocumentINS0_4UTF8IcEE13JSONAllocatorNS0_12CrtAllocatorEE6StringEPKcjb
sEc:_ps_dimension_end
Hgc:__Z41Register_UnityEngine_Mesh_Internal_Createv
Vpi:__ZNK15dense_hashtableI10KeyWrapperIP18Il2CppGenericClassES3_N6il2cpp8metadata22Il2CppGenericClassHashEN14dense_hash_setIS3_S6_NS3_14EqualsComparerINS5_25Il2CppGenericClassCompareEEENSt3__29allocatorIS3_EEE8IdentityESA_SD_E12test_deletedERK30dense_hashtable_const_iteratorIS3_S3_S6_SF_SA_SD_E
$Yh:__ZN6il2cpp2vm5Class14GetNestedTypesEP11Il2CppClassPPv
KZc:_MACTripleDES_Initialize_m1318099802
O9e:_MD5SHA1_VerifySignature_m507888141
oxd:_Byte_System_IConvertible_ToChar_m4188836679
Uoe:_NumberFormatter_InitDecHexDigits_m2036076025
xFg:_Enumerator_get_CurrentKey_m3839846791_AdjustorThunk
fWb:__ZN6Camera9SetAspectEf
va:invoke_viiffiii
Fej:__ZL79TouchInputModule_t2561058385_CustomAttributesCacheGenerator_m_ForceModuleActiveP21CustomAttributesCache
bCj:_emscripten_glBindVertexArray__wrapper
xMg:_Dictionary_2_InitArrays_m435313205_gshared
BEa:__ZN9Transform37InitializeTransformHierarchyRecursiveER18TransformHierarchyRii
Y1b:__Z34DefaultPrepareDispatchBoundsUpdateR13RendererScene18MemLabelIdentifier
lld:_Graphic_get_useLegacyMeshGeneration_m1366444625
Dsa:__ZN26SinglePassStereoSupportExt23SetupStereoMatrixParamsE21MonoOrStereoscopicEye24BuiltinShaderMatrixParamRK10Matrix4x4f
Cgj:__ZL65InputField_t1631627530_CustomAttributesCacheGenerator_m_InputTypeP21CustomAttributesCache
yce:_ModulusRing_Pow_m1137250399
rP:__Z46AudioListener_CUSTOM_GetNumExtensionPropertiesP12Il2CppObject
Ppf:_X509Chain_Build_m2341271288
_La:__ZN17MeshRenderingData4InitEP4MeshS1_iP15SharedGfxBufferS3_
VDd:_Hashtable__cctor_m2952659675
_pb:__ZN15SerializeTraitsI13dynamic_arrayIN4math12int3_storageELj4EEE19ResizeSTLStyleArrayERS3_i
z3c:_Evidence_get_HostEvidenceList_m2095478124
kjc:__Z57Register_UnityEngine_Transform_INTERNAL_set_localPositionv
Tcf:_Context_Clear_m4000337070
Cda:__ZN13GfxDeviceGLES26SetRandomWriteTargetBufferEi15ComputeBufferID
Auf:_IntervalCollection_Normalize_m538796191
mIb:__ZZ23InitPlayerLoopCallbacksvEN49EarlyUpdateResetFrameStatsAfterPresentRegistrator7ForwardEv
tGd:_Console_SetEncodings_m342145566
cld:_FontUpdateTracker_UntrackText_m3827316510
yBh:_Vector2_get_sqrMagnitude_m593717298_AdjustorThunk
s8d:_Array_InternalArray__get_Item_TisSingle_t2076509932_m1495809753_gshared
NTh:_Font_get_fontSize_m3125470578
cac:__ZNK11ICallString6ToUTF8Ev
xeh:_CaptureAssertion_get_Alternate_m2729005740
Syi:_GC_number_stack_black_listed
QMb:__ZNSt3__211__sift_downIR17ROSorterDepthPassP15RODataDepthPassEEvT0_S5_T_NS_15iterator_traitsIS5_E15difference_typeES5_
dTf:_Default_SelectMethod_m3081239996
MSa:__ZN18UnityPropertySheet11UnityTexEnvC2Ev
fA:__ZN8Animator17ApplyOnAnimatorIKEiRNS_11AnimatorJobE
F2:__ZN12FileAccessor4ReadEyyPvPy
URa:__ZN13dynamic_arrayI16ShaderKeywordSetLj4EE6insertEPS0_PKS0_S4_
bwf:_MethodDictionary_IsOverridenKey_m3922224650
gFd:_SyncHashtable_Contains_m3042906549
mQe:_List_1_System_Collections_IList_set_Item_m4016273526_gshared
fsf:_X509KeyUsageExtension_CopyFrom_m931530012
HVb:__ZN13RenderTexture9SetHeightEi
Gt:__ZN7mecanim9animation17ClearMotionOutputEPNS0_18AnimationNodeStateE
uug:_LayoutUtility_U3CGetMinHeightU3Em__4_m1769295917
yjf:_SslStreamBase_Read_m1036897444
uwg:_RectMask2D_PerformClipping_m1232012832
hli:__ZN6il2cpp6icalls8mscorlib6System2IO6MonoIO17GetFileAttributesEP12Il2CppStringPi
lGg:_Transform_1_Invoke_m4020530914_gshared
ICc:_tt_cmap8_char_index
F_:__Z24scripting_class_get_name17ScriptingClassPtr
n4:__ZN13RuntimeStaticI15GUIEventManagerLb0EE13StaticDestroyEPv
ovi:__ZN6il2cpp2os6Thread15CurrentThreadIdEv
Hob:__Z29Transfer_Blittable_ArrayFieldI14SafeBinaryReadjEvRT_R9ArrayInfoRK23StaticTransferFieldInfo
ee:_emscripten_set_keydown_callback
EEd:_Enumerator_get_Value_m3684748062
qFa:__ZN19StreamedBinaryWriteILb0EE21TransferSTLStyleArrayINSt3__26vectorI17SortingLayerEntryNS2_9allocatorIS4_EEEEEEvRT_17TransferMetaFlags
MOf:_UInt32_Parse_m3371984903
N2:__ZN12FileAccessorC2Ev
nch:_PatternLinkStack_GetCurrent_m2994645935
d6h:__ZN6il2cpp2vm7Runtime12GetConfigDirEv
dwf:_MethodDictionary_set_Item_m3475146889
YCg:_Toggle_PlayEffect_m3950629415
u_d:_Array_IndexOf_TisRuntimeObject_m214763038_gshared
iDb:__Z39WriteQueueForTransferSignatureIntoCacheRK31TransferFunctionScriptingTraitsRK24TransferRequestSignature17ScriptingClassPtrR23CachedSerializationDataRb
W9a:__ZN13RenderManager18UpdateAllRenderersEv
pph:_Mesh_Clear_m239607636
RQc:__ZN22BaseUnityConnectClient30OnEnteringStatePausedOrStoppedEv
Pdi:__ZN15dense_hashtableINSt3__24pairIK10KeyWrapperINS1_IPK12PropertyInfoP11Il2CppClassEEEjEES9_17ReflectionMapHashIS8_EN14dense_hash_mapIS9_jSD_NS9_14EqualsComparerINS0_8equal_toIS8_EEEENS0_9allocatorISB_EEE9SelectKeyESI_SK_E12resize_deltaEjj
Tt:__ZN7mecanim5human12HumanPoseAddERNS0_9HumanPoseERKS1_S4_
aXe:_Collection_1_IsFixedSize_m218241296_gshared
fEa:__Z24MergeTransformComponentsR9TransformS0_b
Zlj:_DelegatePInvokeWrapper_AudioConfigurationChangeHandler_t3743753033
yve:_MonoIO_get_PathSeparator_m2635828107
N0g:_InternalEnumerator_1_get_Current_m889125315_gshared
HAe:_MonoType_get_Name_m865859211
KUd:_CultureInfo__cctor_m2290268677
V6c:_String_Trim_m3982520224
Dyf:_RemotingConfiguration__cctor_m2129988840
rVe:_Collection_1_Insert_m44548038_gshared
dxi:__ZN6il2cpp2vm13ComObjectBase19GetRuntimeClassNameEPP15Il2CppHString__
Oj:_emscripten_glVertexAttribPointer
XLa:__ZNK20IntermediateRenderer12GetSceneMaskEv
X8a:__ZN14PreloadManager26UpdatePreloadingSingleStepENS_21UpdatePreloadingFlagsEi
e1c:_SHA512Managed_Initialize_m891287980
T3c:_SecurityException__ctor_m1484114982
jth:_X509Crl_GetHashName_m183504634
bud:_Array_GetValue_m1507415734
lhc:__Z57Register_UnityEngine_RectTransform_INTERNAL_set_anchorMinv
cle:_Object_MemberwiseClone_m2655589444
Uja:__ZN6prcoreL25inner_stretch_i8_bilinearEPKNS_9InnerInfoE
nbb:__ZL30RegisterFilteredObjectCallbackPP12Il2CppObjectiPv
U0f:_MonoMethod_get_IsGenericMethod_m4276550811
KGg:_Transform_1_BeginInvoke_m3826027984_gshared
MR:__ZN11UnityEngine15CloudWebService16SessionContainer24GetSessionHeaderJsonDataERKN4core12basic_stringIcNS2_20StringStorageDefaultIcEEEERNS2_13StringBuilderE
_Id:_Decimal_op_Implicit_m2149927308
a4:__ZN13RuntimeStaticI21AssetReferenceStorageLb0EE13StaticDestroyEPv
Rsi:__ZN6il2cpp6icalls8mscorlib6System9AppDomain22InternalGetProcessGuidEP12Il2CppString
mFc:_cf2_builder_moveTo
Hee:_KeyPairPersistence_get_UseMachineKeyStore_m560802076
$3g:_Enumerator_System_Collections_IDictionaryEnumerator_get_Entry_m345330700_AdjustorThunk
kAa:__ZNK17FileSystemHandler10IsReadOnlyERK13FileEntryData
btb:__Z18Transfer_BlittableI24GenerateTypeTreeTransferLb1EjEvRK29SerializationCommandArgumentsR31RuntimeSerializationCommandInfo
l9e:_MD2Managed_Padding_m410163267
QLa:__ZN11ColorRGBA328TransferI14SafeBinaryReadEEvRT_
Jf:_emscripten_glClearDepth
F5b:__ZNK8GUILayer22GetTypeVirtualInternalEv
l_a:__ZN14SafeBinaryRead21TransferSTLStyleArrayINSt3__26vectorIN15QualitySettings14QualitySettingENS1_9allocatorIS4_EEEEEEvRT_17TransferMetaFlags
qte:_File_OpenText_m4058508963
U5a:__ZNSt3__26vectorINS_4pairIPKN5Unity4TypeE7Hash128EENS_9allocatorIS7_EEE8__appendEj
Czf:_WellKnownClientTypeEntry__ctor_m670594074
qMd:_DateTime_System_IConvertible_ToSingle_m3927769066_AdjustorThunk
OGc:_cff_font_load
Sgf:_RecordProtocol_SendRecord_m2977889250
Zac:__Z13IsPathCreatedRKN4core12basic_stringIcNS_20StringStorageDefaultIcEEEE
zja:__ZL22stbir__encode_scanlineP11stbir__infoiPvPfiii
jag:__Z136RuntimeInvoker_Void_t1841601450_Byte_t3683104436_RuntimeObject_Int64U26_t763825331_ObjectU26_t597476745_SerializationInfoU26_t4051840202PFvvEPK10MethodInfoPvPS4_
Rvc:__ZN20QuadTreeNodeRenderer13StaticDestroyEPv
IS:__ZN11UnityEngine15CloudWebService20WebRequestRestClient5AbortEv
wXd:_Array_InternalArray__ICollection_Remove_TisUInt32_t2149682021_m4198326168_gshared
M1b:__ZN9Transform12CleanupClassEv
Q4f:__Z50RuntimeInvoker_Void_t1841601450_Double_t4078015681PFvvEPK10MethodInfoPvPS4_
SEh:_GUILayoutGroup_CalcWidth_m877887811
Rcf:_ClientContext_set_ClientHelloProtocol_m2246603449
szh:_Texture_Internal_GetHeight_m3235768354
Zga:__ZNSt3__26vectorIN9GfxDevice14SubPassActionsENS_9allocatorIS2_EEE26__swap_out_circular_bufferERNS_14__split_bufferIS2_RS4_EE
xrd:_U3CMouseDragOutsideRectU3Ec__Iterator1_MoveNext_m2845491958
Beb:__ZNSt3__26vectorIN9ShaderLab19SerializedSubShaderENS_9allocatorIS2_EEE26__swap_out_circular_bufferERNS_14__split_bufferIS2_RS4_EE
Mz:__ZN11UnityEngine9Animation33SetGenericTransformPropertyValuesERKNS0_30AnimatorGenericBindingConstantERKN7mecanim10ValueArrayEP9Transformy
s6f:__Z116RuntimeInvoker_RuntimeObject_RuntimeObject_Int32_t2071877448_RuntimeObject_RuntimeObject_RuntimeObject_RuntimeObjectPFvvEPK10MethodInfoPvPS4_
led:_StandaloneInputModule_IsModuleSupported_m623598506
kji:__ZN6il2cpp2vmL24thread_cleanup_on_cancelEPv
wDf:_SByte_ToString_m4105923225_AdjustorThunk
OUd:_CultureInfo_ConstructCurrentUICulture_m3363349599
yQf:_UInt64_CompareTo_m2422461804_AdjustorThunk
eAe:_MonoType_GetEvent_m4160342003
ewg:_RawImage_set_texture_m2400157626
jNh:_PrimeHelper_ToPrime_m1606935350_gshared
lMa:__Z30ProcessDynamicBatchGeometryJobP25DynamicVBOGeometryJobDataj
kNb:__ZNSt3__27__sort4IRNS_6__lessI11CulledLightS2_EEPS2_EEjT0_S6_S6_S6_T_
d9h:__ZN6il2cpp2vm14TypeNameParser26ParseArrayModifierOptionalEv
U9d:_MSCompatUnicodeTable_Level3_m260824928
W$:__Z26scripting_object_get_class18ScriptingObjectPtr
B8a:__ZNSt3__26vectorIN4core12basic_stringIcNS1_20StringStorageDefaultIcEEEE13stl_allocatorIS5_L18MemLabelIdentifier13ELi16EEE7reserveEj
aWh:_RectTransformUtility_GetTransposed_m1233793627
k1b:__ZNK28MonoBehaviourPropertyBinding15GenerateBindingERKN4core12basic_stringIcNS0_20StringStorageDefaultIcEEEEbRN11UnityEngine9Animation14GenericBindingE
Mne:_Int32_FindExponent_m3187554672
Tee:_KeyPairPersistence_Load_m1355205585
Wpe:_Int32_ToString_m2960866144_AdjustorThunk
USh:_Predicate_1_Invoke_m3539717340_gshared
O5c:_Single_CompareTo_m2081476257_AdjustorThunk
wlj:_AudioExtensionManager_AddSpatializerExtension_m1881494443
nui:__ZN6il2cpp6icalls8mscorlib6System11Environment15internalGetHomeEv
xuj:dynCall_iiiiiiffiiiiiiiiiffffiiii
Iua:__ZNK5Unity9Component7GetNameEv
pBf:__ZN21InterfaceFuncInvoker4IP12Il2CppObjectS1_P28SerializationInfo_t22898743028StreamingContext_t1417235061S1_E6InvokeEjP11Il2CppClassS1_S1_S3_S4_S1_
gKh:_ObjectPool_1_Get_m3724675538_gshared
_A:__ZN7mecanim8skeleton26SkeletonPoseComputeGlobalQEPKNS0_8SkeletonEPKNS0_13SkeletonPoseTIN4math4trsXEEEPS7_ii
QTc:__ZN18UnityConnectClient19RegisterVRCallbacksEv
TKe:_List_1_GetEnumerator_m2672519407_gshared
P_b:__ZN10BootConfig4Data3SetEPKcjS2_j
AA:__ZN9BlobWrite8TransferI22OffsetPtrArrayTransferIiEEEvRT_PKc17TransferMetaFlags
yag:__Z82RuntimeInvoker_Boolean_t3825574718_SByte_t454417549_RuntimeObject_SByte_t454417549PFvvEPK10MethodInfoPvPS4_
E9d:_ContractionComparer_Compare_m314873025
mqe:_Int64_System_IConvertible_ToDouble_m638786774
EJ:__ZN4FMOD6System7releaseEv
i2:__Z18PathToAbsolutePathRKN4core12basic_stringIcNS_20StringStorageDefaultIcEEEE
nDe:_Enumerator_MoveNext_m3078170540_AdjustorThunk
hCi:__ZN6il2cpp6icalls8mscorlib6System10Reflection16MonoPropertyInfo16GetTypeModifiersEPvb
IKh:_Action_Invoke_m3801112262
a5f:__Z79RuntimeInvoker_Decimal_t724701077_RuntimeObject_Int32_t2071877448_RuntimeObjectPFvvEPK10MethodInfoPvPS4_
bja:__ZL13BlitImageImplR14ImageReferenceiiRKS_NS_10ColorSpaceENS_8BlitModeEb
X6b:__ZN15DirectorManager17AcquireOutputNodeEv
q4f:__Z64RuntimeInvoker_RuntimeObject_Int16_t4041245914_Int16_t4041245914PFvvEPK10MethodInfoPvPS4_
Cra:__ZN16GeometryJobTasks20ScheduleGeometryJobsER9GfxDevicePFvP15GeometryJobDataEPK22GeometryJobInstructionjb
KH:__ZN12AudioManager29ShutdownReinitializeAndReloadEv
Mqh:_NetscapeCertTypeExtension_Decode_m2210025005
Lzf:_BaseFixupRecord_DoFixup_m1821597450
aYh:__ZN15dense_hashtableINSt3__24pairIK10KeyWrapperIPK22Il2CppGenericParameterEP11Il2CppClassEES6_N6il2cpp5utils11PointerHashIS4_EEN14dense_hash_mapIS6_S9_SE_NS6_14EqualsComparerINS0_8equal_toIS5_EEEENS0_9allocatorISA_EEE9SelectKeyESJ_SL_E6insertERKSA_
ute:_FileLoadException__ctor_m1356374414
SGh:_InvokableCall_4_Invoke_m1140294390_gshared
uga:__ZN14DataBufferGLES16RecreateWithDataEjPKv
dva:__Z29GetGlobalAllowNameConversionsv
oXb:__ZN8Material8SetColorEN9ShaderLab16FastPropertyNameERK10ColorRGBAf
h$f:_Module_GetCustomAttributes_m3581287913
tL:__ZN11AudioSource23VirtualRedirectTransferER18StreamedBinaryReadILb0EE
d4:__ZN21AssetReferenceStorageC2Ev
J_:__ZL41AssemblyNameMatchesWithOrWithoutExtensionPKcS0_
yoa:__ZN14GfxContextGLES43AddRenderSurfaceToDeferredFBOInvalidateListEPK17RenderSurfaceGLES
Mki:__ZN6il2cpp6icalls8mscorlib6System9Threading6Thread15Thread_internalEP12Il2CppThreadP14Il2CppDelegate
exa:__ZN11NamedObject23VirtualRedirectTransferER14SafeBinaryRead
Clj:_AudioListener_GetNumExtensionProperties_m2652400521
azc:__ZNSt3__26vectorIN20TextRenderingPrivate8FontImpl13CharacterInfoE13stl_allocatorIS3_L18MemLabelIdentifier1ELi16EEE6insertENS_11__wrap_iterIPKS3_EERS9_
_xa:__ZN23PreloadManagerOperation6IsDoneEv
m6h:__ZN6il2cpp2vm7Runtime15InvokeWithThrowEPK10MethodInfoPvPS5_
yie:_X509Certificate_get_RawData_m3000055075
M7b:__Z33GetHasChangedDeprecatedSystemMaskv
Fwi:__ZN6il2cpp5utils11StringUtils11Utf16ToUtf8ERKNSt3__212basic_stringIDsNS2_11char_traitsIDsEENS2_9allocatorIDsEEEE
EEg:_Enumerator_VerifyState_m1165543189_AdjustorThunk
cNd:_DateTime_AddSeconds_m722082155_AdjustorThunk
XBd:_SynchronizedArrayListWrapper_CopyTo_m956887031
uab:__ZN21LightProbeProxyVolume18HasHardwareSupportEv
yVh:_CanvasRenderer_set_materialCount_m1703953120
jQb:__ZN26LightProbeProxyVolumeCacheC2ER13BatchRendererR15RenderLoopStats
Pja:__ZN6prcoreL31inner_stretch_argb8888_bilinearEPKNS_9InnerInfoE
bxb:__Z18Transfer_BlittableI18StreamedBinaryReadILb1EELb1E8BitFieldEvRK29SerializationCommandArgumentsR31RuntimeSerializationCommandInfo
XAc:_UNITY_FT_Outline_Decompose
bff:_TlsClientCertificate_get_ClientCertificate_m3062440489
p3c:_StrongNamePublicKeyBlob_ToString_m3721281223
cBi:_GC_init_size_map
QVg:_InternalEnumerator_1_get_Current_m198513457_AdjustorThunk
lJa:__Z20scripting_object_new17ScriptingClassPtr
Jle:_TextInfo__ctor_m2782608694
oRe:_Queue_1_System_Collections_ICollection_CopyTo_m772787461_gshared
Sle:_TextInfo_ToUpper_m299550697
drc:__ZN9JSONWrite8TransferI13dynamic_arrayI8BitFieldLj4EEEEvRT_PKc17TransferMetaFlags
rld:_Graphic_OnRectTransformDimensionsChange_m1610753363
XKd:_Convert_ToUInt16_m3265369225
P:Math_exp
Lze:_MonoEnumInfo_get_Cache_m3551569711
Ao:FUNCTION_TABLE_iiifi
Fsi:__ZN6il2cpp2os5posix13PosixAutoLockD2Ev
IWd:_Array_InternalArray__ICollection_Contains_TisVector3_t2243707580_m3625701788_gshared
apa:__ZNSt3__26vectorINS_4pairIyP17VertexDeclarationEENS_9allocatorIS4_EEE6insertENS_11__wrap_iterIPKS4_EERS9_
$uc:__GLOBAL__sub_I_modules_physics2d_public_0_cpp
aFc:_cff_get_advances
FCb:__ZN13MonoBehaviour9SetScriptERK4PPtrI10MonoScriptE18ScriptingObjectPtr
yWd:_Array_InternalArray__ICollection_Contains_TisPlayableBinding_t2498078091_m4267109606_gshared
DAc:_UNITY_FT_Create_Class_sfnt_module_class
LPd:_Decimal_IsZero_m3557909184_AdjustorThunk
Czd:_Char_ToString_m1401375624
SZc:_MD5CryptoServiceProvider__cctor_m3309191799
MCa:__ZNK10FileSystem16LastErrorMessageEv
Iig:__Z74RuntimeInvoker_Vector2_t2243707579_Vector2_t2243707579_Vector2_t2243707579PFvvEPK10MethodInfoPvPS4_
PEe:_Enumerator_System_Collections_IEnumerator_Reset_m3052395060_gshared
u7e:_Kernel_DwordDivMod_m3728402123
WBb:__ZN13MonoBehaviour13AwakeFromLoadE17AwakeFromLoadMode
irb:__ZL26Transfer_SimpleNativeClassI17RemapPPtrTransfer8GradientLb1EEvRK29SerializationCommandArgumentsR31RuntimeSerializationCommandInfo
_7b:__ZN12CachedWriter9InitWriteER15CacheWriterBase
R6b:__Z21UnsignedInt64ToStringy
tIf:_UTF7Decoder__ctor_m549434986
o0g:_InternalEnumerator_1_get_Current_m1025321669_AdjustorThunk
wjc:__Z66Register_UnityEngine_Transform_INTERNAL_CALL_InverseTransformPointv
A6:__ZZN15DirectorManager15InitializeClassEvEN41FixedUpdateDirectorFixedUpdateRegistrator7ForwardEv
sth:_X509Crl_VerifySignature_m1390212587
Ssf:_Group__ctor_m4103922028
MBj:_glLinkProgram__wrapper
ejb:__ZN18ScriptingArguments8AddInt64Ex
xka:__ZN6prcoreL12RemapGenericI17TexFormatARGB888815TexFormatBGR888EEvPKNS_9InnerInfoE
Ljb:__ZN12HandlerChain4LockER13FileEntryData12FileLockMode
YZc:_MD5CryptoServiceProvider_ProcessFinalBlock_m1052610785
lCd:_BitArray_Set_m2878881714
TUc:__ZN28UnityConnectScriptingClasses23CallSessionStateChangedEixxbP21ScriptingExceptionPtr
ume:_Guid_CompareTo_m2203922782_AdjustorThunk
$zg:_Selectable_get_colors_m3501193396
hoi:__ZN6il2cpp6icalls8mscorlib6System13Globalization11CultureInfo35construct_internal_locale_from_nameEP17Il2CppCultureInfoP12Il2CppString
qtb:__ZL22Transfer_ManagedObjectI24GenerateTypeTreeTransferLb1EEvRK29SerializationCommandArgumentsR31RuntimeSerializationCommandInfo
C9g:_ContextAttribute_Equals_m53324298
Wj:_emscripten_set_main_loop_timing
Jih:_Camera_ScreenToViewportPoint_m3458250415
IRf:_WeakReference_AllocateHandle_m1783929473
pga:__ZN14DataBufferGLES12RecordRenderEv
q5d:_Array_Sort_TisRuntimeObject_m3674422195_gshared
VWb:__ZN14ImageReference10FlipImageYEv
Ylc:__Z14GetDefaultSkini
YE:__ZN4FMOD3DSP9setBypassEb
r_b:__Z19NormalizeWheelInputf
QWd:_Array_InternalArray__ICollection_Remove_TisLink_t865133271_m1984184141_gshared
Uuc:__Z29Transfer_Blittable_ArrayFieldI8JSONReadhEvRT_R9ArrayInfoRK23StaticTransferFieldInfo
Hsd:_LayoutRebuilder_IsDestroyed_m3442208294
fEg:_Enumerator_VerifyState_m1547102902_AdjustorThunk
yFi:__ZN6il2cpp2os20ThreadLocalValueImpl8SetValueEPv
OJa:__ZN22RenderingCommandBuffer20CleanupCommandBufferEv
Lag:__Z165RuntimeInvoker_Void_t1841601450_UInt32U26_t2197289955_Int32_t2071877448_UInt32U26_t2197289955_Int32_t2071877448_Int32_t2071877448_Int32_t2071877448_Int32_t2071877448PFvvEPK10MethodInfoPvPS4_
Jpc:__Z18Transfer_BlittableI9JSONWriteLb1EtEvRK29SerializationCommandArgumentsR31RuntimeSerializationCommandInfo
vte:_FileLoadException__ctor_m918124939
nk:___syscall85
a9:__ZN15dense_hashtableINSt3__24pairIKN4core12basic_stringIcNS2_20StringStorageDefaultIcEEEE13dynamic_arrayI4PPtrI6SpriteELj4EEEES6_20StringHash32FunctionIS6_EN14dense_hash_mapIS6_SC_SF_NS0_8equal_toIS6_EE13stl_allocatorISD_L18MemLabelIdentifier81ELi16EEE9SelectKeyESI_SL_E5clearEv
VKb:__ZNSt3__26__sortIRPFbP10GUIElementS2_EPS2_EEvT0_S7_T_
b8e:_SequentialSearchPrimeGeneratorBase_GenerateSearchBase_m2930465198
L5b:__ZN16GraphicsSettings12CleanupClassEv
pvi:__ZN6il2cpp2os6Thread19DetachCurrentThreadEv
vYh:__ZN6il2cpp2vmL21SetupInterfacesLockedEP11Il2CppClassRKNS_2os12FastAutoLockE
Wlb:__ZN11MonoManager23VirtualRedirectTransferER24GenerateTypeTreeTransfer
SOa:__ZN19StreamedBinaryWriteILb0EE8TransferI13dynamic_arrayI8Vector3fLj4EEEEvRT_PKc17TransferMetaFlags
Jy:__ZN23AnimationPlayableOutput17SetSourcePlayableEP8Playable
ssf:_Capture__ctor_m885749277
yod:_SubmitEvent__ctor_m222860306
IR:__ZN11UnityEngine15CloudWebService14DataDispatcher15SetupWebRequestEv
Dxe:_TextWriter__cctor_m4047845042
YRc:__ZN11UnityEngine15PlatformWrapper13GetShaderCapsEv
aqh:_Object_ToString_m2938729670
CSb:__ZNSt3__211__sift_downIR26RenderDeferredObjectSorterP16RenderObjectDataEEvT0_S5_T_NS_15iterator_traitsIS5_E15difference_typeES5_
Sod:_InputField_CaretBlink_m3960486606
Zj:_emscripten_glGetProgramiv
rfe:_SmallXmlParser_ReadCharacters_m1966365555
Yif:_InternalAsyncResult_get_CompletedWithError_m3993955322
t6b:__ZN21FixedBehaviourManager6UpdateEv
Nac:__ZN9Transform9SetParentEPS_NS_15SetParentOptionE
Emd:_GridLayoutGroup_set_startCorner_m1660251450
AHa:__ZN19ShaderPropertySheet8SetFloatEN9ShaderLab16FastPropertyNameEfNS_8SetFlagsE
Dgj:__ZL68InputField_t1631627530_CustomAttributesCacheGenerator_m_AsteriskCharP21CustomAttributesCache
j9a:__ZN19RuntimeSceneManager24BeginIntegrateMainThreadEP10UnityScene
Tti:__ZNSt3__2plIcNS_11char_traitsIcEENS_9allocatorIcEEEENS_12basic_stringIT_T0_T1_EERKS9_S6_
uye:_LocalDataStoreSlot__cctor_m1192669356
eeb:__ZN9ShaderLab20SerializedSubProgramaSERKS0_
tsj:_roundf
m8c:_String_CreateString_m2556700934
oFa:__ZN18StreamedBinaryReadILb0EE21TransferSTLStyleArrayINSt3__26vectorI17SortingLayerEntryNS2_9allocatorIS4_EEEEEEvRT_17TransferMetaFlags
ns:__ZN8Animator15SetPrepareStageEv
uBg:_Slider_get_axis_m162140813
wYh:__ZN6il2cpp2vmL24SetupTypeHierarchyLockedEP11Il2CppClassRKNS_2os12FastAutoLockE
z_b:__ZL11TextHandleriPK23EmscriptenKeyboardEventPv
Ssd:_LayoutRebuilder_U3Cs_RebuildersU3Em__0_m3768099182
Szg:_ScrollRect_SetLayoutHorizontal_m3486408020
Ayc:_destroy_face
Pnh:_Material_SetIntImpl_m1039479734
ODg:_Enumerator_VerifyState_m1547102902_gshared
yCi:__ZN6il2cpp6icalls8mscorlib6System8Security12Cryptography24RNGCryptoServiceProvider13RngInitializeEP11Il2CppArray
Cmf:_IPAddress__cctor_m3624830012
CL:__ZN20SoundChannelInstance7setMuteEb
mof:_AsnEncodedData_EnhancedKeyUsageExtension_m1452131166
ayb:__Z19TransferField_ArrayI18StreamedBinaryReadILb1EE27Converter_SimpleNativeClassI17AnimationCurveTplIfEEEvRK23StaticTransferFieldInfoR31RuntimeSerializationCommandInfoRT0_
Eyh:_SendMouseEvents__cctor_m1448404407
dha:__ZN18GfxFramebufferGLES22MakeCurrentFramebufferENS_7BuiltinE
ytf:_Interpreter_Close_m1500459069
rk:_JS_SystemInfo_GetWidth
fDa:__ZN12CachedReader4ReadEPvj
vFc:_cf2_blues_init
UVg:_InternalEnumerator_1_System_Collections_IEnumerator_get_Current_m3600601141_gshared
u0c:_SHA1Internal_HashFinal_m3188468925
hzd:_Char_GetHashCode_m2343577184
kPb:__Z24CalculateLightShadowFadeRK6CamerafffR8Vector4f
P_:__ZN19RuntimeSceneManagerD2Ev
n7g:_ChannelData_get_CustomProperties_m1470957369
C6d:_Dictionary_2_Do_ICollectionCopyTo_TisRuntimeObject_m545661084_gshared
YS:__ZN11UnityEngine15CloudWebService25WebRequestDownloadHandler17OnCompleteContentEv
Oja:__ZN6prcore17GetIntegerBlitterE13TextureFormatS0_N14ImageReference8BlitModeE
cdi:__ZN6il2cpp2gc19AppendOnlyGCHashMapINSt3__24pairIPK11Il2CppImageP11Il2CppClassEEP22Il2CppReflectionModule17ReflectionMapHashIS9_ENS2_8equal_toIS9_EEE11TryGetValueERKS9_PSB_
bFg:_Enumerator_VerifyState_m3173176371_AdjustorThunk
Klf:_TypeConverterAttribute__cctor_m506796812
Ncc:__ZN9BlobWrite14ReduceCopyImplERK14ReduceCopyDataj
tY:__ZNSt3__26__treeI19RepeatingLogMessageNS_4lessIS1_EE13stl_allocatorIS1_L18MemLabelIdentifier73ELi16EEE12__find_equalIS1_EERPNS_16__tree_node_baseIPvEESD_RKT_
gP:__ZN11AudioSource18IsPlayingScriptingEv
N2g:_Comparer_1_System_Collections_IComparer_Compare_m1790257529_gshared
Rwj:_glShaderSource__wrapper
nBa:__ZN25MultiBlocksMemoryFileData17AdjustBlocksCountEj
wki:__ZNSt3__214__split_bufferIN6il2cpp2vm22EmbeddedResourceRecordERNS_9allocatorIS3_EEED2Ev
Ycf:_TlsClientHello__ctor_m1699671541
Gwc:__ZN13TextRendering4Font8TransferI24GenerateTypeTreeTransferEEvRT_
X8g:_Context_NotifyGlobalDynamicSinks_m2916447645
eec:__Z27CullingGroup_CUSTOM_DisposeP12Il2CppObject
qVc:__ZNSt3__26vectorIP19BaseConnectSettings13stl_allocatorIS2_L18MemLabelIdentifier6ELi16EEE21__push_back_slow_pathIKS2_EEvRT_
dKb:__ZN13ComputeShader15SetTextureParamEjRKN9ShaderLab16FastPropertyNameE9TextureID16TextureDimension
LAg:_Shadow_set_effectDistance_m1951993364
FMg:_Dictionary_2_ContainsKey_m416495915_gshared
xm:_glStencilMask
vti:__ZN6il2cpp2os10ThreadImpl16GetCurrentThreadEv
RDd:_Hashtable__ctor_m2337481811
IEg:_Enumerator_System_Collections_IEnumerator_get_Current_m2010873149_gshared
Dij:__ZL74SpriteState_t1353336012_CustomAttributesCacheGenerator_m_HighlightedSpriteP21CustomAttributesCache
kyf:_RealProxy__ctor_m2505535530
dAi:_GC_push_conditional_with_exclusions
wPf:_UInt32_System_IConvertible_ToUInt16_m2798641702_AdjustorThunk
iAf:_BinaryFormatter_get_DefaultSurrogateSelector_m219714691
zB:__ZN12_GLOBAL__N_121ProcessAnimationBeginER35AnimationPlayableEvaluationConstantR32AnimationPlayableEvaluationInputR33AnimationPlayableEvaluationOutput
h7f:__Z136RuntimeInvoker_Void_t1841601450_Int32_t2071877448_RuntimeObject_RuntimeObject_RuntimeObject_RuntimeObject_RuntimeObject_SByte_t454417549PFvvEPK10MethodInfoPvPS4_
z9e:_MD4Managed_Encode_m2097839378
x1f:_MonoProperty_GetOptionalCustomModifiers_m3827844355
xpj:_strrchr
Aae:_SimpleCollator_GetSortKey_m2188419329
vjj:__ZL56LayoutElement_t2808691390_CustomAttributesCacheGeneratorP21CustomAttributesCache
PPa:__ZN14RenderSettings27UpdateIndirectSpecularColorEv
S6a:__ZN14PlayerSettings8TransferI18StreamedBinaryReadILb0EEEEvRT_
g5h:__ZN6il2cpp6icalls8mscorlib6System8MonoType16GetMethodsByNameEP20Il2CppReflectionTypeP12Il2CppStringibS5_
Cnh:_Logger_Log_m302200299
Z5g:_GCHandle__ctor_m2952050298
Kug:_Mask_IsRaycastLocationValid_m62488857
GGb:__ZNSt3__27__sort3IRNS_4lessIN22BuiltinResourceManager8ResourceEEEPS3_EEjT0_S7_S7_T_
b2g:_DefaultComparer_Compare_m3472472212_gshared
Tte:_MonoIO_GetLength_m2812344043
hEc:_ps_hints_t2mask
Bhi:__ZN14dense_hash_mapI10KeyWrapperINSt3__24pairIP11Il2CppClassjEEES4_N6il2cpp8metadata14ArrayClassHashENS6_14EqualsComparerINS8_17ArrayClassCompareEEENS1_9allocatorINS2_IKS6_S4_EEEEEC2EjRKS9_RKSC_
u3a:__ZN10BlendShape8TransferI19StreamedBinaryWriteILb0EEEEvRT_
mre:__Z21il2cpp_codegen_sizeofP11Il2CppClass
Wna:__Z19GetTimeSinceStartupv
W4c:_SecurityFrame_get_Assembly_m2816566490
wVh:_CanvasRenderer_set_hasPopInstruction_m3302400555
lJc:_TT_Load_Composite_Glyph
Cud:_Array_Sort_m2994254654
YPe:_List_1__ctor_m593058937_gshared
DNb:__ZN29RenderNodeQueuePrepareContextC2Ev
eO:__ZN10SampleClipC2E18MemLabelIdentifier18ObjectCreationMode
gfb:__ZN9ShaderLab20SerializedSubProgram16TextureParameter8TransferI24GenerateTypeTreeTransferEEvRT_
vaa:__ZN9GfxDevice19SaveStereoConstantsEv
XCi:__ZN6il2cpp2os11MutexHandle4WaitEj
Cbc:__ZL34GetComponentsImplementationRecurseILb1ELi1ELi1EEbR10GameObjectbRK17CompareParametersRK39GetComponentsImplementation_ReturnValue
WCi:__ZN6il2cpp2os11MutexHandle4WaitEv
Xzd:_ArrayList_set_Capacity_m592558035
Hla:__ZN6prcoreL17RemapGenericFloatI15TexFormatRGHalf18TexFormatARGBFloatEEvPKNS_9InnerInfoE
jFb:__Z18SimulateMouseInputi
xJb:__ZN13RenderManager23AddRemoveCamerasDelayedEv
Oqc:__ZN9JSONWrite8TransferI13dynamic_arrayIdLj8EEEEvRT_PKc17TransferMetaFlags
ljh:_Color_op_Multiply_m2110750533
jXd:_Array_InternalArray__ICollection_Remove_TisILTokenInfo_t149559338_m1523907845_gshared
iEd:_Hashtable_Rehash_m2877670513
Itg:__Z98RuntimeInvoker_RuntimeObject_UIVertex_t1204258818_UIVertex_t1204258818_RuntimeObject_RuntimeObjectPFvvEPK10MethodInfoPvPS4_
GVb:__ZN13RenderTexture8SetWidthEi
Qqd:_InputField_Insert_m1593238693
Lzc:_UNITY_FT_GlyphLoader_CheckSubGlyphs
Q3h:__ZN6il2cpp2vm21ThreadPoolCompartment20SpawnNewWorkerThreadEv
u0d:_Array_InternalArray__ICollection_Add_TisCustomAttributeTypedArgument_t1498197914_m3260005285_gshared
PPb:__Z25SetupObjectBakedOcclusionbRK15SharedLightDataRK26SharedLightmapSettingsDataRK15LightmapIndicesR17ShaderPassContext
xme:_Guid_GetHashCode_m1401300871
EY:__ZN9ShaderLab16FastPropertyName4InitEPKc
E0b:__Z13RegisterClassIN2UI13RectTransformEEvv
Y9d:_MSCompatUnicodeTable_ToWidthCompat_m2299599532
tBe:_NumberFormatter_get_IsFloatingSource_m2830957202
t4b:__ZL31MeshRendererTransformChangedJobP13BoundsJobDatajPK23TransformAccessReadOnlyPKyj
ERc:__ZN11UnityEngine15PlatformWrapper19GetPhysicalMemoryMBEv
zQa:__ZN13RenderTexture9SetMipMapEb
Syg:_ScrollRect_set_verticalScrollbarSpacing_m2356851539
i6:__Z18GetDirectorManagerv
WZh:__ZN14dense_hash_mapI10KeyWrapperIPK11Il2CppClassEPKcN6il2cpp5utils11PointerHashIS1_EENS4_14EqualsComparerINSt3__28equal_toIS3_EEEENSC_9allocatorINSC_4pairIKS4_S6_EEEEEC2EjRKSA_RKSF_
Tic:__Z38Transform_CUSTOM_INTERNAL_get_rotationP12Il2CppObjectP11Quaternionf
N9h:__ZNSt3__26vectorIN6il2cpp2vm17TypeNameParseInfoENS_9allocatorIS3_EEE8allocateEj
Tci:__ZNK15dense_hashtableINSt3__24pairIK10KeyWrapperINS1_IPK10MethodInfoP11Il2CppClassEEEjEES9_17ReflectionMapHashIS8_EN14dense_hash_mapIS9_jSD_NS9_14EqualsComparerINS0_8equal_toIS8_EEEENS0_9allocatorISB_EEE9SelectKeyESI_SK_E5beginEv
Mma:__ZN7ApiGLES19UploadBufferSubDataEjN2gl12BufferTargetEllPKv
O8:__ZNSt3__216__rotate_forwardINS_11__wrap_iterIPN4core12basic_stringIcNS2_20StringStorageDefaultIcEEEEEEEET_S9_S9_S9_
t6c:_String_System_IConvertible_ToInt32_m1927223638
GXd:_Array_InternalArray__ICollection_Remove_TisContentType_t1028629049_m3085152315_gshared
A8c:_ASCIIEncoding__ctor_m4127831672
Cjh:_GameObject_GetComponent_m724360550
lob:__Z19TransferField_ArrayI14SafeBinaryRead27Converter_SimpleNativeClassI8GUIStyleEEvRK23StaticTransferFieldInfoR31RuntimeSerializationCommandInfoRT0_
ydg:__Z63RuntimeInvoker_Void_t1841601450_RuntimeObject_Int16_t4041245914PFvvEPK10MethodInfoPvPS4_
tGf:_UTF8Encoding__ctor_m3336862259
LCi:__ZN6il2cpp5utils10MemoryPoolC2Ej
Hqf:_X509Chain_GetAuthorityKeyIdentifier_m2607407678
HCi:__ZN6il2cpp5utils10MemoryPoolC2Ev
lPa:__ZN14RenderSettings5ResetEv
u$b:__ZN6Sprite9BindAtlasERK4PPtrI11SpriteAtlasE
znc:__ZN5Unity9rapidjson12GenericValueINS0_4UTF8IcEE13JSONAllocatorE10FindMemberIS4_EENS0_21GenericMemberIteratorILb0ES3_S4_EERKNS1_IS3_T_EE
Jli:__ZNSt3__212basic_stringIDsNS_11char_traitsIDsEENS_9allocatorIDsEEE6appendEPKDsj
_nc:__ZN5Unity9rapidjson13GenericReaderINS0_4UTF8IcEES3_13JSONAllocatorE11ParseNumberILj1ENS0_25GenericInsituStringStreamIS3_EENS0_15GenericDocumentIS3_S4_S4_EEEEvRT0_RT1_
V6d:_Dictionary_2_Do_ICollectionCopyTo_TisKeyValuePair_2_t3716250094_m1740410536_gshared
fti:__ZN6il2cpp2os10ThreadImplD2Ev
xge:_RSAManaged_Dispose_m3018788098
Roc:__ZN8Gradient8TransferI9JSONWriteEEvRT_
fId:_DateTime_ToUniversalTime_m1815024752
Fxa:__ZNK12TLSAllocatorI14StackAllocatorE22GetAllocatedMemorySizeEv
fOi:__ZL54AssemblyName_t894705941_CustomAttributesCacheGeneratorP21CustomAttributesCache
iLd:_Convert_ToUInt32_m3394039268
qAh:_Transform_get_forward_m2144220796
xva:__ZN17RemapPPtrTransfer12PushMetaFlagE17TransferMetaFlags
wjb:__ZN12HandlerChain4NameEv
Ypb:__Z29Transfer_Blittable_ArrayFieldI14SafeBinaryReadN4math12int3_storageEEvRT_R9ArrayInfoRK23StaticTransferFieldInfo
e5a:__ZNSt3__26vectorI9InputAxisNS_9allocatorIS1_EEE10deallocateEv
vne:_Int16_Equals_m3925135434_AdjustorThunk
GPc:__Z44Register_UnityEngine_CanvasRenderer_get_cullv
MLi:__ZL60IHashCodeProvider_t1980576455_CustomAttributesCacheGeneratorP21CustomAttributesCache
$0b:__ZN13ProduceHelperI13MonoBehaviourLb0EE7ProduceE18MemLabelIdentifier18ObjectCreationMode
dEe:_Enumerator_VerifyState_m1677639504_AdjustorThunk
gcf:_CipherSuiteCollection_get_Item_m280627160
omb:__Z44InitializeTransferFunctionScriptingTraitsForI17RemapPPtrTransferEvR31TransferFunctionScriptingTraits
qvf:_SerializationInfoEnumerator_MoveNext_m1876990879
ULf:_TimeSpan_Duration_m4205681645
CXb:__ZN14UnityWebStream24UpdateAllUnityWebStreamsEv
o1b:__ZNSt3__26vectorI16MessageForwarder13stl_allocatorIS1_L18MemLabelIdentifier7ELi8EEE6resizeEj
mKi:__ZL60ObsoleteAttribute_t3878847927_CustomAttributesCacheGeneratorP21CustomAttributesCache
Xfh:_Uri_ParseAsWindowsAbsoluteFilePath_m1108586962
VR:__ZN11UnityEngine15CloudWebService14DataErrorEventD2Ev
W1d:_Array_InternalArray__ICollection_CopyTo_TisRaycastHit2D_t4063908774_m3837098618_gshared
h9a:__ZN18LoadSceneOperation21MustCompleteNextFrameEv
$yh:_DataUtility_GetInnerUV_m593541260
DL:__ZNK12AudioManager16GetAudioListenerEv
r0i:__ZL48Camera_t189460977_CustomAttributesCacheGeneratorP21CustomAttributesCache
mVb:__ZNSt3__26vectorI11CameraStackNS_9allocatorIS1_EEE8__appendEj
Zpd:_InputField_OnDisable_m1865339380
tPf:_UInt32_System_IConvertible_ToType_m747769316
Mt:__ZN7mecanim9animation12GetHumanPoseERKNS0_18ClipMuscleConstantEPKNS0_10ValueDeltaERNS_5human9HumanPoseE
Bv:__ZN22AnimationMixerPlayable17ProcessRootMotionEP35AnimationPlayableEvaluationConstantP32AnimationPlayableEvaluationInputP33AnimationPlayableEvaluationOutput
o2:__Z13GetFileSystemv
n5b:__ZZL23RegisterLightPropertiesR22GenericPropertyBindingEN29Wrapper_LightColorTemperature13SetFloatValueEPvf
H3:__ZNK5Unity4Type21FindAllDerivedClassesER13dynamic_arrayIPKS0_Lj4EENS0_17TypeFilterOptionsE
m4:__ZN13RuntimeStaticI15GUIEventManagerLb0EE16StaticInitializeEPv
sKg:_Dictionary_2_ToTKey_m2900575080_gshared
lke:_DaylightTime_get_Delta_m2316831491
EWd:_Array_InternalArray__ICollection_Contains_TisUILineInfo_t3621277874_m1175659630_gshared
jLf:_WaitHandle_WaitOne_m370363697
Nsf:_FactoryCache_Lookup_m1681894361
FNd:_DateTime_Subtract_m698282245_AdjustorThunk
Tcc:__Z7OpenURLRKN4core12basic_stringIcNS_20StringStorageDefaultIcEEEE
l$d:_Array_InternalArray__IndexOf_TisResourceCacheItem_t333236149_m761772858_gshared
qKb:__ZN19ShaderPropertySheet9SetMatrixEN9ShaderLab16FastPropertyNameERK10Matrix4x4fNS_8SetFlagsE
V_c:_RIPEMD160Managed_Initialize_m3365407578
UWa:__Z29GetTextureSizeAllowedMultiple13TextureFormat
Bmf:_IPAddress_HostToNetworkOrder_m1092199707
sYd:_SetPropertyUtility_SetStruct_TisSpriteState_t1353336012_m2898060836_gshared
b3c:_SecurityAttribute__ctor_m3425755778
J6b:__ZN21IntermediateRenderers3AddEP20IntermediateRenderer
I6h:_il2cpp_array_element_size
Wf:_glCheckFramebufferStatus
JZd:_Array_compare_TisInt32_t2071877448_m840310202_gshared
Goi:__ZN15dense_hashtableINSt3__24pairIK10KeyWrapperINS1_IPKcS4_EEEiEES6_24NamespaceAndNamePairHashN14dense_hash_mapIS6_iS9_NS6_14EqualsComparerI26NamespaceAndNamePairEqualsEENS0_9allocatorIS8_EEE9SelectKeyESD_SF_E12resize_deltaEjj
A1g:_InternalEnumerator_1_System_Collections_IEnumerator_get_Current_m442726479_AdjustorThunk
gU:__ZN19CloudServiceHandler20StartEventDispatcherERKN11UnityEngine15CloudWebService18CloudServiceConfigERNS1_23WebRequestRestHeaderMapE
I$g:_InternalEnumerator_1_System_Collections_IEnumerator_get_Current_m790514740_AdjustorThunk
M9d:__Z37il2cpp_codegen_get_executing_assemblyPK10MethodInfo
Frh:_PKCS12_get_Keys_m1312614820
L_d:_Array_InternalArray__IndexOf_TisByte_t3683104436_m3605266236_gshared
_4b:__ZZL23RegisterLightPropertiesR22GenericPropertyBindingEN22Wrapper_LightIntensity13GetFloatValueEPv
Vwg:_RaycastAllCallback_Invoke_m981876639
fGf:_UnicodeEncoding__ctor_m72484327
xzh:_Texture_INTERNAL_get_texelSize_m3335010007
ini:__ZN14dense_hash_mapI10KeyWrapperIP14Il2CppIUnknownEjN6il2cpp5utils11PointerHashIS1_EENS3_14EqualsComparerINSt3__28equal_toIS2_EEEENS9_9allocatorINS9_4pairIKS3_jEEEEE15set_deleted_keyERSF_
W3:__ZN22BuiltinResourceManager16StaticInitializeEPv
Goe:_NumberFormatter_ScaleOrder_m1915154678
ufi:__ZN13Il2CppHashMapIPK14Il2CppAssemblyPK22Il2CppMonoAssemblyNameN6il2cpp5utils11PointerHashIS1_EENSt3__28equal_toIS2_EENSA_9allocatorINSA_4pairIK10KeyWrapperIS2_ES5_EEEEEC2EjRKS9_RKSC_
bef:_ClientSessionInfo_SetContext_m2649357891
tpe:_Int32_System_IConvertible_ToInt64_m3790029067_AdjustorThunk
Mad:_RaycasterManager_GetRaycasters_m1154876874
ojf:_SslStreamBase_InternalReadCallback_m2524917586
t1:__ZN8Remapper6RemoveEi
cJe:_List_1_CheckCollection_m2608305187_gshared
acc:__ZN9Scripting27CreateArgumentNullExceptionEPKc
hzc:__ZL36CleanupTextRenderingScriptingClassesv
v1e:_ReadOnlyCollection_1__ctor_m3532148437_gshared
iud:_Array_BinarySearch_m3270245097
Bgc:__Z34Mesh_CUSTOM_SetArrayForChannelImplP12Il2CppObject30InternalScriptingShaderChannel34InternalScriptingVertexChannelTypeiP11Il2CppArrayi
hte:_MonoIO_DeleteFile_m3273821223
Ibe:_BigInteger_GenerateRandom_m2507308768
gMd:_DateTime_System_IConvertible_ToDouble_m1431748426_AdjustorThunk
rWd:_Array_InternalArray__ICollection_Contains_TisUInt16_t986882611_m510319131_gshared
_2d:_Array_InternalArray__Insert_TisRaycastHit2D_t4063908774_m3174907903_gshared
$Pd:_Decimal_ToString_m541380585
_6h:_il2cpp_class_is_valuetype
JD:__ZN11UnityEngine9Animation28GenericAnimationBindingCache25RegisterIAnimationBindingEPKN5Unity4TypeEiP17IAnimationBinding
KPc:__Z70RectTransformUtility_CUSTOM_INTERNAL_CALL_RectangleContainsScreenPointP12Il2CppObjectRK13Vector2fIcallS0_
PSd:_Enum_ToObject_m2601523252
dUb:__Z40ProcessCameraIndexListIsNodeVisibleInOutRK22SceneCullingParametersPK9SceneNodePK4AABBR9IndexList
Znh:_Mathf_Sqrt_m3274009347
zLa:__ZN16GraphicsSettings8TransferI17RemapPPtrTransferEEvRT_
mwe:_StreamReader__ctor_m2654332332
mNc:__ZN2UI6Canvas13UpdateBatchesEb
sqh:_Playable__cctor_m3745623656
Gy:__ZNK23AnimationPlayableOutput11DerivesFromE17ScriptingClassPtr
hjh:_Color_op_Implicit_m3487763211
iHe:_List_1_CheckCollection_m3968030679_gshared
$Gf:_StringBuilder_ToString_m617673931
ySc:__ZN11UnityEngine7Connect13ConfigHandler12GetListenersERKN4core12basic_stringIcNS2_20StringStorageDefaultIcEEEE
Nba:__ZN9GfxDevice18AllocRenderSurfaceEb
Kwg:_GetRayIntersectionAllNonAllocCallback_BeginInvoke_m273046189
o$b:__ZN10TagManager32GetSortingLayerUniqueIDFromValueEi
Ydh:_AnchorInfo_get_IsComplete_m1247624133
Ujd:_Dropdown_Show_m324374589
r_:__ZL27CleanupCoreScriptingClassesv
y7f:__Z68RuntimeInvoker_RuntimeObject_RuntimeObject_DSAParameters_t1872138834PFvvEPK10MethodInfoPvPS4_
Xlg:__Z101RuntimeInvoker_Void_t1841601450_RuntimeObject_Int32_t2071877448_Single_t2076509932_Single_t2076509932PFvvEPK10MethodInfoPvPS4_
fdd:_RaycastResult_get_isValid_m2482925612
vgc:__Z26AnimationCurve_CUSTOM_InitP12Il2CppObjectP11Il2CppArray
sAj:_glUniform1uiv__wrapper
ffi:__ZN6il2cpp2vm10Reflection7IsEventEP12Il2CppObject
A$:__ZN17PersistentManager26GetStreamNameSpaceInternalEi
Fvh:_Rect_set_y_m3273335367
LF:__ZN4FMOD6System11createSoundEPKcjP22FMOD_CREATESOUNDEXINFOPPNS_5SoundE
Vn:FUNCTION_TABLE_iiifiiii
mai:__ZN6il2cpp2vm4Type14IsSystemDBNullEPK10Il2CppType
yZ:__ZN9ShaderLab19CommonPropertyNames13StaticCleanupEPv
L0:__Z31scripting_method_get_returntype18ScriptingMethodPtr
_yg:_ScrollRect_UpdateBounds_m3266596336
hYa:__ZN15SerializeTraitsI12LightmapDataE8TransferI24GenerateTypeTreeTransferEEvRS0_RT_
DAh:_Transform_INTERNAL_set_localScale_m1610244689
xhd:_ColorBlock_GetHashCode_m649325222
Twj:_glStencilOpSeparate__wrapper
X8b:__ZN4Mesh5SetUvEiPKfjj
E_a:__ZN7Texture13SetAnisoLimitENS_20AnisotropicFilteringE
fab:__ZN28LightProbeProxyVolumeManager25UpdateSHCoeffsTextureDataER21LightProbeProxyVolume
jCa:__Z18CreateDecompressor15CompressionType18MemLabelIdentifier
vN:__ZN11AudioModule16SetListenerPauseEb
cnj:_Level2Start_Update_m2576990518
Ph:_emscripten_glCompressedTexSubImage2D
noa:__ZN13GfxDeviceGLES22MemoryBarrierImmediateEyN2gl17MemoryBarrierTypeE
z8:__ZZN18SpriteAtlasManagerC1EvEN46EarlyUpdateSpriteAtlasManagerUpdateRegistrator7ForwardEv
Vla:__ZN6prcoreL26RemapGenericFloatToIntegerI18TexFormatARGBFloat17TexFormatARGB8888EEvPKNS_9InnerInfoE
wbc:__Z46GetShaderModelNumericValueFromRequirementsMask18ShaderRequirements
yHc:_cff_ps_has_glyph_names
Mbh:_PatternCompiler_EmitPosition_m3013268572
jsf:_X509SubjectKeyIdentifierExtension__ctor_m1109455121
emd:_Graphic_CreateColorFromAlpha_m2614574534
lnc:__Z44Register_UnityEngine_GUIStyle_SetDefaultFontv
jwb:__Z18Transfer_BlittableI18StreamedBinaryReadILb1EELb1EiEvRK29SerializationCommandArgumentsR31RuntimeSerializationCommandInfo
yA:__ZN9BlobWrite8TransferI22OffsetPtrArrayTransferIKN4math7_float3EEEEvRT_PKc17TransferMetaFlags
Z1c:_TripleDES_IsWeakKey_m483013953
ypf:_X509Certificate2_get_PrivateKey_m2662162956
Wdi:__ZN15dense_hashtableINSt3__24pairIK10KeyWrapperINS1_IPK12PropertyInfoP11Il2CppClassEEEjEES9_17ReflectionMapHashIS8_EN14dense_hash_mapIS9_jSD_NS9_14EqualsComparerINS0_8equal_toIS8_EEEENS0_9allocatorISB_EEE9SelectKeyESI_SK_E12maybe_shrinkEv
Odg:__Z75RuntimeInvoker_RuntimeObject_RuntimeObject_Single_t2076509932_RuntimeObjectPFvvEPK10MethodInfoPvPS4_
Kwb:__Z18Transfer_BlittableI18StreamedBinaryReadILb1EELb1EsEvRK29SerializationCommandArgumentsR31RuntimeSerializationCommandInfo
ulg:__Z54RuntimeInvoker_Void_t1841601450_ColorBlock_t2652774230PFvvEPK10MethodInfoPvPS4_
y5c:_Single_System_IConvertible_ToSByte_m3757385387
sAh:_Vector3_get_forward_m1316319684
fue:_StreamAsyncResult_SetComplete_m2141125667
I_a:__ZL21SetAnisoLimitEnumImplN7Texture20AnisotropicFilteringEb
OQc:__ZN22BaseUnityConnectClient17OnEnterStateReadyEv
MJa:__ZN14GrowableBufferD2Ev
HEh:_GUIStyle_get_stretchWidth_m813991504
Mfc:__Z29Input_CUSTOM_GetMouseButtonUpi
G5h:__ZN6il2cpp6icalls8mscorlib6System8MonoType16InternalGetEventEP20Il2CppReflectionTypeP12Il2CppStringi
zJf:_Interlocked_CompareExchange_m3339239614
qBc:_UNITY_tt_face_load_maxp
_fc:__Z46Input_CUSTOM_INTERNAL_set_compositionCursorPosRK13Vector2fIcall
Ps:__ZN7mecanim5human12FullBodyMaskEv
kAh:_Transform_set_position_m2942701431
z4a:__ZN19ShaderPropertySheet11ComputeHashEv
Z$h:__ZN30dense_hashtable_const_iteratorI10KeyWrapperIPK19Il2CppGenericMethodES4_N6il2cpp8metadata23Il2CppGenericMethodHashEN14dense_hash_setIS4_S7_NS4_14EqualsComparerINS6_26Il2CppGenericMethodCompareEEENSt3__29allocatorIS4_EEE8IdentityESB_SE_EppEv
HS:__ZN11UnityEngine15CloudWebService20WebRequestRestClient6IsDoneEv
n9i:__ZL93AudioSource_t1135106623_CustomAttributesCacheGenerator_AudioSource_Play_m1385529671____delay0P21CustomAttributesCache
Li:_llvm_fabs_f32
Bgd:_CanvasScaler_HandleScaleWithScreenSize_m80056230
kS:__ZN11UnityEngine15CloudWebService16SessionContainer16GetJsonDataBlockEjRKN4core12basic_stringIcNS2_20StringStorageDefaultIcEEEERS6_PjSA_
hDf:_SByte_System_IConvertible_ToUInt64_m2174352876_AdjustorThunk
kIf:_UTF7Encoding_InternalGetBytes_m2772055844
F9f:__Z76RuntimeInvoker_Void_t1841601450_Int64_t909078037_ResourceInfoU26_t3126209420PFvvEPK10MethodInfoPvPS4_
iae:_SimpleCollator__cctor_m2693747668
UPd:_Decimal_CompareTo_m2454501434_AdjustorThunk
Q$:__ZN14SafeBinaryReadD2Ev
eOf:_UInt16_System_IConvertible_ToChar_m4055364664
x0b:__Z13RegisterClassI7TextureEvv
_xb:__ZN8Gradient8TransferI18StreamedBinaryReadILb1EEEEvRT_
xHg:_Enumerator_Dispose_m2369319718_AdjustorThunk
soc:__ZN5Unity9rapidjson8internal6Grisu2EdPcPiS3_
LPf:_UInt32_ToString_m554020223_AdjustorThunk
Gmh:_GameObject_SendMessage_m3423113156
wmi:__ZN6il2cpp6icalls8mscorlib6System4Type15MakeGenericTypeEP20Il2CppReflectionTypeP11Il2CppArray
kj:_SDL_PauseAudio
d7h:_il2cpp_class_from_type
Qud:_Array_Sort_m2323017822
Cxg:_Scrollbar_UpdateDrag_m3839695926
xZ:__ZN9ShaderLab19CommonPropertyNames16StaticInitializeEPv
Sye:_MissingMemberException__ctor_m3710131950
AC:__ZN7mecanim9animation18CreateAvatarOutputEPKNS0_14AvatarConstantEbbRNS_6memory9AllocatorE
Eeg:__Z91RuntimeInvoker_Void_t1841601450_RuntimeObject_Int32_t2071877448_RuntimeObject_RuntimeObjectPFvvEPK10MethodInfoPvPS4_
gEf:_CspParameters__ctor_m2546931874
vL:__ZN11AudioSource23VirtualRedirectTransferER24GenerateTypeTreeTransfer
J8b:__ZN7Texture11SetWrapModeE15TextureWrapMode
c1a:__ZN14Texture2DArray23VirtualRedirectTransferER14SafeBinaryRead
fPb:__ZNK6Camera21CalculateCanDoShadowsEv
imd:_Graphic__cctor_m1643894470
ivi:__ZN6il2cpp2os6Thread12SetStackSizeEj
Upf:_X509ChainElementEnumerator_get_Current_m2232618221
Ekh:_DebugLogHandler_LogFormat_m2866699703
Zfd:_U3COnFinishSubmitU3Ec__Iterator0_Reset_m2080388334
C8b:__ZNK8Renderer16IsVisibleInSceneEv
Uyg:_ScrollRect_set_onValueChanged_m3957749575
BX:__Z13VFormatBufferPciPKcz
fzb:__Z18Transfer_BlittableI18StreamedBinaryReadILb0EELb1EhEvRK29SerializationCommandArgumentsR31RuntimeSerializationCommandInfo
eSh:_U3CCreateWhereIteratorU3Ec__Iterator1D_1_Dispose_m1879652802_gshared
bod:_Image_GenerateSimpleSprite_m4275440988
VOf:_UInt16_ToString_m3280699191
Zla:__ZN6prcoreL27StretchGenericFloatBilinearI15TexFormatRFloatEEvPKNS_9InnerInfoE
qQi:__ZL56_PropertyInfo_t1567586598_CustomAttributesCacheGeneratorP21CustomAttributesCache
Ev:__Z24ProcessAnimationMixBeginP35AnimationPlayableEvaluationConstantP32AnimationPlayableEvaluationInputP33AnimationPlayableEvaluationOutput
w_d:_Array_IndexOf_TisCustomAttributeNamedArgument_t94157543_m745056346_gshared
aja:__Z14PadImageBorderR14ImageReferenceii
zci:__ZN15dense_hashtableINSt3__24pairIK10KeyWrapperINS1_IPK10MethodInfoP11Il2CppClassEEEjEES9_17ReflectionMapHashIS8_EN14dense_hash_mapIS9_jSD_NS9_14EqualsComparerINS0_8equal_toIS8_EEEENS0_9allocatorISB_EEE9SelectKeyESI_SK_E4findERSA_
b3h:__ZN6il2cpp2vm13MetadataCache28GetFieldDefaultValueForFieldEPK9FieldInfo
GSg:_ArrayReadOnlyList_1_ReadOnlyError_m2289309720_gshared
gw:__ZN27AnimationLayerMixerPlayableD2Ev
U5h:__ZN6il2cpp2vm8basepathEPKc
QH:__ZN12AudioManager39HandlePendingAudioConfigurationCallbackEv
Z6f:__Z119RuntimeInvoker_Int32_t2071877448_RuntimeObject_RuntimeObject_Int32_t2071877448_Int32_t2071877448_BooleanU26_t3168250738PFvvEPK10MethodInfoPvPS4_
gk:_emscripten_glIsFramebuffer
qGa:__ZN12_GLOBAL__N_16qAtan2Eff
sKd:_Convert_ToInt64_m954367741
kk:_JS_Sound_SetLoopPoints
Pzd:_ArrayList__ctor_m1467563650
HM:__ZN12AudioManager17ShouldSourcePauseEb
bDi:__ZN6il2cpp2vm26MetadataAllocGenericMethodEv
Dra:__ZN19ConstantBuffersGLES12RecordRenderEv
Hqc:__ZN9JSONWrite8TransferI10RectOffsetEEvRT_PKc17TransferMetaFlags
Hia:__ZN4crnd12symbol_codec11decode_bitsEj
WFc:_cf2_doFlex
D5d:_Array_Sort_TisRaycastResult_t21186376_TisRaycastResult_t21186376_m38820193_gshared
nBh:_Vector2__ctor_m847450945_AdjustorThunk
AOa:__ZN10Matrix3x4f8TransferI24GenerateTypeTreeTransferEEvRT_
rte:_StreamReader__ctor_m3454466728
UH:__ZN4FMOD6System12createReverbEPPNS_6ReverbE
Wwh:_RectTransform_get_anchorMin_m3466802567
Zv:__ZN7mecanim19ValueArrayBlendNodeILb1EEEvRKNS_10ValueArrayERKNS_14ValueArrayMaskERS1_RS4_RNS_16ValueArrayWeightEf
tbb:__Z16MarkDependenciesR27GarbageCollectorThreadStatej
Mrf:_X509ChainElementEnumerator_Reset_m3832280427
YAe:_MulticastDelegate_RemoveImpl_m2024746777
Lgd:_CanvasUpdateRegistry_ParentCount_m2367607495
SAe:_MulticastDelegate_Equals_m3064081489
rje:_Activator_CreateInstance_m1465989661
v9:__ZNK9Transform11GetPositionEv
xfh:_PositionAssertion_GetWidth_m2294218483
BMa:__ZN23SharedMeshRenderingData18UnloadVertexStreamEi
I6b:__ZN31CanvasBatchIntermediateRenderer11AddSubBatchERK16DrawBuffersRangePK19ShaderPropertySheet
q5b:__ZN19RenderEventsContextC2Ei
yQ:__Z6simd4fRKf
R1d:_Array_InternalArray__ICollection_CopyTo_TisColor32_t874517518_m379086718_gshared
sBg:_Slider_ClampValue_m2851810895
Ok:_emscripten_glEnable
Zqi:__ZN6il2cpp2gc16GarbageCollector29RegisterFinalizerForNewObjectEP12Il2CppObject
TEa:__ZN10TagManager23VirtualRedirectTransferER14SafeBinaryRead
MAc:_UNITY_FT_Init_Class_ft_grays_raster
k6:__ZN14PlayableOutput26ClearInvalidSourcePlayableEv
URb:__Z15InitLightMeshesv
NVi:__ZL97WaitHandle_t677569169_CustomAttributesCacheGenerator_WaitHandle_t677569169____Handle_PropertyInfoP21CustomAttributesCache
qCe:_KeyValuePair_2_ToString_m1391611625_AdjustorThunk
yn:FUNCTION_TABLE_iifiii
mr:__ZN7mecanim9animation14HasHumanCurvesERKNS0_18ClipMuscleConstantE
wJd:_Double_Parse_m1617409931
z_a:__ZN15QualitySettings8TransferI19StreamedBinaryWriteILb0EEEEvRT_
CFc:_cf2_arrstack_init
wPi:__ZL65ClassInterfaceAttribute_t910653559_CustomAttributesCacheGeneratorP21CustomAttributesCache
Nai:__ZN15dense_hashtableINSt3__24pairIK10KeyWrapperINS1_IPK14Il2CppAssemblyP11Il2CppClassEEEjEES9_17ReflectionMapHashIS8_EN14dense_hash_mapIS9_jSD_NS9_14EqualsComparerINS0_8equal_toIS8_EEEENS0_9allocatorISB_EEE9SelectKeyESI_SK_E15insert_noresizeERKSB_
sW:__Z15CleanLogHandler7LogTypePKcz
Kfb:__ZN9ShaderLab19SerializedSubShader8TransferI19StreamedBinaryWriteILb0EEEEvRT_
RHf:_UTF32Encoding_GetBytes_m2290150495
qCb:__ZN6Camera17RemoveImageFilterERK11ImageFilter
Bna:__ZNSt3__218__insertion_sort_3IR25ValueParameterArraySorterPN20GpuProgramParameters14ValueParameterEEEvT0_S6_T_
ECd:_CaseInsensitiveHashCodeProvider_AreEqual_m2456617355
hug:_LayoutUtility_GetLayoutProperty_m4052007472
vqa:__ZNSt3__214__split_bufferI20ComputeShaderVariantRNS_9allocatorIS1_EEED2Ev
Bzb:__Z18Transfer_BlittableI18StreamedBinaryReadILb0EELb1E9BoundsIntEvRK29SerializationCommandArgumentsR31RuntimeSerializationCommandInfo
zef:_Context_set_WriteSequenceNumber_m3356252710
TNc:__ZN2UI26InitializeDeviceForOverlayEi
vme:_Guid_Equals_m2389236871
rY:__Z27LogRepeatingStringWithFlagsRKN4core12basic_stringIcNS_20StringStorageDefaultIcEEEE15LogMessageFlagsi
fFe:_Enumerator_MoveNext_m3483405135_gshared
pt:__ZN17AnimationPlayable28ComputeNeedsBindingRebuildedEv
vs:__ZN17AnimationPlayable23RequestAllocateBindingsEv
y0d:_Array_InternalArray__ICollection_Add_TisMonoResource_t3127387157_m2070096275_gshared
kGe:_List_1_CheckIndex_m3609163576_gshared
bgc:__Z41Register_UnityEngine_Input_GetMouseButtonv
ITc:__ZN18UnityConnectClient33OnPlayerSessionStateChangedStaticEPS_jyy
qLi:__ZL74CaseInsensitiveHashCodeProvider_t2307530285_CustomAttributesCacheGeneratorP21CustomAttributesCache
pT:__ZNK11UnityEngine15CloudWebService23WebRequestUploadHandler11GetProgressEv
Ffa:__ZN7ApiGLES4LoadE16GfxDeviceLevelGL
vYa:__ZN18StreamedBinaryReadILb0EE21TransferSTLStyleArrayI13dynamic_arrayI31EnlightenSystemAtlasInformationLj8EEEEvRT_17TransferMetaFlags
Aia:__ZN4crnd12crn_unpacker22decode_color_endpointsEv
eqi:__ZN15dense_hashtableI10KeyWrapperIP18Il2CppGenericClassES3_N6il2cpp8metadata22Il2CppGenericClassHashEN14dense_hash_setIS3_S6_NS3_14EqualsComparerINS5_25Il2CppGenericClassCompareEEENSt3__29allocatorIS3_EEE8IdentityESA_SD_E15insert_noresizeERKS3_
B0e:_ReadOnlyCollection_1_System_Collections_IList_Clear_m3006875897_gshared
O3b:__ZZL31RegisterOtherRendererPropertiesR22GenericPropertyBindingEN30Wrapper_RendererReceiveShadows13GetFloatValueEPv
xFe:_Enumerator_System_Collections_IEnumerator_get_Current_m3866069145_gshared
CFb:__ZN8Material11SetPassFastEPN9ShaderLab4PassER17ShaderPassContextP6Shaderib
GTc:__ZN11UnityEngine7Connect20BasePersistentValues10SaveValuesER9JSONWrite
xlj:_AudioListener_AddExtension_m2954727157
Mbd:_ExecuteEvents_get_pointerDownHandler_m1172742772
I9b:__Z14ScaleCurveTimeR17AnimationCurveTplIfEf
s4:__ZN22VirtualJoystickManagerC2Ev
bMb:__Z12SetupLODFadeR9GfxDeviceR17ShaderPassContextf
JUa:__ZNK14PlayableOutput7GetTypeEv
d7f:__Z203RuntimeInvoker_Boolean_t3825574718_RuntimeObject_Int32U26_t455636984_Int32_t2071877448_Int32_t2071877448_RuntimeObject_SByte_t454417549_Int32_t2071877448_ContractionU26_t2019974048_ContextU26_t3131521781PFvvEPK10MethodInfoPvPS4_
Yrh:_X501_ToString_m3328169518
HRb:__ZL24CollectForwardObjectsJobP27CollectForwardObjectsHeader
_3g:_Enumerator_System_Collections_IDictionaryEnumerator_get_Entry_m345330700_gshared
eVb:__ZNK25CameraStackRenderingState24ResolveTempToEyeTexturesEv
ETb:__Z13IsNodeVisibleRK9SceneNodeRK4AABBRK22SceneCullingParameters
MPc:__Z57RectTransformUtility_CUSTOM_INTERNAL_CALL_PixelAdjustRectP12Il2CppObjectS0_R5RectTIfE
CUb:__Z24ScheduleCullingAllGroupsR8JobFenceRK22SceneCullingParametersiRK13CullingOutputRK13dynamic_arrayIP12CullingGroupLj4EERKS_
Qzf:_DelayedFixupRecord_FixupImpl_m4249966635
oCj:_emscripten_glStencilMask__wrapper
P$h:__ZN15dense_hashtableI10KeyWrapperIPK19Il2CppGenericMethodES4_N6il2cpp8metadata23Il2CppGenericMethodHashEN14dense_hash_setIS4_S7_NS4_14EqualsComparerINS6_26Il2CppGenericMethodCompareEEENSt3__29allocatorIS4_EEE8IdentityESB_SE_EC2ERKSH_j
Ube:_BigInteger_ToString_m3837784224
SPd:_Decimal_decimalCompare_m26009298
mvc:__ZN16NovodexAllocator8allocateEjPKcS1_i
gRb:__Z17PrepareShadowMapsRK11CullResultsRK11ActiveLightRK10MinMaxAABB
mJf:_NativeEventCalls_CreateEvent_internal_m1605829321
M5i:__ZL73RuntimePlatform_t1869584967_CustomAttributesCacheGenerator_MetroPlayerX64P21CustomAttributesCache
qYg:_InternalEnumerator_1_System_Collections_IEnumerator_get_Current_m3239681450_AdjustorThunk
ERb:__ZN9ShaderLab10GrabPassesD2Ev
n1a:__ZN14Texture2DArray13UploadTextureEv
$Cc:_tt_cmap14_done
k9a:__ZN18AwakeFromLoadQueue25RegisterObjectInstanceIDsEv
gxd:_Buffer_BlockCopy_m1586717258
ySi:__ZL93X509Certificate_t283079845_CustomAttributesCacheGenerator_X509Certificate_GetName_m2354987368P21CustomAttributesCache
lw:__ZNK27AnimationLayerMixerPlayable11DerivesFromE17ScriptingClassPtr
qxc:__ZN20TextRenderingPrivate19NativeTextGenerator15InsertCharacterEiPj
vUd:_CompareInfo_GetSortKey_m3691382873
OOd:_DBNull_ToString_m3228904745
Zlc:__ZN5IMGUI20MoveWindowFromLayoutER8GUIStateiRK5RectTIfE
oaf:_RC4_get_IV_m506011366
eth:_X509Crl__ctor_m2469408229
l4g:_Enumerator_get_CurrentValue_m3562053380_AdjustorThunk
psf:_X509SubjectKeyIdentifierExtension_CopyFrom_m136762226
FDe:_Enumerator_System_Collections_IEnumerator_Reset_m610822832_AdjustorThunk
kzc:__ZN20TextRenderingPrivate15DynamicFontData21GetFontMetricsForFaceERK13dynamic_arrayIN4core17string_with_labelILi35EEELj4EEiRKS1_I4PPtrIN13TextRendering4FontEELj4EEPfSF_
kyc:_UNITY_FT_Open_Face
gyj:_glGenRenderbuffers__wrapper
Pce:_BigInteger_op_Division_m1581119694
cBf:_CallbackHandler_Invoke_m1498072969
XXc:_DSACryptoServiceProvider__ctor_m701823690
ATf:_CustomAttributeData_GetCustomAttributes_m2421330738
lUh:_TextGenerator_GetVerticesInternal_m514005870
Uoi:__ZN30dense_hashtable_const_iteratorINSt3__24pairIK10KeyWrapperINS1_IPKcS4_EEEiEES6_24NamespaceAndNamePairHashN14dense_hash_mapIS6_iS9_NS6_14EqualsComparerI26NamespaceAndNamePairEqualsEENS0_9allocatorIS8_EEE9SelectKeyESD_SF_EppEv
QMf:_Type_get_IsEnum_m313908919
bec:__Z44Register_UnityEngine_Component_get_transformv
XUe:_Collection_1_System_Collections_ICollection_CopyTo_m1335644572_gshared
CB:__ZN12_GLOBAL__N_120ProcessPlayableGraphERN8Animator11AnimatorJobER35AnimationPlayableEvaluationConstantR32AnimationPlayableEvaluationInputR33AnimationPlayableEvaluationOutputPFvS4_R17AnimationPlayableEPFvS4_S6_S8_EPFvS8_S4_S6_S8_fESE_MS9_FvPS3_PS5_PS7_E
OLe:_List_1_CheckMatch_m2830747427_gshared
OHb:__ZN17ArchiveFileSystem12MountArchiveEPKcS1_
Mpc:__Z18Transfer_BlittableI9JSONWriteLb1E8Vector4fEvRK29SerializationCommandArgumentsR31RuntimeSerializationCommandInfo
un:FUNCTION_TABLE_viififiii
KFa:__Z30GetScriptableCullingParametersR6CameraR27ScriptableCullingParameters
nEg:_Enumerator_System_Collections_IEnumerator_Reset_m70453843_gshared
bZa:__ZThn32_NK8Renderer14GetSubsetIndexEi
N6d:_Dictionary_2_Do_CopyTo_TisKeyValuePair_2_t1174980068_TisRuntimeObject_m3279061992_gshared
z2b:__ZN13ProduceHelperI15ResourceManagerLb0EE7ProduceE18MemLabelIdentifier18ObjectCreationMode
Gca:__ZN9GfxDevice15ImmediateVertexEfff
f0b:__Z13RegisterClassI8MaterialEvv
KXa:__ZNK16LightmapSettings22GetTypeVirtualInternalEv
hEh:_WindowFunction_BeginInvoke_m87819360
CTd:_FieldAccessException__ctor_m3893881490
luc:__ZN8JSONRead21TransferSTLStyleArrayI13dynamic_arrayItLj2EEEEvRT_17TransferMetaFlags
baa:__ZN13GfxDeviceGLES15SetStencilStateEPK18DeviceStencilStatei
ghg:__Z107RuntimeInvoker_Void_t1841601450_Single_t2076509932_Single_t2076509932_Single_t2076509932_Single_t2076509932PFvvEPK10MethodInfoPvPS4_
Aoj:_cycle
Ed:_emscripten_glUniform1iv
PCg:_Text_get_preferredHeight_m452532789
ZWh:_AnimationOffsetPlayable_Equals_m1510591175
r6c:_String_System_IConvertible_ToDouble_m3860911722
Skb:__ZN16MemoryFileSystemD2Ev
I0g:_InternalEnumerator_1_get_Current_m3732458101_AdjustorThunk
I8e:_ARC4Managed__ctor_m2922048522
Bxc:__Z17dynamic_pptr_castIP9Texture2D7TextureET_RK4PPtrIT0_E
o1e:_ReadOnlyCollection_1_System_Collections_IList_set_Item_m1272038804_gshared
KTg:_InternalEnumerator_1_System_Collections_IEnumerator_get_Current_m1931522460_AdjustorThunk
Z2c:_SecurityPermission_IsEmpty_m1869313067
arf:_X509CertificateCollection__ctor_m3709509050
Mdc:__Z37Register_UnityEngine_Camera_get_depthv
age:_EncryptedPrivateKeyInfo_get_Salt_m2734354394
k3e:_ReadOnlyCollection_1_System_Collections_Generic_IListU3CTU3E_set_Item_m1918537449_gshared
kUe:_Collection_1_System_Collections_ICollection_CopyTo_m3896480607_gshared
scd:_PointerEventData_set_position_m794507622
Ylh:_UnityEvent_GetDelegate_m1261032859
XZb:__Z23ConvertIntegerToTypePtrItEbPvR14SafeBinaryRead
eC:__ZN7mecanim5human29HumanGetGoalOrientationOffsetENS0_4GoalE
Vd:_emscripten_glStencilFunc
R0f:_MonoMethod_MakeGenericMethod_impl_m2063853616
N4c:__Z46il2cpp_codegen_get_marshal_directive_exceptionPKc
Vgb:__ZN9ShaderLab20SerializedSubProgram14AddMatrixParamEPKcii15ShaderParamTypei
zOa:__ZN24GenerateTypeTreeTransfer8TransferI13dynamic_arrayI8Vector3fLj4EEEEvRT_PKc17TransferMetaFlags
$d:_glGetActiveUniformBlockName
Kf:_emscripten_glUniform1fv
Dme:_Guid_AppendByte_m2890893073
syd:_Char_System_IConvertible_ToType_m3106771703_AdjustorThunk
suf:_Interval_Intersects_m3480157390_AdjustorThunk
pgc:__Z39Quaternion_CUSTOM_INTERNAL_CALL_InverseRK11QuaternionfRS_
e6g:_GCHandle_Alloc_m1063472408
OI:__ZN4FMOD7Channel20set3DConeOrientationEP11FMOD_VECTOR
ln:FUNCTION_TABLE_iiifii
VDf:_CryptoConfig_CreateFromName_m391442950
WVh:_RectTransformUtility_INTERNAL_CALL_PixelAdjustRect_m3338747528
isi:__ZN6il2cpp2vm12GenericClass11SetupEventsEP11Il2CppClass
WIc:_tt_delta_interpolate
UCc:_tt_cmap12_get_info
Lni:__ZN6il2cpp2vm15ReboxIReferenceEP14Il2CppIUnknownP11Il2CppClass
Rwe:_StreamWriter_LowLevelWrite_m4205372900
pWh:__ZN6il2cpp6icalls8mscorlib6System7Decimal14decimalCompareEP19il2cpp_decimal_reprS5_
lyi:__ZThn4_N6il2cpp2vm13CachedCCWBaseINS0_13ManagedObjectEE7ReleaseEv
XCd:_CollectionBase_System_Collections_IList_get_Item_m2370387510
v5d:_Array_Sort_TisCustomAttributeNamedArgument_t94157543_m3436077809_gshared
szj:_glCopyTexImage2D__wrapper
Grd:_LayoutElement__ctor_m789941073
fmh:_UnityEventBase_DirtyPersistentCalls_m3176584979
UW:__GLOBAL__sub_I_runtime_graphics_billboard_0_cpp
JFb:__Z18ClearByDrawingQuad13GfxClearFlagsRK10ColorRGBAffjR17ShaderPassContext
R8g:_DynamicPropertyCollection_FindProperty_m1233265924
wla:__ZN6prcoreL17RemapGenericFloatI14TexFormatRHalf15TexFormatRFloatEEvPKNS_9InnerInfoE
SLb:__Z16ShouldUseShadowsb
d6:__ZN15DirectorManager21RebuildStageCallbacksEv
WFb:__ZN19RuntimeSceneManager9LoadSceneERKN4core12basic_stringIcNS0_20StringStorageDefaultIcEEEES6_S6_RK9UnityGUIDiNS_11LoadingModeE
Gma:__ZN7ApiGLES10DrawArraysE16GfxPrimitiveTypejjj
mG:__ZN10SampleClip13LoadBaseSoundEv
Iwh:_RectOffset_get_left_m1496351507
FP:__Z57AudioSource_CUSTOM_INTERNAL_CALL_ClearExtensionPropertiesP12Il2CppObjectRK12PropertyName
lri:__ZN15dense_hashtableINSt3__24pairIK10KeyWrapperIP12Il2CppObjectEN6il2cpp2gc9CachedCCWEEES5_NS7_5utils11PointerHashIS3_EEN14dense_hash_mapIS5_S9_SD_NS5_14EqualsComparerINS0_8equal_toIS4_EEEENS0_9allocatorISA_EEE9SelectKeyESI_SK_E15insert_noresizeERKSA_
fYe:_Collection_1_Contains_m643401393_gshared
eUa:__ZN22DeviceMVPMatricesStateC2ER9GfxDevice
j6c:_String__ctor_m372528291
Xm:FUNCTION_TABLE_iifii
H$a:__ZNSt3__26vectorI13dynamic_arrayI8Vector2fLj4EENS_9allocatorIS3_EEE6assignINS_11__wrap_iterIPS3_EEEENS_9enable_ifIXaasr21__is_forward_iteratorIT_EE5valuesr16is_constructibleIS3_NS_15iterator_traitsISC_E9referenceEEE5valueEvE4typeESC_SC_
SG:__GLOBAL__sub_I_runtime_video_0_cpp
GFf:_Encoding_SetFallbackInternal_m1682842442
_lh:_UnityEvent_FindMethod_Impl_m947332673
Iya:__ZNSt3__26__treeIiNS_4lessIiEE13stl_allocatorIiL18MemLabelIdentifier1ELi16EEE7destroyEPNS_11__tree_nodeIiPvEE
gc:invoke_viiifi
Pze:_LongComparer_Compare_m3981323622
EBg:_Slider_FindSelectableOnUp_m15474611
Jya:__ZNK11AssetBundle14GetPreloadDataEiR13dynamic_arrayIiLj4EE
ihe:_EncryptedData_get_EncryptedContent_m2732115576
JBh:_Vector3__ctor_m2761639014
jf:_JS_Sound_SetPosition
adh:_Assertion_set_FalseExpression_m1781616372
lsf:_X509SubjectKeyIdentifierExtension_FromHexChars_m2515150420
nQa:__ZN19RenderBufferManager13GetTempBufferEii17DepthBufferFormat19RenderTextureFormatj22RenderTextureReadWrite14VRTextureUsagei23RenderTextureMemoryless
D2h:__ZL13GetSharedInstPK17Il2CppGenericInst
cKi:__ZL51IReflect_t3412036974_CustomAttributesCacheGeneratorP21CustomAttributesCache
sed:_StandaloneInputModule_SendSubmitEventToSelectedObject_m3421155293
Zuh:_Quaternion_Equals_m798965363_AdjustorThunk
bTb:__Z17PrepareSceneNodesP11CullResults
XUh:_Canvas_get_sortingLayerID_m137448982
Dah:_CallContextRemotingData_Clone_m2226242476
n$:__Z63ThreadAndSerializationSafeCheckSetMonoBehaviourBeingTransferredP13MonoBehaviour
KRb:__Z24SetupActiveLightsContextR21ActiveLightingContextRK12ActiveLightsRK11CullResultsP14ShadowMapCacheRK10MinMaxAABB
Zhc:__Z38Sprite_CUSTOM_INTERNAL_get_textureRectP12Il2CppObjectP5RectTIfE
LOd:_DBNull_System_IConvertible_ToUInt32_m2681284284
ggi:__ZNK15dense_hashtableINSt3__24pairIK10KeyWrapperIPK22Il2CppGenericParameterEPK24MonoGenericParameterInfoEES6_N6il2cpp5utils11PointerHashIS4_EEN14dense_hash_mapIS6_SA_SF_NS6_14EqualsComparerINS0_8equal_toIS5_EEEENS0_9allocatorISB_EEE9SelectKeyESK_SM_E3endEv
tbc:__ZN9TextAsset7SetTextERKN4core12basic_stringIcNS0_20StringStorageDefaultIcEEEE
AIa:__ZN6Camera8TransferI24GenerateTypeTreeTransferEEvRT_
SQg:_EqualityComparer_1__cctor_m416314417_gshared
Ha:invoke_iiiiiiif
Ea:invoke_iiiiiiii
Eqf:_X509ChainElementCollection_Contains_m3599995067
bVb:__ZN8Renderer17PendingAddToSceneEv
nDj:b123
mDj:b122
pDj:b125
oDj:b124
smj:_BreakPoint_share_m806091185
rDj:b126
BDj:b129
jhc:__Z52Register_UnityEngine_RectTransform_INTERNAL_get_rectv
e_:__Z21PostprocessStacktracePKcRN4core12basic_stringIcNS1_20StringStorageDefaultIcEEEE
Y6a:__ZN18StreamedBinaryReadILb0EE21TransferSTLStyleArrayI13dynamic_arrayI16SplashScreenLogoLj4EEEEvRT_17TransferMetaFlags
rXd:_Array_InternalArray__ICollection_Remove_TisX509ChainStatus_t4278378721_m4127982424_gshared
Wdc:__Z47Register_UnityEngine_Camera_get_allCamerasCountv
VXc:___clang_call_terminate
ZQc:__ZN22BaseUnityConnectClient20StartEventDispatcherEv
$8b:__ZNSt3__26vectorIj13stl_allocatorIjL18MemLabelIdentifier1ELi16EEE6assignIPKtEENS_9enable_ifIXaasr21__is_forward_iteratorIT_EE5valuesr16is_constructibleIjNS_15iterator_traitsIS9_E9referenceEEE5valueEvE4typeES9_S9_
UA:__ZN7mecanim9animation16EvaluateAvatarIKEPKNS0_14AvatarConstantEPKNS0_11AvatarInputEPNS0_12AvatarOutputEPNS0_12AvatarMemoryEPNS0_15AvatarWorkspaceEb
ena:__ZL25ProgramUniformMatrix4x3fvPK7ApiGLESjiihPKv
$Ib:__ZN12InputManager13InputEndFrameEv
WEd:_SyncHashtable__ctor_m2029869827
sji:__ZN6il2cpp2vm6Thread5SetupEP12Il2CppThread
z4e:_ReadOnlyCollection_1_System_Collections_IList_Remove_m2200089035_gshared
fUe:_Collection_1_CheckWritable_m2756357359_gshared
Fpj:___munmap
$od:_InputField_get_characterLimit_m2386380888
oph:_Mesh_GetIndices_m197815493
eKd:_Convert_ToInt64_m1722087499
ag:_localtime_r
dg:_strftime
wpa:__ZN7Texture33SetStoredColorSpaceNoDirtyNoApplyE17TextureColorSpace
O2:__ZN12FileAccessorD2Ev
PMa:__ZN14VertexDataInfoC2Ev
xui:__ZN6il2cpp2gc16GarbageCollector14CollectALittleEv
$Wg:_InternalEnumerator_1_get_Current_m2415979394_gshared
xxb:__ZL17Transfer_GUIStyleI18StreamedBinaryReadILb1EELb1EEvRK29SerializationCommandArgumentsR31RuntimeSerializationCommandInfo
Eyg:_ScrollRect_SetDirtyCaching_m1491302821
w5h:__ZN6il2cpp6icalls8mscorlib6SystemL9IsPrivateEPK12PropertyInfo
Scg:__Z72RuntimeInvoker_DateTime_t693205669_DateTime_t693205669_Int32_t2071877448PFvvEPK10MethodInfoPvPS4_
CTf:_CustomAttributeData_GetCustomAttributes_m3258419955
voh:_Matrix4x4_GetColumn_m83396621
uZ:__ZN9shadertag10InitializeEv
dMb:__ZN13BatchRenderer20RenderSingleWithPassER17ShaderPassContextPK18SharedMaterialDataP6ShaderPN9ShaderLab4PassEiPKNS7_10GrabPassesEjib15BatchBreakCause
w_a:__ZN15QualitySettings14QualitySetting8TransferI24GenerateTypeTreeTransferEEvRT_
E1d:_Array_InternalArray__ICollection_CopyTo_TisParameterModifier_t1820634920_m4127516211_gshared
LEf:_DecoderReplacementFallback__ctor_m2344783488
fCe:_OutOfMemoryException__ctor_m239206850
Ryh:_Sprite_get_rect_m3985037234
uld:_GraphicRegistry_UnregisterGraphicForCanvas_m820096873
qKc:__Z28Font_Get_Custom_PropMaterialP12Il2CppObject
Ceg:__Z88RuntimeInvoker_RuntimeObject_RuntimeObject_RuntimeObject_RuntimeObject_Int32_t2071877448PFvvEPK10MethodInfoPvPS4_
uVe:_Collection_1_Remove_m4136193368_gshared
ebd:_EventTrigger_OnPointerUp_m2791622548
NAg:_Shadow_set_useGraphicAlpha_m141905402
g8b:__ZN22BlockMemoryCacheWriter14LockCacheBlockEjPPhS1_
jvi:__ZN6il2cpp2os6Thread10RunWrapperEPv
wtc:__Z22TransferField_NonArrayI8JSONRead27Converter_SimpleNativeClassI8GUIStyleEEvRK23StaticTransferFieldInfoR31RuntimeSerializationCommandInfoRT0_
Jg:_llvm_eh_typeid_for
W$b:__Z13RegisterClassI10GameObjectEvv
W0h:__ZNK15dense_hashtableINSt3__24pairIK10KeyWrapperIN6il2cpp5utils13dynamic_arrayIPK10Il2CppTypeLj4EEEEPFvvEEESA_NS3_8metadata19Il2CppSignatureHashEN14dense_hash_mapISA_SD_SG_NSA_14EqualsComparerINSF_22Il2CppSignatureCompareEEENS0_9allocatorISE_EEE9SelectKeyESK_SM_E5beginEv
GLi:__ZL53HashValues_t2390200547_CustomAttributesCacheGeneratorP21CustomAttributesCache
opf:_X509BasicConstraintsExtension_get_PathLengthConstraint_m3004531343
Fy:__ZNK23AnimationPlayableOutput7GetTypeEv
JFh:_GUIUtility_BeginGUI_m2381890998
Yye:_MissingMemberException__ctor_m4277447068
aHe:_List_1_Find_m1881447651_gshared
kac:__Z26scripting_class_has_parent17ScriptingClassPtrS_
Mzb:__Z18Transfer_BlittableI18StreamedBinaryReadILb0EELb1E8Vector4fEvRK29SerializationCommandArgumentsR31RuntimeSerializationCommandInfo
Hti:__ZN6il2cpp2vm6Method8GetParamEPK10MethodInfoj
Gqe:_Int64_CompareTo_m1953686218
QBj:_glBindVertexArray__wrapper
KXc:_DSA_Create_m3450041777
sSa:__ZN8Material8TransferI14SafeBinaryReadEEvRT_
rVa:__ZN12CubemapArray17UploadToGfxDeviceEv
ezg:_ScrollRect_AdjustBounds_m1033723448
TXb:__ZN18ScreenManagerWebGL13SetShowCursorEb
$3:__ZN13RuntimeStaticI21AssetReferenceStorageLb0EE16StaticInitializeEPv
aqf:_X509Chain_CheckRevocationOnChain_m2441901351
eyi:__ZN6il2cpp2vm13ManagedObject14QueryInterfaceERK10Il2CppGuidPPv
sNf:_Type_GetMethod_m3650909507
KG:__ZN11AudioSource4StopEb
goj:_frexp
rpb:__ZN14SafeBinaryRead21TransferSTLStyleArrayI13dynamic_arrayI10Matrix4x4fLj4EEEEvRT_17TransferMetaFlags
gZe:_Collection_1_CheckWritable_m732350052_gshared
pJa:__ZN15LODGroupManager26CollectAllLODGroupManagersERK16CoreCameraValuesR13dynamic_arrayIPS_Lj4EEb
txd:_Byte_System_IConvertible_ToDecimal_m1036493607
rFb:__Z25GetSplashScreenBackgroundRK5RectTIfE
gVg:_InternalEnumerator_1_System_Collections_IEnumerator_get_Current_m1679297177_gshared
s2g:_DefaultComparer_Compare_m1247109616_gshared
x4g:_ResourceManager__ctor_m498829021
ksa:__ZN18GlslGpuProgramGLESD2Ev
rXb:__ZN13RenderTexture14SetVolumeDepthEi
pog:__Z88RuntimeInvoker_Int32_t2071877448_UIVertex_t1204258818_UIVertex_t1204258818_RuntimeObjectPFvvEPK10MethodInfoPvPS4_
dBf:_SerializationCallbacks__ctor_m722356782
auc:__ZN10Matrix4x4f8TransferI8JSONReadEEvRT_
owc:__ZN14SafeBinaryRead21TransferSTLStyleArrayI13dynamic_arrayIN4core17string_with_labelILi35EEELj4EEEEvRT_17TransferMetaFlags
b$:__ZN17PersistentManager18ReadObjectThreadedEi
wea:__ZN25TransformFeedbackSkinning31CleanupTransformFeedbackShadersEv
eJa:__Z22scripting_object_unbox18ScriptingObjectPtr
sxc:__ZNK20TextRenderingPrivate8FontImpl19GetCharacterAdvanceEjijfPj
jEi:__ZN6il2cpp6icalls8mscorlib4Mono8Security12Cryptography18KeyPairPersistence16_IsUserProtectedEP12Il2CppString
Olf:_DefaultUriParser__ctor_m4218024811
$Uf:_DerivedType_GetField_m3960169619
lPd:_Decimal_System_IConvertible_ToInt16_m3159038792_AdjustorThunk
k0a:__ZN10VertexData8TransferI18StreamedBinaryReadILb0EEEEvRT_
Nhe:_PKCS12_GetExistingParameters_m2413397265
kSh:_Nullable_1_get_Value_m1743067844_gshared
W8a:__ZN14PreloadManager16UpdatePreloadingEv
gOa:__ZN14SafeBinaryRead21TransferSTLStyleArrayI19StaticArrayTransferIiLi4EEEEvRT_17TransferMetaFlags
Cvi:__ZN14dense_hash_mapI10KeyWrapperIPK19Il2CppGenericMethodEP10MethodInfoN6il2cpp8metadata23Il2CppGenericMethodHashENS4_14EqualsComparerINS8_26Il2CppGenericMethodCompareEEENSt3__29allocatorINSD_4pairIKS4_S6_EEEEEC2EjRKS9_RKSC_
vjh:_Color32_op_Implicit_m3337994915
fV:__ZNK21UnityDefaultAllocatorI17LowLevelAllocatorE8ContainsEPKv
Th:_emscripten_get_main_loop_timing
Zse:_DirectoryInfo__ctor_m3750996792
Jfd:_BaseMeshEffect_ModifyMesh_m2134816219
v_a:__ZN24GenerateTypeTreeTransfer21TransferSTLStyleArrayINSt3__26vectorIN15QualitySettings14QualitySettingENS1_9allocatorIS4_EEEEEEvRT_17TransferMetaFlags
a5a:__ZNSt3__26vectorI9InputAxisNS_9allocatorIS1_EEE6resizeEj
kMb:__ZN13BatchRendererC2ER15RenderLoopStatsRK15RenderNodeQueuebbb
e3c:_SecurityElement_IsValidAttributeValue_m483287146
jib:__ZNK2UI13RectTransform22GetTypeVirtualInternalEv
cp:getTempRet0
jod:_Image_AddQuad_m1603575622
jaf:_PrivateKeyInfo_RemoveLeadingZero_m3396807048
Rki:__ZN6il2cpp6icalls8mscorlib6System9ThreadingL21lookup_cached_cultureEP12Il2CppThreadi
DSb:__ZN18DeferredRenderLoopD2Ev
$ua:__ZNK16TypeTreeIterator4NameEv
Rkj:_PCMReaderCallback_Invoke_m877950113
m2:__ZN15FileSystemEntry3SetEPKc
EZc:_MACTripleDES__ctor_m884945242
Sxh:_RenderTexture_get_height_m428170183
WEh:_GUILayoutGroup_SetHorizontal_m4089360220
xI:__ZN20SoundChannelInstance15ParameterBuffer5ApplyEPN4FMOD7ChannelE
pxc:__ZN20TextRenderingPrivate19NativeTextGenerator9InsertTabEv
C2a:__ZN14SafeBinaryRead21TransferSTLStyleArrayI13dynamic_arrayI16BlendShapeVertexLj4EEEEvRT_17TransferMetaFlags
yRc:__ZN11UnityEngine15PlatformWrapper24GetRuntimePlatformStringEv
Ci:_glIsEnabled
hob:__Z25scripting_class_get_image17ScriptingClassPtr
Pth:_PlayableAsset_Internal_CreatePlayable_m2166162235
E8a:__ZNSt3__26vectorIN4core12basic_stringIcNS1_20StringStorageDefaultIcEEEE13stl_allocatorIS5_L18MemLabelIdentifier13ELi16EEEC2INS_11__wrap_iterIPS5_EEEET_SE_RKS8_PNS_9enable_ifIXaasr21__is_forward_iteratorISE_EE5valuesr16is_constructibleIS5_NS_15iterator_traitsISE_E9referenceEEE5valueEvE4typeE
Gi:_emscripten_glDrawElementsInstanced
vx:__ZN26AnimatorControllerPlayable27SetupStateMachineBehavioursEv
L8e:_ARC4Managed_Dispose_m4102232694
d9e:_HMAC_Initialize_m3052649104
Bof:_OidCollection_get_Item_m1091387424
eib:__ZN9Transform17MainThreadCleanupEv
JAi:_GC_clear_hdr_marks
Qwj:_glScissor__wrapper
MCj:_emscripten_glCreateShader__wrapper
gFc:_cff_fd_select_get
kPi:__ZL73CompilationRelaxationsAttribute_t238494011_CustomAttributesCacheGeneratorP21CustomAttributesCache
O9d:_MSCompatUnicodeTable_GetTailoringInfo_m2792223347
clf:_NameObjectCollectionBase_get_Keys_m446053925
Ri:_emscripten_glGetShaderiv
xJ:__ZN4FMOD6System10getVersionEPj
o$d:_Array_InternalArray__IndexOf_TisSByte_t454417549_m1427585061_gshared
$Kc:__ZN2UI6Canvas23VirtualRedirectTransferER24GenerateTypeTreeTransfer
$Gd:_Decimal_u64_m3991988111
NSh:_Predicate_1_BeginInvoke_m2959352225_gshared
nrh:_X509Certificate_Parse_m1764345628
Erc:__ZN9JSONWrite8TransferIN4math12int2_storageEEEvRT_PKc17TransferMetaFlags
awc:__ZN13TextRendering4Font13AwakeFromLoadE17AwakeFromLoadMode
doh:_Mathf_Pow_m1117712374
Xig:__Z70RuntimeInvoker_Void_t1841601450_Guid_t_RuntimeObject_Int32_t2071877448PFvvEPK10MethodInfoPvPS4_
KAh:_Transform_Rotate_m474267874
lba:__ZN9GfxDevice21ReleaseSharedMeshDataEP14SharedMeshData
R5a:__ZNSt3__27__sort5IRNS_6__lessINS_4pairIPKN5Unity4TypeE7Hash128EES8_EEPS8_EEjT0_SC_SC_SC_SC_T_
nWe:_Collection_1_ConvertItem_m3168406667_gshared
Qzi:_GC_unreachable_finalize_mark_proc
OCh:_WaitForSecondsRealtime_get_keepWaiting_m4138104467
Ulg:__Z70RuntimeInvoker_Single_t2076509932_Int32_t2071877448_Single_t2076509932PFvvEPK10MethodInfoPvPS4_
bhc:__Z43RectTransform_CUSTOM_INTERNAL_get_anchorMaxP12Il2CppObjectP13Vector2fIcall
P4f:__Z50RuntimeInvoker_Void_t1841601450_Single_t2076509932PFvvEPK10MethodInfoPvPS4_
kOd:_DateTimeOffset_get_DateTime_m229084964_AdjustorThunk
CXa:__ZN8Material28UpdateHashesOnPropertyChangeEN9ShaderLab16FastPropertyNameE
Rhc:__Z53Register_UnityEngine_SortingLayer_GetLayerValueFromIDv
tse:_DirectoryInfo_get_Parent_m1198766078
BCd:_CaseInsensitiveComparer_Compare_m1192858479
$mb:__Z18Transfer_BlittableI14SafeBinaryReadLb1E8Vector4fEvRK29SerializationCommandArgumentsR31RuntimeSerializationCommandInfo
Esd:_LayoutRebuilder_Clear_m2390054824
xda:__ZN13GfxDeviceGLES20SetComputeBufferDataE15ComputeBufferIDPKvjj
mTf:_Default_SelectMethod_m622251293
zL:__ZN11AudioSource12AddToManagerEv
vbd:_ExecuteEvents_Execute_m1429058057
az:__ZN11UnityEngine9Animation32CreateAnimatorGenericBindingsOptERKNS0_20AnimationSetBindingsER9TransformPKN7mecanim9animation14AvatarConstantEPKNS0_21AvatarBindingConstantEbRNS6_6memory9AllocatorER8Animator
roi:__ZN6il2cpp2vm5Image13ClassFromNameEPK11Il2CppImagePKcS6_
_sj:dynCall_vdddddd
Web:__ZN24GenerateTypeTreeTransfer21TransferSTLStyleArrayINSt3__26vectorIN9ShaderLab14SerializedPassENS1_9allocatorIS4_EEEEEEvRT_17TransferMetaFlags
UZ:__ZL32MarkLevelGameManagerDependenciesR27GarbageCollectorThreadState
Eda:__ZNK13GfxDeviceGLES26HasActiveRandomWriteTargetEv
Hxj:_glGetActiveUniformsiv__wrapper
Ohc:__Z43Register_UnityEngine_Material_EnableKeywordv
j0:__ZN13MonoBehaviour19SetupScriptingCacheE17ScriptingClassPtrP10MonoScript
hr:__Z20AnimationEventToMonoRK14AnimationEventR18MonoAnimationEvent
z$:__ZN17PersistentManager29ReadAndActivateObjectThreadedEiRK26SerializedObjectIdentifierP14SerializedFilebb
PFg:_ShimEnumerator_get_Current_m3610131784_gshared
P6i:__ZL74UnityEventBase_t828812576_CustomAttributesCacheGenerator_m_PersistentCallsP21CustomAttributesCache
G6:__ZZN15DirectorManager15InitializeClassEvEN52PreLateUpdateDirectorUpdateAnimationBeginRegistrator7ForwardEv
Pmi:__ZN6il2cpp2vm13LivenessState18ShouldProcessValueEP12Il2CppObjectP11Il2CppClass
utg:__Z49RuntimeInvoker_UIVertex_t1204258818_RuntimeObjectPFvvEPK10MethodInfoPvPS4_
uoh:_Matrix4x4_GetHashCode_m375571566
XFh:_InvokableCall_1__ctor_m1584932671_gshared
reb:__ZNSt3__26vectorIN9ShaderLab14SerializedPassENS_9allocatorIS2_EEE8__appendEj
Idb:__ZNSt3__26vectorIN9ShaderLab20SerializedSubProgram13BufferBindingENS_9allocatorIS3_EEEC2INS_11__wrap_iterIPS3_EEEET_SB_RKS5_PNS_9enable_ifIXaasr21__is_forward_iteratorISB_EE5valuesr16is_constructibleIS3_NS_15iterator_traitsISB_E9referenceEEE5valueEvE4typeE
S4b:__ZZL23RegisterLightPropertiesR22GenericPropertyBindingEN20Wrapper_LightColorb213GetFloatValueEPv
knj:_Shake_Start_m225329643
cmg:__Z133RuntimeInvoker_RuntimeObject_Vector2_t2243707579_Vector2_t2243707579_Single_t2076509932_Int32_t2071877448_RuntimeObject_RuntimeObjectPFvvEPK10MethodInfoPvPS4_
jXa:__ZN9Texture2D23VirtualRedirectTransferER18StreamedBinaryReadILb0EE
mXh:_Animator_get_hasBoundPlayables_m2257984562
ERd:_Double_System_IConvertible_ToUInt16_m286326038_AdjustorThunk
lzf:_TypeInfo__ctor_m1475908211
c8i:__ZL73g_UnityEngine_TextRenderingModule_Assembly_CustomAttributesCacheGeneratorP21CustomAttributesCache
S0:__ZN16ScriptingManager27NativeTypeForScriptingClassE17ScriptingClassPtr
bqf:_X509Chain_WrapUp_m1072032285
Ish:_X509CertificateEnumerator_System_Collections_IEnumerator_MoveNext_m1448966539
mCc:_get_sfnt_table
Kdf:_TlsServerHelloDone__ctor_m2125611008
c0b:__Z13RegisterClassI5LightEvv
ucd:_PointerEventData_set_pressPosition_m2094137883
rEf:_DES_get_Key_m2584608215
YTb:__ZL22ScheduleSceneNodesJobsP25ScheduleSceneNodesJobDataj
Fk:_emscripten_set_canvas_size
x7e:_BigInteger_op_Subtraction_m972393015
_db:__ZNSt3__26vectorIN9ShaderLab20SerializedSubProgramENS_9allocatorIS2_EEE8__appendEj
PV:__ZN20DynamicHeapAllocatorI17LowLevelAllocatorE8AllocateEji
LMb:__ZN20DynamicPropertySheet15SetVectorQueuedERKN9ShaderLab16FastPropertyNameERK8Vector4fN19ShaderPropertySheet8SetFlagsE
R7c:_String_Format_m1263743648
h2e:_ReadOnlyCollection_1_System_Collections_IEnumerable_GetEnumerator_m4248982967_gshared
cA:__ZN7mecanim9animation22EvaluateAvatarRetargetEPKNS0_14AvatarConstantEPKNS0_11AvatarInputEPNS0_12AvatarOutputEPNS0_12AvatarMemoryEPNS0_15AvatarWorkspaceEb
nPa:__ZN14RenderSettings23VirtualRedirectTransferER19StreamedBinaryWriteILb0EE
bqc:__ZL26Transfer_SimpleNativeClassI9JSONWrite10RectOffsetLb0EEvRK29SerializationCommandArgumentsR31RuntimeSerializationCommandInfo
o2a:__ZN14SafeBinaryRead21TransferSTLStyleArrayI13dynamic_arrayI12BoneWeights4Lj16EEEEvRT_17TransferMetaFlags
iAi:_GC_push_conditional
Fha:__ZN17GenericDynamicVBO10AllocateVBEjR21DynamicVBOChunkHandle
rIe:_List_1_get_Item_m1547593893_gshared
Kse:_Path_GetPathRoot_m1269357080
Spi:__ZN30dense_hashtable_const_iteratorI10KeyWrapperIP18Il2CppGenericClassES3_N6il2cpp8metadata22Il2CppGenericClassHashEN14dense_hash_setIS3_S6_NS3_14EqualsComparerINS5_25Il2CppGenericClassCompareEEENSt3__29allocatorIS3_EEE8IdentityESA_SD_EppEv
Jad:_EventSystem_SetSelectedGameObject_m2211816110
dl:_glMapBufferRange
bXa:__ZN9Texture2D8TransferI18StreamedBinaryReadILb0EEEEvRT_
Lfc:__Z31Input_CUSTOM_GetMouseButtonDowni
Wgc:__Z75Register_UnityEngine_Playables_PlayableHandle_INTERNAL_CALL_IsValidInternalv
b7b:__ZN13PlayableGraph4PlayEv
kEa:__ZNK9Transform16GetLocalPositionEv
dya:__ZN13LoadOperation19IntegrateTimeSlicedEi
tSg:_ArrayReadOnlyList_1_get_Item_m176001975_gshared
sie:_X501__cctor_m3795360380
Pda:__ZN13GfxDeviceGLES22DispatchComputeProgramE12ObjectHandleI18ComputeProgram_TagPvE15ComputeBufferIDj
ZJd:_Convert_ToInt32_m2297793940
tab:__Z17TransformAABBSlowRK4AABBRK10Matrix4x4fRS_
chi:__ZN13Il2CppHashMapINSt3__24pairIPK9FieldInfoP11Il2CppClassEEj17ReflectionMapHashIS7_ENS0_8equal_toIS7_EENS0_9allocatorINS1_IK10KeyWrapperIS7_EjEEEEEC2EjRKS9_RKSB_
Jcb:__ZN9ShaderLab21SerializedShaderState8TransferI14SafeBinaryReadEEvRT_
lqj:_ftruncate
h0c:_RSAPKCS1SignatureFormatter_SetKey_m2365816458
bGc:_cf2_stack_pushInt
xuh:_PropertyName__ctor_m4147171238_AdjustorThunk
bJf:_CompressedStack__ctor_m276924800
Ybd:_ExecuteEvents_get_cancelHandler_m1964324668
fTa:__ZN15SerializeTraitsINSt3__24pairIN4core12basic_stringIcNS2_20StringStorageDefaultIcEEEES6_EEE8TransferI24GenerateTypeTreeTransferEEvRS7_RT_
fAj:b89
eAj:b88
Xnh:_Mathf_Sin_m712860563
WBh:_Vector3_Dot_m827632793
Gzj:b81
Fzj:b80
Mpa:__ZN7ApiGLES19CreateSparseTextureEjj14GraphicsFormatiiiiRiS1_S1_
C1:__ZN18ResourceImageGroup7CleanupEv
Zzj:b85
Yzj:b84
$zj:b87
_zj:b86
gqg:__Z68RuntimeInvoker_Void_t1841601450_Int32_t2071877448_Double_t4078015681PFvvEPK10MethodInfoPvPS4_
y4b:__ZN13ProduceHelperI4MeshLb0EE7ProduceE18MemLabelIdentifier18ObjectCreationMode
haf:_PrivateKeyInfo_Decode_m1053025782
vhe:_PKCS12_Decrypt_m2457743414
xUa:__ZN8Playable19SetOutputConnectionEPS_i
a_h:__ZN15dense_hashtableINSt3__24pairIK10KeyWrapperIPK11Il2CppClassEPKcEES6_N6il2cpp5utils11PointerHashIS3_EEN14dense_hash_mapIS6_S9_SE_NS6_14EqualsComparerINS0_8equal_toIS5_EEEENS0_9allocatorISA_EEE9SelectKeyESJ_SL_EC2ERKSO_j
Sl:_glDeleteShader
uTd:_Exception_GetType_m3898489832
Ela:__ZN6prcoreL17RemapGenericFloatI15TexFormatRGHalf16TexFormatRGFloatEEvPKNS_9InnerInfoE
YRe:_Stack_1_Peek_m1548778538_gshared
UEh:_GUILayoutUtility_get_spaceStyle_m4248899869
KAg:_Shadow_set_effectColor_m3110056844
zbc:__Z27scripting_add_internal_callPKcPKv
U2d:_Array_InternalArray__Insert_TisUriScheme_t1876590943_m2728325409_gshared
Ogi:__ZN13Il2CppHashMapINSt3__24pairIPK9EventInfoP11Il2CppClassEEj17ReflectionMapHashIS7_ENS0_8equal_toIS7_EENS0_9allocatorINS1_IK10KeyWrapperIS7_EjEEEEEC2EjRKS9_RKSB_
Vsh:_X509Store_CheckStore_m1027496478
ys:__ZN26AnimatorControllerPlayable18SetLayerAutoWeightEv
rQc:__Z44Register_UnityEngine_Canvas_get_pixelPerfectv
A7c:_String_Contains_m4017059963
_1g:_DefaultComparer_Compare_m1606207039_gshared
ENc:__ZN2UI14CanvasRenderer12SyncMaterialENS0_8SyncFlagE
bEi:__ZN6il2cpp2vm9Parameter30GetDefaultParameterValueObjectEPK10MethodInfoPK13ParameterInfoPb
H3d:_Array_InternalArray__set_Item_TisLabelData_t3712112744_m2253365137_gshared
_gf:_RecordProtocol_InternalReceiveRecordCallback_m2228921492
Ywe:_StringReader__ctor_m643998729
Fmf:_IPv6Address_TryParse_m2220524278
cCc:_UNITY_tt_face_done_kern
I8g:_Context_get_DefaultContext_m2211922324
S2a:__ZN12BoneWeights48TransferI24GenerateTypeTreeTransferEEvRT_
yaf:_RSAManaged_GetPaddedValue_m2972141669
tzg:_ScrollRect_OnDrag_m1424848249
MEb:__Z19scripting_gc_enablev
gIb:__ZZ23InitPlayerLoopCallbacksvEN41InitializationPlayerUpdateTimeRegistrator7ForwardEv
Tdh:_AnchorInfo__ctor_m617409099
sPc:__Z55Register_UnityEngine_CanvasRenderer_DisableRectClippingv
wuf:_Interval_CompareTo_m2909556284_AdjustorThunk
p2a:__ZN14SafeBinaryRead21TransferSTLStyleArrayI13dynamic_arrayI11ColorRGBA32Lj4EEEEvRT_17TransferMetaFlags
ntf:_Interpreter_GetLastDefined_m2450713313
kdh:_Parser_ParseAssertionType_m3316669790
Egb:__ZN9ShaderLab7Program27CreateFromSerializedProgramERKNS_17SerializedProgramE10ShaderTypeiP16PropertyNamesSetPK6Shader
lAg:_Selectable_get_isPointerDown_m774209881
_hb:__ZNSt3__27__sort4IRNS_6__lessIN4core12basic_stringIcNS2_20StringStorageDefaultIcEEEES6_EEPS6_EEjT0_SA_SA_SA_T_
Etj:dynCall_viiiifii
qfi:__ZN6il2cpp2gc19AppendOnlyGCHashMapINSt3__24pairIPK11Il2CppImageP11Il2CppClassEEP22Il2CppReflectionModule17ReflectionMapHashIS9_ENS2_8equal_toIS9_EEEC2Ev
__:__Z20GetPersistentManagerv
gJc:_UNITY_TT_Set_Var_Design
FX:__ZN21SystemInfoStringCache16StaticInitializeEPv
Vbf:_TlsStream__ctor_m4117943603
dci:__ZN15dense_hashtableINSt3__24pairIK10KeyWrapperIPK10Il2CppTypeEjEES6_N6il2cpp8metadata14Il2CppTypeHashEN14dense_hash_mapIS6_jSB_NS6_14EqualsComparerINSA_26Il2CppTypeEqualityComparerEEENS0_9allocatorIS8_EEE9SelectKeyESF_SH_E12maybe_shrinkEv
aCg:_Text_FontTextureChanged_m4236993972
Hui:__ZN6il2cpp2gc16GarbageCollector23MakeDescriptorForObjectEPji
W1f:_ParameterModifier_t1820634920_marshal_pinvoke
_Bb:__ZNK13MonoBehaviour7GetNameEv
zbb:__ZN19ScriptingInvocation28AdjustArgumentsToMatchMethodEv
cqi:__ZN15dense_hashtableI10KeyWrapperIP18Il2CppGenericClassES3_N6il2cpp8metadata22Il2CppGenericClassHashEN14dense_hash_setIS3_S6_NS3_14EqualsComparerINS5_25Il2CppGenericClassCompareEEENSt3__29allocatorIS3_EEE8IdentityESA_SD_E6insertERKS3_
lG:__Z15_CheckFMODError11FMOD_RESULTPKciS1_
$La:__Z20RenderMultipleMeshesRK15RenderNodeQueueRK18RenderMultipleData17ShaderChannelMask
$9h:__ZN6il2cpp2vm4Type19GetGenericParameterEPK10Il2CppType
UOc:__Z51Register_UnityEngine_CanvasGroup_get_blocksRaycastsv
t0g:_InternalEnumerator_1_get_Current_m2826780083_gshared
fXd:_Array_InternalArray__ICollection_Remove_TisCustomAttributeNamedArgument_t94157543_m2838387005_gshared
sd:_glBeginQuery
gSf:_Assembly_GetCustomAttributes_m95309865
EJb:__ZN6Camera12RenderStereoENS_10RenderFlagE8CullFlagPNS_24PerformEyeRenderFunctionE
nkb:__ZN20LocalFileSystemPosix10ToAbsoluteEPKc
Bmd:_GridLayoutGroup__ctor_m1099847132
_W:__GLOBAL__sub_I_runtime_input_0_cpp
NSd:_Enum_ToObject_m275924358
zm:f0
HAd:_ArrayListWrapper_set_Capacity_m2792463350
bpj:_getcwd
fHf:_StringBuilder_Append_m1128243247
nxa:__ZN25ThreadsafeLinearAllocatorD2Ev
NLd:_DateTime_get_Year_m1985210972
O9a:__Z21SendMessageToEveryoneRK17MessageIdentifier11MessageData
J4:__ZN21BillboardBatchManager16StaticInitializeEPv
YY:__ZN12_GLOBAL__N_138ArchiveRedirectFileSystemStaticDestroyEPv
lTd:_EventHandler_Invoke_m1137722757
wfg:__Z70RuntimeInvoker_Boolean_t3825574718_Int32_t2071877448_Int16_t4041245914PFvvEPK10MethodInfoPvPS4_
oVa:__ZN12CubemapArray34UpdateFileTextureUploadInstructionEP26FileAssetUploadInstructionj
tAe:_MonoType_IsSubclassOf_m2211166238
IVe:_Collection_1_System_Collections_ICollection_CopyTo_m2859266050_gshared
Lpa:__Z23CreateSparseTextureGLES9TextureIDii14GraphicsFormati
TAi:_GC_continue_reclaim
Gre:_InvalidCastException__ctor_m2730571470
Irf:_X509ChainElementCollection_System_Collections_IEnumerable_GetEnumerator_m2559704689
Yof:_PublicKey_get_Key_m126090744
iyc:__ZNSt3__23mapIN20TextRenderingPrivate7FontRefEP11FT_FaceRec_NS_4lessIS2_EENS_9allocatorINS_4pairIKS2_S4_EEEEEixERS9_
Cza:__ZN17ArchiveFileSystem10AddStorageEP20ArchiveStorageReader
IKd:_Convert_ToSingle_m690748777
SPg:_EqualityComparer_1_System_Collections_IEqualityComparer_GetHashCode_m1203798961_gshared
oYh:__ZN6il2cpp2vm5Class15GetEnumBaseTypeEP11Il2CppClass
rWa:__ZNK9Texture2D16GetNpotTexelSizeEv
zug:_Mask_get_rectTransform_m3304369086
Yig:__Z78RuntimeInvoker_Void_t1841601450_ScriptableRenderContext_t4271526_RuntimeObjectPFvvEPK10MethodInfoPvPS4_
Kha:__ZN9GfxDevice22GetDefaultVertexBufferE26GfxDefaultVertexBufferTypej
E1e:_ReadOnlyCollection_1_System_Collections_ICollection_CopyTo_m1129689124_gshared
tpj:___fseeko_unlocked
Azj:_glGetActiveUniform__wrapper
lpj:_sscanf
E2a:__ZN14SafeBinaryRead21TransferSTLStyleArrayINSt3__26vectorI17BlendShapeChannelNS1_9allocatorIS3_EEEEEEvRT_17TransferMetaFlags
MFb:__Z17BeginSplashScreenv
Ifb:__ZN9ShaderLab16SerializedShader8TransferI19StreamedBinaryWriteILb0EEEEvRT_
NOf:_UInt32_Parse_m2400360707
xC:__ZN7mecanim9animation18CreateAvatarMemoryEPKNS0_14AvatarConstantERNS_6memory9AllocatorE
mGd:_Stack_Pop_m3788808882
o4g:_Enumerator_VerifyCurrent_m4246196125_AdjustorThunk
MNd:_DateTime_op_Equality_m1867073872
mB:__ZN7mecanim8skeleton16SkeletonPoseCopyIN4math4trsXENS2_7affineXEEEvPKNS0_13SkeletonPoseTIT_EEPNS5_IT0_EE
pha:__ZN18GfxFramebufferGLES18GetFramebufferNameERK20GfxRenderTargetSetup
smc:__Z30Event_Get_Custom_PropCharacterP12Il2CppObject
$5:__ZN13PlayableGraph27SchedulePlayableDestructionERK9HPlayable
Kwj:_glGetFramebufferAttachmentParameteriv__wrapper
wVc:__Z13RegisterClassI20UnityConnectSettingsEvv
eob:__Z22scripting_array_length17ScriptingArrayPtr
a3c:_SecurityElement_GetAttribute_m4288291176
YIh:_IndexedSet_1_get_Count_m2839545138_gshared
CVa:__ZN14SafeBinaryRead20TransferTypelessDataEjPvi
nPi:__ZL66StringFreezingAttribute_t2691375565_CustomAttributesCacheGeneratorP21CustomAttributesCache
QM:__ZN13dynamic_arrayI12SoundChannelLj4EE9push_backERKS0_
kpa:__Z19GetActiveColorSpacev
jQg:_EqualityComparer_1__cctor_m1672307556_gshared
Jxf:_SoapTypeAttribute_get_IsInteropXmlElement_m2941294827
vBc:_UNITY_tt_face_load_kern
bFe:_Enumerator_System_Collections_IEnumerator_get_Current_m3542273247_gshared
Yyd:_Char_System_IConvertible_ToUInt32_m1557991717_AdjustorThunk
kGf:_Encoding_get_UTF8Unmarked_m628720656
yoe:_NumberFormatter_RoundBits_m1545255255
qY:__Z6StrCmpPKcS0_
mhb:__Z21CheckGpuProgramUsable20ShaderGpuProgramType
XSf:_Binder__cctor_m3736115807
Qti:__ZN6il2cpp2os9Directory20GetFileSystemEntriesERKNSt3__212basic_stringIcNS2_11char_traitsIcEENS2_9allocatorIcEEEESA_iiPi
log:__Z84RuntimeInvoker_Int32_t2071877448_Color32_t874517518_Color32_t874517518_RuntimeObjectPFvvEPK10MethodInfoPvPS4_
vNg:_Dictionary_2_OnDeserialization_m2160537783_gshared
hxc:__ZN20TextRenderingPrivate19NativeTextGenerator5SetupEv
jRb:__ZNK15SharedLightData24GetFinalShadowResolutionEv
V6a:__ZN12AspectRatios8TransferI18StreamedBinaryReadILb0EEEEvRT_
C6b:__ZN10GameObject14CopyPropertiesERS_
gnc:__Z44Register_UnityEngine_GUIStyle_get_fixedWidthv
H$c:_RSACryptoServiceProvider_Common_m2581564813
vrh:_X509CertificateEnumerator_MoveNext_m4060814498
yxh:_Vector2_Scale_m2260641886
Yue:_MemoryStream_CheckIfClosedThrowDisposed_m2253054610
RSg:_ArrayReadOnlyList_1_GetEnumerator_m634288642_gshared
i$a:__ZNK13ScreenManager12IsFullScreenEv
Opj:_rand
lxj:_emscripten_glFramebufferRenderbuffer__wrapper
tig:__Z72RuntimeInvoker_Boolean_t3825574718_Ray_t2469606224_SingleU26_t4173844468PFvvEPK10MethodInfoPvPS4_
pui:__ZN6il2cpp5utils9PathUtils7CombineIcEENSt3__212basic_stringIT_NS3_11char_traitsIS5_EENS3_9allocatorIS5_EEEERKNS0_10StringViewIS5_EERKSA_
apb:__ZN14SafeBinaryRead21TransferSTLStyleArrayINSt3__26vectorI17AnimationCurveTplIfE13stl_allocatorIS4_L18MemLabelIdentifier1ELi16EEEEEEvRT_17TransferMetaFlags
zAf:_ObjectManager_RegisterObject_m872610295
HTb:__Z22PrepareOptimizedPlanesPK5PlaneiPKN4math7_float4E
Bwh:_RectOffset_t3387826427_marshal_pinvoke
pld:_Graphic_SetVerticesDirty_m1607014370
DU:__ZN11UnityEngine15CloudWebService17WebFileDownloaderINS0_20WebRequestRestClientENS0_23WebRequestRestHeaderMapEE10InitializeERKN4core12basic_stringIcNS5_20StringStorageDefaultIcEEEE
H4:__ZN17UniqueIDGenerator15CreatePureIndexEv
Rr:__ZN11UnityEngine9Animation28GenericAnimationBindingCache15DidReloadDomainEv
Fje:_AppDomain_InternalGetProcessGuid_m1278588156
Eqd:_InputField_MoveRight_m386206014
K7a:__ZNSt3__26vectorIN15ResourceManager10DependencyE13stl_allocatorIS2_L18MemLabelIdentifier52ELi16EEE6assignINS_11__wrap_iterIPS2_EEEENS_9enable_ifIXaasr21__is_forward_iteratorIT_EE5valuesr16is_constructibleIS2_NS_15iterator_traitsISC_E9referenceEEE5valueEvE4typeESC_SC_
O5f:__Z116RuntimeInvoker_Boolean_t3825574718_RuntimeObject_Int32_t2071877448_RuntimeObject_Int32_t2071877448_Int32_t2071877448PFvvEPK10MethodInfoPvPS4_
ase:_BinaryReader_ReadBoolean_m2892291883
EXh:__ZN15dense_hashtableINSt3__24pairIK10KeyWrapperIPK22Il2CppGenericParameterEP11Il2CppClassEES6_N6il2cpp5utils11PointerHashIS4_EEN14dense_hash_mapIS6_S9_SE_NS6_14EqualsComparerINS0_8equal_toIS5_EEEENS0_9allocatorISA_EEE9SelectKeyESJ_SL_E14squash_deletedEv
b5b:__ZZL23RegisterLightPropertiesR22GenericPropertyBindingEN18Wrapper_LightRange13SetFloatValueEPvf
Tff:_TlsServerCertificate_validateCertificates_m1988583701
_Fa:__ZNK9Transform18TransformDirectionERK8Vector3f
mCj:_emscripten_glClearStencil__wrapper
Q1h:__ZN15dense_hashtableINSt3__24pairIK10KeyWrapperIPK11Il2CppClassEPKcEES6_N6il2cpp5utils11PointerHashIS3_EEN14dense_hash_mapIS6_S9_SE_NS6_14EqualsComparerINS0_8equal_toIS5_EEEENS0_9allocatorISA_EEE9SelectKeyESJ_SL_E12resize_deltaEjj
yrj:__ZNK10__cxxabiv120__si_class_type_info27has_unambiguous_public_baseEPNS_19__dynamic_cast_infoEPvi
_uj:_glTexSubImage3D__wrapper
Ksf:_FactoryCache_Add_m2602974721
Jha:__Z30AddDefaultStreamsToMeshBuffersR9GfxDeviceR11MeshBuffersj17ShaderChannelMaskS3_
AY:__ZL16GetInterfaceImpl18UnityInterfaceGUID
hle:_RegionInfo_construct_internal_region_from_name_m3316088619
HYh:__ZN6il2cpp2vmL17SetupFieldOffsetsENS0_15FieldLayoutKindEP11Il2CppClassjRKNSt3__26vectorIjNS4_9allocatorIjEEEE
QGe:_List_1_System_Collections_IList_get_Item_m936612973_gshared
axi:__ZN6il2cpp6icalls8mscorlib6System15MonoCustomAttrs27GetCustomAttributesInternalEP12Il2CppObjectP20Il2CppReflectionTypeb
nJc:_UNITY_TT_Set_MM_Blend
ofa:__Z24PluginsSetGraphicsDevicePvi18GfxDeviceEventType
bX:__GLOBAL__sub_I_runtime_math_random_0_cpp
JAf:_ObjectReader_ReadAssembly_m869834280
Xyh:_Sprite_INTERNAL_get_textureRect_m127050026
XFb:__ZN14PreloadManager35WaitForAllAsyncOperationsToCompleteEv
UZe:_Collection_1_IsSynchronized_m971497175_gshared
Ibd:_ExecuteEvents_Execute_m1617536317
ZBg:_Text_get_cachedTextGeneratorForLayout_m1357670532
SH:__ZL31InitializeAudioScriptingClassesv
UKb:__Z14SortGUIByDepthP10GUIElementS0_
ape:_NumberFormatter_NumberToString_m126384393
Oyj:_emscripten_glVertexAttrib4fv__wrapper
mvf:_LogicalCallContext__ctor_m3173272863
WB:__ZN12_GLOBAL__N_120ProcessRootMotionMixER33AnimationPlayableEvaluationOutputR35AnimationPlayableEvaluationConstantR32AnimationPlayableEvaluationInputS1_f
eze:_MonoCustomAttrs__cctor_m2608447972
Ine:_Int32_FindSign_m3803672540
Pkb:__ZNK20LocalFileSystemPosix21GetAvailableDiskSpaceEPKcRy
JX:__ZNSt3__26__treeIiNS_4lessIiEENS_9allocatorIiEEE7destroyEPNS_11__tree_nodeIiPvEE
Lbf:_CipherSuite_InitializeCipher_m229247572
rpf:_X509Certificate2__ctor_m1095336775
yaa:__ZNK9GfxDevice14GetWorldMatrixEv
l1f:_MonoProperty_GetGetMethod_m1100580870
djb:__Z19scripting_array_new17ScriptingClassPtrjj
EM:__ZN11SoundHandle13CreateChannelEb
TXa:__ZN14SafeBinaryRead21TransferSTLStyleArrayI13dynamic_arrayI12LightmapDataLj4EEEEvRT_17TransferMetaFlags
Yje:_ArgumentException__ctor_m3312963299
feb:__ZNSt3__26vectorIN9ShaderLab20SerializedSubProgram16TextureParameterENS_9allocatorIS3_EEE6assignIPS3_EENS_9enable_ifIXaasr21__is_forward_iteratorIT_EE5valuesr16is_constructibleIS3_NS_15iterator_traitsISA_E9referenceEEE5valueEvE4typeESA_SA_
u0h:__ZN13Il2CppHashMapIN6il2cpp5utils13dynamic_arrayIPK10Il2CppTypeLj4EEEPFvvENS0_8metadata19Il2CppSignatureHashENS9_22Il2CppSignatureCompareENSt3__29allocatorINSC_4pairIK10KeyWrapperIS6_ES8_EEEEEC2EjRKSA_RKSB_
dSh:_U3CCreateWhereIteratorU3Ec__Iterator1D_1_MoveNext_m3533253043_gshared
Yfi:__ZN15dense_hashtableINSt3__24pairIK10KeyWrapperIPK22Il2CppGenericParameterEPK24MonoGenericParameterInfoEES6_N6il2cpp5utils11PointerHashIS4_EEN14dense_hash_mapIS6_SA_SF_NS6_14EqualsComparerINS0_8equal_toIS5_EEEENS0_9allocatorISB_EEE9SelectKeyESK_SM_E15set_deleted_keyERKSB_
a$b:__ZN6prcoreL11inner_clearILj2EEEvPhjjj
fq:__Z14resize_trimmedINSt3__26vectorIN4core12basic_stringIcNS2_20StringStorageDefaultIcEEEENS0_9allocatorIS6_EEEEEvRT_j
uDe:_Enumerator_System_Collections_IEnumerator_get_Current_m2853089017_AdjustorThunk
Hg:_emscripten_exit_fullscreen
Cod:_InputField_get_mesh_m3276583786
h6g:_GCHandle_Free_m1639542352_AdjustorThunk
_si:__ZN6il2cpp6icalls8mscorlib6System6String19InternalAllocateStrEi
Cuc:__Z29Transfer_Blittable_ArrayFieldI8JSONRead11QuaternionfEvRT_R9ArrayInfoRK23StaticTransferFieldInfo
Sdc:__Z45Register_UnityEngine_Camera_get_targetDisplayv
e4b:__ZNK24RendererAnimationBinding15GenerateBindingERKN4core12basic_stringIcNS0_20StringStorageDefaultIcEEEEbRN11UnityEngine9Animation14GenericBindingE
EKa:__Z15GetFlareManagerv
_y:__ZN8Animator13GetAvatarRootEv
P$e:_ReadOnlyCollection_1_System_Collections_Generic_ICollectionU3CTU3E_Clear_m388357963_gshared
Nnj:___toread
dEb:__ZNSt3__26vectorI10vector_mapIiiNS_4lessIiEE13stl_allocatorINS_4pairIiiEEL18MemLabelIdentifier38ELi16EEES4_IS9_LS7_38ELi16EEE26__swap_out_circular_bufferERNS_14__split_bufferIS9_RSA_EE
$rj:___cxa_is_pointer_type
S7c:_String_Concat_m56707527
YB:__ZN7mecanim9animation16EvaluateAvatarDXEPKNS0_14AvatarConstantEPKNS0_11AvatarInputEPNS0_12AvatarMemoryEPNS0_15AvatarWorkspaceEPNS0_12AvatarOutputE
Aoa:__ZN4gles20DestroyRenderSurfaceEP7ApiGLESP17RenderSurfaceGLES
tDe:_Enumerator_System_Collections_IEnumerator_get_Current_m2853089017_gshared
ejc:__Z34Transform_CUSTOM_SetAsFirstSiblingP12Il2CppObject
Pva:__ZN17PersistentManager40GlobalToLocalSerializedFileIndexInternalERK26SerializedObjectIdentifier
ER:__ZN11UnityEngine15CloudWebService17SessionEventQueue14ParseEventDataERKN4core12basic_stringIcNS2_20StringStorageDefaultIcEEEE
s9c:_BaseEventData_get_selectedObject_m3551206992
Mae:_SimpleCollator_CompareOrdinal_m2176988387
XTd:_CCGregorianCalendar_GetYear_m1289900195
_oe:_Int16_ToString_m2592645088
Hfa:__ZN13TranslateGLES4InitERK12GraphicsCaps16GfxDeviceLevelGL
cCf:_SerializationInfoEnumerator_Reset_m2206466680
jxj:_emscripten_glGetShaderPrecisionFormat__wrapper
UMh:_GenericEqualityComparer_1_Equals_m1934771410_gshared
cEi:__ZN6il2cpp5utils9Exception26FormatInvalidCastExceptionEPK11Il2CppClassS4_
m2b:__ZN13ProduceHelperI10TagManagerLb0EE7ProduceE18MemLabelIdentifier18ObjectCreationMode
HEi:__ZN6il2cpp2os6Memory12AlignedAllocEjj
yyi:__ZN6il2cpp8metadataL7CompareEPK10Il2CppTypeS3_
wUf:_TypeBuilder_get_is_created_m736553860
qaf:_RSAManaged__ctor_m1370411656
xzb:__Z18Transfer_BlittableI18StreamedBinaryReadILb0EELb1E10ColorRGBAfEvRK29SerializationCommandArgumentsR31RuntimeSerializationCommandInfo
Auh:_PropertyName_op_Equality_m112228798
Fbc:__ZL27GetComponentsImplementationILb0ELi0EEbR10GameObjectbRK17CompareParametersRK39GetComponentsImplementation_ReturnValue
LCb:__ZN9Scripting36IsSystemCollectionsGenericDictionaryE17ScriptingClassPtr
Twg:_Raycast3DCallback_EndInvoke_m3234280377
did:_ColorTweenCallback__ctor_m3619686788
g2:__ZL16ReadTypeTreeImplILb0EEbR8TypeTreeRK16TypeTreeIteratorRPKhS6_i
Yx:__ZN27AnimationLayerMixerPlayable16SetLayerMaskCopyEjRKN7mecanim6bitsetILj70EEEPKNS0_8skeleton12SkeletonMaskE
EPa:__ZNK22BuiltinResourceManager21GetResourceInstanceIDEPKN5Unity4TypeERKN4core12basic_stringIcNS4_20StringStorageDefaultIcEEEE
Efc:__Z42Register_UnityEngine_RectOffset_set_bottomv
RAd:_ArrayListWrapper_IndexOf_m3574835167
ZMb:__ZN28LightProbeProxyVolumeContext8CopyFromERKS_
CEa:__ZN23TransformChangeDispatch32QueueTransformChangeIfHasChangedER18TransformHierarchy
Boa:__ZN7ApiGLES18DeleteRenderbufferERj
fna:__ZL23ProgramUniformMatrix4fvPK7ApiGLESjiihPKv
Noa:__ZN7ApiGLES13CreateTextureEjj14GraphicsFormatiiiii
H4b:__ZN13ProduceHelperI11LightProbesLb0EE7ProduceE18MemLabelIdentifier18ObjectCreationMode
Pdb:__ZN9ShaderLab20SerializedSubProgram15MatrixParameter8TransferI14SafeBinaryReadEEvRT_
Hbc:__ZL27GetComponentsImplementationILb0ELi1EEbR10GameObjectbRK17CompareParametersRK39GetComponentsImplementation_ReturnValue
uIc:_Round_Down_To_Grid
VIf:_UTF8Decoder__ctor_m1460357288
Nea:__ZN13RenderTexture7ReleaseEv
$rc:__Z18Transfer_BlittableI8JSONReadLb1EN4math12int3_storageEEvRK29SerializationCommandArgumentsR31RuntimeSerializationCommandInfo
N3a:__ZN10MeshFilter23VirtualRedirectTransferER14SafeBinaryRead
fHd:_Convert_ToByte_m1201588964
X3a:__ZN12MeshRenderer17MainThreadCleanupEv
Yra:__ZN22CreateGpuProgramOutput12CreateParamsEv
aJ:__ZN10ObjectPoolIN4FMOD7ChannelENS0_8ChannelIEE7GetFreeEi
mNi:__ZL55EventBuilder_t2927243889_CustomAttributesCacheGeneratorP21CustomAttributesCache
xfa:__ZNK14GfxContextGLES13GetDefaultFBOEv
qXd:_Array_InternalArray__ICollection_Remove_TisSByte_t454417549_m2474211570_gshared
axh:_RectTransform_set_anchorMax_m1168582032
u8b:__Z13GetImagePixelI10ColorRGBAfET_PKhii13TextureFormat15TextureWrapModeS5_ii
g7h:_il2cpp_class_is_enum
yji:__ZN6il2cpp2vm6Thread49CheckCurrentThreadForInterruptAndThrowIfNecessaryEv
KHa:__ZNSt3__23mapIN9ShaderLab16FastPropertyNameEN18UnityPropertySheet11UnityTexEnvENS_4lessIS2_EENS_9allocatorINS_4pairIKS2_S4_EEEEEixERS9_
Rna:__ZNK13TranslateGLES25GetTextureTargetDimensionEj
l3d:_Array_InternalArray__set_Item_TisByte_t3683104436_m1694926640_gshared
dch:_PatternCompiler_EmitInfo_m597931026
H7e:_ModulusRing_Multiply_m3113924743
uic:__Z47Texture2D_CUSTOM_INTERNAL_CALL_GetPixelBilinearP12Il2CppObjectffR10ColorRGBAf
$Z:__ZN9Scripting12LogExceptionE21ScriptingExceptionPtriPKcb
Hi:_emscripten_glVertexAttrib4f
t$e:_ReadOnlyCollection_1_System_Collections_IEnumerable_GetEnumerator_m531171980_gshared
j3a:__ZN10Matrix4x4f8TransferI19StreamedBinaryWriteILb0EEEEvRT_
Gwh:_RectOffset__ctor_m976836251
N5d:_Array_Sort_TisUILineInfo_t3621277874_m3105833015_gshared
OAe:_MonoType_GetGenericArguments_m2708198481
WGe:_List_1_AddEnumerable_m2489692396_gshared
Zw:__ZN7mecanim12statemachine24CreateStateMachineMemoryEPKNS0_20StateMachineConstantERNS_6memory9AllocatorE
MHg:_Enumerator_get_Current_m419581838_AdjustorThunk
$ca:__ZN9GfxDevice18SetGlobalDepthBiasEff
v4h:__ZN6il2cpp6icalls8mscorlib6System8MonoType12get_AssemblyEP20Il2CppReflectionType
jvh:_Vector3_get_normalized_m1057036856
Vi:_emscripten_glGetPointerv
MB:__ZN8Animator22ApplyBuiltinRootMotionEv
DFb:__Z26ApplyMaterialPassWithCacheRK18SharedMaterialDataR17ShaderPassContextP6ShaderPN9ShaderLab4PassEibPKNS6_10GrabPassesEPNS6_11SubProgramsEPK22DeviceRenderStateBlock
UWd:_Array_InternalArray__ICollection_Remove_TisKeyValuePair_2_t3716250094_m2566517826_gshared
wni:__ZN30dense_hashtable_const_iteratorINSt3__24pairIK10KeyWrapperIP14Il2CppIUnknownEjEES5_N6il2cpp5utils11PointerHashIS3_EEN14dense_hash_mapIS5_jSB_NS5_14EqualsComparerINS0_8equal_toIS4_EEEENS0_9allocatorIS7_EEE9SelectKeyESG_SI_EppEv
XZa:__ZN8Renderer23VirtualRedirectTransferER14SafeBinaryRead
AVf:_DerivedType_get_UnderlyingSystemType_m3904230233
AMa:__Z27ConvertSubMeshesToTrianglesR13dynamic_arrayI7SubMeshLj4EERS_ItLj2EE
CYh:__ZN6il2cpp2vmL15GetBitmapNoInitEP11Il2CppClassPjRjj
Rqf:_X509Certificate2Collection__ctor_m819526826
yH:__ZN12AudioManager5ResetEv
Ytg:__Z75RuntimeInvoker_RuntimeObject_Single_t2076509932_RuntimeObject_RuntimeObjectPFvvEPK10MethodInfoPvPS4_
U8e:_KeyBuilder_Key_m3814433741
Zje:_ArgumentException__ctor_m158205422
g_d:_Array_compare_TisVector3_t2243707580_m3709184876_gshared
fnd:_HorizontalLayoutGroup_SetLayoutHorizontal_m3237355818
wB:__ZN7mecanim5human14RetargetToTDoFEPKNS0_5HumanEPNS0_9HumanPoseEPNS_8skeleton13SkeletonPoseTIN4math4trsXEEESB_
mui:__ZN6il2cpp6icalls8mscorlib6System11Environment20GetWindowsFolderPathEi
Nv:__ZN7mecanim5human18HumanPoseBlendNodeERNS0_9HumanPoseEPS1_f
yzc:_UNITY_FT_RoundFix
Wgb:__ZN9ShaderLab20SerializedSubProgram15AddTextureParamEPKcii16TextureDimension
cgh:_Uri_get_Parser_m2250631932
Z3a:__ZNK12MeshRenderer22GetTypeVirtualInternalEv
ild:_Graphic_set_color_m646149893
tSa:__ZN14SafeBinaryRead19TransferSTLStyleMapINSt3__23mapIN4core12basic_stringIcNS3_20StringStorageDefaultIcEEEES7_NS1_4lessIS7_EE13stl_allocatorINS1_4pairIKS7_S7_EEL18MemLabelIdentifier1ELi16EEEEEEvRT_17TransferMetaFlags
gNc:__ZN2UI6Canvas27UpdateEventIndexesRecursiveERi
KR:__ZN11UnityEngine15CloudWebService16SessionContainer21PrepareDataErrorEventERN4core12basic_stringIcNS2_20StringStorageDefaultIcEEEE
_zc:_UNITY_FT_Outline_New
Evb:__Z19TransferField_ArrayI19StreamedBinaryWriteILb0EE27Converter_SimpleNativeClassI8GUIStyleEEvRK23StaticTransferFieldInfoR31RuntimeSerializationCommandInfoRT0_
dyg:_Scrollbar_SetDirection_m3264558284
wzj:_emscripten_glCopyTexSubImage2D__wrapper
mBi:_maybe_finalize
Zth:_PlayableHandle_IsValidInternal_m3315870994
azf:_RemotingServices_RegisterInternalChannels_m1827304423
Prc:__Z35Transfer_Blittable_FixedBufferFieldI8JSONReadiEvRK29SerializationCommandArgumentsR31RuntimeSerializationCommandInfo
y3h:__ZNSt3__213__vector_baseIN6il2cpp2os19SocketHandleWrapperENS_9allocatorIS3_EEED2Ev
ffg:__Z77RuntimeInvoker_RuntimeObject_Int32_t2071877448_RuntimeObject_SByte_t454417549PFvvEPK10MethodInfoPvPS4_
cc:invoke_viiffi
Kv:__ZN7mecanim18ValueArrayBlendEndILb0EEEvPKNS_10ValueArrayERKNS_14ValueArrayMaskERKNS_16ValueArrayWeightERS1_
gYb:__ZN13sorted_vectorINSt3__24pairIN4core12basic_stringIcNS2_20StringStorageDefaultIcEEEEPK17MessageIdentifierEEN10vector_mapIS6_S9_NS0_4lessIS6_EENS0_9allocatorISA_EEE13value_compareESF_E10insert_oneERKSA_
fKf:_Thread_GetCachedCurrentUICulture_m5590127
xEh:_GUILayoutEntry_get_margin_m3913640621
Heb:__Z14resize_trimmedINSt3__26vectorIN9ShaderLab18SerializedPropertyENS0_9allocatorIS3_EEEEEvRT_j
CPe:_List_1_CheckMatch_m4018158235_gshared
nbe:_Context_t2636657155_marshal_pinvoke_back
y1h:__ZN6il2cpp2vm13MetadataCache38GetMethodInfoFromMethodDefinitionIndexEi
rxd:_Byte_System_IConvertible_ToDateTime_m1583041031
UOh:__ZL24UnresolvedVirtualCall_68P12Il2CppObjectS0_iS0_S0_S0_S0_S0_S0_PK10MethodInfo
b0a:__ZN10VertexData8TransferI24GenerateTypeTreeTransferEEvRT_
Avi:__ZN13Il2CppHashMapIPK19Il2CppGenericMethodP10MethodInfoN6il2cpp8metadata23Il2CppGenericMethodHashENS6_26Il2CppGenericMethodCompareENSt3__29allocatorINS9_4pairIK10KeyWrapperIS2_ES4_EEEEEC2EjRKS7_RKS8_
cTb:__ZL10CullLightsRK22SceneCullingParametersR11CullResults
okd:_Dropdown__cctor_m264401557
sud:_Array_IndexOf_m2819632474
uvh:_Ray_GetPoint_m2427899009_AdjustorThunk
y3g:_Comparer_1__cctor_m3996541505_gshared
Uw:__ZN7mecanim12statemachine20GetBlendTreeConstantERKNS0_13StateConstantEi
W_b:__Z40GetTemporaryCachePathApplicationSpecificv
gba:__ZN9GfxDevice16EndAsyncJobFrameEv
oBc:_UNITY_tt_face_load_hhea
FGd:_Convert_ToBase64String_m1936815455
Pk:___syscall3
Sk:___syscall6
Uk:___syscall4
bQd:_Decimal_ToString_m759431975
Klb:__ZNSt3__26__treeINS_12__value_typeIN4core12basic_stringIcNS2_20StringStorageDefaultIcEEEEPN16MemoryFileSystem4NodeEEENS_19__map_value_compareIS6_SA_NS_4lessIS6_EELb1EEE13stl_allocatorISA_L18MemLabelIdentifier55ELi16EEE7destroyEPNS_11__tree_nodeISA_PvEE
Vfd:_ColorBlock_get_fadeDuration_m987725262
MDf:_CryptographicException__ctor_m2415891459
tba:__ZN9GfxDevice27UpdateComputeSkinPoseBufferE15ComputeBufferIDP12SkinMeshInfo
il:_emscripten_glShaderBinary
Hkb:__ZNK20LocalFileSystemPosix6ExistsERK13FileEntryData
MDh:_GUI_CallWindowDelegate_m2603162942
Vkf:_DictionaryNodeEnumerator_get_DictionaryNode_m3521889822
Ut:__ZN7mecanim5human19MaskHasLeftFootGoalERKNS_6bitsetILj70EEE
xog:__Z101RuntimeInvoker_Int32_t2071877448_RuntimeObject_Color32_t874517518_Int32_t2071877448_Int32_t2071877448PFvvEPK10MethodInfoPvPS4_
CQc:__Z58Register_UnityEngine_Canvas_GetETC1SupportedCanvasMaterialv
byb:__ZN17AnimationCurveTplIfE8TransferI18StreamedBinaryReadILb1EEEEvRT_
dOd:_DateTimeOffset_GetHashCode_m3312197462_AdjustorThunk
TSc:__ZN18UnityConnectClientD2Ev
y6h:_il2cpp_set_data_dir
Zfh:_Uri_get_IsUnc_m2111738174
Img:__Z66RuntimeInvoker_Void_t1841601450_ObjectU26_t597476745_RuntimeObjectPFvvEPK10MethodInfoPvPS4_
ZZf:_TypeBuilder_IsValueTypeImpl_m1499671481
XRc:__ZN11UnityEngine15PlatformWrapper30GetGraphicsDriverLibraryStringEv
AFg:_Enumerator_VerifyState_m262343092_AdjustorThunk
aaf:_EncryptedPrivateKeyInfo_Decode_m1706190306
yzb:__Z18Transfer_BlittableI18StreamedBinaryReadILb0EELb0E4AABBEvRK29SerializationCommandArgumentsR31RuntimeSerializationCommandInfo
Ilj:_AudioListener_ClearExtensionProperties_m2267088681
ED:__ZN16MecanimAnimation24DeleteAnimatedPropertiesERP26IAnimatedPropertyEvaluator
ZKd:_Convert_ToUInt16_m1665900934
ele:_RegionInfo__ctor_m2058831971
lJb:__Z14DrawGUITextureRK5RectTIfEP7Texture11ColorRGBA32P8Materiali
eCg:_Text_get_supportRichText_m3291105891
zA:__ZN9BlobWrite8TransferI22OffsetPtrArrayTransferIKN4math7_float4EEEEvRT_PKc17TransferMetaFlags
DFh:_GUIUtility_set_systemCopyBuffer_m3458871692
kRa:__ZN15TextureSettings8TransferI24GenerateTypeTreeTransferEEvRT_
nbh:_MatchCollection_GetEnumerator_m3516985966
yrc:__ZN9JSONWrite8TransferI4AABBEEvRT_PKc17TransferMetaFlags
iGf:_UTF7Encoding__ctor_m2365939916
kBa:__ZN25MultiBlocksMemoryFileData9SetLengthEy
iXh:_Animator_SetTrigger_m2003713590
dkh:_DelegatePInvokeWrapper_StateChanged_t2480912210
Qug:_MatEntry__ctor_m3650167335
hWa:__ZNK9Texture2D20GetRuntimeMemorySizeEv
YNf:_TypeInitializationException__ctor_m2993591639
Inc:__ZN5Unity9rapidjson13GenericReaderINS0_4UTF8IcEES3_13JSONAllocatorE9ParseTrueILj0ENS0_19GenericStringStreamIS3_EENS0_15GenericDocumentIS3_S4_S4_EEEEvRT0_RT1_
qm:_emscripten_glUniform2iv
ene:_Int16_System_IConvertible_ToInt64_m733340257
Vxc:_UNITY_FT_Outline_Transform
oic:__Z60Register_UnityEngine_Sprites_DataUtility_Internal_GetMinSizev
VYh:__ZN6il2cpp2vm5Class10GetMethodsEP11Il2CppClassPPv
TOb:__Z30AddDefaultStreamsToMeshBuffersR9GfxDeviceR11MeshBuffersRK16DrawBuffersRange17ShaderChannelMaskS6_
eoa:__ZN7ApiGLES17DeleteFramebufferERN2gl6HandleILNS0_10ObjectTypeE9EEES3_
$qa:__ZN15UniformTFMethod13MapBoneBufferEj
ndf:_RecordProtocol_SendAlert_m2816808523
ZLc:__ZN2UI14CanvasRendererD2Ev
Pvf:_MethodCall_get_LogicalCallContext_m3769562079
$ji:__ZN6il2cpp6icalls8mscorlib6System5Array8SetValueEP11Il2CppArrayP12Il2CppObjectS5_
jxe:_SynchronizedReader_Read_m1399666181
Q$f:_MonoEvent_get_Name_m2796714646
xEb:__Z9SetupArgviPPKc
WWh:_AnimationOffsetPlayable__ctor_m1644499845
Scd:_PointerEventData_set_worldNormal_m2025727441
JAh:_Transform_INTERNAL_get_worldToLocalMatrix_m2822011810
uef:_Context_get_SentConnectionEnd_m3114190867
hVa:__ZN12CubemapArray23VirtualRedirectTransferER24GenerateTypeTreeTransfer
M2:__ZN12FileAccessor4OpenER15FileSystemEntry14FilePermission16FileAutoBehavior
Pti:__ZN6il2cpp2os9Directory6CreateERKNSt3__212basic_stringIcNS2_11char_traitsIcEENS2_9allocatorIcEEEEPi
mZa:__ZN23TransformChangeDispatch32QueueTransformChangeIfHasChangedERK15TransformAccess
vcd:_PointerEventData_set_clickTime_m3931922487
R1:__ZN15dense_hashtableINSt3__24pairIKiP4RTTIEEiN11TypeManager27HashFunctorPersistentTypeIDEN14dense_hash_mapIiS4_S7_NS0_8equal_toIiEE13stl_allocatorIS5_L18MemLabelIdentifier7ELi16EEE9SelectKeyESA_SD_E12maybe_shrinkEv
qoe:_NumberFormatter_AppendNonNegativeNumber_m629862866
OTa:__ZNSt3__26vectorINS_4pairIN9ShaderLab16FastPropertyNameEN18UnityPropertySheet11UnityTexEnvEEENS_9allocatorIS6_EEE21__push_back_slow_pathIKS6_EEvRT_
b5g:_ResourceInfo__ctor_m2401359321_AdjustorThunk
iui:__ZN6il2cpp2os26LibraryNamePrefixAndSuffixC2EPKcS3_
K3d:_Array_InternalArray__set_Item_TisMonoResource_t3127387157_m732733855_gshared
gIh:_UnityEvent_1_Invoke_m1599856953_gshared
NDd:_Hashtable__ctor_m392789568
fIf:_UTF7Encoding__cctor_m4192443836
B:tempValue
Okh:_Display_get_systemHeight_m3140485477
ine:_Int16_System_IConvertible_ToSingle_m3277935657
D_:__Z29scripting_class_from_fullnamePKcS0_S0_
_Bh:_Vector3_get_sqrMagnitude_m1445517847_AdjustorThunk
Rwg:_Raycast3DCallback_Invoke_m2271859924
tx:__ZN26AnimatorControllerPlayable18DeallocateBindingsEv
VM:__ZN11AudioSource19CreateOpenALRolloffEfff
bCc:_UNITY_FT_Stream_ReadAt
cEg:_Enumerator_get_CurrentKey_m2387752419_AdjustorThunk
J0h:__ZN15dense_hashtableINSt3__24pairIK10KeyWrapperIN6il2cpp5utils13dynamic_arrayIPK10Il2CppTypeLj4EEEEPFvvEEESA_NS3_8metadata19Il2CppSignatureHashEN14dense_hash_mapISA_SD_SG_NSA_14EqualsComparerINSF_22Il2CppSignatureCompareEEENS0_9allocatorISE_EEE9SelectKeyESK_SM_E9set_valueEPSE_RKSE_
Llh:_UnityEventBase_FindMethod_m2780816114
aOf:_UInt16_System_IConvertible_ToBoolean_m887616848
HN:__ZN11AudioModule22CreateAudioClipFromWWWEP10IWWWStreamPKcbbi
WGf:_StringBuilder_set_Length_m3039225444
SXe:_Collection_1_System_Collections_IList_Contains_m3870109702_gshared
wWd:_Array_InternalArray__ICollection_Contains_TisRaycastResult_t21186376_m3188614988_gshared
ILd:_CultureAwareComparer_GetHashCode_m3681260951
gOc:__Z13RegisterClassIN2UI11CanvasGroupEEvv
c$b:__ZN6prcoreL11inner_clearILj4EEEvPhjjj
_wg:_Selectable__ctor_m1440593935
cQh:__ZL25UnresolvedVirtualCall_132P12Il2CppObject17Color_t2020392075faaaPK10MethodInfo
_5:__ZNK8Playable6HandleEv
O0:__ZN14MessageHandler28MessageIDToMessageIdentifierEi
jmf:_HttpRequestCreator_Create_m3607509610
x0a:__ZNK11SpriteAtlas20GetRuntimeRenderDataEPK6Sprite
ECi:__ZN6il2cpp2vm10WaitHandle19NewManualResetEventEb
I1e:_ReadOnlyCollection_1_System_Collections_IList_Contains_m3707723158_gshared
byc:__ZN20TextRenderingPrivate15DynamicFontData36GetFaceForCharacterIfAvailableInFontERKNS_7FontRefERK13dynamic_arrayI4PPtrIN13TextRendering4FontEELj4EEj
Qlj:_AudioExtensionManager_GetReadyToPlay_m3272224102
pv:__ZN7mecanim14ValueArrayCopyILb0EEEvPKNS_10ValueArrayEPS1_
VE:__Z51Register_UnityEngine_Animator_get_hasBoundPlayablesv
uSh:_Nullable_1_ToString_m1238126148_AdjustorThunk
Fd:emscriptenWebGLGetUniform
ro:FUNCTION_TABLE_iiiiiiiiiii
JUb:__ZL10CleanUpJobP20CullingGroupsJobData
bzd:_Char_CompareTo_m3044885427_AdjustorThunk
nte:_FileStream_GetSecureFileName_m508045384
i_g:_InternalEnumerator_1_System_Collections_IEnumerator_get_Current_m2035754659_AdjustorThunk
cJb:__ZN13RenderManager15BatchModeUpdateEv
F$a:__ZN14SafeBinaryRead21TransferSTLStyleArrayI13dynamic_arrayI8Vector2fLj4EEEEvRT_17TransferMetaFlags
Ova:__ZN17PersistentManager51InstanceIDToLocalSerializedObjectIdentifierInternalEiR31LocalSerializedObjectIdentifier
YGc:_UNITY_FT_Create_Class_cff_services
hd:_glVertexAttribIPointer
SYc:_HMAC_set_HashName_m457235014
G8b:__ZNK6Sprite10GetPaddingE20SpriteRenderDataMode
YXh:__ZN6il2cpp2vm5Class11GetPtrClassEPK10Il2CppType
GVd:_Array_InternalArray__ICollection_Contains_TisTableRange_t2011406615_m605506746_gshared
kKg:_Dictionary_2_Add_m1296007576_gshared
HKd:_Decimal_op_Explicit_m729046406
WDf:_CryptoConfig_CreateFromName_m2169102076
Ild:_Graphic_OnEnable_m2900261811
ZDf:_CryptographicUnexpectedOperationException__ctor_m3552441227
OMb:__ZN14qsort_internal5QSortIP15RODataDepthPassi17ROSorterDepthPassEEvT_S4_T0_T1_
NAd:_ArrayListWrapper_Clear_m321161741
Iqd:_InputField_LineDownCharacterPosition_m2690468785
aCc:_UNITY_ft_glyphslot_alloc_bitmap
R5d:_Array_Sort_TisVector2_t2243707579_TisVector2_t2243707579_m2582252549_gshared
aQf:_UInt64_System_IConvertible_ToDouble_m2828923873
BLe:_List_1_System_Collections_IList_set_Item_m1129584681_gshared
xDc:_ft_raster1_render
$jc:__Z47Register_UnityEngine_Mesh_RecalculateBoundsImplv
sHe:_List_1_set_Capacity_m491101164_gshared
Iqj:__ZNKSt3__221__basic_string_commonILb1EE20__throw_length_errorEv
tHf:_StringBuilder_Insert_m1733097906
bjf:_SslStreamBase_get_HashStrength_m480059173
koc:__ZN5Unity9rapidjson6WriterI16TempBufferWriterNS0_4UTF8IcEES4_13JSONAllocatorE11WriteStringEPKcj
uIg:_ValueCollection_System_Collections_Generic_ICollectionU3CTValueU3E_Clear_m3271993638_gshared
qGd:_Enumerator_MoveNext_m1419609883
KI:__ZN4FMOD7Channel19setReverbPropertiesEPK29FMOD_REVERB_CHANNELPROPERTIES
m0:__ZN13MonoBehaviour22GetScriptFullClassNameEv
gvh:_RangeInt_get_end_m480861812
smf:_ServicePointManager_FindServicePoint_m3137356168
uCb:__ZN13MonoBehaviour9CallAwakeEv
YPa:__ZN20SphericalHarmonicsL211AddWeightedERKS_f
idd:_PointerInputModule_GetPointerData_m1695674453
Iag:__Z90RuntimeInvoker_Void_t1841601450_RuntimeObject_RuntimeObject_RuntimeObject_SByte_t454417549PFvvEPK10MethodInfoPvPS4_
Jrb:__Z19TransferField_ArrayI17RemapPPtrTransfer27Converter_SimpleNativeClassI8GUIStyleEEvRK23StaticTransferFieldInfoR31RuntimeSerializationCommandInfoRT0_
DLd:_Convert_ToUInt64_m345450801
xSh:_Predicate_1_BeginInvoke_m2559992383_gshared
Soc:__ZN9JSONWrite8TransferI10ColorRGBAfEEvRT_PKc17TransferMetaFlags
HNe:_List_1_Find_m1270109362_gshared
I0:__Z25scripting_method_get_name18ScriptingMethodPtr
aqb:__Z19TransferField_ArrayI14SafeBinaryRead16Converter_StringEvRK23StaticTransferFieldInfoR31RuntimeSerializationCommandInfoRT0_
cqj:_rename
dBi:_GC_exit_check
dBe:_NotSupportedException__ctor_m3232764727
Llf:_TypeConverterAttribute_Equals_m2330345916
Hfg:__Z90RuntimeInvoker_Boolean_t3825574718_Int32_t2071877448_Int32U26_t455636984_Int32_t2071877448PFvvEPK10MethodInfoPvPS4_
IYg:_InternalEnumerator_1_System_Collections_IEnumerator_get_Current_m1038263751_gshared
Pse:_MonoIO_CreateDirectory_m379525469
vYb:__ZNSt3__26vectorINS_4pairIN4core12basic_stringIcNS2_20StringStorageDefaultIcEEEES6_EE13stl_allocatorIS7_L18MemLabelIdentifier38ELi16EEE6insertENS_11__wrap_iterIPKS7_EERSD_
qA:__ZN9BlobWrite8TransferI22OffsetPtrArrayTransferI9OffsetPtrIN7mecanim12statemachine18StateMachineMemoryEEEEEvRT_PKc17TransferMetaFlags
kAc:_UNITY_ft_smooth_renderer_class_pic_free
lOe:_List_1_System_Collections_IList_Remove_m3763718607_gshared
Zhf:_SslClientStream_remove_PrivateKeySelection_m427666577
N6c:_String_Concat_m2000667605
swi:__ZN6il2cpp2vm6String8NewUtf16EPKDsi
mti:__ZN6il2cpp2os10ThreadImpl12QueueUserAPCEPFvPvES2_
JSc:__ZN22BaseUnityConnectClient10QueueEventERN11UnityEngine15CloudWebService17CloudServiceEventEPKcjb
qlg:__Z71RuntimeInvoker_Bounds_t3033363703_RuntimeObject_Matrix4x4U26_t266301477PFvvEPK10MethodInfoPvPS4_
r9d:_ExecuteEvents_GetEventHandler_TisRuntimeObject_m3333041576_gshared
Azc:_UNITY_FT_Hypot
Hvd:_BitConverter_ToInt64_m1329623425
_1b:__ZN8RendererC2E12RendererType18MemLabelIdentifier18ObjectCreationMode
a7h:_il2cpp_class_is_abstract
yf:_emscripten_glGetError
Bfi:__ZN15dense_hashtableINSt3__24pairIK10KeyWrapperIPK14Il2CppAssemblyEPK22Il2CppMonoAssemblyNameEES6_N6il2cpp5utils11PointerHashIS4_EEN14dense_hash_mapIS6_SA_SF_NS6_14EqualsComparerINS0_8equal_toIS5_EEEENS0_9allocatorISB_EEE9SelectKeyESK_SM_E14squash_deletedEv
vJ:__Z14FMOD_FILE_SeekPvjS_
Svf:_MethodCall_get_Properties_m1893707917
FFg:_ShimEnumerator_get_Entry_m2387156530_gshared
h1h:__ZN14dense_hash_mapI10KeyWrapperIN6il2cpp5utils13dynamic_arrayIPK10Il2CppTypeLj4EEEEPFvvENS1_8metadata19Il2CppSignatureHashENS8_14EqualsComparerINSB_22Il2CppSignatureCompareEEENSt3__29allocatorINSG_4pairIKS8_SA_EEEEEC2EjRKSC_RKSF_
MVb:__ZNK13RenderTexture32CalculateNeedsInvertedProjectionEv
E_b:__ZN10systeminfo18GetOperatingSystemEv
Gf:emscriptenWebGLGet
$2:__Z19CanReplaceComponentRN5Unity9ComponentEPKNS_4TypeEPN4core12basic_stringIcNS5_20StringStorageDefaultIcEEEE
i3b:__ZN12CubemapArray11InitTextureEiii13TextureFormatb
Aac:__Z17GetSceneBuildInfoRKN4core12basic_stringIcNS_20StringStorageDefaultIcEEEEiR14SceneBuildInfo
Bpf:_X509Certificate2_get_SignatureAlgorithm_m3069898012
wqe:_Int64_System_IConvertible_ToSingle_m1678482180
ZA:__ZN7mecanim5human13HumanFixTwistEPKNS0_5HumanEPNS_8skeleton13SkeletonPoseTIN4math4trsXEEES9_iiRKf
DPb:__ZL24AssignProjectorQueuesJobP30AssignProjectorQueuesJobHeader
xLf:_TimeSpan_get_Hours_m3804628138
zqi:__ZN14dense_hash_mapI10KeyWrapperIP12Il2CppObjectEN6il2cpp2gc9CachedCCWENS4_5utils11PointerHashIS1_EENS3_14EqualsComparerINSt3__28equal_toIS2_EEEENSB_9allocatorINSB_4pairIKS3_S6_EEEEEC2EjRKS9_RKSE_
P0h:__ZN15dense_hashtableINSt3__24pairIK10KeyWrapperIN6il2cpp5utils13dynamic_arrayIPK10Il2CppTypeLj4EEEEPFvvEEESA_NS3_8metadata19Il2CppSignatureHashEN14dense_hash_mapISA_SD_SG_NSA_14EqualsComparerINSF_22Il2CppSignatureCompareEEENS0_9allocatorISE_EEE9SelectKeyESK_SM_E4swapERSP_
Tgb:__ZN9ShaderLab20SerializedSubProgram14SetConstBufferEPKci
ake:_ArgumentNullException__ctor_m911049464
K5e:_Comparison_1_Invoke_m345024424_gshared
sFc:_cf2_getStdVW
Q2e:_ReadOnlyCollection_1_System_Collections_IList_Insert_m3936197025_gshared
qW:__Z40DebugStringToFilePostprocessedStacktraceRK21DebugStringToFileData
Etc:__Z29Transfer_Blittable_ArrayFieldI8JSONReadjEvRT_R9ArrayInfoRK23StaticTransferFieldInfo
KZg:_InternalEnumerator_1_get_Current_m314017974_AdjustorThunk
mg:__setLetterbox
tue:_MemoryStream__ctor_m1043059966
Owf:__ZN21InterfaceFuncInvoker3IP12Il2CppObjectP6Type_t28StreamingContext_t1417235061PS1_E6InvokeEjP11Il2CppClassS1_S3_S4_S5_
J2a:__ZNSt3__26vectorI17BlendShapeChannelNS_9allocatorIS1_EEE6assignINS_11__wrap_iterIPS1_EEEENS_9enable_ifIXaasr21__is_forward_iteratorIT_EE5valuesr16is_constructibleIS1_NS_15iterator_traitsISA_E9referenceEEE5valueEvE4typeESA_SA_
Rrd:_LayoutElement_set_preferredWidth_m3072758716
UGb:__Z12SetGfxDeviceP9GfxDevice
kof:_AsnEncodedData_ToString_m724151831
plh:_Object_CompareBaseObjects_m1461253683
x_b:__ZN11TimeManager11GetRealtimeEv
PJ:__ZN29AudioEffectInternalDefinitionC2EP26UnityAudioEffectDefinitionb
D$f:_MonoMethodInfo_GetDeclaringType_m4186531677
Lxf:_SoapTypeAttribute_SetReflectionObject_m1566293812
_Mh:_Enumerator_System_Collections_IEnumerator_Reset_m2573763156_AdjustorThunk
ezf:_RemotingServices_CreateClientProxy_m1631035355
GQf:_UInt64_ToString_m2892887310
sja:_stbir_resize
Hvi:__ZN15dense_hashtableINSt3__24pairIK10KeyWrapperIPK19Il2CppGenericMethodEP10MethodInfoEES6_N6il2cpp8metadata23Il2CppGenericMethodHashEN14dense_hash_mapIS6_S9_SD_NS6_14EqualsComparerINSC_26Il2CppGenericMethodCompareEEENS0_9allocatorISA_EEE9SelectKeyESH_SJ_EC2ERKSM_j
qBa:__Z37ReadDirectoryInfo_UnityWebAndUnityRawR12FileAccessorRKN20ArchiveStorageHeader6HeaderERNS1_13DirectoryInfoE
sZ:__ZNSt3__26__treeINS_12__value_typeIPKciEENS_19__map_value_compareIS3_S4_15compare_tstringIS3_ELb1EEENS_9allocatorIS4_EEE7destroyEPNS_11__tree_nodeIS4_PvEE
ANg:_Dictionary_2_ToTValue_m1381983709_gshared
XAe:_MulticastDelegate_KPM_m1592985119
nTc:__ZN13dynamic_arrayIN4core12basic_stringIcNS0_20StringStorageDefaultIcEEEELj4EE6assignEPKS4_S7_
D_e:_Collection_1_ConvertItem_m3941916604_gshared
Lza:__ZN15dense_hashtableINSt3__24pairIKN4core12basic_stringIcNS2_20StringStorageDefaultIcEEEEP20ArchiveStorageReaderEES6_20StringHash32FunctionIS6_EN14dense_hash_mapIS6_S9_SC_NS0_8equal_toIS6_EE13stl_allocatorISA_L18MemLabelIdentifier55ELi16EEE9SelectKeyESF_SI_E5clearEv
SMc:__ZN2UI6Canvas26MarkAllNestedCanvasesDirtyEv
Kni:__ZN6il2cpp2vm12ReboxIfBoxedEP14Il2CppIUnknownP11Il2CppClass
XDb:__ZN25PathNamePersistentManagerD2Ev
a$:__ZN17PersistentManager48IntegrateObjectAndUnlockIntegrationMutexInternalEi
t9:__ZZ29InitializeSortingGroupManagerPvEN44PostLateUpdateSortingGroupsUpdateRegistrator7ForwardEv
kp:__ZN6Object12SetHideFlagsENS_9HideFlagsE
mxj:_emscripten_glGetFramebufferAttachmentParameteriv__wrapper
CJb:__ZN13RendererScene15InitializeUmbraEv
SNa:__Z28CalculateGlobalMatrixInverse23TransformAccessReadOnly
sKi:__ZL60SecurityAttribute_t2016950496_CustomAttributesCacheGeneratorP21CustomAttributesCache
ddd:_PointerEventData_ToString_m1218584363
nIf:_UTF7Encoding_GetCharCount_m2589913583
B8h:_AnalyticsSessionInfo_CallSessionStateChanged_m2293069762
jve:_MemoryStream_CalculateNewCapacity_m3533542025
vFi:__ZN6il2cpp6icalls8mscorlib6System6Object7GetTypeEP12Il2CppObject
agh:_Uri_Reduce_m2577728307
XLf:_TimeSpan_Equals_m4102942751_AdjustorThunk
tIg:_ValueCollection_System_Collections_Generic_ICollectionU3CTValueU3E_Add_m1903672223_gshared
dWc:__ZN12HeaderHelper14SetUnvalidatedERKN4core12basic_stringIcNS0_20StringStorageDefaultIcEEEES6_b
QF:__ZN4FMOD6SoundI7releaseEv
UBa:__ZN10MemoryFile9SetLengthEy
SOf:_UInt16_ToString_m2038947049_AdjustorThunk
Otb:__ZN5RectTIiE8TransferI24GenerateTypeTreeTransferEEvRT_
ZXa:__ZN14SafeBinaryRead21TransferSTLStyleArrayI13dynamic_arrayI7Hash128Lj8EEEEvRT_17TransferMetaFlags
WCb:__Z28scripting_class_is_interface17ScriptingClassPtr
Ch:_glTexStorage2D
XRa:__ZNK9ShaderLab10SubProgram14EnsureCompiledEv
y2f:__Z79RuntimeInvoker_Boolean_t3825574718_RuntimeObject_RuntimeObject_SByte_t454417549PFvvEPK10MethodInfoPvPS4_
CBf:_ObjectManager_RecordFixup_m3572285566
nFd:_SortedList_InitTable_m460350503
y0:__Z18BuildScriptClassId17ScriptingClassPtr
iWg:_InternalEnumerator_1_get_Current_m4279678504_AdjustorThunk
MAa:__ZL31DeleteLastPathNameComponentImplRKN4core12basic_stringIcNS_20StringStorageDefaultIcEEEEPKc
T$b:__Z13RegisterClassI18DelayedCallManagerEvv
XSc:__ZN18UnityConnectClient15GetCloudServiceEv
Xrb:__Z18Transfer_BlittableI24GenerateTypeTreeTransferLb0EiEvRK29SerializationCommandArgumentsR31RuntimeSerializationCommandInfo
s3h:__ZN6il2cpp2os19SocketHandleWrapperD2Ev
QCb:__ZL28SerializationCommandGroupForRK31TransferFunctionScriptingTraits17ScriptingClassPtr17ScriptingFieldPtrRK20CoreScriptingClasses
VEa:__ZN10TagManager32RegisterDefaultTagsAndLayerMasksEv
W1h:__ZN15dense_hashtableINSt3__24pairIK10KeyWrapperIPKcEP11Il2CppClassEES5_N6il2cpp5utils11StringUtils12StringHasherIS4_EEN14dense_hash_mapIS5_S8_SE_NS5_14EqualsComparerINSB_13VmStringUtils21CaseSensitiveComparerEEENS0_9allocatorIS9_EEE9SelectKeyESJ_SL_E15insert_noresizeERKS9_
UJf:_SynchronizationLockException__ctor_m549086841
jAd:_ArrayList_InsertRange_m1478230997
Gfa:__ZN4gles8InitCapsEP7ApiGLESP12GraphicsCapsR16GfxDeviceLevelGL
Mja:__ZN6prcore14BlitImageFloatERK14ImageReferenceRS0_NS0_8BlitModeE
cLa:__Z24CalculateVertexLightDataRK15SharedLightDataR14GfxVertexLight
qjh:_Color_get_black_m455352838
ki:_glEnable
jbb:__ZN15dense_hashtableINSt3__24pairIKiiEEi21InstanceIDHashFunctorN14dense_hash_mapIiiS4_NS0_8equal_toIiEE13stl_allocatorIS3_L18MemLabelIdentifier1ELi16EEE9SelectKeyES7_SA_E12maybe_shrinkEv
TRa:__ZNK9ShaderLab7Program28BeginReadUnsupportedVariantsEv
lLb:__ZNK25CameraStackRenderingState21GetImageEffectTextureEb
vCf:_RuntimeMethodHandle__ctor_m2437574937_AdjustorThunk
w8a:__ZNSt3__26vectorIN30RuntimeInitializeOnLoadManager9ClassInfoE13stl_allocatorIS2_L18MemLabelIdentifier13ELi16EEE7reserveEj
dpc:__Z35Transfer_Blittable_FixedBufferFieldI9JSONWriteiEvRK29SerializationCommandArgumentsR31RuntimeSerializationCommandInfo
rOf:_UInt16_System_IConvertible_ToInt64_m2835280558_AdjustorThunk
Ecj:__ZL53g_UnityEngine_Assembly_CustomAttributesCacheGeneratorP21CustomAttributesCache
bTh:_Predicate_1_BeginInvoke_m3926587117_gshared
YD:__ZZN8Animator15InitializeClassEvEN31FunctorImpl_427kDidModifyAvatar4CallEPviR11MessageData
h1e:_ReadOnlyCollection_1_System_Collections_IList_Remove_m2779327941_gshared
lx:__ZN26AnimatorControllerPlayable17ProcessRootMotionEP35AnimationPlayableEvaluationConstantP32AnimationPlayableEvaluationInputP33AnimationPlayableEvaluationOutput
Q2f:__Z94RuntimeInvoker_Boolean_t3825574718_Int32_t2071877448_SByte_t454417549_ExceptionU26_t1467204777PFvvEPK10MethodInfoPvPS4_
Tid:_DefaultControls_CreateToggle_m1568873127
lNg:_Dictionary_2_InitArrays_m2270022740_gshared
xRc:__ZN11UnityEngine7Connect15DeviceInfoEvent16CollectExtraInfoEv
EHf:_UnicodeEncoding_GetChars_m3765282346
jre:_IntPtr__ctor_m4104029105
W_g:_InternalEnumerator_1_System_Collections_IEnumerator_get_Current_m771161214_AdjustorThunk
Xze:_MonoType_get_attributes_m1493788675
PCa:__ZN20ArchiveStorageReader10InitializeER15FileSystemEntryyb
AJd:_Convert_ToDouble_m4236754739
hkd:_Dropdown_CreateItem_m2702141380
OLi:__ZL48Stack_t1043988394_CustomAttributesCacheGeneratorP21CustomAttributesCache
wo:FUNCTION_TABLE_viifi
N$f:_MonoEvent_GetAddMethod_m4289563120
UJi:__ZL37Type_t_CustomAttributesCacheGeneratorP21CustomAttributesCache
ZIc:_UNITY_tt_face_free_hdmx
Z8h:__ZN6il2cpp2vm14TypeNameParser5ParseEb
xwg:_ReflectionMethodsCache__ctor_m1835220
uVc:__ZN23UnityPurchasingSettingsC2Ev
TRd:_Double_ToString_m1864290157
NVb:__ZL10RenderFaceR9GfxDeviceR18MaterialStateCacheP13RenderTextureiif
_Ah:_SpriteAtlasManager__cctor_m453260161
yja:__ZL37stbir__resample_horizontal_downsampleP11stbir__infoiPf
Ebb:__ZNK5Unity9Component38MarkGameObjectAndComponentDependenciesER27GarbageCollectorThreadState
AX:__ZL16OutOfMemoryErrorjj18MemLabelIdentifieriPKc
xWc:__ZN20UnityWebRequestProtoI24UnityWebRequestTransport16AtomicRefCounter14RedirectHelper14ResponseHelper15DownloadHandler13UploadHandler12HeaderHelper14AsyncOperationED0Ev
odf:_RecordProtocol_SendRecord_m132002114
Z0:__ZNK11TypeManager15ClassNameToRTTIEPKcb
nAb:__Z18Transfer_BlittableI18StreamedBinaryReadILb0EELb1EdEvRK29SerializationCommandArgumentsR31RuntimeSerializationCommandInfo
Myj:_emscripten_glVertexAttrib2fv__wrapper
_le:_Guid__ctor_m2599802704
Lte:_FileStream_get_CanRead_m4148920720
Eia:__ZN4crnd12symbol_codec32decode_receive_static_data_modelERNS_25static_huffman_data_modelE
V_b:__ZN18ScriptingArguments8AddFloatEf
pke:_GregorianCalendar_set_CalendarType_m2438362222
HWd:_Array_InternalArray__ICollection_Contains_TisVector2_t2243707579_m3625698589_gshared
nRc:__ZN11UnityEngine15PlatformWrapper16GetVRRenderScaleEv
dqc:__Z18Transfer_BlittableI9JSONWriteLb0EaEvRK29SerializationCommandArgumentsR31RuntimeSerializationCommandInfo
eR:__ZN11UnityEngine15CloudWebService14DataDispatcher34OnSessionContainerArchivedAndReadyERNS0_16SessionContainerE
TVh:_RectTransformUtility_PixelAdjustPoint_m1375786599
ale:_NumberFormatInfo_GetFormat_m3247563525
Hcb:__ZN14SafeBinaryRead19TransferSTLStyleMapINSt3__23mapIN4core12basic_stringIcNS3_20StringStorageDefaultIcEEEEiNS1_4lessIS7_EENS1_9allocatorINS1_4pairIKS7_iEEEEEEEEvRT_17TransferMetaFlags
TAc:_gray_move_to
kYc:_DSAParameters_t1872138834_marshal_pinvoke
Fah:_ConstructionCall_InitDictionary_m4046452035
nei:__ZN6il2cpp2vm10Reflection14GetEventObjectEP11Il2CppClassPK9EventInfo
xdf:_TlsStream_Write_m2271546135
wcc:__Z30RegisterValidateMethodCallbackiPF18ScriptingMethodPtrS_17ScriptingClassPtrP6ObjectEPKc
NUd:_CultureInfo_ConstructInternalLocaleFromCurrentLocale_m1342751405
KGf:_Latin1Encoding_GetString_m3553289597
Jwg:_GetRayIntersectionAllNonAllocCallback_Invoke_m1247446986
qCc:_tt_cmap_init
vuc:__ZN8JSONRead8TransferI9BoundsIntEEvRT_PKc17TransferMetaFlagsb
Ia:invoke_viidi
hqi:__ZN15dense_hashtableI10KeyWrapperIP18Il2CppGenericClassES3_N6il2cpp8metadata22Il2CppGenericClassHashEN14dense_hash_setIS3_S6_NS3_14EqualsComparerINS5_25Il2CppGenericClassCompareEEENSt3__29allocatorIS3_EEE8IdentityESA_SD_E12maybe_shrinkEv
Rxb:__Z29Transfer_Blittable_ArrayFieldI18StreamedBinaryReadILb1EEdEvRT_R9ArrayInfoRK23StaticTransferFieldInfo
oI:__ZN9AudioClip7CleanupEv
sCh:_Vector4_set_Item_m1525226067_AdjustorThunk
QCj:_emscripten_glCheckFramebufferStatus__wrapper
Xii:__ZNK15dense_hashtableINSt3__24pairIK10KeyWrapperIP11Il2CppClassES4_EES5_N6il2cpp8metadata16SZArrayClassHashEN14dense_hash_mapIS5_S4_SA_NS5_14EqualsComparerINS9_19SZArrayClassCompareEEENS0_9allocatorIS7_EEE9SelectKeyESE_SG_E12test_deletedEj
Ysc:__Z18Transfer_BlittableI8JSONReadLb0EdEvRK29SerializationCommandArgumentsR31RuntimeSerializationCommandInfo
mng:__Z83RuntimeInvoker_Boolean_t3825574718_NavigationU26_t3929175072_Navigation_t1571958496PFvvEPK10MethodInfoPvPS4_
mKf:_Thread_ClrState_m822263449
_ae:_SimpleCollator_LastIndexOfOrdinalIgnoreCase_m550798345
zaa:__ZNK9GfxDevice13GetViewMatrixEv
uih:_Bounds_Encapsulate_m17114941
Cab:__ZN17RemapPPtrTransferC2E24TransferInstructionFlagsb
$1:__ZN8TypeTree8BlobReadERPKhS1_ib
bIa:__ZN6CameraD0Ev
_Eh:_GUILayoutUtility_Begin_m659595645
zce:_ModulusRing_Multiply_m386339435
x7:__ZN31CanvasBatchIntermediateRenderer16StaticInitializeEPv
zmd:_GraphicRaycaster_U3CRaycastU3Em__0_m3971200721
i1e:_ReadOnlyCollection_1_System_Collections_IList_RemoveAt_m3004588099_gshared
Bw:__ZN7mecanim12AndValueMaskILb0EEEvPKNS_14ValueArrayMaskEPS1_
k8a:__ZN14SafeBinaryRead21TransferSTLStyleArrayINSt3__26vectorIi13stl_allocatorIiL18MemLabelIdentifier13ELi16EEEEEEvRT_17TransferMetaFlags
gJd:_Decimal_op_Implicit_m4246329390
cke:_ArgumentNullException__ctor_m2252076819
NWb:__ZN10GameObjectC2E18MemLabelIdentifier18ObjectCreationMode
BJc:_raccess_guess_apple_double
_ze:_MonoType_GetAttributeFlagsImpl_m250699879
_Af:_SerializationInfo__ctor_m4016423422
Nma:__ZL18ProgramUniform1uivPK7ApiGLESjiihPKv
s3b:__ZN14Texture2DArray13RebuildMipMapEv
QZh:__ZN13Il2CppHashSetIPK17Il2CppGenericInstN6il2cpp8metadata21Il2CppGenericInstHashENS4_24Il2CppGenericInstCompareENSt3__29allocatorI10KeyWrapperIS2_EEEEC2EjRKS5_RKS6_
Eui:__ZN6il2cpp2gc16GarbageCollector14RemoveWeakLinkEPPv
Ugb:__ZN9ShaderLab20SerializedSubProgram14AddVectorParamEPKcii15ShaderParamTypei
R3e:_ReadOnlyCollection_1_System_Collections_IEnumerable_GetEnumerator_m1734360860_gshared
n5g:_ResourceSet_ReadResources_m1669023823
oie:_PKCS12_RemoveCertificate_m1590055870
Jji:__ZN6il2cpp2vm6Thread7SetNameEP12Il2CppThreadP12Il2CppString
dFb:__ZN13ScreenManager18SetAllowCursorLockEb
yS:__ZN11UnityEngine15CloudWebService10RestClientINS0_23WebRequestRestHeaderMapEE16SetRequestHeaderERKN4core12basic_stringIcNS4_20StringStorageDefaultIcEEEESA_
p8a:__ZN30RuntimeInitializeOnLoadManager15ClassMethodInfo8TransferI14SafeBinaryReadEEvRT_
$ij:__ZL73CanvasScaler_t2574720772_CustomAttributesCacheGenerator_m_ScreenMatchModeP21CustomAttributesCache
YO:__ZL22InitializeModule_Audiov
olb:__ZN16MemoryFileSystem8IsLockedERK13FileEntryData
rli:__ZN6il2cpp6icalls8mscorlib6System2IO6MonoIO5WriteEiP11Il2CppArrayiiPi
v$f:_MonoCMethod_Invoke_m931478014
o4f:__Z86RuntimeInvoker_Int32_t2071877448_Int16_t4041245914_Int32_t2071877448_Int32_t2071877448PFvvEPK10MethodInfoPvPS4_
u5g:_SatelliteContractVersionAttribute__ctor_m2605651717
Vk:_emscripten_glBindRenderbuffer
F5i:__ZL77RuntimePlatform_t1869584967_CustomAttributesCacheGenerator_OSXDashboardPlayerP21CustomAttributesCache
_Ai:_GC_dirty_init
oud:_Array_Copy_m1969461849
sAf:_MessageFormatter_ReadMethodResponse_m4134629501
Gri:__ZN6il2cpp2vm5Field14GetValueObjectEP9FieldInfoP12Il2CppObject
XNc:__ZNK2UI6Canvas16GetTargetDisplayEv
$Sd:_Environment_get_OSVersion_m1247315981
o5:__ZN6Object17FindObjectsOfTypeEPKN5Unity4TypeER13dynamic_arrayIPS_Lj4EEb
oCb:__ZN13MonoBehaviour17RemoveFromManagerEv
NIa:__ZN12ImageFilters14AddImageFilterERK11ImageFilter
N_a:__ZL11DecodeValuePPKcS0_
eGg:_ShimEnumerator_MoveNext_m2013866013_gshared
FV:__ZN13MemoryManagerC2Ev
iqa:__ZN12SkinMeshInfo10DeallocateEPS_
hCa:__ZN20ArchiveStorageReader28AcquireAndPrefillUnusedBlockEjPNS_11CacheResultE
m3b:__Z12NHxRoughnessIA4_tEvP9Texture2DPT_iiii
K5:__ZN18AsyncUploadManagerD2Ev
Sib:__ZN9Transform5ResetEv
cub:__Z22TransferField_NonArrayI24GenerateTypeTreeTransfer16Converter_StringEvRK23StaticTransferFieldInfoR31RuntimeSerializationCommandInfoRT0_
gCc:_UNITY_FT_CMap_New
YEb:__Z17MainLoopKeepalivePv
fbh:_MatchCollection__ctor_m1944681790
vZc:_HMACSHA512__ctor_m1667460019
Ynj:_printf_core
NAe:_MonoType_ToString_m473949831
VTb:__Z14CalcHullBoundsPK8Vector3fPKhhRK5PlaneRK10Matrix4x4fR10MinMaxAABB
qyf:_RealProxy__ctor_m2147093603
HMb:__Z19SetupLODFadeKeywordR17ShaderPassContexti
Npa:__ZL25CheckCopyTextureArgumentsRK7ApiGLESP11GLESTextureS3_
G9a:__ZN13dynamic_arrayI26EnlightenSystemInformationLj8EE6insertEPS0_PKS0_S4_
MBc:_tt_name_entry_ascii_from_utf16
ZAe:_MulticastNotSupportedException__ctor_m2164514827
bMd:_DateTime_System_IConvertible_ToChar_m2489529194_AdjustorThunk
Btb:__Z29Transfer_Blittable_ArrayFieldI24GenerateTypeTreeTransferyEvRT_R9ArrayInfoRK23StaticTransferFieldInfo
$I:__ZN4FMOD7SystemI9playSoundE17FMOD_CHANNELINDEXPNS_5SoundEbPPNS_7ChannelE
ydh:_Regex_GetGroupIndex_m1686599756
m6i:__ZL68PreferBinarySerialization_t2472773525_CustomAttributesCacheGeneratorP21CustomAttributesCache
Aw:__ZN27AnimationLayerMixerPlayable17LayerMixerProcessEP35AnimationPlayableEvaluationConstantP32AnimationPlayableEvaluationInputP33AnimationPlayableEvaluationOutputM17AnimationPlayableFvS1_S3_S5_EMS_FvS1_S3_S5_ESA_MS_FvS5_S1_S3_S5_ifE
z8h:__ZN6il2cpp2os4File4ReadEPNS0_10FileHandleEPciPi
BH:__ZN12AudioManager23VirtualRedirectTransferER18StreamedBinaryReadILb0EE
sqj:_realloc
njc:__Z57Register_UnityEngine_Transform_INTERNAL_get_localRotationv
Tzg:_ScrollRect_SetLayoutVertical_m1225848090
mqh:_Plane_ToString_m4267831659_AdjustorThunk
NMf:_Type_get_IsInterface_m3583817465
kuj:dynCall_viif
d0f:_MonoField_get_DeclaringType_m1591666235
Quf:_Enumerator_MoveNext_m4234629003
sGc:_cf2_hint_lock
hrb:__ZL26Transfer_SimpleNativeClassI17RemapPPtrTransfer8GradientLb0EEvRK29SerializationCommandArgumentsR31RuntimeSerializationCommandInfo
ky:__ZN17AnimationPlayable26DisconnectNoTopologyChangeEPS_i
cog:__Z59RuntimeInvoker_Boolean_t3825574718_RaycastHit2D_t4063908774PFvvEPK10MethodInfoPvPS4_
Yze:_MonoType_GetDefaultConstructor_m925465120
yNf:_Type_IsArrayImpl_m3073208555
Kuj:dynCall_viifffi
gT:__ZN13UploadHandlerD2Ev
Isj:dynCall_viiiiiffi
zc:_emscripten_glBlendFuncSeparate
j_:__Z20scripting_string_newPKc
Ghc:__Z43Material_CUSTOM_Internal_CreateWithMaterialP12Il2CppObjectS0_
Ise:_Directory_GetCurrentDirectory_m44486537
Coi:__ZNK24NamespaceAndNamePairHashclERKNSt3__24pairIPKcS3_EE
dSe:_Collection_1_System_Collections_ICollection_CopyTo_m1047946700_gshared
Boc:__ZN9JSONWrite12AppendToNodeEPN5Unity9rapidjson12GenericValueINS1_4UTF8IcEE13JSONAllocatorEEPKcRS6_
HB:__ZNSt3__26__sortIRPFbPKN8Animator11AnimatorJobES4_EPS4_EEvT0_S9_T_
IG:__ZN17AudioCustomFilterD2Ev
xoa:__ZN18GfxFramebufferGLES18ReleaseFramebufferEP17RenderSurfaceBaseP14GfxContextGLES
P8g:_Context_GetDynamicPropertyCollection_m1987747444
Epf:_X509Certificate2_get_Version_m1927399907
$5b:__ZN13ProduceHelperI6CameraLb0EE7ProduceE18MemLabelIdentifier18ObjectCreationMode
fod:_Image_RadialCut_m3229543088
EU:__ZN19CloudServiceHandler34HandleSaveFileWebRequestPlayerLoopEv
Xx:__ZN7mecanim21ValueArrayReverseCopyEPKNS_18ValueArrayConstantEPKNS_10ValueArrayES2_PS3_PKi
qG:__Z31GetParentSampleClipFromInstancePN11SoundHandle8InstanceE
w1b:__ZNK28RectTransformPropertyBinding13GetFloatValueERKN11UnityEngine9Animation10BoundCurveE
iWb:__ZN6Camera22StandaloneCustomRenderENS_10RenderFlagEP6ShaderRKN4core12basic_stringIcNS3_20StringStorageDefaultIcEEEEPNS_21PerformRenderFunctionE
H7a:__ZNSt3__26vectorI4PPtrI6ObjectE13stl_allocatorIS3_L18MemLabelIdentifier52ELi16EEE6assignINS_11__wrap_iterIPS3_EEEENS_9enable_ifIXaasr21__is_forward_iteratorIT_EE5valuesr16is_constructibleIS3_NS_15iterator_traitsISD_E9referenceEEE5valueEvE4typeESD_SD_
MFi:__ZN6il2cpp2os16ThreadLocalValue8GetValueEPPv
b2h:__ZN6il2cpp2vm13MetadataCache14GetGenericInstEPKPK10Il2CppTypej
S0c:_SHA384Managed_Initialize_m712692291
$O:__ZN13AudioListener17ReadExtensionNameEi
p7g:_ChannelInfo__ctor_m2502026239
Lb:invoke_iiidii
ap:setThrew
e3b:__ZL21BuildEmptyCubeTexturePKci11ColorRGBA3217TextureColorSpace
jDh:_Event_get_modifiers_m3267430607
Kcb:__ZN14SafeBinaryRead21TransferSTLStyleArrayINSt3__26vectorIN9ShaderLab20SerializedSubProgramENS1_9allocatorIS4_EEEEEEvRT_17TransferMetaFlags
Xrc:__Z15Transfer_StringI8JSONReadLb1EEvRK29SerializationCommandArgumentsR31RuntimeSerializationCommandInfo
ekf:_BasicConstraintsExtension_Encode_m3738782306
ZNb:__Z25DoForwardShaderRenderLoopR17RenderLoopContextR13dynamic_arrayI16RenderObjectDataLj4EERK11CullResultsbbbN6Camera10RenderFlagE
V8d:_GameObject_GetComponent_TisRuntimeObject_m2812611596_gshared
kBc:_sfnt_load_face
xhe:_PKCS12_GetSymmetricAlgorithm_m1812022677
DIf:_UTF8Encoding_GetByteCount_m2372933408
M8g:_Context_get_NeedsContextSink_m1907794755
bBc:_UNITY_ft_service_list_lookup
AAh:_Transform_get_localScale_m46214814
T8e:_ARC4Managed_GenerateKey_m716135508
Glc:__ZN5IMGUI21SelectReceivingWindowER8GUIStateb
B_g:_InternalEnumerator_1_get_Current_m3179981210_gshared
eV:__ZN13BaseAllocator13TryDeallocateEPv
_td:_Array_CreateInstance_m1054139389
kJh:_U3CStartU3Ec__Iterator0_Reset_m2580847683_gshared
VJa:__ZNSt3__26vectorIN12FlareManager10FlareEntryENS_9allocatorIS2_EEE21__push_back_slow_pathIKS2_EEvRT_
oTf:_Default_check_arguments_with_score_m1714931543
qYc:_SHA1_Create_m4086509717
N0f:_MonoMethodInfo_GetMethodInfo_m3298558752
iH:__ZN13AudioListener17RemoveFromManagerEv
td:_glAttachShader
lkd:_Dropdown_SetAlpha_m2769981009
sGa:__ZNK6Camera19GetProjectionMatrixEv
JSh:_Predicate_1_BeginInvoke_m1856151290_gshared
vmj:_CircleRotate_Update_m2785340121
VQd:_StackTrace__ctor_m2404985356
f0:__Z38PreallocateObjectFromPersistentManagerib
pMd:_DateTime_System_IConvertible_ToSingle_m3927769066
oWa:__ZNK9Texture2D20GetUnscaledTextureIDEv
Zui:__GLOBAL__sub_I_Thread_cpp_11756
AKd:_Convert_ToSByte_m883113940
RUh:_Canvas_get_renderOrder_m2592588836
PAe:_MonoType_get_ContainsGenericParameters_m3229732653
uRe:_Queue_1_Peek_m1463479953_gshared
lXh:_Animator_ResetTriggerString_m946167554
ygj:__ZL53InputField_t1631627530_CustomAttributesCacheGeneratorP21CustomAttributesCache
CDh:_GUI_set_skin_m929513544
Mfd:_ButtonClickedEvent__ctor_m938038541
hbg:__Z119RuntimeInvoker_Int32_t2071877448_RuntimeObject_Int32_t2071877448_Int32_t2071877448_CharU26_t1894467670_SByte_t454417549PFvvEPK10MethodInfoPvPS4_
lOf:_UInt16_System_IConvertible_ToDouble_m4100549304_AdjustorThunk
T9a:__Z29ClearRepeatingLogMessageStatev
s5c:_Single_System_IConvertible_ToInt16_m962677079
b5:__ZN21EnlightenSceneMappingaSERKS_
cGi:__ZNK6il2cpp8metadata21Il2CppGenericInstHashclEPK17Il2CppGenericInst
G5c:_Single_System_IConvertible_ToUInt32_m2447833283
rua:__ZN7ApiGLESD2Ev
nEa:__ZN9Transform47ClearTransformHierarchyAndApplyToSerializedDataEv
YYg:_InternalEnumerator_1_get_Current_m4083613828_AdjustorThunk
ktc:__ZN8JSONRead21TransferSTLStyleArrayINSt3__26vectorI8MonoPPtr13stl_allocatorIS3_L18MemLabelIdentifier1ELi16EEEEEEvRT_17TransferMetaFlags
hIa:__ZN6Camera23VirtualRedirectTransferER19StreamedBinaryWriteILb0EE
Auj:dynCall_fidi
sbi:__ZN15dense_hashtableINSt3__24pairIK10KeyWrapperINS1_IPK9FieldInfoP11Il2CppClassEEEjEES9_17ReflectionMapHashIS8_EN14dense_hash_mapIS9_jSD_NS9_14EqualsComparerINS0_8equal_toIS8_EEEENS0_9allocatorISB_EEE9SelectKeyESI_SK_E12resize_deltaEjj
jHa:__ZN15dense_hashtableINSt3__24pairIKN9ShaderLab7Program23ShaderKeywordSetAndHashEPKNS2_10SubProgramEEES4_NS3_24ShaderKeywordHashFunctorEN14dense_hash_mapIS4_S8_SA_NS0_8equal_toIS4_EE13stl_allocatorIS9_L18MemLabelIdentifier67ELi16EEE9SelectKeyESD_SG_E15insert_noresizeERKS9_
AQa:__ZN13RenderTexture12SetDimensionE16TextureDimension
je:_SDL_FreeRW
Ofe:_PKCS1_OS2IP_m1273945439
s0c:_SHA1Internal_FillBuff_m891541953
lPc:__Z34CanvasRenderer_Get_Custom_PropCullP12Il2CppObject
KM:__ZN20SoundChannelInstance8getDelayE14FMOD_DELAYTYPEPjS1_
kpd:_InputField_set_customCaretColor_m3534590098
Dyg:_ScrollRect_set_viewport_m323693490
Moe:_NumberFormatter_FormatExponential_m3975285307
Ewc:__ZNSt3__26vectorIN20TextRenderingPrivate8FontImpl13CharacterInfoE13stl_allocatorIS3_L18MemLabelIdentifier1ELi16EEE8__appendEj
v:tempBigInt
re:_emscripten_glVertexAttrib1fv
Qoh:_Mesh_CheckCanAccessSubmesh_m764012688
pdb:__ZNSt3__26vectorIN9ShaderLab20SerializedSubProgram12UAVParameterENS_9allocatorIS3_EEE7reserveEj
Drj:__ZSt11__terminatePFvvE
GVi:__ZL99Thread_t241561612_CustomAttributesCacheGenerator_Thread_t241561612____ExecutionContext_PropertyInfoP21CustomAttributesCache
zJ:__ZN12AudioManager14systemCallbackEP11FMOD_SYSTEM24FMOD_SYSTEM_CALLBACKTYPEPvS3_
lRh:__ZL25UnresolvedVirtualCall_195P12Il2CppObjectfPK10MethodInfo
QPa:__ZN16ReflectionProbes16UpdateSampleDataEv
I6g:_SafeHandle_Finalize_m1839546519
v9g:_Context_AllocateNamedDataSlot_m3200404053
GEa:__ZN14BatchAllocator6CommitE18MemLabelIdentifier
Cof:_X509EnhancedKeyUsageExtension_Decode_m3866320499
Ioe:_NumberFormatter_AppendIntegerStringWithGroupSeparator_m1401773574
Oe:_JS_Sound_Play
uod:_Image_IsRaycastLocationValid_m864962354
t7f:__Z181RuntimeInvoker_Void_t1841601450_RuntimeObject_Int32_t2071877448_Int32_t2071877448_RuntimeObject_Int32_t2071877448_Int32_t2071877448_RuntimeObject_Int32_t2071877448_Int32_t2071877448PFvvEPK10MethodInfoPvPS4_
lcb:__ZN9ShaderLab16SerializedShader8TransferI14SafeBinaryReadEEvRT_
$A:__ZN7mecanim8skeleton13SkeletonAlignEPKNS0_8SkeletonERKN4math7_float4ES7_i
Y3b:__ZN19ShaderPropertySheet16SetVectorIndexedEN9ShaderLab16FastPropertyNameEifRK8Vector4fNS_8SetFlagsE
Myf:_RemotingConfiguration_RegisterWellKnownServiceType_m2491506630
sQi:__ZL55_TypeBuilder_t2783404358_CustomAttributesCacheGeneratorP21CustomAttributesCache
Dsd:_LayoutRebuilder_Initialize_m2671585490
Dmj:_Cut_Update_m4276757078
vKe:_List_1_System_Collections_IList_IndexOf_m4061554721_gshared
lU:__ZN11UnityEngine15CloudWebService14DataDispatcher4StopEv
rdb:__ZNSt3__26vectorIN9ShaderLab20SerializedSubProgram12UAVParameterENS_9allocatorIS3_EEE8__appendEj
z2c:_X509Certificate_ToString_m1582581274
WHg:_Enumerator_get_Current_m2986380627_gshared
xza:__ZN17ScriptingGCHandle7AcquireE18ScriptingObjectPtr25ScriptingGCHandleWeakness
w8g:_LifetimeServices_set_LeaseTime_m1487876644
zUf:_ConstructorBuilder_not_supported_m3687319507
hNc:__ZN2UI14CanvasRenderer14AttachToCanvasER8JobFencePNS_6CanvasENS0_15InstructionTypeE
x5c:_Single_System_IConvertible_ToInt64_m3555853323_AdjustorThunk
xtj:dynCall_iifiii
gja:__Z21HasAlphaTextureFormat13TextureFormat
oO:__ZN12AudioManager6UpdateEv
$ia:__ZN14ImageReference9BlitImageERKS_NS_8BlitModeE
ls:__ZN8Animator12AddToManagerEv
NFg:_ShimEnumerator_get_Key_m1171725158_gshared
hDb:__ZN23CachedSerializationDataD2Ev
iVb:__ZNK25CameraStackRenderingState31CalculateStereoCameraTargetTypeEv
rPa:__ZN14RenderSettings23VirtualRedirectTransferER14SafeBinaryRead
uti:__ZN6il2cpp2os10ThreadImpl15CurrentThreadIdEv
vWd:_Array_InternalArray__ICollection_Contains_TisColor32_t874517518_m2818328910_gshared
hlj:_AudioExtensionManager_WriteExtensionProperties_m4015275001
cJc:_UNITY_tt_face_load_fpgm
cEa:__Z17IsObjectAvailablei
I4a:__ZN12InputManagerD0Ev
aEi:__ZN6il2cpp6icalls8mscorlib6System11Diagnostics10StackTrace9get_traceEP15Il2CppExceptionib
Fid:_DefaultControls_CreateUIObject_m2810394112
YHa:__ZNK16LightmapSettings14GetLightProbesEv
yHf:_UnicodeEncoding_GetBytes_m1337660232
xqj:_posix_memalign
m4b:__ZN13ProduceHelperI12MeshRendererLb0EE7ProduceE18MemLabelIdentifier18ObjectCreationMode
O1g:_InternalEnumerator_1_get_Current_m747506907_AdjustorThunk
ohh:_LogCallback_Invoke_m115567905
i0:__ZNK15MonoScriptCache7ReleaseEv
FYh:__ZN6il2cpp2vm5Class13HasReferencesEP11Il2CppClass
bg:_glBindTexture
Moj:_snprintf
Tpd:_InputField_set_caretPosition_m888572237
QXf:_ILGenerator__cctor_m3943061018
$Ad:_ArrayListWrapper_Clone_m1506311066
KVh:_CanvasRenderer_CreateUIVertexStream_m2882962535
qbb:__Z36scripting_liveness_calculation_begin17ScriptingClassPtriPFvPP12Il2CppObjectiPvES3_PFvvES7_
Zra:__ZN16UniformCacheGLES6CreateERK20GpuProgramParameters
MIf:_UTF8Encoding_Fallback_m811555654
tQf:_UInt64_CompareTo_m3513742483
A$d:_Array_InternalArray__IndexOf_TisPlayableBinding_t2498078091_m398853908_gshared
lbe:_SimpleCollator_MatchesForwardCore_m558011650
H1e:_ReadOnlyCollection_1_System_Collections_IList_Clear_m1918003010_gshared
kxj:_emscripten_glGetProgramInfoLog__wrapper
CAh:_Transform_set_localScale_m1442831667
ID:__ZN25AnimatedPropertyEvaluator29BindCurveToScriptingObjectPtrERKN13AnimationClip10FloatCurveEj18ScriptingObjectPtrb
QIf:_UTF8Encoding_InternalGetChars_m373801468
s1:__ZN17PersistentManager23DestroyFromFileInternalEi
ePd:_Decimal_System_IConvertible_ToChar_m2425091200_AdjustorThunk
mOb:__Z19SetupMotionMatricesR6CameraR18RPDataMotionVector
TSd:_Enum_ToString_m2112979707
ywf:_MonoMethodMessage_get_MethodName_m3580519713
oC:__ZN26AnimatorControllerPlayable18PrepareForPlaybackERN7mecanim6memory9AllocatorE
xZc:_HMACSHA512__cctor_m1167457383
HIf:_UTF8Encoding_GetBytes_m4170182058
XJe:_List_1_IndexOf_m2418862432_gshared
vHa:__ZN22CreateGpuProgramOutputC2Ev
mrf:_X509Chain__ctor_m2242540866
Xue:_MemoryStream_InternalConstructor_m2423667240
txf:_SoapMethodAttribute_SetReflectionObject_m3431595769
dBg:_Slider_set_maxValue_m2951480075
B5b:__ZN8GUILayer12CleanupClassEv
frd:_InputField_OnSubmit_m2856515494
EYh:__ZN6il2cpp2vm5Class4InitEP11Il2CppClass
ga:invoke_vidi
yNc:__ZN2UI14CanvasRenderer17SyncDirtyElementsER8JobFence
whd:_ColorBlock_op_Inequality_m1517672458
Vwi:__ZN6il2cpp5utils11StringUtils15StringDuplicateEPKc
DWb:__Z15CanAddComponentR10GameObjectPKN5Unity4TypeE
MGa:__ZNK9ShaderLab21ShaderRasterStateDesc16ToGfxRasterStateEPK19ShaderPropertySheetS3_R14GfxRasterState
cW:_tlsf_memalign
fEf:_CspParameters__ctor_m2480441577
TFi:__ZN6il2cpp2os9EventImplC2Ebb
Y8g:_DynamicPropertyCollection_NotifyMessage_m840388347
Mfh:_Uri_ParseUri_m5711497
zgg:__Z98RuntimeInvoker_RuntimeObject_RuntimeObject_RayU26_t3651946800_Single_t2076509932_Int32_t2071877448PFvvEPK10MethodInfoPvPS4_
RY:__Z20IsMatrixBuiltinParamPKcPi
F3b:__ZN8Renderer19PostInitializeClassEv
OTg:_InternalEnumerator_1_get_Current_m1943362081_AdjustorThunk
iCi:__ZN6il2cpp6icalls8mscorlib6System8Delegate23CreateDelegate_internalEP20Il2CppReflectionTypeP12Il2CppObjectP22Il2CppReflectionMethodb
iTf:_Default_check_type_m2363631305
CCb:__ZN18DelayedCallManager18CancelCallDelayed2E4PPtrI6ObjectEPF15CallObjectStatePS1_PvES7_
qxa:__ZN25ThreadsafeLinearAllocator10ReallocateEPvji
Kmb:__Z18Transfer_BlittableI14SafeBinaryReadLb1E11QuaternionfEvRK29SerializationCommandArgumentsR31RuntimeSerializationCommandInfo
q9:__ZN18SpriteAtlasManagerD0Ev
C$d:_Array_InternalArray__IndexOf_TisRaycastHit2D_t4063908774_m3739817942_gshared
k1f:_MonoProperty_GetAccessors_m3704698731
LBi:_GC_disable
B2a:__ZN10Matrix4x4f8TransferI14SafeBinaryReadEEvRT_
mye:_UnmanagedMemoryStream_ReadByte_m2501145010
CAf:_ObjectRecord_UnchainFixup_m3025030310
lC:__ZN14AvatarPlayback8StopTimeEv
D3:__Z6AppendRKN4core12basic_stringIcNS_20StringStorageDefaultIcEEEEPKc
ygg:__Z81RuntimeInvoker_RuntimeObject_Ray_t2469606224_Single_t2076509932_Int32_t2071877448PFvvEPK10MethodInfoPvPS4_
fjh:_Color_ToString_m55788918_AdjustorThunk
yga:__ZN7ApiGLES18ClearBufferSubDataEjN2gl12BufferTargetEll
Gdc:__Z37Camera_Get_Custom_PropAllCamerasCountv
q1a:__ZN14Texture2DArray8TransferI18StreamedBinaryReadILb0EEEEvRT_
Wji:__ZN6il2cpp6icalls8mscorlib6System5Array9GetLengthEP11Il2CppArrayi
tSb:__Z18ApplyOcclusionMaskR19ProbeOcclusionCacheRK17LightProbeContextRK10RenderNodeb
que:_FileStreamAsyncResult__ctor_m1096228032
TDc:_Split_Cubic
cb:invoke_fiiii
HOd:_DBNull_System_IConvertible_ToSByte_m1228193074
iUe:_Collection_1__ctor_m2818834331_gshared
Efg:__Z68RuntimeInvoker_UInt16_t986882611_UInt16_t986882611_UInt16_t986882611PFvvEPK10MethodInfoPvPS4_
nHh:_UnityAction_1_Invoke_m3979091955_gshared
Ste:_FileStream_FlushBuffer_m2594140542
Ixi:__ZN6il2cpp2vm8Profiler12GCHeapResizeEx
Guj:dynCall_viiifi
$na:__ZN18GfxFramebufferGLES20ActiveContextChangedEPP17RenderSurfaceBaseS2_
Ona:__Z19PluginsRenderMarkeri
gE:__ZN10HumanTrait18InitializeBoneNameEv
trh:_X509CertificateEnumerator_get_Current_m3129374511
wpi:__ZNSt3__214__split_bufferIN6il2cpp2vm5Image20EmbeddedResourceDataERNS_9allocatorIS4_EEEC2EjjS7_
jnd:_HorizontalOrVerticalLayoutGroup_get_spacing_m2859152439
APi:__ZL57DispIdAttribute_t607560947_CustomAttributesCacheGeneratorP21CustomAttributesCache
QG:__ZN12AudioManager17RemoveAudioSourceEP11AudioSource
EEh:_GUILayoutEntry_SetVertical_m861127195
$Kh:_AesManaged_get_KeySize_m2773901127
x8d:_Array_InternalArray__get_Item_TisUInt64_t2909196914_m2580870875_gshared
$If:_UTF8Decoder_GetChars_m3819660582
fQ:__ZN5physx14PxLightCpuTask12addReferenceEv
Xqi:__ZN6il2cpp2gc16GarbageCollector19InitializeFinalizerEv
Zx:__ZN7mecanim8skeleton18CreateSkeletonMaskEjPKNS0_19SkeletonMaskElementERNS_6memory9AllocatorE
clc:__ZN10GUIManager10DoGUIEventER10InputEventb
Bsb:__Z35Transfer_Blittable_FixedBufferFieldI24GenerateTypeTreeTransferxEvRK29SerializationCommandArgumentsR31RuntimeSerializationCommandInfo
hJc:_UNITY_TT_Init_Glyph_Loading
mNb:__Z20CalculateSqrDistanceRK8Vector3fRK4AABB
bL:__Z32AudioMixerDuckingProcessCallbackP21UnityAudioEffectStatePfS1_jii
XTf:_CustomAttributeTypedArgument_GetHashCode_m999147081_AdjustorThunk
J2b:__ZN26CustomRenderTextureManagerD2Ev
$te:_FileStream_Read_m3880951166
Olj:_AudioExtensionManager_Update_m3727859914
GH:__ZN12AudioManager8TransferI24GenerateTypeTreeTransferEEvRT_
iia:__Z25GetBytesFromTextureFormat13TextureFormat
Oki:__ZN6il2cpp6icalls8mscorlib6System9Threading6Thread20Thread_free_internalEP12Il2CppThreadi
Ksj:dynCall_iiffi
BD:__ZN16MecanimAnimation25RegisterIAnimationBindingEPKN5Unity4TypeEiP17IAnimationBinding
h1:__Z32scripting_class_get_assemblyname17ScriptingClassPtr
pRc:__ZN11UnityEngine15PlatformWrapper15GetVRDeviceNameEv
jKg:_Dictionary_2_Resize_m2532139610_gshared
joh:_Mathf_RoundToInt_m1833913145
TLf:_TimeSpan_Equals_m2029123271_AdjustorThunk
A2h:__ZN6il2cpp2vm13MetadataCache23GetInvokerMethodPointerEPK10MethodInfoPK20Il2CppGenericContext
sta:__ZN9GfxDevice21RegisterNativeTextureE9TextureIDi16TextureDimension
JUd:_CultureInfo__ctor_m456863818
qDi:__ZN6il2cpp6icalls8mscorlib6System10Reflection4Emit11TypeBuilder20create_generic_classEP27Il2CppReflectionTypeBuilder
LEe:_Enumerator_MoveNext_m2504790928_gshared
KP:__Z60Register_UnityEngine_AudioListener_GetNumExtensionPropertiesv
Ui:_emscripten_glUniformMatrix4fv
Zhi:__ZN15dense_hashtableINSt3__24pairIK10KeyWrapperINS1_IP11Il2CppClassjEEES4_EES6_N6il2cpp8metadata14ArrayClassHashEN14dense_hash_mapIS6_S4_SB_NS6_14EqualsComparerINSA_17ArrayClassCompareEEENS0_9allocatorIS8_EEE9SelectKeyESF_SH_E13set_empty_keyERKS8_
Dhb:__ZN12ScriptMapperD2Ev
aZc:_KeyedHashAlgorithm_Dispose_m1864300576
mrh:_X509Certificate_PEM_m49854707
Fof:_X509BasicConstraintsExtension__ctor_m3320418592
wqh:_ExtendedKeyUsageExtension_Decode_m901297139
Dic:__Z52Register_UnityEngine_RenderTexture_Internal_GetWidthv
vAi:_GC_check_leaked
Vfb:__ZN9ShaderLab20SerializedSubProgram16TextureParameter8TransferI19StreamedBinaryWriteILb0EEEEvRT_
h3d:_Array_InternalArray__Insert_TisVector4_t2243707581_m1643342708_gshared
zwa:__ZNK7Hash12812PackToUInt32Ev
Y2:__ZNSt3__227__insertion_sort_incompleteIRNS_6__lessI14ObjectLoadDataS2_EEPS2_EEbT0_S6_T_
tU:__ZN11UnityEngine15CloudWebService16SessionContainer8AddEventEPNS0_14CloudEventInfoE
$ra:__Z4TrimRKN4core12basic_stringIcNS_20StringStorageDefaultIcEEEES5_
lCg:_Text_set_resizeTextMaxSize_m4034967714
tKi:__ZL55GuidAttribute_t222072359_CustomAttributesCacheGeneratorP21CustomAttributesCache
ITf:_CustomAttributeNamedArgument_Equals_m2691468532
P$a:__ZN10VertexData8TransferI14SafeBinaryReadEEvRT_
VI:__ZN4FMOD8ChannelI8setDelayE14FMOD_DELAYTYPEjj
aGd:_Stack__ctor_m2410583781
pBi:_GC_malloc_atomic
gTf:_Default_GetBetterMethod_m4255740863
KUf:_ConstructorBuilder_GetILGenerator_m1731893569
ypi:__ZNSt3__214__split_bufferIN6il2cpp2vm5Image20EmbeddedResourceDataERNS_9allocatorIS4_EEED2Ev
i$:__ZL20SortItemByInstanceIDRKN18AwakeFromLoadQueue4ItemES2_
OZf:_TypeBuilder_create_runtime_class_m2719530260
w$c:_RNGCryptoServiceProvider_RngClose_m2921734810
jy:__ZNK34AnimationStateMachineMixerPlayable26GetInterruptedPosePlayableEv
lUc:__ZN20UnityConnectSettings8TransferI24GenerateTypeTreeTransferEEvRT_
CA:__ZN34BlobWriteTransferSTLStyleArrayImplI22OffsetPtrArrayTransferIbEEclERS1_17TransferMetaFlagsR9BlobWrite
mae:_SimpleCollator_IsHalfKana_m4255579023
gSe:_Collection_1_System_Collections_IList_Contains_m3365884450_gshared
HAa:__Z16FlaggedAsSkippedIN4core12basic_stringIcNS0_20StringStorageDefaultIcEEEEEbRK13FileEntryInfoRKT_19FileEnumerationFlag
S4:__ZL31InitializeRendererUpdateManagerPv
kdg:__Z106RuntimeInvoker_RuntimeObject_Int16_t4041245914_RuntimeObject_BooleanU26_t3168250738_BooleanU26_t3168250738PFvvEPK10MethodInfoPvPS4_
Rdf:_ClientSessionInfo_Dispose_m2571428025
psd:_LayoutGroup_DelayedSetDirty_m4276695617
bhf:_RecordProtocol_decryptRecordFragment_m2510859489
qGh:_InvokableCall_1__ctor_m975753341_gshared
y5a:__ZN11TimeManager8TransferI19StreamedBinaryWriteILb0EEEEvRT_
Hue:_DelegatePInvokeWrapper_ReadDelegate_t3184826381
OEc:_compare_uni_maps
aSc:__ZN11UnityEngine15PlatformWrapper27GetGraphicsCapsSupportFlagsEv
XPd:_Decimal_Equals_m1115043331
cwb:__ZN12NativeBufferI16Converter_StringE15SetupForWritingER9ArrayInfo
owj:___cxa_end_catch__wrapper
iJg:_ValueCollection_System_Collections_Generic_ICollectionU3CTValueU3E_Clear_m231380274_gshared
qbd:_Entry__ctor_m1176697586
kDb:__ZN13MonoBehaviour22DoScriptRebuildWarningEv
Idc:__Z38Camera_CUSTOM_INTERNAL_CALL_RaycastTryP12Il2CppObjectRK3Rayfi
uCg:_Text_get_verticalOverflow_m3134063496
Qji:__ZN6il2cpp6icalls8mscorlib6System5Array13ClearInternalEP11Il2CppArrayii
k5b:__ZZL23RegisterLightPropertiesR22GenericPropertyBindingEN22Wrapper_LightSpotAngle13GetFloatValueEPv
b6g:_GCHandle_get_Target_m2327042781
Hoc:__ZN8JSONRead21TransferSTLStyleArrayI13dynamic_arrayI11KeyframeTplIfELj4EEEEvRT_17TransferMetaFlags
ksj:_llvm_cttz_i32
_of:_PublicKey_DecodeDSA_m1169363495
fmc:__ZN11IMGUIModule25GetGUIStyleScriptingClassEv
GHc:_tt_get_interface
s5d:_Array_Sort_TisRuntimeObject_m143182644_gshared
zki:__ZN6il2cpp5utils9PathUtils7CombineIcEENSt3__212basic_stringIT_NS3_11char_traitsIS5_EENS3_9allocatorIS5_EEEERKSA_SC_
llf:_NameObjectCollectionBase_BaseGet_m667273025
eag:__Z104RuntimeInvoker_RuntimeObject_Byte_t3683104436_RuntimeObject_SByte_t454417549_RuntimeObject_RuntimeObjectPFvvEPK10MethodInfoPvPS4_
Mrc:__ZN9JSONWrite8TransferI13dynamic_arrayIiLj4EEEEvRT_PKc17TransferMetaFlags
d7b:__ZN13PlayableGraph21InvalidateMultithreadEv
m_:__Z18ConvertUTF16toUTF8PPKtS0_PPhS2_15ConversionFlags
xFh:_GUIStyleState__ctor_m3673085649
hNf:_TypeLoadException__ctor_m1903359728
iWh:__ZL16my_g_bit_nth_msfj
$Xc:_KeySizes__ctor_m3526899007
dne:_Int16_System_IConvertible_ToInt32_m191782913_AdjustorThunk
A6i:__ZL69ArgumentCache_t4810721_CustomAttributesCacheGenerator_m_FloatArgumentP21CustomAttributesCache
hFf:_EncoderReplacementFallback__ctor_m2208438262
xLb:__Z23SetupStereoFlareElementP11FlareVertexRK8Vector2fS3_S3_RK11ColorRGBA32RK10Matrix4x4fRK8Vector3fb
sa:invoke_iiiifiiii
exh:_RectTransform_set_anchoredPosition_m4223859262
Kwh:_RectOffset_get_right_m494096402
Tse:_Directory_GetFiles_m4036267478
pSd:_Enum_System_IConvertible_ToType_m2669300536
Doa:__ZL19BlitFramebufferImplRN4gles23BlitFramebufferDrawQuadER9GfxDevice9TextureIDRK8Vector4f
Ubi:__ZN15dense_hashtableINSt3__24pairIK10KeyWrapperIPK10Il2CppTypeEjEES6_N6il2cpp8metadata14Il2CppTypeHashEN14dense_hash_mapIS6_jSB_NS6_14EqualsComparerINSA_26Il2CppTypeEqualityComparerEEENS0_9allocatorIS8_EEE9SelectKeyESF_SH_E4findERS7_
lzh:_StackTraceUtility_ExtractStringFromExceptionInternal_m234524721
Y$e:_ReadOnlyCollection_1_System_Collections_IList_Add_m2333231354_gshared
vyc:_UNITY_FT_List_Add
hZf:_OpCodes__cctor_m939885911
g3b:__ZN14Texture2DArray11InitTextureEiii13TextureFormatb
Ghf:_RSASslSignatureDeformatter_SetHashAlgorithm_m4048969080
Ugh:_UriParser_InitializeAndValidate_m251943319
J1c:_SymmetricAlgorithm_set_Padding_m3081984460
Ylj:_AudioSource_get_clip_m2622010175
h5a:__ZN9InputAxis8TransferI18StreamedBinaryReadILb0EEEEvRT_
CPb:__ZNK6Camera26GetStereoSingleCullEnabledEv
dCf:_StreamingContext_t1417235061_marshal_pinvoke_back
A8a:__Z14resize_trimmedINSt3__26vectorIN4core12basic_stringIcNS2_20StringStorageDefaultIcEEEE13stl_allocatorIS6_L18MemLabelIdentifier13ELi16EEEEEvRT_j
mAd:_ArrayList_RemoveAt_m2578928333
snb:__Z18Transfer_BlittableI14SafeBinaryReadLb0EaEvRK29SerializationCommandArgumentsR31RuntimeSerializationCommandInfo
OGh:_InvokableCall_3__ctor_m4270240248_gshared
c$e:_ReadOnlyCollection_1_System_Collections_IList_set_Item_m1233322304_gshared
Dqh:_GeneralNames_get_DNSNames_m2721668874
fSd:_Enum_System_IConvertible_ToByte_m38374586
M_e:_ReadOnlyCollection_1_System_Collections_Generic_IListU3CTU3E_RemoveAt_m1592158292_gshared
Avj:_emscripten_glFrustum__wrapper
thf:_ReceiveRecordAsyncResult_get_CompletedWithError_m2670396551
IPd:_Decimal_Equals_m1798565377
bfb:__ZN15SerializeTraitsINSt3__26vectorIN9ShaderLab20SerializedSubProgram15MatrixParameterENS0_9allocatorIS4_EEEEE8TransferI24GenerateTypeTreeTransferEEvRS7_RT_
WVf:_TypeBuilder_check_created_m2929267877
Xdg:__Z121RuntimeInvoker_Int64_t909078037_Int32_t2071877448_Int32_t2071877448_Int32_t2071877448_Int32_t2071877448_Int32_t2071877448PFvvEPK10MethodInfoPvPS4_
JJb:__Z20SyncFenceCullResultsR11CullResults
Pqa:__ZN15TextureTFMethod20IsBoneCountSupportedEi
qPa:__ZN14RenderSettings23VirtualRedirectTransferER24GenerateTypeTreeTransfer
oMd:_DateTime_System_IConvertible_ToSByte_m2575078084_AdjustorThunk
Mrb:__Z22TransferField_NonArrayI17RemapPPtrTransfer27Converter_SimpleNativeClassI8GUIStyleEEvRK23StaticTransferFieldInfoR31RuntimeSerializationCommandInfoRT0_
Q1b:__ZNK17AnimationCurveTplIfE20EvaluateWithoutCacheEfRf
mvi:__ZN6il2cpp2os6Thread12QueueUserAPCEPFvPvES2_
HPa:__ZN19ShaderPropertySheet10SetTextureERK23FastTexturePropertyNameP7Texture
QUe:_Collection_1_IsValidItem_m1304951912_gshared
V8b:__ZN4Mesh10SetNormalsEPK8Vector3fj
CId:_Convert_ToDateTime_m4161927553
aWf:_TypeBuilder_GetConstructors_m774120094
rr:__ZN17AnimationCurveTplIfE8TransferI14SafeBinaryReadEEvRT_
DMd:_Calendar_get_EraNames_m452820602
o_a:__ZNSt3__26vectorIN15QualitySettings14QualitySettingENS_9allocatorIS2_EEE6assignIPS2_EENS_9enable_ifIXaasr21__is_forward_iteratorIT_EE5valuesr16is_constructibleIS2_NS_15iterator_traitsIS9_E9referenceEEE5valueEvE4typeES9_S9_
mKb:__ZNK19ShaderPropertySheet11HasPropertyERKN9ShaderLab16FastPropertyNameE
$Ld:_DateTime_System_IConvertible_ToByte_m2670443498_AdjustorThunk
L7e:_BigInteger_op_Addition_m1734797151
D0a:__ZN15dense_hashtableINSt3__24pairIKN4core12basic_stringIcNS2_20StringStorageDefaultIcEEEE13dynamic_arrayI4PPtrI6SpriteELj4EEEES6_20StringHash32FunctionIS6_EN14dense_hash_mapIS6_SC_SF_NS0_8equal_toIS6_EE13stl_allocatorISD_L18MemLabelIdentifier81ELi16EEE9SelectKeyESI_SL_E4findERS7_
vWf:_EnumBuilder_CreateNotSupportedException_m62763134
XVc:__ZNK12HeaderHelper3GetERKN4core12basic_stringIcNS0_20StringStorageDefaultIcEEEE
iqf:_X509Chain_CheckRevocation_m2480313486
Jye:_Math_Log_m3371716878
_4a:__ZN9InputAxis8TransferI14SafeBinaryReadEEvRT_
x$:__ZNK21ExecutionOrderManager30GetCustomAwakeFromLoadQueueForEPKN5Unity4TypeE
xVc:__Z27RegisterModule_UnityConnectv
SDd:_Hashtable__ctor_m4280223555
K1f:_ParameterInfo_get_IsRetval_m1881464570
lyf:_RealProxy__ctor_m3041043303
aoe:_NumberFormatter_Init_m2654758994
kZc:_HMACSHA1__ctor_m1168389339
nK:__ZN10ObjectPoolIN4FMOD12ChannelGroupENS0_13ChannelGroupIEE7SetSizeEi
fde:_PrimalityTest_BeginInvoke_m966469054
pih:_Bounds_get_max_m1939845278_AdjustorThunk
$1e:_ReadOnlyCollection_1_System_Collections_Generic_ICollectionU3CTU3E_Clear_m1785953911_gshared
dQf:_UInt64_System_IConvertible_ToInt16_m2797150165_AdjustorThunk
h8d:_Array_InternalArray__get_Item_TisLabelData_t3712112744_m863115768_gshared
Qpe:_Int32_Parse_m753946802
Vlj:_AudioConfigurationChangeHandler_Invoke_m653824108
POe:_List_1_RemoveAt_m2331128844_gshared
Rgi:__ZN14dense_hash_mapI10KeyWrapperINSt3__24pairIPK9EventInfoP11Il2CppClassEEEj17ReflectionMapHashIS8_ENS9_14EqualsComparerINS1_8equal_toIS8_EEEENS1_9allocatorINS2_IKS9_jEEEEE15set_deleted_keyERSH_
k_f:_UnmanagedMarshal_ToMarshalAsAttribute_m3695569337
cpb:__Z14resize_trimmedINSt3__26vectorI17AnimationCurveTplIfE13stl_allocatorIS3_L18MemLabelIdentifier1ELi16EEEEEvRT_j
gVb:__ZN25CameraStackRenderingState19SetupLastEyeCamerasERK11CameraStack
ICa:__Z12GUIDToStringRK9UnityGUID
nG:__ZN11SoundHandleC2ERKS_
$w:__ZN17AnimationPlayableC2E18DirectorPlayerType
K1h:__ZNK6il2cpp5utils11collections13ArrayValueMapIPK10Il2CppType17Il2CppInteropData26InteropDataToTypeConverterNS_8metadata14Il2CppTypeLessENS8_26Il2CppTypeEqualityComparerEE10find_firstERKS5_
ILa:__ZN15SerializeTraitsI12fixed_bitsetILi24EjEE8TransferI18StreamedBinaryReadILb0EEEEvRS1_RT_
Mce:_BigInteger_op_Addition_m1196561843
sVh:_CanvasRenderer_INTERNAL_CALL_GetColor_m3192682614
C8g:_FormatterData__ctor_m3974986124
I_c:_RijndaelManagedTransform_get_CanReuseTransform_m3735256596
r1i:__ZL97GameObject_t1756533147_CustomAttributesCacheGenerator_GameObject_GetComponentInParent_m1178052983P21CustomAttributesCache
oDd:_Comparer__cctor_m1327316974
Ose:_MonoIO_ExistsFile_m1421941572
NNd:_DateTime_op_GreaterThanOrEqual_m3818963848
av:__ZN17AnimationPlayable18DeallocateBindingsEv
PWb:__ZN6Camera25StandaloneRenderToCubemapEP7TextureiPFvPK9SceneNodePK4AABBR9IndexListPvESA_j
Iid:_DefaultControls_SetDefaultTextValues_m1707718380
Jed:_TouchInputModule_UseFakeInput_m2112019004
Iad:_EventSystem_get_baseEventDataCache_m4294741599
vPa:__ZN14RenderSettings18TransferDeprecatedI14SafeBinaryReadEEvRT_
zX:__ZN12TLSAllocatorI14StackAllocatorE8AllocateEji
x0:__ZN16ScriptingManager18GetMonoScriptCacheEi
T5f:__Z62RuntimeInvoker_Void_t1841601450_RuntimeObject_Int64_t909078037PFvvEPK10MethodInfoPvPS4_
ZZh:__ZN15dense_hashtableINSt3__24pairIK10KeyWrapperIPK11Il2CppClassEPKcEES6_N6il2cpp5utils11PointerHashIS3_EEN14dense_hash_mapIS6_S9_SE_NS6_14EqualsComparerINS0_8equal_toIS5_EEEENS0_9allocatorISA_EEE9SelectKeyESJ_SL_E15set_deleted_keyERKSA_
Pmd:_GridLayoutGroup_CalculateLayoutInputHorizontal_m2355123124
znb:__Z18Transfer_BlittableI14SafeBinaryReadLb1EyEvRK29SerializationCommandArgumentsR31RuntimeSerializationCommandInfo
Ioc:__ZN8JSONRead8TransferIfEEvRT_PKc17TransferMetaFlagsb
eSg:_U3CGetEnumeratorU3Ec__Iterator0_Reset_m2980566576_gshared
Xqj:__ZNSt3__212basic_stringIcNS_11char_traitsIcEENS_9allocatorIcEEE6appendEPKcj
KNi:__ZL54TypeBuilder_t3308873219_CustomAttributesCacheGeneratorP21CustomAttributesCache
vla:__ZN6prcoreL17RemapGenericFloatI18TexFormatARGBFloat17TexFormatRGBAHalfEEvPKNS_9InnerInfoE
DVe:_Collection_1_CheckWritable_m691269733_gshared
LL:__ZN11AudioSource21ApplyCachedParametersE12SoundChannel
ZWf:_GenericTypeParameterBuilder_GetAttributeFlagsImpl_m3338182267
DQ:__ZN13Simd4iFactoryIN6detail9FourTupleEEC2Eiiii
exe:_SynchronizedReader__ctor_m1408327515
Ith:_X509Store_LoadCrl_m1146720614
T3e:_ReadOnlyCollection_1_System_Collections_IList_Clear_m1858417639_gshared
HHh:_UnityAction_3_Invoke_m1025098032_gshared
bYa:__ZN15SerializeTraitsI33EnlightenTerrainChunksInformationE8TransferI14SafeBinaryReadEEvRS0_RT_
V3b:__ZNK32RendererMaterialAnimationBinding9BindValueER6ObjectRKN11UnityEngine9Animation14GenericBindingERNS3_10BoundCurveE
CUa:__Z13GetIAnimationv
Eja:__ZL18stbir__support_onef
DIe:_List_1_System_Collections_IList_Remove_m2040310137_gshared
tih:_Bounds_SetMinMax_m2094075031_AdjustorThunk
tqc:__Z26Transfer_UnityEngineObjectI9JSONWriteLb0EEvRK29SerializationCommandArgumentsR31RuntimeSerializationCommandInfo
YSa:__ZNSt3__26vectorIN4core12basic_stringIcNS1_20StringStorageDefaultIcEEEE13stl_allocatorIS5_L18MemLabelIdentifier1ELi16EEE6assignINS_11__wrap_iterIPS5_EEEENS_9enable_ifIXaasr21__is_forward_iteratorIT_EE5valuesr16is_constructibleIS5_NS_15iterator_traitsISF_E9referenceEEE5valueEvE4typeESF_SF_
kPf:_UInt32_System_IConvertible_ToInt16_m2251335934_AdjustorThunk
HMc:__ZNSt3__27__sort5IRNS_6__lessIN2UI14DepthSortEntryES3_EEPS3_EEjT0_S7_S7_S7_S7_T_
Nvd:_Boolean_System_IConvertible_ToType_m3990189691
Omj:_LetStart_SelectScene_m3484372922
Ba:invoke_vdd
y8:__ZN14dense_hash_mapIN4core12basic_stringIcNS0_20StringStorageDefaultIcEEEE13dynamic_arrayI4PPtrI6SpriteELj4EE20StringHash32FunctionIS4_ENSt3__28equal_toIS4_EE13stl_allocatorINSC_4pairIKS4_S9_EEL18MemLabelIdentifier81ELi16EEE15set_deleted_keyERSH_
FRd:_Double_System_IConvertible_ToUInt32_m624993430
gKc:__ZZ29InitializeTextRenderingModulevEN27cleanupAfterLoadRegistrator7ForwardEv
PKf:_Scheduler_Add_m376749205
zw:__ZN27AnimationLayerMixerPlayable24ProcessAnimationLayerMixEP33AnimationPlayableEvaluationOutputP35AnimationPlayableEvaluationConstantP32AnimationPlayableEvaluationInputS1_if
TUb:__Z29PluginsIssueRenderingExtEvent26UnityRenderingExtEventTypePv
D3h:_WebRequestUtils_RedirectTo_m675215376
W2b:__Z14RandomRotationP9Texture2DPhiiii
vae:_SimpleCollator_IsIgnorable_m2485013022
qMe:_List_1_System_Collections_IList_Insert_m2036969360_gshared
pqd:_InputField_GetUnclampedCharacterLineFromPosition_m1912794077
jOd:_DateTimeOffset_ToString_m2121173678_AdjustorThunk
Ldg:__Z74RuntimeInvoker_RuntimeObject_RuntimeObject_Int16_t4041245914_RuntimeObjectPFvvEPK10MethodInfoPvPS4_
gj:_JS_WebRequest_SetResponseHandler
BBj:_glDeleteProgram__wrapper
Pdc:__Z50Register_UnityEngine_Camera_INTERNAL_get_pixelRectv
Nka:__ZN6prcoreL18BlitFloatToIntegerERK14ImageReferenceRS0_
Fie:_X509CertificateCollection_get_Item_m410866272
OT:__ZN11UnityEngine15CloudWebService14RestDownloader17OnCompleteContentEv
hnd:_LayoutGroup_SetChildAlongAxis_m1615929339
Pdg:__Z75RuntimeInvoker_RuntimeObject_RuntimeObject_Double_t4078015681_RuntimeObjectPFvvEPK10MethodInfoPvPS4_
bdg:__Z200RuntimeInvoker_Boolean_t3825574718_RuntimeObject_RuntimeObject_RuntimeObject_Int32_t2071877448_DateTimeU26_t3448131235_SByte_t454417549_BooleanU26_t3168250738_SByte_t454417549_ExceptionU26_t1467204777PFvvEPK10MethodInfoPvPS4_
Qa:invoke_viffi
vy:__ZN17AnimationPlayable28UpdateInternalStateRecursiveILi1ELb0EEEvPK35AnimationPlayableEvaluationConstant
iri:__ZN6il2cpp2gcL10CleanupCCWEPvS1_
Ta:invoke_vifff
egc:__Z53Register_UnityEngine_Input_INTERNAL_get_mousePositionv
nAj:_glGetVertexAttribiv__wrapper
Ne:_emscripten_request_fullscreen
gEb:__ZN20LocalFileSystemWebGL6DeleteER13FileEntryDatab
uPd:_Decimal_System_IConvertible_ToUInt16_m1621568250
Pe:_emscripten_glDisableVertexAttribArray
Sm:FUNCTION_TABLE_iiiifiiii
JLf:_TimeSpan_get_TotalMinutes_m1645177229_AdjustorThunk
ic:invoke_fifffi
hha:__ZN4gles23ClearCurrentFramebufferEP7ApiGLESbbbRK10ColorRGBAffi
Vw:__ZN7mecanim12statemachine20CreateStateWorkspaceEjjjRNS_6memory9AllocatorE
uUg:_InternalEnumerator_1_System_Collections_IEnumerator_get_Current_m3680087284_gshared
_e:_emscripten_glDeleteObjectARB
Vf:_IMG_Load
Wxe:_UnexceptionalStreamReader_Read_m3839775235
inh:_Input_get_compositionCursorPos_m1028058884
bma:__ZN6prcoreL27StretchGenericFloatBilinearI18TexFormatARGBFloatEEvPKNS_9InnerInfoE
Eic:__Z53Register_UnityEngine_RenderTexture_Internal_GetHeightv
$8d:_Dropdown_GetOrAddComponent_TisRuntimeObject_m2875934266_gshared
Ola:__ZN6prcoreL17RemapGenericFloatI17TexFormatRGBAHalf18TexFormatARGBFloatEEvPKNS_9InnerInfoE
lSd:_Enum_System_IConvertible_ToInt32_m2459904362
Sdg:__Z61RuntimeInvoker_RuntimeObject_Double_t4078015681_RuntimeObjectPFvvEPK10MethodInfoPvPS4_
lbg:__Z211RuntimeInvoker_Int32_t2071877448_RuntimeObject_Int32_t2071877448_Int32_t2071877448_Int32_t2071877448_Int32_t2071877448_RuntimeObject_DecoderFallbackBufferU26_t3597875002_ByteU5BU5DU26_t790777611_SByte_t454417549PFvvEPK10MethodInfoPvPS4_
Xlc:__Z14GetBuiltinSkini
Kaf:_ContentInfo__ctor_m3871771681
E9c:_BaseInput_set_compositionCursorPos_m2632248731
ZMh:_Enumerator_System_Collections_IEnumerator_Reset_m2573763156_gshared
nqg:__Z74RuntimeInvoker_Void_t1841601450_Int32_t2071877448_MonoResource_t3127387157PFvvEPK10MethodInfoPvPS4_
Cse:_DirectoryInfo_Initialize_m2216118894
l4c:_WindowsIdentity_Dispose_m2649088337
oib:__ZN2UI13RectTransform23VirtualRedirectTransferER14SafeBinaryRead
Aeb:__ZNSt3__26vectorIN9ShaderLab20SerializedSubProgramENS_9allocatorIS2_EEE6assignIPS2_EENS_9enable_ifIXaasr21__is_forward_iteratorIT_EE5valuesr16is_constructibleIS2_NS_15iterator_traitsIS9_E9referenceEEE5valueEvE4typeES9_S9_
Fsc:__Z18Transfer_BlittableI8JSONReadLb0E8BitFieldEvRK29SerializationCommandArgumentsR31RuntimeSerializationCommandInfo
tzf:_SoapServices_RegisterInteropXmlType_m2949236705
Ruh:_Quaternion_op_Multiply_m261788240
wxb:__ZL17Transfer_GUIStyleI18StreamedBinaryReadILb1EELb0EEvRK29SerializationCommandArgumentsR31RuntimeSerializationCommandInfo
p8c:_String_CharCopy_m2550399897
Deg:__Z234RuntimeInvoker_RuntimeObject_Int16_t4041245914_RuntimeObject_Int32_t2071877448_Int32_t2071877448_Int32_t2071877448_SByte_t454417549_SByte_t454417549_SByte_t454417549_SByte_t454417549_Int16_t4041245914_SByte_t454417549_SByte_t454417549PFvvEPK10MethodInfoPvPS4_
Gcb:__ZN9ShaderLab14SerializedPass8TransferI14SafeBinaryReadEEvRT_
Pmc:__Z71Register_UnityEngine_GUILayoutUtility_INTERNAL_CALL_Internal_MoveWindowv
sO:__ZN12AudioManager16SetListenerPauseEb
x8a:__ZNSt3__26vectorIN30RuntimeInitializeOnLoadManager9ClassInfoE13stl_allocatorIS2_L18MemLabelIdentifier13ELi16EEE6assignINS_11__wrap_iterIPS2_EEEENS_9enable_ifIXaasr21__is_forward_iteratorIT_EE5valuesr16is_constructibleIS2_NS_15iterator_traitsISC_E9referenceEEE5valueEvE4typeESC_SC_
zli:__ZN6il2cpp2vm9Exception25RaiseOutOfMemoryExceptionERKNS_5utils10StringViewIDsEE
dUe:_Collection_1_IsValidItem_m2254106115_gshared
jWf:_TypeBuilder_GetEvent_m3876348075
BBg:_Slider_OnMove_m641164662
da:invoke_viiiiiiiiiii
xnj:___syscall_ret
SKf:_Scheduler__ctor_m3716265742
Kfe:_MACAlgorithm_Final_m4076939925
i9h:__ZNSt3__212basic_stringIcNS_11char_traitsIcEENS_9allocatorIcEEE6assignINS_11__wrap_iterIPKcEEEENS_9enable_ifIXaasr21__is_forward_iteratorIT_EE5valuesr38__libcpp_string_gets_noexcept_iteratorISC_EE5valueERS5_E4typeESC_SC_
t0a:__ZN11ChannelInfo8TransferI19StreamedBinaryWriteILb0EEEEvRT_
aUg:_InternalEnumerator_1_System_Collections_IEnumerator_get_Current_m3583252352_gshared
dqh:_Object_op_Implicit_m1757773010
MVf:_EnumBuilder_get_FullName_m2818393911
R7e:_BigInteger_op_RightShift_m852685747
Yec:__Z34Register_UnityEngine_Gradient_Initv
fad:_BaseInputModule_GetAxisEventData_m3903709281
y8d:_Array_InternalArray__get_Item_TisUriScheme_t1876590943_m1821482697_gshared
O6e:_BigInteger__ctor_m3239748086
o$a:__ZN13ScreenManager23SetIsOrientationEnabledE18EnabledOrientationb
Cyh:_HitInfo_SendMessage_m3395411273
Fw:__ZN7mecanim5human25HumanPoseAddOverrideLayerERNS0_9HumanPoseERKS1_fRKNS_6bitsetILj70EEE
K1b:__ZN13ProduceHelperI9TransformLb0EE7ProduceE18MemLabelIdentifier18ObjectCreationMode
T0d:_Array_InternalArray__ICollection_Add_TisHitInfo_t1761367055_m2956071622_gshared
LDa:__ZN10GameObject23VirtualRedirectTransferER18StreamedBinaryReadILb0EE
qg:_glFrontFace
qBf:_ObjectRecord_get_IsUnsolvedObjectReference_m2202692850
Lsf:_FactoryCache_Cleanup_m4130035987
Axh:_Vector2_op_Addition_m4229571528
J0b:__ZN13ProduceHelperI19LowerResBlitTextureLb0EE7ProduceE18MemLabelIdentifier18ObjectCreationMode
nRb:__ZNSt3__26vectorI16ShadowCasterData13stl_allocatorIS1_L18MemLabelIdentifier2ELi16EEE21__push_back_slow_pathIKS1_EEvRT_
OPf:_UInt32_ToString_m1783596809
kyj:_glUniform1i__wrapper
PKc:__Z51Register_UnityEngine_TextGenerator_GetLinesInternalv
sNh:_HashSet_1_Init_m1258286688_gshared
cth:_X509ExtensionCollection_get_Item_m4212651995
c0e:_ReadOnlyCollection_1_System_Collections_IList_RemoveAt_m525136953_gshared
dla:__ZN6prcoreL17RemapGenericFloatI17TexFormatRGBFloat18TexFormatRGBAFloatEEvPKNS_9InnerInfoE
TPf:_UInt64_System_IConvertible_ToBoolean_m3012279573_AdjustorThunk
INf:_Type_get_IsGenericTypeDefinition_m2147901038
pVc:__ZN20UnityConnectSettings10InitializeEv
mke:_GregorianCalendar__ctor_m3794576475
JPf:_UInt32_TryParse_m4283512434
gAh:_TrackedReference_GetHashCode_m1278837032
eG:__ZN9AudioClip11CreateSoundEv
EFg:_ShimEnumerator_MoveNext_m3313047792_gshared
oMf:_TimeSpan_op_Inequality_m257547441
dhi:__ZN14dense_hash_mapI10KeyWrapperINSt3__24pairIPK9FieldInfoP11Il2CppClassEEEj17ReflectionMapHashIS8_ENS9_14EqualsComparerINS1_8equal_toIS8_EEEENS1_9allocatorINS2_IKS9_jEEEEEC2EjRKSB_RKSF_
Fci:__ZNK15dense_hashtableINSt3__24pairIK10KeyWrapperINS1_IPK10MethodInfoP11Il2CppClassEEEjEES9_17ReflectionMapHashIS8_EN14dense_hash_mapIS9_jSD_NS9_14EqualsComparerINS0_8equal_toIS8_EEEENS0_9allocatorISB_EEE9SelectKeyESI_SK_E13find_positionERSA_
Fda:__ZN13GfxDeviceGLES20CreateComputeProgramEPKhj
uId:_DateTimeFormatInfo_get_RoundtripPattern_m562440017
KUc:__ZN11UnityEngine7Connect16PersistentValues13RestoreValuesER8JSONRead
bBa:__ZN20ArchiveStorageReader31TryToReadDirectoryFromBlockDataEyPKvj
kRd:_Double_System_IConvertible_ToByte_m3004284950_AdjustorThunk
Pni:__ZN6il2cpp2vmL11GetIdentityEP14Il2CppIUnknown
jfe:_SmallXmlParser_ReadCDATASection_m2558307107
eAi:_GC_push_gc_structures
Ulf:_ServicePointManager_get_ServerCertificateValidationCallback_m1409951209
K5h:__ZN6il2cpp6icalls8mscorlib6SystemL8IsPublicEPK9EventInfo
WFd:_Enumerator_get_Current_m1271212567
qxi:__ZThn4_N6il2cpp2vm13ComObjectBase18ReleaseMarshalDataEP13Il2CppIStream
Emf:_IPAddress_ParseIPV6_m2209709575
fyg:_U3CClickRepeatU3Ec__Iterator0_MoveNext_m1747924386
O5e:_Comparison_1_Invoke_m1670081898_gshared
WCg:_Toggle_set_group_m3833595685
Jsd:_LayoutRebuilder_ForceRebuildLayoutImmediate_m566681977
M0a:__ZNSt3__213__stable_sortIRNS_4lessI4PPtrI11SpriteAtlasEEENS_11__wrap_iterIPS4_EEEEvT0_SA_T_NS_15iterator_traitsISA_E15difference_typeEPNSD_10value_typeEi
$0d:_Array_InternalArray__ICollection_Add_TisVector4_t2243707581_m698578249_gshared
Iuh:_PropertyName_ToString_m1129982609_AdjustorThunk
pY:__ZN8keywords6CreateEPKc
S:Math_imul
C_a:__ZN11PlayerPrefs6GetIntERKN4core12basic_stringIcNS0_20StringStorageDefaultIcEEEEi
v0h:__ZN6il2cpp5utils13dynamic_arrayIPK10Il2CppTypeLj4EEC2ERKS5_
xKc:__Z45TextGenerator_CUSTOM_INTERNAL_get_rectExtentsP12Il2CppObjectP5RectTIfE
bYd:_SetPropertyUtility_SetStruct_TisChar_t3454481338_m2333420724_gshared
gUe:_Collection_1_IsSynchronized_m2601980439_gshared
rEd:_Hashtable_ContainsKey_m2716576664
Hbh:_PatternCompiler_EmitCategory_m1696942454
FPd:_Decimal_decimalFloorAndTrunc_m3655683429
t1d:_Array_InternalArray__ICollection_CopyTo_TisInt32_t2071877448_m984622488_gshared
b_:__ZN18ScriptingArguments9AddObjectE18ScriptingObjectPtr
OOc:__Z39CanvasGroup_Get_Custom_PropInteractableP12Il2CppObject
_Q:__ZN11UnityEngine15CloudWebService16SessionContainerD2Ev
VUc:__ZL38InitializeUnityConnectScriptingClassesv
CVb:__ZN13ProbeRenderer8ConvolveEbijjb
xha:__ZN17GenericDynamicVBOC2ER9GfxDevice13GfxBufferModejj
a9g:_Context_get_HasDynamicSinks_m1998518649
Ykc:__ZZN10GUIManager14InitGUIManagerEvEN41PreUpdateIMGUISendQueuedEventsRegistrator7ForwardEv
jHh:_UnityAction_1_Invoke_m2903588655_gshared
rS:__ZN11UnityEngine15CloudWebService17SessionEventQueue10PurgeItemsEj
hWb:__ZN6Camera16StandaloneRenderENS_10RenderFlagEP6ShaderRKN4core12basic_stringIcNS3_20StringStorageDefaultIcEEEE
btd:_Array_System_Collections_IList_get_Item_m2088124007
vtd:_Array_GetLength_m2083296647
kHh:_UnityAction_1_BeginInvoke_m53286204_gshared
bCd:_SynchronizedArrayListWrapper_ToArray_m1522185111
Qwb:__Z18Transfer_BlittableI18StreamedBinaryReadILb1EELb1EtEvRK29SerializationCommandArgumentsR31RuntimeSerializationCommandInfo
Oba:__ZN9GfxDevice20DeallocRenderSurfaceEP17RenderSurfaceBase
kRf:_ValueType_ToString_m3796301715
wna:__ZN20GpuProgramParameters36UpdatePrepareValuesMaximumBufferSizeEv
wgc:__Z53Register_UnityEngine_Quaternion_INTERNAL_CALL_Inversev
myh:_Screen_get_height_m3831644396
zFa:__ZN12BaseRenderer23RendererBecameInvisibleEv
Mwc:__ZN20TextRenderingPrivate8FontImpl13CharacterInfo8TransferI18StreamedBinaryReadILb0EEEEvRT_
dub:__Z29Transfer_Blittable_ArrayFieldI24GenerateTypeTreeTransferfEvRT_R9ArrayInfoRK23StaticTransferFieldInfo
Y3:__ZNSt3__26__treeINS_12__value_typeIN4core12basic_stringIcNS2_20StringStorageDefaultIcEEEES6_EENS_19__map_value_compareIS6_S7_NS_4lessIS6_EELb1EEE13stl_allocatorIS7_L18MemLabelIdentifier13ELi16EEE7destroyEPNS_11__tree_nodeIS7_PvEE
n6f:__Z76RuntimeInvoker_RuntimeObject_RuntimeObject_SByte_t454417549_SByte_t454417549PFvvEPK10MethodInfoPvPS4_
wXb:__ZN19CustomRenderTexture9AddParentE4PPtrIS_E
qZa:__ZN8Gradient8TransferI14SafeBinaryReadEEvRT_
BIh:_UnityEvent_1_Invoke_m1533100983_gshared
XSa:__ZNSt3__26vectorIN4core12basic_stringIcNS1_20StringStorageDefaultIcEEEE13stl_allocatorIS5_L18MemLabelIdentifier1ELi16EEE7reserveEj
Ylf:_FileWebRequest__ctor_m4003648606
Fij:__ZL71SpriteState_t1353336012_CustomAttributesCacheGenerator_m_DisabledSpriteP21CustomAttributesCache
nSd:_Enum_System_IConvertible_ToSByte_m3488526280
A1h:__ZNK15dense_hashtableI10KeyWrapperIPK19Il2CppGenericMethodES4_N6il2cpp8metadata23Il2CppGenericMethodHashEN14dense_hash_setIS4_S7_NS4_14EqualsComparerINS6_26Il2CppGenericMethodCompareEEENSt3__29allocatorIS4_EEE8IdentityESB_SE_E4findERKS4_
skb:__ZNK20LocalFileSystemPosix9IsSymLinkERK13FileEntryData
_yi:_GC_new_free_list_inner
GNg:_DefaultComparer_Equals_m85211180_gshared
dAe:_MonoType_InternalGetEvent_m532443236
bWe:_Collection_1_IndexOf_m2700825189_gshared
UCh:_MathfInternal__cctor_m2774058555
ttc:__ZN8JSONRead8TransferI10RectOffsetEEvRT_PKc17TransferMetaFlagsb
$R:__ZN9JSONWrite8TransferIN11UnityEngine15CloudWebService14DataErrorEvent15FileErrorDetailEEEvRT_PKc17TransferMetaFlags
Q8c:_Decoder__ctor_m2623573910
hJ:__ZN12SoundManager20RegisterModifiedClipEP10SampleClip
EL:__ZN11AudioSource4PlayEd
r$h:__ZN15dense_hashtableI10KeyWrapperIPK17Il2CppGenericInstES4_N6il2cpp8metadata21Il2CppGenericInstHashEN14dense_hash_setIS4_S7_NS4_14EqualsComparerINS6_24Il2CppGenericInstCompareEEENSt3__29allocatorIS4_EEE8IdentityESB_SE_E13set_empty_keyERKS4_
AQg:_EqualityComparer_1_System_Collections_IEqualityComparer_Equals_m3589836321_gshared
vfe:_SmallXmlParser_IsNameChar_m1561000202
Xrh:_X501__cctor_m2610532554
KEg:_Enumerator_VerifyState_m3173176371_gshared
MOe:_List_1_CheckCollection_m2220107869_gshared
jWa:__ZN7Cubemap23VirtualRedirectTransferER18StreamedBinaryReadILb0EE
vdf:_RecordProtocol_EncodeRecord_m3884270352
F0c:_SHA256_Create_m896954069
kIc:_Read_CVT
nLd:_Convert_ToUInt32_m776714429
oBa:__ZN12FileAccessor4SeekEx10FileOrigin
Tsb:__ZL26Transfer_SimpleNativeClassI24GenerateTypeTreeTransfer17AnimationCurveTplIfELb0EEvRK29SerializationCommandArgumentsR31RuntimeSerializationCommandInfo
tuc:__ZN8JSONRead21TransferSTLStyleArrayI13dynamic_arrayI9BoundsIntLj4EEEEvRT_17TransferMetaFlags
lYa:__ZN24GenerateTypeTreeTransfer8TransferI13dynamic_arrayI33EnlightenTerrainChunksInformationLj4EEEEvRT_PKc17TransferMetaFlags
Xtd:_Array_CreateInstance_m3327690220
$4:__ZN16LightmapSettings20DidChangeActiveSceneEP10UnitySceneS1_
Hkj:__ZL59g_AssemblyU2DCSharp_Assembly_CustomAttributesCacheGeneratorP21CustomAttributesCache
Y5h:__ZN6il2cpp5utils9PathUtils8BasenameIcEENSt3__212basic_stringIT_NS3_11char_traitsIS5_EENS3_9allocatorIS5_EEEERKSA_
Bmc:__Z35Register_UnityEngine_Event_get_typev
ige:_PrivateKeyInfo_DecodeRSA_m1427048948
Lli:__ZN6il2cpp2vm9Exception23GetInvalidCastExceptionERKNS_5utils10StringViewIDsEE
oSf:_Assembly_FillName_m1934025015
k7c:_String_IndexOf_m2126171214
ere:_Int64_ToString_m1544341651_AdjustorThunk
wy:__ZN8Animator28BuildControllerPlayableCacheEv
Xle:_Guid_CheckNull_m2903986431
m$:__Z63ThreadAndSerializationSafeCheckGetMonoBehaviourBeingTransferredv
KBi:_GC_enable
qff:_TlsClientCertificateVerify_ProcessAsSsl3_m3377063356
aed:_StandaloneInputModule_set_repeatDelay_m2820945738
TOf:_UInt16_ToString_m4213290405
$fc:__Z37Register_UnityEngine_Input_GetAxisRawv
w7g:_ChannelServices_RegisterChannel_m3832858065
uSd:_Enum_GetName_m1226611481
A6e:_Func_2_Invoke_m4121137703_gshared
qL:__ZN11AudioSource5ResetEv
LLb:__ZN12ImageFilters27SetSurfaceUseResolvedBufferEP13RenderTextureb
$0a:__ZN14Texture2DArray23VirtualRedirectTransferER18StreamedBinaryReadILb0EE
ieh:_Literal_CompileLiteral_m276843152
fib:__ZN2UI13RectTransform13AwakeFromLoadE17AwakeFromLoadMode
MQb:__ZN14qsort_internal30FindAndMovePivotToLastPositionIP20ShadowCasterSortDatai26ShadowCasterSortDataSorterEEvT_S4_T0_T1_
X$h:__ZNK15dense_hashtableI10KeyWrapperIPK19Il2CppGenericMethodES4_N6il2cpp8metadata23Il2CppGenericMethodHashEN14dense_hash_setIS4_S7_NS4_14EqualsComparerINS6_26Il2CppGenericMethodCompareEEENSt3__29allocatorIS4_EEE8IdentityESB_SE_E3endEv
rmb:__Z18Transfer_BlittableI14SafeBinaryReadLb1EiEvRK29SerializationCommandArgumentsR31RuntimeSerializationCommandInfo
Qab:__ZN17PersistentManager13GetAllFileIDsERKN4core12basic_stringIcNS0_20StringStorageDefaultIcEEEER13dynamic_arrayIxLj8EE
vud:_Array_LastIndexOf_m4096535198
cAd:_ArrayList_Add_m1719188324
ARd:_Double_System_IConvertible_ToSByte_m1653690240_AdjustorThunk
Beg:__Z59RuntimeInvoker_RuntimeObject_Byte_t3683104436_RuntimeObjectPFvvEPK10MethodInfoPvPS4_
gih:_Bounds_get_size_m3951110137
Ak:_glGetStringi
Upi:__ZNK15dense_hashtableI10KeyWrapperIP18Il2CppGenericClassES3_N6il2cpp8metadata22Il2CppGenericClassHashEN14dense_hash_setIS3_S6_NS3_14EqualsComparerINS5_25Il2CppGenericClassCompareEEENSt3__29allocatorIS3_EEE8IdentityESA_SD_E10test_emptyERK30dense_hashtable_const_iteratorIS3_S3_S6_SF_SA_SD_E
bVd:_CultureInfo_set_NumberFormat_m1618950525
tqf:_X509Store__ctor_m1573680316
Iqf:_X509Chain_get_CertificateCollection_m324631835
NQg:_EqualityComparer_1__cctor_m1011898363_gshared
$ed:_AnimationTriggers__ctor_m2623627182
J_d:_Array_InternalArray__IndexOf_TisClientCertificateType_t4001384466_m1168139450_gshared
dA:__ZN8Animator9WriteStepEy
NS:__ZN11UnityEngine15CloudWebService20WebRequestRestClient18GetResponseHeadersEv
s7b:__ZN16PropertyAccessorC2Ev
L_a:__ZNSt3__23mapIN4core12basic_stringIcNS1_20StringStorageDefaultIcEEEE9PrefValueNS_4lessIS5_EENS_9allocatorINS_4pairIKS5_S6_EEEEEixERSB_
W6b:__ZN15DirectorManager22ConstructPlayableGraphEv
C1c:_SymmetricAlgorithm_set_IV_m4262655606
WBg:_StencilMaterial__cctor_m2963056855
RTf:_CustomAttributeNamedArgument_GetHashCode_m3715408876_AdjustorThunk
EKc:__Z38Register_UnityEngine_Font_HasCharacterv
Npf:_X509Certificate2_AppendBuffer_m3517242299
LUb:__Z35IntersectSpherePlaneBoundsOptimizedRKN4math7_float4EPS1_i
ZUd:_CultureInfo_get_IsNeutralCulture_m3874876470
tQd:_Delegate_CreateDelegate_m3813023227
tgh:_Uri_get_AbsoluteUri_m2120317928
Gsi:__ZN6il2cpp2os5posix15PosixWaitObject13InterruptWaitEv
$hd:_ColorTween_TweenValue_m3279916815
A4:__Z22CleanupLODGroupManagerPv
U0d:_Array_InternalArray__ICollection_Add_TisContentType_t1028629049_m2984242302_gshared
xmc:__Z21Event_CUSTOM_PopEventP12Il2CppObject
kl:_glUniform3fv
QEi:__ZNK6il2cpp8metadata24Il2CppGenericInstCompareclERK10KeyWrapperIPK17Il2CppGenericInstES8_
B7a:__ZNSt3__218__insertion_sort_3IRN15ResourceManager10Dependency6SorterEPS2_EEvT0_S6_T_
lFe:_Enumerator_System_Collections_IEnumerator_Reset_m3796537546_AdjustorThunk
qJc:_UNITY_FT_Init_Class_tt_service_gx_multi_masters
_dg:__Z53RuntimeInvoker_Int32_t2071877448_TimeSpan_t3430258949PFvvEPK10MethodInfoPvPS4_
p4f:__Z64RuntimeInvoker_RuntimeObject_Int32_t2071877448_Int16_t4041245914PFvvEPK10MethodInfoPvPS4_
Oze:_IntComparer_Compare_m3057931085
uPb:__ZNK16LightmapSettings31GetRealtimeLightmapDecodeValuesEv
yK:__ZN5audio5mixer12SetSuspendedERNS0_16AudioMixerMemoryEb
Lbb:__ZN17PersistentManager21UnloadNonDirtyStreamsEv
Ami:__ZN6il2cpp2vm13LivenessStateC2EP11Il2CppClassjPFvPP12Il2CppObjectiPvES7_PFvvESB_
p9d:_Array_ConvertAll_TisRuntimeObject_TisRuntimeObject_m2423585546_gshared
oKb:__ZN12ImageFilters4BlitER17ShaderPassContextP7TextureP13RenderTextureiPK18SharedMaterialDataPKcP6ShaderiNS_9BlitFlagsE11CubemapFaceRK8Vector2fSH_
bof:_Oid__ctor_m1936781897
BS:__ZN11UnityEngine15CloudWebService10RestClientINS0_23WebRequestRestHeaderMapEED2Ev
f5g:_ResourceSet__ctor_m1222864106
pSe:_Collection_1_System_Collections_IList_get_Item_m3376056117_gshared
Gl:_emscripten_glDepthMask
kFe:_Enumerator_VerifyState_m3639069574_gshared
Iia:__ZN4crnd25static_huffman_data_model22prepare_decoder_tablesEv
PRe:_Enumerator_MoveNext_m689054299_gshared
s7e:_ModulusRing_Difference_m662924064
Dgd:_CanvasUpdateRegistry_ObjectValidForUpdate_m855695984
spd:_InputField_set_onValueChanged_m2406388125
wlc:__Z23GUIStatePopDisplayIndexv
sX:__ZL22CleanupUnityWebStreamsPv
Qkf:_ListDictionary_Add_m4276262662
e5:__Znaj
i$c:_RIPEMD160Managed_GGG_m1639995340
$Bj:_emscripten_glEnableClientState__wrapper
jZ:__ZN17MessageIdentifierC2EPKcNS_7OptionsEPKN5Unity4TypeES1_
sHg:_Enumerator_System_Collections_IEnumerator_get_Current_m1648049763_gshared
SP:__Z55Register_UnityEngine_AudioSource_get_spatializeInternalv
I0a:__ZN15dense_hashtableINSt3__24pairIKN4core12basic_stringIcNS2_20StringStorageDefaultIcEEEE13dynamic_arrayI4PPtrI6SpriteELj4EEEES6_20StringHash32FunctionIS6_EN14dense_hash_mapIS6_SC_SF_NS0_8equal_toIS6_EE13stl_allocatorISD_L18MemLabelIdentifier81ELi16EEE9SelectKeyESI_SL_E12resize_deltaEjj
Hwe:_TextWriter__ctor_m2225796097
Nxa:__ZN14SafeBinaryRead8TransferI14ConstantStringEEvRT_PKc17TransferMetaFlags
afa:__ZNK6Camera16GetStereoEnabledEv
w3b:__ZN12LightManager15InitializeClassEv
VGa:__ZN9ShaderLab11shaderprops16GetComputeBufferEPK19ShaderPropertySheetS3_NS_16FastPropertyNameE
p_:__ZN18ScriptingArgumentsC2Ev
wMf:_TimeZone_IsDaylightSavingTime_m875882154
xxj:_emscripten_glBlendFuncSeparate__wrapper
hcf:_CipherSuiteCollection_System_Collections_IList_set_Item_m750275607
Zsj:dynCall_iiiiiiiiii
Jfa:__Z17HasSampledTexture14GraphicsFormat13formatSupport
mLb:__ZNK25CameraStackRenderingState27GetStereoImageEffectTextureEb
k0c:_SHA1CryptoServiceProvider__ctor_m3127563759
qp:__ZN8Vector3f8TransferI14SafeBinaryReadEEvRT_
u3h:__ZN6il2cpp6icalls6System6System3Net7Sockets6Socket7ReceiveEiP11Il2CppArrayiiNS4_11SocketFlagsEPi
V9b:__ZN13BuildSettings13GetSceneIndexERKN4core12basic_stringIcNS0_20StringStorageDefaultIcEEEE
vkj:__ZL103BaseVertexEffect_t2504093552_CustomAttributesCacheGenerator_BaseVertexEffect_ModifyVertices_m3446986347P21CustomAttributesCache
uo:FUNCTION_TABLE_ii
pIg:_Enumerator_MoveNext_m335649778_AdjustorThunk
nFa:__ZN10TagManager8TransferI18StreamedBinaryReadILb0EEEEvRT_
Vpc:__Z18Transfer_BlittableI9JSONWriteLb0E8BitFieldEvRK29SerializationCommandArgumentsR31RuntimeSerializationCommandInfo
NPf:_UInt32_ToString_m3894907091_AdjustorThunk
toh:_Matrix4x4__ctor_m828876617_AdjustorThunk
TUd:_CultureInfo_get_TextInfo_m1582311326
X$d:_Array_ForEach_TisRuntimeObject_m1849351808_gshared
$ee:_SmallXmlParser_Error_m1832158746
zk:_glDeleteVertexArrays
NCa:__Z24CreateDirectoryRecursiveRKN4core12basic_stringIcNS_20StringStorageDefaultIcEEEE
Svj:b41
wfb:__ZN9ShaderLab20SerializedSubProgram8TransferI18StreamedBinaryReadILb0EEEEvRT_
hwe:_StreamAsyncResult_get_AsyncWaitHandle_m4218169359
Rvj:b40
jLc:__ZN2UI13CanvasManager9AddCanvasEPNS_6CanvasE
T1a:__ZN9Texture3D8TransferI19StreamedBinaryWriteILb0EEEEvRT_
QLb:__ZNK6Camera22CalculateRenderingPathEv
nrc:__ZN9JSONWrite8TransferI5RectTIfEEEvRT_PKc17TransferMetaFlags
NB:__ZN11UnityEngine9Animation37SetGenericRootTransformPropertyValuesERKNS0_30AnimatorGenericBindingConstantERKN7mecanim10ValueArrayER9Transformbb
Yoa:__Z13ConvertMipmap14GraphicsFormatPKvS_Pviiii
zrb:__ZL12InvokeMethodI17RemapPPtrTransferEvRK29SerializationCommandArgumentsR31RuntimeSerializationCommandInfo
xie:_X509Certificate_get_PublicKey_m714501701
Jhh:_AsyncOperation_InternalDestroy_m2067452588
XBc:_tt_sbit_decoder_load_image
z7c:_String_LastIndexOf_m290475879
j5d:_Array_Sort_TisInt32_t2071877448_m1860415737_gshared
qlc:__ZNSt3__24listIN10GUIManager12SortedScriptE11memory_poolIS2_EE6__sortI13OldSortScriptEENS_15__list_iteratorIS2_PvEESA_SA_jRT_
XPf:_UInt64_System_IConvertible_ToChar_m1930853313_AdjustorThunk
lff:_TlsClientCertificate_SendCertificates_m1096074091
bFd:_SyncHashtable_get_Item_m408601391
VRe:_Stack_1_System_Collections_ICollection_CopyTo_m2104527616_gshared
qHf:_StringBuilder_AppendFormat_m1666670800
hjg:__Z97RuntimeInvoker_Boolean_t3825574718_RuntimeObject_TextGenerationSettings_t2543476768_RuntimeObjectPFvvEPK10MethodInfoPvPS4_
VSc:__ZN18UnityConnectClient12CloseServiceEv
Nki:__ZN6il2cpp6icalls8mscorlib6System9ThreadingL11ThreadStartEPv
Z6:__ZN15DirectorManager12OnSampleTimeEv
R2e:_ReadOnlyCollection_1_System_Collections_IList_Remove_m3878418841_gshared
xpd:_InputField_EnforceContentType_m1902926812
kZa:__ZN15dense_hashtableINSt3__24pairIKiiEEi21InstanceIDHashFunctorN14dense_hash_mapIiiS4_NS0_8equal_toIiEE13stl_allocatorIS3_L18MemLabelIdentifier67ELi16EEE9SelectKeyES7_SA_E12resize_deltaEjj
Cva:__ZN12CachedReader10Align4ReadEv
nwa:__ZNK9Behaviour22GetTypeVirtualInternalEv
Bqg:__Z74RuntimeInvoker_Void_t1841601450_Int32_t2071877448_RaycastHit2D_t4063908774PFvvEPK10MethodInfoPvPS4_
wVb:__Z21GetScriptingArraySize17ScriptingArrayPtr
jwc:__ZN20TextRenderingPrivate8FontImpl8TransferI14SafeBinaryReadEEvRT_
Kca:__ZN9GfxDevice17ImmediateTexCoordEifff
Ech:_Parser_ParseRegularExpression_m2390577313
Uud:_Array_double_swapper_m1175307080
irf:_X509CertificateEnumerator_System_Collections_IEnumerator_Reset_m327358896
K3c:_Hash__ctor_m2554411450
xoe:_NumberFormatter_AppendDigits_m1308372770
n5c:_Single_System_IConvertible_ToDateTime_m2510003459_AdjustorThunk
CQd:_Delegate_RemoveImpl_m3666700529
svj:_emscripten_glUniform4f__wrapper
hlf:_NameObjectCollectionBase_OnDeserialization_m3478980442
jpd:_InputField_set_caretColor_m2252440840
gD:__ZN8Animator8TransferI19StreamedBinaryWriteILb0EEEEvRT_
UFa:__ZNK6Camera16GetProjectionFarEv
Rye:_MissingFieldException__ctor_m1161042282
W_d:_Array_InternalArray__IndexOf_TisSlot_t2267560602_m1912863273_gshared
fph:_Mesh_get_uv3_m1531319041
KUa:__ZNK14PlayableOutput11DerivesFromE17ScriptingClassPtr
YVa:__ZN7Texture34CreateFileTextureUploadInstructionE18TextureUploadFlagsj
mqa:__ZN13ComputeShader14SetBufferParamEjRKN9ShaderLab16FastPropertyNameE15ComputeBufferID
E2e:_ReadOnlyCollection_1_System_Collections_Generic_IListU3CTU3E_Insert_m3054305464_gshared
ZC:__ZN8Animator8TransferI14SafeBinaryReadEEvRT_
n$d:_Array_InternalArray__IndexOf_TisTypeTag_t141209596_m2882894956_gshared
gBg:_Slider_get_value_m4182660424
R2:__Z23AsyncReadForceCloseFileRKN4core12basic_stringIcNS_20StringStorageDefaultIcEEEE
kt:__ZN17AnimationPlayable34CollectAnimatorControllerPlayablesER13dynamic_arrayIP26AnimatorControllerPlayableLj4EE
kO:__ZN16BaseVideoTexture19UpdateVideoTexturesEv
kMa:__Z28BuildSingleStreamChannelInfo17ShaderChannelMaskRK20VertexChannelsLayoutS_S2_P11ChannelInfo
$Ha:__ZNK16LightmapSettings23HasLightProbeTetrahedraEv
yef:_Context_get_WriteSequenceNumber_m243492531
v$a:__ZN6Sprite23VirtualRedirectTransferER19StreamedBinaryWriteILb0EE
r7c:_String_LastIndexOfAny_m1473637802
Qic:__Z38Transform_CUSTOM_INTERNAL_set_positionP12Il2CppObjectRK8Vector3f
Jph:_PlayerEditorConnectionEvents_InvokeMessageIdSubscribers_m795891627
Ibi:__ZNK15dense_hashtableINSt3__24pairIK10KeyWrapperINS1_IPK9FieldInfoP11Il2CppClassEEEjEES9_17ReflectionMapHashIS8_EN14dense_hash_mapIS9_jSD_NS9_14EqualsComparerINS0_8equal_toIS8_EEEENS0_9allocatorISB_EEE9SelectKeyESI_SK_E5beginEv
$Ra:__ZNK9ShaderLab7Program19HasMatchingVariantsERK13dynamic_arrayI16ShaderKeywordSetLj4EE
TA:__ZN15SerializeTraitsIN4math4trsXEE8TransferI8BlobSizeEEvRS1_RT_
sga:__ZN14DataBufferGLES11CopySubDataEPKS_jjj
fe:_emscripten_glVertexPointer
wua:__ZNSt3__26__treeI20DeviceDepthStateGLES11memcmp_lessIS1_S1_ENS_9allocatorIS1_EEE7destroyEPNS_11__tree_nodeIS1_PvEE
eld:_Graphic__ctor_m821539719
j6h:__ZN6il2cpp2vm7Runtime47RaiseExecutionEngineExceptionIfMethodIsNotFoundEPK10MethodInfo
qRb:__Z17GetFrustumPortionPK8Vector3fffPS_
lni:__ZN15dense_hashtableINSt3__24pairIK10KeyWrapperIP14Il2CppIUnknownEjEES5_N6il2cpp5utils11PointerHashIS3_EEN14dense_hash_mapIS5_jSB_NS5_14EqualsComparerINS0_8equal_toIS4_EEEENS0_9allocatorIS7_EEE9SelectKeyESG_SI_E14squash_deletedEv
iNa:__ZN5Light13AwakeFromLoadE17AwakeFromLoadMode
ajd:_DefaultControls_CreateDropdown_m1384069408
Ucd:_PointerEventData_get_clickCount_m4064532478
jTd:_EventArgs__cctor_m1350395667
Gaa:__ZNK9GfxDevice27GetPlatformAdjustedViewportEv
MTd:_CCGregorianCalendar_is_leap_year_m567513478
tvd:_Attribute_IsDefined_m2118467641
ZAh:_SpriteAtlasManager_Register_m447878083
hge:_PrivateKeyInfo_Normalize_m3959595934
kUg:_InternalEnumerator_1_System_Collections_IEnumerator_get_Current_m3125080595_gshared
RXe:_Collection_1_System_Collections_IList_Add_m2091889616_gshared
w7b:__ZN16StreamedResource8TransferI24GenerateTypeTreeTransferEEvRT_
wkd:_DropdownItem_OnPointerEnter_m761897861
kra:__ZN10Matrix3x3f15InvertTransposeEv
TWd:_Array_InternalArray__ICollection_Remove_TisKeyValuePair_2_t1174980068_m2768765894_gshared
aJb:__Z11IsBatchmodev
zVe:_Collection_1_set_Item_m2199807215_gshared
$pb:__Z29Transfer_Blittable_ArrayFieldI14SafeBinaryRead8Vector3fEvRT_R9ArrayInfoRK23StaticTransferFieldInfo
ZOf:_UInt32_System_IConvertible_ToBoolean_m91295134
DJf:_Monitor_Monitor_test_synchronised_m1542589500
_wc:__ZN20TextRenderingPrivate8FontImpl18ResetCachedTextureEv
Wge:_SymmetricTransform_TransformFinalBlock_m4192185386
Kle:_TextInfo__ctor_m1263401274
Izi:_GC_print_finalization_stats
gJg:_ValueCollection__ctor_m927733289_gshared
sdc:__Z53Register_UnityEngine_Behaviour_get_isActiveAndEnabledv
Vmf:_IPAddress_ToString_m267966740
eq:__ZNSt3__26vectorIN4core12basic_stringIcNS1_20StringStorageDefaultIcEEEENS_9allocatorIS5_EEE8__appendEj
R6a:__ZN26PlayerSettingsSplashScreen8TransferI17RemapPPtrTransferEEvRT_
XXg:_InternalEnumerator_1_get_Current_m3922357178_gshared
U4h:__ZN6il2cpp6icalls8mscorlib6SystemL17CollectTypeFieldsINS_5utils10functional10TrueFilterEEEvP11Il2CppClassPKS7_iRNSt3__26vectorIP9FieldInfoNSB_9allocatorISE_EEEERKT_
ifj:__ZL72ColorBlock_t2652774230_CustomAttributesCacheGenerator_m_HighlightedColorP21CustomAttributesCache
OMf:_Type_get_IsValueType_m1733572463
l$b:__Z13GetTagManagerv
vXd:_Array_InternalArray__ICollection_Remove_TisUInt16_t986882611_m65494986_gshared
s1e:_ReadOnlyCollection_1_IndexOf_m3054637117_gshared
nWh:__ZL10roundUp128PyS_
KQ:__ZN11UnityEngine15CloudWebService17CloudJobSchedulerD0Ev
m6c:_String_System_IConvertible_ToBoolean_m2696751322
e9a:__ZN18LoadSceneOperation7PerformEv
JLc:__ZNK2UI11CanvasGroup22GetTypeVirtualInternalEv
Aoh:_Matrix4x4_MultiplyPoint3x4_m1436516889
u7c:_String_LastIndexOfAny_m4281325295
Tlg:__Z163RuntimeInvoker_Void_t1841601450_RuntimeObject_Int32_t2071877448_SByte_t454417549_SByte_t454417549_SingleU26_t4173844468_SingleU26_t4173844468_SingleU26_t4173844468PFvvEPK10MethodInfoPvPS4_
Klc:__Z21CleanupGlobalGUIStatev
rLf:_TimeSpan__ctor_m1888018443_AdjustorThunk
usg:__Z74RuntimeInvoker_Int32_t2071877448_UIVertex_t1204258818_UIVertex_t1204258818PFvvEPK10MethodInfoPvPS4_
YEd:_SyncHashtable_get_Count_m3694444082
pzb:__Z18Transfer_BlittableI18StreamedBinaryReadILb0EELb1EN4math12int3_storageEEvRK29SerializationCommandArgumentsR31RuntimeSerializationCommandInfo
Usa:__ZN22VertexDeclarationCache5ClearEv
Xbb:__ZN15CacheWriterBase18GetAddressOfMemoryEv
Qv:__Z27ProcessRootMotionEmptyMixerP35AnimationPlayableEvaluationConstantP32AnimationPlayableEvaluationInputP33AnimationPlayableEvaluationOutput
WSb:__ZN6Camera24PrepareCullingParametersERK23CameraCullingParameters13RenderingPathR11CullResults
H9b:__Z12SetIUISystemP9IUISystem
r9a:__ZN19RuntimeSceneManager22EndIntegrateMainThreadEP10UnitySceneNS_11LoadingModeE
Brb:__Z26Transfer_UnityEngineObjectI17RemapPPtrTransferLb0EEvRK29SerializationCommandArgumentsR31RuntimeSerializationCommandInfo
B7c:_String_IsNullOrEmpty_m2802126737
eyd:_Byte_Parse_m1442736478
Oqe:_Int64_Parse_m3258022240
l7c:_String_IndexOfOrdinal_m3591623977
_Df:_CryptoConfig_EncodeLongNumber_m2352037787
qNf:_Type_GetMethod_m475234662
U6g:_ActivationServices_get_ConstructionActivator_m1726426854
Wtb:__Z29Transfer_Blittable_ArrayFieldI24GenerateTypeTreeTransfer4AABBEvRT_R9ArrayInfoRK23StaticTransferFieldInfo
QVi:__ZL52Activator_t1850728717_CustomAttributesCacheGeneratorP21CustomAttributesCache
KAi:_GC_adj_bytes_allocd
P0d:_Array_InternalArray__ICollection_Add_TisKeyframe_t1449471340_m887263954_gshared
t2d:_Array_InternalArray__Insert_TisDateTime_t693205669_m1484996356_gshared
AJe:_List_1_System_Collections_IList_Remove_m3933652540_gshared
tve:_MonoIO_get_ConsoleInput_m2976499023
dZf:_OpCode_get_Size_m481593949_AdjustorThunk
vCd:_BitArrayEnumerator_checkVersion_m3839504595
Jtd:_Array_GetUpperBound_m1352329707
Xmi:__ZN6il2cpp6icalls8mscorlib6System10Reflection10MonoMethod19get_base_definitionEP22Il2CppReflectionMethod
Ca:invoke_fiiifii
Y6c:_String_TrimEnd_m3153143011
$Nd:_DateTimeOffset_Equals_m3728302791_AdjustorThunk
_Pa:__ZN20SphericalHarmonicsL219AddDirectionalLightERKN4math7_float3ERKNS0_7_float4E
zth:_X509Extension_Equals_m1304125015
nMf:_TimeSpan_op_GreaterThanOrEqual_m3997050520
Q6:__Z26ScheduleJobForEachInternalR8JobFencePFvPvjES1_iPFvS1_E11JobPriority
Tof:_OidEnumerator_MoveNext_m1889267785
NIb:__ZZ23InitPlayerLoopCallbacksvEN41PostLateUpdateProfilerEndFrameRegistrator7ForwardEv
dac:__ZN9Scripting18RaiseMonoExceptionEPKcz
dXa:__ZN9Texture2D8TransferI19StreamedBinaryWriteILb0EEEEvRT_
zJh:_TweenRunner_1_StartTween_m3792842064_gshared
W3b:__ZN9ShaderLab16FastPropertyName15InitBy28BitHashEj
v5c:_Single_System_IConvertible_ToInt32_m3269519527_AdjustorThunk
ZTh:_TextGenerationSettings_Equals_m1603221718
q0c:_SHA1Internal_ProcessBlock_m4070037334
IEa:__ZN17PersistentManager17IsObjectAvailableEi
p6g:_Marshal_copy_from_unmanaged_m98320635
z3d:_Array_InternalArray__set_Item_TisDouble_t4078015681_m24756265_gshared
Qkh:_Display_RelativeMouseAtImpl_m700362000
GBh:_Vector2_get_right_m4262310679
r1b:__ZN13ProduceHelperIN2UI13RectTransformELb0EE7ProduceE18MemLabelIdentifier18ObjectCreationMode
x2a:__ZN17PackedFloatVector12UnpackFloatsEPfiiii
j$e:_ReadOnlyCollection_1__ctor_m3671019970_gshared
Uy:__ZN17AnimationPlayable28UpdateInternalStateRecursiveILi3ELb0EEEvPK35AnimationPlayableEvaluationConstant
Gda:__ZN13GfxDeviceGLES21DestroyComputeProgramER12ObjectHandleI18ComputeProgram_TagPvE
UId:_Convert_ToDecimal_m2007036836
aki:__ZN6il2cpp6icalls8mscorlib6System5Array12SetValueImplEP11Il2CppArrayP12Il2CppObjecti
E4:__ZN17UniqueIDGenerator16DestroyPureIndexEj
i1:__ZL21AppendNestedClassName17ScriptingClassPtrRN4core17string_with_labelILi1EEE
gdb:__ZN14SafeBinaryRead21TransferSTLStyleArrayINSt3__26vectorIN9ShaderLab20SerializedSubProgram12UAVParameterENS1_9allocatorIS5_EEEEEEvRT_17TransferMetaFlags
$8g:_Context_NotifyDynamicSinks_m1367144344
TR:__ZN24TextDOMTransferWriteBaseI9JSONWriteE12PushMetaFlagEi
hsc:__Z18Transfer_BlittableI8JSONReadLb1E10ColorRGBAfEvRK29SerializationCommandArgumentsR31RuntimeSerializationCommandInfo
$cf:_TlsClientCertificateVerify__ctor_m110646389
fma:__ZN6prcoreL26RemapGenericIntegerToFloatI17TexFormatARGB888815TexFormatRFloatEEvPKNS_9InnerInfoE
i9g:_Context_GetServerContextSinkChain_m390126977
x9h:__ZN6il2cpp2vm17TypeNameParseInfoD2Ev
HI:__ZN4FMOD7Channel7setModeEj
axe:_StringReader_Read_m513112775
SYa:__ZNK8Renderer8GetLayerEv
FKa:__ZN12FlareManager11DeleteFlareEi
yNb:__ZNK6Camera20GetReplacementShaderEv
_wj:_glProgramBinary__wrapper
TOd:_Decimal__ctor_m569480123_AdjustorThunk
omf:_HttpWebRequest__cctor_m3013631978
MDi:__ZNSt3__26__treeINS_12__value_typeINS_12basic_stringIcNS_11char_traitsIcEENS_9allocatorIcEEEEPFvvEEENS_19__map_value_compareIS7_SA_NS_4lessIS7_EELb1EEENS5_ISA_EEE4findIS7_EENS_15__tree_iteratorISA_PNS_11__tree_nodeISA_PvEEiEERKT_
udb:__ZNSt3__26vectorIN9ShaderLab20SerializedSubProgram14ConstantBufferENS_9allocatorIS3_EEE7reserveEj
uja:__ZL23stbir__calculate_memoryP11stbir__info
vag:__Z83RuntimeInvoker_Void_t1841601450_Int64_t909078037_Int32_t2071877448_Int64_t909078037PFvvEPK10MethodInfoPvPS4_
Yxg:_Scrollbar_FindSelectableOnRight_m3219495255
Anh:_Logger_IsLogTypeAllowed_m243840823
BKb:__ZNK6Camera18GetRenderRectangleEv
Uci:__ZNK15dense_hashtableINSt3__24pairIK10KeyWrapperINS1_IPK10MethodInfoP11Il2CppClassEEEjEES9_17ReflectionMapHashIS8_EN14dense_hash_mapIS9_jSD_NS9_14EqualsComparerINS0_8equal_toIS8_EEEENS0_9allocatorISB_EEE9SelectKeyESI_SK_E3endEv
G0a:__ZN13sorted_vectorIN4core12basic_stringIcNS0_20StringStorageDefaultIcEEEENSt3__24lessIS4_EE13stl_allocatorIS4_L18MemLabelIdentifier81ELi16EEE4findIS4_EENS5_11__wrap_iterIPS4_EERKT_
c2d:_Array_InternalArray__ICollection_CopyTo_TisVector3_t2243707580_m509487340_gshared
Osc:__ZL26Transfer_SimpleNativeClassI8JSONRead10RectOffsetLb1EEvRK29SerializationCommandArgumentsR31RuntimeSerializationCommandInfo
WOc:__Z44CanvasRenderer_CUSTOM_INTERNAL_CALL_SetColorP12Il2CppObjectRK10ColorRGBAf
jzi:_GC_should_collect
g7g:_UrlAttribute_Equals_m1587451932
Dpc:__Z18Transfer_BlittableI9JSONWriteLb1EsEvRK29SerializationCommandArgumentsR31RuntimeSerializationCommandInfo
cpe:_Int16_ToString_m4099416068_AdjustorThunk
mYc:_DSAParameters_t1872138834_marshal_pinvoke_cleanup
Pac:__ZN9Transform16SetLocalRotationERK11Quaternionf
vJb:__ZN13RenderManager37RenderCamerasWithScriptableRenderLoopEi
xde:_ASN1_Element_m2600236165
FY:__ZN23InstancedPropInfoStaticL16RegisterCallbackEPv
aB:__ZN7mecanim8skeleton25SkeletonPoseComputeLocalQEPKNS0_8SkeletonEPKNS0_13SkeletonPoseTIN4math4trsXEEEPS7_ii
sri:__ZN6il2cpp2os19ReleaseSocketHandleEj
AN:__ZN11AudioModule16GetDSPSampleRateEv
VUf:_TypeBuilder_get_next_table_index_m1415870184
_rj:___cxa_can_catch
d8e:_SequentialSearchPrimeGeneratorBase_GenerateNewPrime_m296245934
jzd:_Char_GetUnicodeCategory_m4273361321
Fye:_Math_Round_m565516458
S8g:_Identity_get_ClientDynamicProperties_m767245959
zsi:__ZN6il2cpp2os5posix15PosixWaitObjectC2ENS2_4TypeE
KLb:__ZN6Camera21PostMultiCustomRenderENS_10RenderFlagEb
KZf:_TypeBuilder_create_generic_class_m986834171
Upa:__ZN12_GLOBAL__N_112UploadImagesEP7ApiGLESjji14GraphicsFormatPKhjS2_iiii16TextureUsageModePh
zGb:__ZN23ShaderVariantCollection13WarmupShadersEv
uAh:_Transform_set_rotation_m2824446320
lef:_Context_set_ProtocolNegotiated_m1177527245
bPf:_UInt32_System_IConvertible_ToChar_m1056040486
P0:__Z25GetCommonScriptingClassesv
Ujf:_TlsStream_get_Length_m1562309511
V9a:__Z27scripting_gc_collect_unsafei
FN:__ZN11AudioModule20SuspendVideoTexturesEv
IP:__Z59Register_UnityEngine_AudioExtensionManager_GetAudioListenerv
r3b:__ZN12CubemapArrayC2E18MemLabelIdentifier18ObjectCreationMode
gHd:_Convert_ToByte_m395020137
ntb:__Z26Transfer_UnityEngineObjectI24GenerateTypeTreeTransferLb0EEvRK29SerializationCommandArgumentsR31RuntimeSerializationCommandInfo
Kzc:_UNITY_FT_GlyphLoader_CheckPoints
Pxe:_TextWriter_WriteLine_m1754475888
BKa:__ZN15SharedLightData7PrecalcEv
NFa:__ZN10Matrix4x4fmLERKS_
$7d:_Array_InternalArray__get_Item_TisDouble_t4078015681_m2215331088_gshared
Lwb:__Z35Transfer_Blittable_FixedBufferFieldI18StreamedBinaryReadILb1EEsEvRK29SerializationCommandArgumentsR31RuntimeSerializationCommandInfo
dKg:_Dictionary_2_Init_m3666073812_gshared
PAa:__ZN15ArchiveReadFileD0Ev
Pge:_SymmetricTransform_TransformBlock_m1524716432
GFh:_GUIUtility_TakeCapture_m1786193394
SZd:_Array_compare_TisColor32_t874517518_m3842009370_gshared
gSc:__ZN11UnityEngine15PlatformWrapper18GetOperatingSystemEv
L3e:_ReadOnlyCollection_1_System_Collections_Generic_ICollectionU3CTU3E_Remove_m974176789_gshared
qQd:_Delegate_return_type_match_m4278947849
Zqd:_InputField_GenerateHightlight_m1346735465
hmh:_UnityEventBase_ToString_m2323130098
Ufh:_Uri_ParseNoExceptions_m1151989845
zGd:_GC_SuppressFinalize_m953228702
zzc:_FT_MSB
szf:_SoapServices_PreLoad_m490411755
g5b:__ZZL23RegisterLightPropertiesR22GenericPropertyBindingEN29Wrapper_LightShadowNormalBias13GetFloatValueEPv
Ewh:_RectOffset__ctor_m2517237351
N7f:__Z63RuntimeInvoker_RuntimeObject_Int32_t2071877448_SByte_t454417549PFvvEPK10MethodInfoPvPS4_
gEi:__ZN6il2cpp6icalls8mscorlib4Mono8Security12Cryptography18KeyPairPersistence10_CanSecureEP12Il2CppString
YRg:_Action_1_Invoke_m4180501989_gshared
QAg:_Slider__ctor_m3124136916
$9:__ZN13GfxDeviceGLES14SetRasterStateEPK17DeviceRasterState
Ppd:_InputField_set_caretPositionInternal_m231166704
Hdf:_TlsServerHello__ctor_m3032108168
Sua:__ZN14SafeBinaryRead11EndTransferEv
xNi:__ZL98ILGenerator_t99948092_CustomAttributesCacheGenerator_ILGenerator_Mono_GetCurrentOffset_m3553856682P21CustomAttributesCache
aob:__ZN14SafeBinaryRead8TransferI8MonoPPtrEEvRT_PKc17TransferMetaFlags
i0g:_InternalEnumerator_1_System_Collections_IEnumerator_get_Current_m1533037706_gshared
Uqa:__ZN21UniformBufferTFMethod13MapBoneBufferEj
xhf:_RecordProtocol_SendChangeCipherSpec_m3542001341
k4d:_Array_InternalArray__set_Item_TisVector3_t2243707580_m1390667454_gshared
Tkc:__ZN12GUIClipState10BeginOnGUIER10InputEvent
pki:__ZNSt3__26vectorIcNS_9allocatorIcEEEC2Ej
Mee:_KeyPairPersistence_CanSecure_m2251009700
Gw:__ZN7mecanim5human14HumanPoseClearERNS0_9HumanPoseERKNS_6bitsetILj70EEE
Zwf:_ReturnMessage_get_Properties_m531965085
WWf:_GenericTypeParameterBuilder_IsSubclassOf_m563999142
yTd:_Exception_ToString_m627574695
q_f:_AddEventAdapter_Invoke_m3970567975
rmc:__Z30Event_Get_Custom_PropModifiersP12Il2CppObject
Bt:__ZN7mecanim9animation16CreateClipOutputEPKNS0_4ClipERNS_6memory9AllocatorE
u2d:_Array_InternalArray__Insert_TisDecimal_t724701077_m1429254816_gshared
fbg:__Z191RuntimeInvoker_Int32_t2071877448_RuntimeObject_Int32_t2071877448_Int32_t2071877448_RuntimeObject_Int32_t2071877448_SByte_t454417549_Int32U26_t455636984_BooleanU26_t3168250738_SByte_t454417549PFvvEPK10MethodInfoPvPS4_
vLf:_TimeSpan_get_Days_m1002111510
zBb:__ZNSt3__218__stable_sort_moveIRN10vector_mapI17ScriptingClassPtrPKN5Unity4TypeENS_4lessIS2_EENS_9allocatorINS_4pairIS2_S6_EEEEE13value_compareENS_11__wrap_iterIPSB_EEEEvT0_SJ_T_NS_15iterator_traitsISJ_E15difference_typeEPNSM_10value_typeE
acb:__ZN6Shader21AwakeFromLoadThreadedEv
hla:__ZN6prcoreL17RemapGenericFloatI17TexFormatRGBFloat17TexFormatRGBAHalfEEvPKNS_9InnerInfoE
Igj:__ZL70InputField_t1631627530_CustomAttributesCacheGenerator_m_CharacterLimitP21CustomAttributesCache
pFi:__ZN6il2cpp2os9SemaphoreC2Eii
gUg:_InternalEnumerator_1_get_Current_m2960188445_AdjustorThunk
cob:__ZNSt3__26vectorI8MonoPPtr13stl_allocatorIS1_L18MemLabelIdentifier1ELi16EEE8__appendEj
pCg:_Text_set_alignByGeometry_m1514652028
oMb:__ZN14qsort_internal30FindAndMovePivotToLastPositionIP17RODataReplacementi19ROSorterReplacementEEvT_S4_T0_T1_
dra:__ZN15UniformTFMethod20IsBoneCountSupportedEi
Ute:_FileStream_get_Position_m465478322
L$h:__ZN14dense_hash_setI10KeyWrapperIPK19Il2CppGenericMethodEN6il2cpp8metadata23Il2CppGenericMethodHashENS4_14EqualsComparerINS6_26Il2CppGenericMethodCompareEEENSt3__29allocatorIS4_EEEC2EjRKS7_RKSA_
gtj:dynCall_viidi
y2d:_Array_InternalArray__Insert_TisInt64_t909078037_m3039874636_gshared
$Cg:_ToggleGroup_NotifyToggleOn_m997426227
Hhf:_RSASslSignatureDeformatter_SetKey_m1150106904
B_:__ZN24ScriptingMethodFiltering17FilterOnSignatureENS_18MethodSearchFilterE
Ixg:_Scrollbar_ClickRepeat_m3403943364
DO:__ZN13ProduceHelperI9AudioClipLb0EE7ProduceE18MemLabelIdentifier18ObjectCreationMode
VXb:__ZN18ScreenManagerWebGL13SetLockCursorE14CursorLockMode
eGc:_cf2_arrstack_finalize
jAe:_MonoType_GetMethodsByName_m1854415088
ZDg:_Enumerator_get_CurrentValue_m3147984131_gshared
cVf:_DerivedType_GetMethods_m165266904
uge:_RSAManaged_EncryptValue_m4089823119
c1b:__ZN13MonoBehaviour19HandleNotificationsEPviR11MessageData
Ajh:_Component_get_gameObject_m2159020946
VFi:__ZN6il2cpp2os9EventImpl5ResetEv
f2h:__ZN6il2cpp2vm13MetadataCache23GetMethodGenericContextEPK10MethodInfo
mDh:_Event_get_keyCode_m4176847855
Iue:_ReadDelegate_Invoke_m2091885836
lWf:_TypeBuilder_GetField_m2112455315
Bwj:b58
Cwj:b59
jwj:b52
uwj:b53
hwj:b50
iwj:b51
zwj:b56
Awj:b57
xwj:b54
ywj:b55
VLd:_DateTime__ctor_m3604679583_AdjustorThunk
Jfe:_MACAlgorithm_Core_m2390605245
m$g:_InternalEnumerator_1_System_Collections_IEnumerator_get_Current_m30488070_gshared
X5b:__ZN10GameObject12CleanupClassEv
Paa:__ZN9GfxDevice25SetShaderPropertiesSharedERK19ShaderPropertySheet
TIh:_IndexedSet_1_GetEnumerator_m3646001838_gshared
Wha:__ZN18AsyncUploadManager19AsyncResourceUploadER9GfxDeviceii9TextureID
Vvg:_VertexHelper_AddUIVertexTriangleStream_m4009409241
E4b:__ZL25InitializeDefaultMaterialv
uPc:__Z53Register_UnityEngine_CanvasRenderer_get_materialCountv
VW:__GLOBAL__sub_I_runtime_graphics_lod_0_cpp
DDg:_VertexHelper_AddVert_m3290455716
Vya:__ZN17PersistentManager12UnloadStreamERKN4core12basic_stringIcNS0_20StringStorageDefaultIcEEEEb
s$b:__ZN14dense_hash_mapIN4core12basic_stringIcNS0_20StringStorageDefaultIcEEEE10vector_setI4PPtrI11SpriteAtlasENSt3__24lessIS8_EE13stl_allocatorIS8_L18MemLabelIdentifier81ELi16EEE20StringHash32FunctionIS4_ENS9_8equal_toIS4_EESC_INS9_4pairIKS4_SF_EELSD_81ELi16EEEixERSL_
Q_a:__ZN13ScreenManager17RequestResolutionEiibi
vEf:_DESTransform__ctor_m4096028381
F7h:_il2cpp_unity_liveness_calculation_from_statics
jx:__ZNK26AnimatorControllerPlayable11DerivesFromE17ScriptingClassPtr
KKf:_Scheduler_get_Instance_m1989471839
CZa:__ZN8Renderer8TransferI17RemapPPtrTransferEEvRT_
htg:__Z76RuntimeInvoker_Boolean_t3825574718_UIVertex_t1204258818_UIVertex_t1204258818PFvvEPK10MethodInfoPvPS4_
_Ve:_Collection_1_Contains_m1299140035_gshared
wwj:_glBlitFramebuffer__wrapper
V0d:_Array_InternalArray__ICollection_Add_TisUICharInfo_t3056636800_m968274080_gshared
bKh:_ObjectPool_1__ctor_m1532275833_gshared
XOh:__ZL24UnresolvedVirtualCall_71P12Il2CppObjectS0_S0_iS0_S0_S0_PK10MethodInfo
JNe:_List_1_GetIndex_m3262928832_gshared
$hc:__Z33Sprite_CUSTOM_INTERNAL_get_borderP12Il2CppObjectP8Vector4f
UVb:__ZN16ReflectionProbes9GetCameraEv
Jgb:__ZL18IsGpuProgramUsable20ShaderGpuProgramTypePK6Shader
Wje:_ArgumentException__ctor_m2105824819
ZNc:__ZN2UI6Canvas17SetSortingLayerIDEi
Ffd:_BaseMeshEffect_get_graphic_m3358796463
wsi:__ZN6il2cpp2vm11MethodStack23CleanupForCurrentThreadEv
wSh:_Predicate_1_Invoke_m695569038_gshared
xDe:_Enumerator_VerifyState_m825848279_AdjustorThunk
xLa:__ZN20TierGraphicsSettings8TransferI24GenerateTypeTreeTransferEEvRT_
zFh:_GUIStyleState_Cleanup_m824895509
Opb:__ZN14SafeBinaryRead21TransferSTLStyleArrayI13dynamic_arrayI4AABBLj4EEEEvRT_17TransferMetaFlags
tTa:__ZN18UnityPropertySheet8TransferI19StreamedBinaryWriteILb0EEEEvRT_
Vff:_TlsServerCertificate_checkServerIdentity_m3836435780
I7:__ZNSt3__26__treeINS_12__value_typeIiN11TypeManager18TypeCallbackStructEEENS_19__map_value_compareIiS4_NS_4lessIiEELb1EEENS_9allocatorIS4_EEE7destroyEPNS_11__tree_nodeIS4_PvEE
whe:_PKCS12_Decrypt_m2353135969
TNi:__ZL93TypeBuilder_t3308873219_CustomAttributesCacheGenerator_TypeBuilder_IsAssignableTo_m3210661829P21CustomAttributesCache
wjh:_Color32_ToString_m685380321
R$f:_MonoEvent_ToString_m386956596
K5i:__ZL70RuntimePlatform_t1869584967_CustomAttributesCacheGenerator_FlashPlayerP21CustomAttributesCache
p5d:_Array_Sort_TisRuntimeObject_m3309514378_gshared
bfa:__ZL19GetCameraTargetRectRK6Camerabb
gRc:__ZN11UnityEngine7Connect17XRDeviceInfoEventD0Ev
qGg:_Transform_1_BeginInvoke_m1786442111_gshared
Ane:_Int32_GetFormatException_m1729046182
iEa:__ZN13dynamic_arrayIN10GameObject13ComponentPairELj4EE6insertEPS1_RKS1_
dV:__ZN21UnityDefaultAllocatorI17LowLevelAllocatorE10DeallocateEPv
INa:__ZN15SharedLightData22UpdateCookieTextureRefEv
wr:__ZN15PackedIntVector8TransferI14SafeBinaryReadEEvRT_
v_f:_FieldInfo_get_IsLiteral_m267898096
Q5f:__Z45RuntimeInvoker_RuntimeObject_Int64_t909078037PFvvEPK10MethodInfoPvPS4_
Vif:_SslStreamBase_EndNegotiateHandshake_m1732321201
OGg:_Transform_1_BeginInvoke_m1167293475_gshared
kH:__ZN13AudioListener8DoUpdateEv
Vnc:__ZN5Unity9rapidjson13GenericReaderINS0_4UTF8IcEES3_13JSONAllocatorE9ParseTrueILj1ENS0_25GenericInsituStringStreamIS3_EENS0_15GenericDocumentIS3_S4_S4_EEEEvRT0_RT1_
bHd:__Z13bankers_roundd
G6a:__ZN14SafeBinaryRead8TransferI5RectTIfEEEvRT_PKc17TransferMetaFlags
qi:_emscripten_glGenFramebuffers
jEd:_Hashtable_CopyTo_m2778915805
D7:__ZN17BaseObjectManager16StaticInitializeEPv
sUf:_ConstructorBuilder_get_IsCompilerContext_m2796899803
E_d:_Array_IndexOf_TisUIVertex_t1204258818_m613887160_gshared
CHd:_DateTime_CoreParse_m2014268103
jqc:__Z18Transfer_BlittableI9JSONWriteLb0EyEvRK29SerializationCommandArgumentsR31RuntimeSerializationCommandInfo
DRa:__ZN13RenderTexture15ThreadedCleanupEv
IZd:_Array_BinarySearch_TisRuntimeObject_m3361740551_gshared
iVa:__ZN12CubemapArray23VirtualRedirectTransferER14SafeBinaryRead
Ft:__ZN21AnimationClipPlayable16ProcessHumanPassEPK35AnimationPlayableEvaluationConstantPK32AnimationPlayableEvaluationInputP33AnimationPlayableEvaluationOutput
S3e:_ReadOnlyCollection_1_System_Collections_IList_Add_m616574295_gshared
Bne:_Int32_ProcessTrailingWhitespace_m2812079777
ghc:__Z43RectTransform_CUSTOM_INTERNAL_set_sizeDeltaP12Il2CppObjectRK13Vector2fIcall
Rnf:_WebProxy__ctor_m3679722173
Foi:__ZN15dense_hashtableINSt3__24pairIK10KeyWrapperINS1_IPKcS4_EEEiEES6_24NamespaceAndNamePairHashN14dense_hash_mapIS6_iS9_NS6_14EqualsComparerI26NamespaceAndNamePairEqualsEENS0_9allocatorIS8_EEE9SelectKeyESD_SF_E6insertERKS8_
Iwa:__ZN24GenerateTypeTreeTransfer18BeginArrayTransferEPKcS1_Ri17TransferMetaFlags
jia:__Z16DecompressCrunchPKhRjR13TextureFormatiiii18MemLabelIdentifier
km:___syscall51
om:___syscall54
whb:__ZN9ShaderLab9SubShader19CreateFromSubShaderERKS0_
XC:__ZNK8Animator20IsAnyRendererVisibleEv
LGc:_cff_builder_add_point1
zpi:__ZN6il2cpp2vm5Image21GetCachedResourceDataEPK11Il2CppImageRKNSt3__212basic_stringIcNS5_11char_traitsIcEENS5_9allocatorIcEEEE
qnd:_HorizontalOrVerticalLayoutGroup_set_childControlWidth_m4209477792
K0d:_Array_InternalArray__ICollection_Add_TisUInt32_t2149682021_m2629016323_gshared
Lmb:__Z18Transfer_BlittableI14SafeBinaryReadLb0E10ColorRGBAfEvRK29SerializationCommandArgumentsR31RuntimeSerializationCommandInfo
za:invoke_iiiiiiiiii
iP:__ZN11AudioSource25GetNumExtensionPropertiesEv
m2d:_Array_InternalArray__Insert_TisKeyValuePair_2_t888819835_m975554221_gshared
tag:__Z59RuntimeInvoker_RuntimeObject_Int64_t909078037_RuntimeObjectPFvvEPK10MethodInfoPvPS4_
f9a:__ZN18LoadSceneOperation19IntegrateTimeSlicedEi
VKf:_Scheduler_SchedulerThread_m2209572785
Bae:_SortKeyBuffer_GetResultAndReset_m2516956577
a_b:__ZN10FileSystem19SetCurrentDirectoryERKN4core12basic_stringIcNS0_20StringStorageDefaultIcEEEE
j1:__ZN16ScriptingManager24NotifyScriptCacheReleaseEi
pTg:_InternalEnumerator_1_get_Current_m2151132603_gshared
kdc:__Z47Register_UnityEngine_Coroutine_ReleaseCoroutinev
XH:__ZN15AudioReverbZone13SetFMODValuesEv
KZ:__ZL19StaticDestroyShaderPv
ae:_glRenderbufferStorageMultisample
svh:_Ray_GetPoint_m2427899009
ry:__ZN23AnimationPlayableOutput17SetTargetAnimatorEP8Animator
Grc:__ZN9JSONWrite8TransferI13dynamic_arrayIN4math12int3_storageELj4EEEEvRT_PKc17TransferMetaFlags
Msh:_X509Chain__ctor_m1113875360
d3e:_ReadOnlyCollection_1__ctor_m2387481411_gshared
ogf:_TlsServerHello_processProtocol_m1241336522
SWd:_Array_InternalArray__ICollection_Remove_TisKeyValuePair_2_t888819835_m1287715465_gshared
G9g:_ContextAttribute_IsContextOK_m3281216012
Tve:_PathTooLongException__ctor_m3212099251
uBf:_ObjectManager_RaiseDeserializationEvent_m1611173032
Fr:__ZN17PackedFloatVector8TransferI18StreamedBinaryReadILb0EEEEvRT_
kWa:__ZN7Cubemap23VirtualRedirectTransferER17RemapPPtrTransfer
ffc:__Z37Register_UnityEngine_Screen_get_widthv
j8b:__ZN22BlockMemoryCacheWriter11GetPathNameEv
Lld:_Graphic_Rebuild_m2617722358
INd:_DateTime_ToString_m3108726445_AdjustorThunk
XQ:__ZN19CloudServiceHandlerD2Ev
K7d:_Array_InternalArray__get_Item_TisTableRange_t2011406615_m602485977_gshared
Sqd:_InputField_Append_m2623574152
Qje:_ApplicationException__ctor_m1120437222
Yo:stackAlloc
Ddc:__Z44Camera_CUSTOM_INTERNAL_CALL_ScreenPointToRayP12Il2CppObjectRK8Vector3fR3Ray
_Ba:__ZN25SingleBlockMemoryFileData4LockEPPv
sYf:_MethodBuilder_GetHashCode_m1713271764
LSe:_Collection_1_IsSynchronized_m1319022347_gshared
K9d:_MSCompatUnicodeTable_GetResource_m3816716847
qfc:__Z32RectOffset_Get_Custom_PropBottomP12Il2CppObject
Ytd:_Array_CreateInstance_m15016505
epb:__ZNSt3__26vectorI17AnimationCurveTplIfE13stl_allocatorIS2_L18MemLabelIdentifier1ELi16EEE6assignINS_11__wrap_iterIPS2_EEEENS_9enable_ifIXaasr21__is_forward_iteratorIT_EE5valuesr16is_constructibleIS2_NS_15iterator_traitsISC_E9referenceEEE5valueEvE4typeESC_SC_
apj:_stat
gHa:__ZN9ShaderLab10SubProgram7CompileEv
KUh:_Canvas_get_isRootCanvas_m3746337338
N1d:_Array_InternalArray__ICollection_CopyTo_TisUInt16_t986882611_m3228377237_gshared
rhj:__ZL68Navigation_t1571958496_CustomAttributesCacheGenerator_m_SelectOnDownP21CustomAttributesCache
aIa:__ZN6CameraD2Ev
i_c:_RC2_set_KeySize_m2015782960
la:invoke_iiiiiiiiiiii
khe:_StrongName_get_PublicKey_m3777577320
Qlh:_PersistentCallGroup_Initialize_m3729167844
LK:__ZN10AudioMixer12RebindOutputEv
nii:__ZNK15dense_hashtableINSt3__24pairIK10KeyWrapperIP11Il2CppClassES4_EES5_N6il2cpp8metadata16SZArrayClassHashEN14dense_hash_mapIS5_S4_SA_NS5_14EqualsComparerINS9_19SZArrayClassCompareEEENS0_9allocatorIS7_EEE9SelectKeyESE_SG_E5beginEv
xYh:__ZN6il2cpp2vm17SetupFieldsLockedEP11Il2CppClassRKNS_2os12FastAutoLockE
mL:__ZN11AudioSourceD0Ev
hlb:__ZN16MemoryFileSystem4NameEv
sad:_BaseRaycaster_OnEnable_m3641767070
_7e:_PrimeGeneratorBase_get_PrimalityTest_m308005118
Sjc:__Z13SetCopyBufferRKN4core12basic_stringIcNS_20StringStorageDefaultIcEEEE
dIe:_List_1_CheckIndex_m2328469916_gshared
Qdg:__Z75RuntimeInvoker_RuntimeObject_RuntimeObject_Decimal_t724701077_RuntimeObjectPFvvEPK10MethodInfoPvPS4_
xyc:_UNITY_FT_New_Size
Abc:__Z42ScriptingGetComponentsOfTypeFromGameObjectRK26ScriptingGetComponentsArgs
BDh:_GUI_set_changed_m3199207797
SQe:_List_1_get_Item_m3157283227_gshared
TKd:_Convert_ToString_m2915777777
QTa:__ZNSt3__27__sort4IRPFbRKNS_4pairIN9ShaderLab16FastPropertyNameEN18UnityPropertySheet11UnityTexEnvEEES8_EPS6_EEjT0_SD_SD_SD_T_
aGc:_cf2_hintmap_build
WDc:_Line_Up
RAe:_MonoType_GetGenericTypeDefinition_m2363776160
vef:_Context_set_SentConnectionEnd_m2641458842
he:_emscripten_glBufferSubData
hxd:_Buffer_BlockCopyInternal_m2627156229
Eld:_Graphic_set_material_m329335629
bad:_ExecuteEvents_get_pointerExitHandler_m3250605428
jka:__ZN6prcoreL12RemapGenericI15TexFormatRGB88817TexFormatARGB8888EEvPKNS_9InnerInfoE
Op:__Z17CalculateGlobalRS23TransformAccessReadOnly
kce:_Kernel_multiByteDivide_m735279869
MMg:_Dictionary_2_ToTValue_m542772656_gshared
tKf:_Thread_GetNewManagedId_internal_m3211695465
dWh:_UISystemProfilerApi_EndSample_m3264820872
Hha:__ZN17GenericDynamicVBO17DrawChunkInternalERK21DynamicVBOChunkHandle17ShaderChannelMaskS3_P17VertexDeclarationP16DrawBuffersRangeij
Kpb:__ZN14SafeBinaryRead21TransferSTLStyleArrayI13dynamic_arrayI9BoundsIntLj4EEEEvRT_17TransferMetaFlags
Pbb:__ZN22MemoryCacherReadBlocks14LockCacheBlockEjPPhS1_
iwd:_Boolean_System_IConvertible_ToChar_m2637404801_AdjustorThunk
p4c:_SecurityContext_Capture_m2535194991
tOf:_UInt16_System_IConvertible_ToSByte_m3044765342_AdjustorThunk
AKb:__ZNK9GfxDevice26GetSinglePassStereoEyeMaskEv
Lcg:__Z66RuntimeInvoker_Void_t1841601450_Int64_t909078037_Int32_t2071877448PFvvEPK10MethodInfoPvPS4_
wxc:__ZN20TextRenderingPrivate8FontImpl16CacheFontForTextEPtiifjPK13dynamic_arrayINS_16TextFormatChangeELj4EE
D4d:_Array_qsort_TisUIVertex_t1204258818_TisUIVertex_t1204258818_m512606409_gshared
ZXc:__Z21ArrayElementTypeCheckP11Il2CppArrayPv
Mzj:_emscripten_glTexSubImage2D__wrapper
Clf:_NameValueCollection_AsSingleString_m10599052
SQb:__ZN14qsort_internal30FindAndMovePivotToLastPositionIP21ForwardRenderPassDataiN23ForwardShaderRenderLoop18RenderObjectSorterILb0EEEEEvT_S6_T0_T1_
RBe:_Object_InternalGetHashCode_m1371384246
Mvg:_Navigation_get_defaultNavigation_m2185194207
vpe:_Int32_System_IConvertible_ToSByte_m1449623243_AdjustorThunk
ije:_AccessViolationException__ctor_m1270251537
AQc:__Z42Register_UnityEngine_Canvas_get_rootCanvasv
dth:_X509ExtensionCollection_IndexOf_m3972100651
$nb:__Z14resize_trimmedINSt3__26vectorI8MonoPPtr13stl_allocatorIS2_L18MemLabelIdentifier1ELi16EEEEEvRT_j
Qe:_TTF_RenderText_Solid
nPf:_UInt32_System_IConvertible_ToInt64_m3091851828
_ye:_MissingMethodException__ctor_m3898429715
Tyf:_RemotingConfiguration_RegisterClientProviderTemplate_m514821425
MEg:_Enumerator_System_Collections_IEnumerator_Reset_m3085583937_gshared
R7:__ZN15dense_hashtableINSt3__24pairIKPKcPK4RTTIEES3_N11TypeManager23ConstCharPtrHashFunctorEN14dense_hash_mapIS3_S7_SA_NS9_19ConstCharPtrEqualToE13stl_allocatorIS8_L18MemLabelIdentifier7ELi16EEE9SelectKeyESC_SF_E15insert_noresizeERKS8_
vge:_RSAManaged_ExportParameters_m2873993187
CGd:_Convert__cctor_m926133987
IRe:_Enumerator__ctor_m2816143215_AdjustorThunk
jVc:__ZN11UnityEngine7Connect16PersistentValuesC2Ev
Dqf:_X509Chain_FindParent_m404663796
Ppc:__Z18Transfer_BlittableI9JSONWriteLb0E5RectTIiEEvRK29SerializationCommandArgumentsR31RuntimeSerializationCommandInfo
Zye:_MissingMemberException__ctor_m2164043278
wWh:__ZL7log2_32j
moa:__Z15IsIEEE754Format14GraphicsFormat
Grb:__Z19TransferField_ArrayI17RemapPPtrTransfer27Converter_UnityEngineObjectEvRK23StaticTransferFieldInfoR31RuntimeSerializationCommandInfoRT0_
Za:invoke_iifiii
Zqe:_NumberFormatter_InitDecHexDigits_m1612588520
cca:__ZN13GfxDeviceGLES15UploadTexture2DE9TextureID16TextureDimensionPKhiii14GraphicsFormati18TextureUploadFlags16TextureUsageMode
OJ:__ZN4FMOD6System9createDSPEP20FMOD_DSP_DESCRIPTIONPPNS_3DSPE
Px:__ZN7mecanim9animation26DestroyControllerWorkspaceEPNS0_19ControllerWorkspaceERNS_6memory9AllocatorE
RF:__ZN4FMOD8ChannelI11EndCallbackEv
T1c:_ToBase64Transform_TransformBlock_m2201454137
Wlc:__ZN8GUIStyle14SetDefaultFontEPN13TextRendering4FontE
eZf:_OpCode_get_StackBehaviourPop_m3787015663_AdjustorThunk
Ebh:_PatternCompiler_EmitCount_m3609178511
i_a:__ZN15QualitySettings23VirtualRedirectTransferER24GenerateTypeTreeTransfer
k8h:__ZN6il2cpp2os10FileHandleC2Ev
h$h:__ZN30dense_hashtable_const_iteratorINSt3__24pairIK10KeyWrapperIPK19Il2CppGenericMethodEPK26Il2CppGenericMethodIndicesEES6_N6il2cpp8metadata23Il2CppGenericMethodHashEN14dense_hash_mapIS6_SA_SE_NS6_14EqualsComparerINSD_26Il2CppGenericMethodCompareEEENS0_9allocatorISB_EEE9SelectKeyESI_SK_EppEv
wkf:_HybridDictionary_Add_m1037587952
$xc:_UNITY_FT_Request_Metrics
VHa:__Z37GetBarycentricCoordinatesForOuterCellPPK8Vector3fRK13dynamic_arrayIS_Lj4EERS0_RK11TetrahedronR8Vector4fRf
bni:__ZN6il2cpp6icalls8mscorlib6System10Reflection10MonoMethod29get_IsGenericMethodDefinitionEP22Il2CppReflectionMethod
Hji:__ZN6il2cpp2vm6Thread21AllocThreadStaticDataEi
FHd:_DateTime_YearMonthDayFormats_m4204607055
khd:_ColorBlock_set_disabledColor_m3502887543_AdjustorThunk
Rvi:__ZN30dense_hashtable_const_iteratorINSt3__24pairIK10KeyWrapperIPK19Il2CppGenericMethodEP10MethodInfoEES6_N6il2cpp8metadata23Il2CppGenericMethodHashEN14dense_hash_mapIS6_S9_SD_NS6_14EqualsComparerINSC_26Il2CppGenericMethodCompareEEENS0_9allocatorISA_EEE9SelectKeyESH_SJ_EppEv
uO:__Z13RegisterClassI13AudioListenerEvv
PKh:_Aes__ctor_m4020215067
mpc:__Z18Transfer_BlittableI9JSONWriteLb0E8Vector3fEvRK29SerializationCommandArgumentsR31RuntimeSerializationCommandInfo
Pf:_emscripten_glUniform4i
Jld:_Graphic_OnDisable_m2360886868
hKh:_ObjectPool_1_Release_m1615270002_gshared
$e:_emscripten_glUniform4f
vj:___unlock
Jza:__ZN15dense_hashtableINSt3__24pairIKN4core12basic_stringIcNS2_20StringStorageDefaultIcEEEEP20ArchiveStorageReaderEES6_20StringHash32FunctionIS6_EN14dense_hash_mapIS6_S9_SC_NS0_8equal_toIS6_EE13stl_allocatorISA_L18MemLabelIdentifier55ELi16EEE9SelectKeyESF_SI_ED2Ev
pzg:_ScrollRect_InternalCalculateOffset_m3083065267
uYb:__ZN13sorted_vectorINSt3__24pairIN4core12basic_stringIcNS2_20StringStorageDefaultIcEEEES6_EEN10vector_mapIS6_S6_27compare_tstring_insensitiveIS6_E13stl_allocatorIS7_L18MemLabelIdentifier38ELi16EEE13value_compareESD_E9erase_oneIS6_EEjRKT_
CCd:_Comparer_Compare_m4132969818
XL:__ZN20SoundChannelInstance19setReverbPropertiesEP29FMOD_REVERB_CHANNELPROPERTIES
AOg:_DefaultComparer_Equals_m2171836276_gshared
Zli:__ZN6il2cpp2vm9Exception18GetFormatExceptionEPKc
zjc:__Z40Register_UnityEngine_Transform_IsChildOfv
foh:_Mathf_Floor_m484333823
uAd:_ArrayList_Sort_m923359189
Mmh:_Gradient_Init_m3042650694
rec:__Z45Register_UnityEngine_Display_GetSystemExtImplv
Eu:__ZN7mecanim9animation23TransformValuesFromClipEiiiRKNS_10ValueArrayERKNS0_10ClipOutputERKNS0_12ClipBindingsERS1_RNS_14ValueArrayMaskEb
tWh:__ZL17log2withScale_128yyi
IMc:__ZNSt3__218__insertion_sort_3IRNS_6__lessIN2UI14DepthSortEntryES3_EEPS3_EEvT0_S7_T_
s1b:__ZN2UI13RectTransform15InitializeClassEv
Q5:__ZN13RuntimeStaticI15DirectorManagerLb0EE16StaticInitializeEPv
itc:__ZN8JSONRead8TransferI23ManagedObjectTransfererEEvRT_PKc17TransferMetaFlagsb
uKf:_Thread_get_ManagedThreadId_m1995754972
M9c:_BaseInput_get_touchCount_m998724785
v5a:__ZN11TimeManager6UpdateEv
krd:_InputField_get_preferredWidth_m3185355225
lKf:_Thread_SetState_m3198426726
OAd:_ArrayListWrapper_Contains_m1158465965
hpj:_fflush
xGa:__ZN17LightProbeContext4InitERK16LightmapSettingsRK14RenderSettings
mGi:__GLOBAL__sub_I_Error_cpp
nlj:_AudioSource_INTERNAL_CALL_ReadExtensionPropertyName_m3694806886
Pdh:_Alternation_GetWidth_m4218808325
y4e:_ReadOnlyCollection_1_System_Collections_IList_Insert_m2651065875_gshared
Rzc:_ft_bitmap_glyph_bbox
Jlf:_TypeConverterAttribute__ctor_m4061167050
jRe:_Enumerator_MoveNext_m3315718998_gshared
tAi:_GC_reclaim_uninit
hUb:__Z34ProcessIndexListIsNodeVisibleStep2RK22SceneCullingParametersPK9SceneNodePK4AABBR9IndexList
zDb:__ZN10MonoScriptD2Ev
wBg:_Slider_OnRectTransformDimensionsChange_m4109401172
Nnf:_WebHeaderCollection_Get_m3391944907
Nfc:__Z39Input_CUSTOM_INTERNAL_get_mousePositionP8Vector3f
XCc:_tt_cmap13_char_next
thb:__ZN9ShaderLab4Pass16SetupPassOptionsEv
ch:_JS_Sound_ReleaseInstance
y5i:__ZL72IL2CPPStructAlignmentAttribute_t130316838_CustomAttributesCacheGeneratorP21CustomAttributesCache
bba:__ZN13GfxDeviceGLES19DrawBuffersIndirectEP9GfxBufferPK18VertexStreamSourceiP17VertexDeclaration17ShaderChannelMask16GfxPrimitiveType15ComputeBufferIDj
Sid:_DefaultControls_CreateScrollbar_m770089625
xyj:_emscripten_glPixelStorei__wrapper
Cfg:__Z98RuntimeInvoker_Void_t1841601450_Int32_t2071877448_Int32_t2071877448_SByte_t454417549_RuntimeObjectPFvvEPK10MethodInfoPvPS4_
Am:FUNCTION_TABLE_diddi
Dhc:__Z26Material_CUSTOM_SetIntImplP12Il2CppObjectii
jne:_Int16_System_IConvertible_ToSingle_m3277935657_AdjustorThunk
djf:_SslStreamBase_get_KeyExchangeAlgorithm_m3712013038
fah:_InternalRemotingServices__cctor_m3821625125
Dfc:__Z42Register_UnityEngine_RectOffset_get_bottomv
rHf:_StringBuilder_Insert_m3322917127
JNg:_DefaultComparer_Equals_m724229128_gshared
BFg:_Enumerator_VerifyCurrent_m1702320752_AdjustorThunk
Lpb:__ZN9BoundsInt8TransferI14SafeBinaryReadEEvRT_
tJd:_Convert_ToDouble_m3520060872
Sxj:_emscripten_glUniform1f__wrapper
Rsj:dynCall_di
Nhf:_SslCipherSuite_ComputeServerRecordMAC_m1876572367
gxc:__ZN20TextRenderingPrivate19NativeTextGeneratorC2ERK11UTF16StringPNS_8FontImplE11ColorRGBA32ifRK8Vector2fbifiibffbbbP13dynamic_arrayIN2UI8UIVertexELj4EE
Voc:__Z28RegisterModule_JSONSerializev
AJf:_Interlocked_CompareExchange_m3227034792
JYc:_HashAlgorithm_get_Hash_m931854461
A2g:_DefaultComparer_Compare_m3564013922_gshared
vib:__ZN2UI13RectTransform8TransferI14SafeBinaryReadEEvRT_
fqc:__Z35Transfer_Blittable_FixedBufferFieldI9JSONWriteaEvRK29SerializationCommandArgumentsR31RuntimeSerializationCommandInfo
B9b:__Z20IsHumanControllingUsv
WJb:__ZNK19RenderEventsContext21ExecuteCommandBuffersEijR17ShaderPassContextR15RenderNodeQueueP19ProfilerInformationi
UV:__ZNK20DynamicHeapAllocatorI17LowLevelAllocatorE10GetPtrSizeEPKv
zzh:_Texture2D_GetPixelBilinear_m3514551520
$u:__ZN17AnimationPlayable16AllocateBindingsEPK35AnimationPlayableEvaluationConstant
Djd:_Dropdown_set_value_m2945561009
Uaa:__ZN13GfxDeviceGLES17DestroyGpuProgramEPK10GpuProgram
tke:_GregorianCalendar_GetMonth_m523739832
jmb:__Z44InitializeTransferFunctionScriptingTraitsForI18StreamedBinaryReadILb0EEEvR31TransferFunctionScriptingTraits
gQb:__ZNSt3__218__insertion_sort_3IR23CompareReflectionProbesP31RuntimeReflectionProbeBlendInfoEEvT0_S5_T_
Qrb:__ZN12NativeBufferI27Converter_SimpleNativeClassI8GradientEE15SetupForWritingER9ArrayInfo
G8:__ZNSt3__213__stable_sortIRNS_4lessIN4core12basic_stringIcNS2_20StringStorageDefaultIcEEEEEENS_11__wrap_iterIPS6_EEEEvT0_SC_T_NS_15iterator_traitsISC_E15difference_typeEPNSF_10value_typeEi
EX:__ZN12_GLOBAL__N_113StaticDestroyEPv
Ime:_Guid_ToString_m51661589
bCg:_Text_set_font_m1095513810
BCj:_glUnmapBuffer__wrapper
IMd:_DateTime_System_IConvertible_ToUInt32_m1363211018_AdjustorThunk
Dod:_InputField_get_cachedInputTextGenerator_m881618486
Egc:__Z32Mesh_CUSTOM_ExtractArrayFromListP12Il2CppObject
ZSf:_Binder_get_DefaultBinder_m965620943
Ntc:__ZN8JSONRead21TransferSTLStyleArrayINSt3__26vectorI8Gradient13stl_allocatorIS3_L18MemLabelIdentifier1ELi16EEEEEEvRT_17TransferMetaFlags
S5a:__ZNSt3__218__insertion_sort_3IRNS_6__lessINS_4pairIPKN5Unity4TypeE7Hash128EES8_EEPS8_EEvT0_SC_T_
ytb:__ZN10RectOffset8TransferI24GenerateTypeTreeTransferEEvRT_
Yud:_SimpleEnumerator_get_Current_m482975946
Npj:_srand
Ksb:__Z18Transfer_BlittableI24GenerateTypeTreeTransferLb1E5RectTIiEEvRK29SerializationCommandArgumentsR31RuntimeSerializationCommandInfo
rIa:__ZNSt3__24listI4PPtrI6CameraENS_9allocatorIS3_EEE6removeERKS3_
rMc:__ZN2UI13CanvasManager19RemoveDirtyRendererEPNS_6CanvasEPNS_14CanvasRendererE
g0h:__ZN15dense_hashtableI10KeyWrapperIPK17Il2CppGenericInstES4_N6il2cpp8metadata21Il2CppGenericInstHashEN14dense_hash_setIS4_S7_NS4_14EqualsComparerINS6_24Il2CppGenericInstCompareEEENSt3__29allocatorIS4_EEE8IdentityESB_SE_E12resize_deltaEjj
Hac:__ZN8Material14DisableKeywordERKN4core12basic_stringIcNS0_20StringStorageDefaultIcEEEE
URc:__ZN11UnityEngine15PlatformWrapper25GetGraphicsRendererStringEv
yqd:_InputField_KeyPressed_m3066588581
BAg:_Selectable_DoStateTransition_m539253088
a1c:_SHA512_Create_m439875055
BU:__ZN11UnityEngine15CloudWebService17WebFileDownloaderINS0_20WebRequestRestClientENS0_23WebRequestRestHeaderMapEED2Ev
Qb:invoke_vi
U0c:_SHA384Managed_update_m2629600295
urc:__ZN9JSONWrite8TransferI13dynamic_arrayI9BoundsIntLj4EEEEvRT_PKc17TransferMetaFlags
Ob:invoke_vd
pb:invoke_vf
a3:__ZNK10GameObject8IsActiveEv
iBe:_NumberFormatter__cctor_m1641464619
jbj:__ZL67g_UnityEngine_PhysicsModule_Assembly_CustomAttributesCacheGeneratorP21CustomAttributesCache
eDf:_SByte_System_IConvertible_ToUInt32_m4256495110
qcd:_PointerEventData_set_eligibleForClick_m2036057844
aoa:__ZN18GfxFramebufferGLES23SetupDefaultFramebufferEPP17RenderSurfaceBaseS2_N2gl6HandleILNS3_10ObjectTypeE9EEE
ppj:_mbsinit
Icj:__ZL70EventSystem_t3466835263_CustomAttributesCacheGenerator_m_FirstSelectedP21CustomAttributesCache
l$a:__ZN13ScreenManager18RequestOrientationE17ScreenOrientation
WYh:__ZN6il2cpp2vm5Class12SetupMethodsEP11Il2CppClass
Yac:__Z39DeleteLastPathNameComponentWithAnySlashRKN4core12basic_stringIcNS_20StringStorageDefaultIcEEEE
Wkc:__ZN10GUIManager14InitGUIManagerEv
Egj:__ZL68InputField_t1631627530_CustomAttributesCacheGenerator_m_KeyboardTypeP21CustomAttributesCache
HDg:_VerticalLayoutGroup_CalculateLayoutInputHorizontal_m497637066
Jvf:_MethodCall__ctor_m4106494862
l7f:__Z167RuntimeInvoker_Void_t1841601450_SByte_t454417549_SByte_t454417549_SByte_t454417549_SByte_t454417549_SByte_t454417549_SByte_t454417549_SByte_t454417549_SByte_t454417549PFvvEPK10MethodInfoPvPS4_
dnc:__Z37Register_UnityEngine_GUIStyle_Cleanupv
Ma:invoke_iiifii
E5h:__ZN6il2cpp6icalls8mscorlib6System8MonoType13IsPointerImplEP20Il2CppReflectionType
dJd:_Convert_ToDecimal_m2284596541
Oi:_emscripten_glFramebufferRenderbuffer
YSb:__ZN19CullingGroupManager17CullAndSendEventsERK22SceneCullingParametersiRK13CullingOutputRK8JobFence
Kqe:_Int64_GetHashCode_m4047499913
jEa:__ZN9Transform30EnsureTransformHierarchyExistsEv
p7h:_il2cpp_field_get_flags
QN:__ZN11AudioModule26SetDefaultMicrophoneDriverEPv
uvd:_Attribute_IsDefined_m216577166
yzd:_Char_ToUpper_m109978609
DXg:_InternalEnumerator_1_get_Current_m1089848479_gshared
xRd:_Double_System_IConvertible_ToInt64_m3798425616
$dd:_StandaloneInputModule_get_repeatDelay_m3025279
F0a:__ZN14dense_hash_mapIN4core12basic_stringIcNS0_20StringStorageDefaultIcEEEE13dynamic_arrayI4PPtrI6SpriteELj4EE20StringHash32FunctionIS4_ENSt3__28equal_toIS4_EE13stl_allocatorINSC_4pairIKS4_S9_EEL18MemLabelIdentifier81ELi16EEEixERSH_
lYb:__ZNSt3__26vectorINS_4pairIN4core12basic_stringIcNS2_20StringStorageDefaultIcEEEEPK17MessageIdentifierEENS_9allocatorISA_EEE12__move_rangeEPSA_SE_SE_
hyh:_SceneManager_LoadSceneAsyncNameIndexInternal_m1250496078
pMb:__ZN14qsort_internal17MedianOfThreeSwapIP17RODataReplacement19ROSorterReplacementEEvT_S4_S4_T0_
NXh:__ZNK15dense_hashtableINSt3__24pairIK10KeyWrapperIPK22Il2CppGenericParameterEP11Il2CppClassEES6_N6il2cpp5utils11PointerHashIS4_EEN14dense_hash_mapIS6_S9_SE_NS6_14EqualsComparerINS0_8equal_toIS5_EEEENS0_9allocatorISA_EEE9SelectKeyESJ_SL_E3endEv
Uac:__ZN17TransformInternal36OnScaleChangedCalculateTransformTypeE15TransformAccess
SBd:_SynchronizedArrayListWrapper_InsertRange_m709359548
aAa:__ZN17ArchiveFileSystem10ToAbsoluteEPKc
O7e:_BigInteger_op_Modulus_m13450242
dId:_DateTime__ctor_m3604679583
HSc:__ZN19UnityConnectService15GetPlayerUserIdEv
VJd:_Convert_ToInt32_m2988544165
U4d:_Array_Resize_TisColor32_t874517518_m2219502085_gshared
zz:__ZN7mecanim6CRCKeyENS_7eStringE
Fjf:_SslStreamBase_get_CanWrite_m2069502593
y8b:__ZL12SetPrefValueRKN4core12basic_stringIcNS_20StringStorageDefaultIcEEEERK9PrefValue
Awi:__ZN6il2cpp5utils11StringUtils6PrintfEPKcz
Dii:__ZNSt3__26vectorIN6il2cpp8metadata18GenericArrayMethodENS_9allocatorIS3_EEE7reserveEj
cUa:__ZN15NameToObjectMapI6ShaderNSt3__23mapI4PPtrIS0_EN4core12basic_stringIcNS5_20StringStorageDefaultIcEEEENS1_4lessIS4_EENS1_9allocatorINS1_4pairIKS4_S9_EEEEEENS1_8multimapIS9_S4_NSA_IS9_EENSC_INSD_IKS9_S4_EEEEEEE4FindERSK_
JFg:_ShimEnumerator_Reset_m98005789_gshared
JVa:__ZN24GenerateTypeTreeTransfer21TransferResourceImageE19ActiveResourceImagePKcR13StreamingInfoPvjiPKN5Unity4TypeE
u2e:_ReadOnlyCollection_1_System_Collections_IList_set_Item_m1377990618_gshared
SXf:_ILGenerator_make_room_m373147874
kNg:_Dictionary_2_Init_m1045257495_gshared
Q_d:_Array_InternalArray__IndexOf_TisKeyValuePair_2_t888819835_m2660446234_gshared
Wfe:_PKCS1_Verify_v15_m2571212635
ePa:__ZNSt3__212__deque_baseI18ReflectionProbeJobNS_9allocatorIS1_EEED2Ev
Xy:__ZN11UnityEngine9Animation27DestroyAnimationSetBindingsEPNS0_20AnimationSetBindingsERN7mecanim6memory9AllocatorE
Zcb:__ZN15dense_hashtableINSt3__24pairIKiN4core17string_with_labelILi1EEEEEi18SInt32HashFunctionN14dense_hash_mapIiS5_S7_NS0_8equal_toIiEE13stl_allocatorIS6_L18MemLabelIdentifier1ELi16EEE9SelectKeyESA_SD_E13set_empty_keyERKS6_
QD:__ZN8Animator12CleanupClassEv
OEf:_DecoderReplacementFallbackBuffer__ctor_m1305504326
Ltc:__Z13TransferFieldI8JSONReadLb0E27Converter_SimpleNativeClassI10RectOffsetEEvRK23StaticTransferFieldInfoR31RuntimeSerializationCommandInfoRT1_
j7c:_String_IndexOf_m570401060
hSd:_Enum_System_IConvertible_ToDateTime_m2924690746
dkd:_Dropdown_CreateBlocker_m4109366440
EYc:_HashAlgorithm_System_IDisposable_Dispose_m2106335965
Api:__GLOBAL__sub_I_GenericMetadata_cpp
S4h:__ZN6il2cpp6icalls8mscorlib6System8MonoType18GetFields_internalEP20Il2CppReflectionTypeiS5_
KTb:__Z24CalculateSpotLightBoundsffRK10Matrix4x4fR15SpotLightBounds
N9d:_TailoringInfo__ctor_m2248501932
SQ:__ZN23CloudWebServicesManager23VirtualRedirectTransferER14SafeBinaryRead
S6f:__Z150RuntimeInvoker_Int32_t2071877448_RuntimeObject_Int32_t2071877448_Int32_t2071877448_RuntimeObject_Int32_t2071877448_Int32_t2071877448_Int32_t2071877448PFvvEPK10MethodInfoPvPS4_
oBd:_FixedSizeArrayListWrapper_InsertRange_m2690348965
cDb:__Z19ShouldTransferFieldR32SerializationCommandQueueBuilder17ScriptingClassPtriR18TransferField_InfoRK20CoreScriptingClasses
PZf:_FieldInfo_get_IsStatic_m1411173225
gve:_MemoryStream_Read_m2289595005
Esa:__ZN26SinglePassStereoSupportExt21SetStereoMatrixCommonE21MonoOrStereoscopicEye24BuiltinShaderMatrixParamRK10Matrix4x4f
uK:__ZN5audio5mixer22UpdateAudioMixerMemoryERKNS0_18AudioMixerConstantERNS0_16AudioMixerMemoryEfPN4FMOD6SystemEf
Ovc:__ZL21InitializeCachedStripPv
Qki:__ZN6il2cpp6icalls8mscorlib6System9Threading6Thread23GetCachedCurrentCultureEP12Il2CppThread
Wzg:_Selectable_get_allSelectables_m3045831006
YFa:__ZNK6Camera22GetWorldToCameraMatrixEv
msi:__ZN6il2cpp2vm12GenericClass11IsValueTypeEP18Il2CppGenericClass
P4i:__ZL95Transform_t3275118058_CustomAttributesCacheGenerator_Transform_Rotate_m976738541____relativeTo1P21CustomAttributesCache
$Bb:__ZN13MonoBehaviour7SetNameEPKc
Iaf:_ContentInfo__ctor_m3579805263
w_h:__ZN15dense_hashtableINSt3__24pairIK10KeyWrapperIPKcEP11Il2CppClassEES5_N6il2cpp5utils11StringUtils12StringHasherIS4_EEN14dense_hash_mapIS5_S8_SE_NS5_14EqualsComparerINSB_13VmStringUtils21CaseSensitiveComparerEEENS0_9allocatorIS9_EEE9SelectKeyESJ_SL_E15set_deleted_keyERKS9_
czg:_ScrollRect_get_verticalNormalizedPosition_m1701804869
hX:__GLOBAL__sub_I_runtime_shaders_shaderimpl_0_cpp
v9a:__ZN18AwakeFromLoadQueue5ClearEv
XHg:_Enumerator_get_Current_m2986380627_AdjustorThunk
nSb:__ZNSt3__27__sort5IR15ReflProbeSorterPP15ReflectionProbeEEjT0_S6_S6_S6_S6_T_
m6:__ZN8Playable10DisconnectEPS_i
UUg:_InternalEnumerator_1_get_Current_m1526874475_AdjustorThunk
qk:_glGenTransformFeedbacks
Mya:__ZN13LoadOperationD2Ev
Cee:_KeyPairPersistence__ctor_m1817312194
NUh:_Canvas_set_scaleFactor_m3986864146
pWd:_Array_InternalArray__ICollection_Contains_TisMark_t2724874473_m1640201705_gshared
SFb:__Z21PlayerStartFirstSceneb
HVf:_TypeBuilder_get_AssemblyQualifiedName_m2097258567
RTa:__ZNSt3__27__sort5IRPFbRKNS_4pairIN9ShaderLab16FastPropertyNameEN18UnityPropertySheet11UnityTexEnvEEES8_EPS6_EEjT0_SD_SD_SD_SD_T_
Vfa:__ZNK7ApiGLES18GetExtensionStringEv
gra:__ZN31TransformFeedbackSkinPoseBufferD0Ev
Txj:_emscripten_glVertexAttrib1f__wrapper
Rif:_SslStreamBase_get_MightNeedHandshake_m3432170694
fOg:_DefaultComparer_Equals_m1281232537_gshared
Wo:FUNCTION_TABLE_iiiiiiiii
Lpd:_InputField_set_asteriskChar_m619206227
qEf:_DES_IsSemiWeakKey_m3967392585
pne:_Int16_System_IConvertible_ToUInt32_m883204517_AdjustorThunk
g1f:_MonoProperty_get_PropertyType_m1921201152
xid:_FloatTween_TweenValue_m3881535116_AdjustorThunk
hzi:_GC_allochblk
K9a:__Z15UnloadGameScenev
wCj:_glCheckFramebufferStatus__wrapper
q8a:__ZNSt3__26vectorIN30RuntimeInitializeOnLoadManager15ClassMethodInfoE13stl_allocatorIS2_L18MemLabelIdentifier13ELi16EEE7reserveEj
RCi:__ZN6il2cpp2vm6Atomic9IncrementEPVi
T6e:_BigInteger_get_Rng_m2525288368
DCd:_CaseInsensitiveHashCodeProvider__ctor_m3775398833
$ec:__Z36Renderer_Get_Custom_PropSortingOrderP12Il2CppObject
tEh:_GUIContent__cctor_m976962423
_bi:__ZNK15dense_hashtableINSt3__24pairIK10KeyWrapperIPK10Il2CppTypeEjEES6_N6il2cpp8metadata14Il2CppTypeHashEN14dense_hash_mapIS6_jSB_NS6_14EqualsComparerINSA_26Il2CppTypeEqualityComparerEEENS0_9allocatorIS8_EEE9SelectKeyESF_SH_E13find_positionERS7_
GQa:__ZN7Texture5ResetEv
LAh:_Transform_Rotate_m976738541
ksb:__Z18Transfer_BlittableI24GenerateTypeTreeTransferLb0E8Vector2fEvRK29SerializationCommandArgumentsR31RuntimeSerializationCommandInfo
$rb:__Z18Transfer_BlittableI24GenerateTypeTreeTransferLb1EhEvRK29SerializationCommandArgumentsR31RuntimeSerializationCommandInfo
Dcc:__ZNK16TypeTreeIterator10ByteOffsetEv
old:_Graphic_get_rectTransform_m2697395074
v5:__ZnwjRKSt9nothrow_t
sC:__ZN8Animator11ClearObjectEv
dpf:_X500DistinguishedName_Decode_m3070515374
ySa:__ZN14SafeBinaryRead19TransferSTLStyleMapINSt3__23mapI39DeprecatedFastPropertyNameSerializationN18UnityPropertySheet11UnityTexEnvENS1_4lessIS3_EENS1_9allocatorINS1_4pairIKS3_S5_EEEEEEEEvRT_17TransferMetaFlags
Wmf:_IPv6Address_set_ScopeId_m1442934355
vBf:_ObjectManager_RaiseOnDeserializedEvent_m512850179
ycc:__Z35UnregisterSerializationCacheBuilderPFv17ScriptingClassPtrR23CachedSerializationDataRbE
OGa:__Z30GetBuiltinVectorParamArraySize24BuiltinShaderVectorParam
y9d:_CodePointIndexer__ctor_m797342079
uYa:__ZN18StreamedBinaryReadILb0EE21TransferSTLStyleArrayI13dynamic_arrayI7Hash128Lj8EEEEvRT_17TransferMetaFlags
jZa:__ZN21RendererUpdateManager11AddRendererER8Renderer
p0b:__Z13RegisterClassI15ResourceManagerEvv
Tmb:__Z35Transfer_Blittable_FixedBufferFieldI14SafeBinaryReadsEvRK29SerializationCommandArgumentsR31RuntimeSerializationCommandInfo
F2a:__ZN14SafeBinaryRead21TransferSTLStyleArrayI13dynamic_arrayIfLj4EEEEvRT_17TransferMetaFlags
Bwi:__ZN6il2cpp5utils11StringUtils11Utf16ToUtf8EPKDs
V7a:__ZN18StreamedBinaryReadILb0EE21TransferSTLStyleArrayINSt3__26vectorIN15ResourceManager10DependencyE13stl_allocatorIS5_L18MemLabelIdentifier52ELi16EEEEEEvRT_17TransferMetaFlags
jSc:__ZN11UnityEngine15PlatformWrapper20IsRootedOrJailbrokenEv
VIb:__ZZ23InitPlayerLoopCallbacksvEN52PreLateUpdateScriptRunBehaviourLateUpdateRegistrator7ForwardEv
Fpf:_X509Certificate2_GetNameInfo_m402390219
GTb:__Z33IntersectAABBPlaneBoundsOptimizedRK4AABBPKN4math7_float4Ei
bvd:_Swapper_BeginInvoke_m2652511022
Cwh:_RectOffset_t3387826427_marshal_pinvoke_back
fba:__ZN9GfxDevice19EndGeometryJobFrameEv
Vrb:__ZN27Converter_SimpleNativeClassI17AnimationCurveTplIfEE17ScriptingToNativeER18ScriptingObjectPtrPS1_
REi:__ZN6il2cpp8metadata24Il2CppGenericInstCompare7CompareERK10KeyWrapperIPK17Il2CppGenericInstES8_
e$h:__ZNK15dense_hashtableINSt3__24pairIK10KeyWrapperIPK19Il2CppGenericMethodEPK26Il2CppGenericMethodIndicesEES6_N6il2cpp8metadata23Il2CppGenericMethodHashEN14dense_hash_mapIS6_SA_SE_NS6_14EqualsComparerINSD_26Il2CppGenericMethodCompareEEENS0_9allocatorISB_EEE9SelectKeyESI_SK_E5beginEv
Fld:_Graphic_get_materialForRendering_m2600868951
Os:__ZN27AnimationLayerMixerPlayable21UpdateLayerParametersEv
Nuh:_Quaternion_Internal_FromEulerRad_m1739712481
LVe:_Collection_1_System_Collections_IList_Contains_m3210868188_gshared
O1b:__ZNK17AnimationCurveTplIfE8EvaluateEfPNS0_5CacheE
ZHb:__Z31ManagerContextInitializeClassesv
NLi:__ZL53SortedList_t3004938869_CustomAttributesCacheGeneratorP21CustomAttributesCache
Dyc:_UNITY_FT_List_Finalize
sNb:__Z20LightAttenuateApproxRKfS0_
Sva:__ZN9Scripting30SetCachedPtrOnScriptingWrapperE18ScriptingObjectPtrP6Object
rvb:__Z18Transfer_BlittableI19StreamedBinaryWriteILb0EELb0EdEvRK29SerializationCommandArgumentsR31RuntimeSerializationCommandInfo
F8c:_ASCIIEncoding_GetBytes_m3649277167
PKa:__ZN18BlockRangeInternal16PopLastNodeIndexEP10BlockRangeji
nRf:_Version__ctor_m2972638031
Rce:_Kernel_MultiplyByDword_m155008287
$1a:__ZN4MeshD0Ev
nag:__Z121RuntimeInvoker_Void_t1841601450_Int64_t909078037_RuntimeObject_RuntimeObject_Int64_t909078037_RuntimeObject_RuntimeObjectPFvvEPK10MethodInfoPvPS4_
AXc:__ZL42RequestRecreateEyeTexturesBeforeNextUpdatev
Xea:__ZNK6Camera20IsCurrentlyRenderingEv
Du:__ZN21AnimationClipPlayable23ProcessRootMotionNoClipEPK35AnimationPlayableEvaluationConstantPK32AnimationPlayableEvaluationInputP33AnimationPlayableEvaluationOutput
dPc:__Z36CanvasRenderer_CUSTOM_SetPopMaterialP12Il2CppObjectS0_i
I8h:_UpdatedEventHandler_Invoke_m4240581743
mqc:__Z18Transfer_BlittableI9JSONWriteLb0EdEvRK29SerializationCommandArgumentsR31RuntimeSerializationCommandInfo
FIa:__ZN6Camera8TransferI19StreamedBinaryWriteILb0EEEEvRT_
E0e:_ReadOnlyCollection_1_System_Collections_IList_Insert_m3679749778_gshared
iDg:_Toggle_OnDidApplyAnimationProperties_m325835214
eoj:_wctomb
Hdc:__Z27Camera_CUSTOM_GetAllCamerasP11Il2CppArray
DGd:_Convert_InternalFromBase64String_m3682756716
Wc:___cxa_rethrow
Rrc:__Z18Transfer_BlittableI8JSONReadLb1EhEvRK29SerializationCommandArgumentsR31RuntimeSerializationCommandInfo
Zxj:_glBindRenderbuffer__wrapper
LLf:_TimeSpan_Add_m3228293154
iOg:_DefaultComparer_Equals_m4098991076_gshared
AWb:__ZN13MonoBehaviour8SetClassE17ScriptingClassPtr18ScriptingObjectPtr
naf:_RC4__cctor_m523650203
K9g:_CrossContextDelegate_Invoke_m2908136830
ekb:__ZN20LocalFileSystemPosix4ReadER13FileEntryDatayyPvPy
UQb:__ZNSt3__211__sift_downIRN23ForwardShaderRenderLoop18RenderObjectSorterILb0EEEP21ForwardRenderPassDataEEvT0_S7_T_NS_15iterator_traitsIS7_E15difference_typeES7_
jye:_UnmanagedMemoryStream_get_Position_m4093669769
pCb:__ZN13MonoBehaviour5DoGUIENS_13GUILayoutTypeEii
BVf:_DerivedType_IsDefined_m555719351
Qah:_Mark_get_IsDefined_m3332701456
Bxa:__ZNK12TLSAllocatorI14StackAllocatorE8ContainsEPKv
x5a:__ZN11TimeManager8TransferI18StreamedBinaryReadILb0EEEEvRT_
Shb:__ZN15SerializeTraitsINSt3__23mapI4PPtrI6ShaderEN4core12basic_stringIcNS5_20StringStorageDefaultIcEEEENS0_4lessIS4_EENS0_9allocatorINS0_4pairIKS4_S9_EEEEEEE8TransferI24GenerateTypeTreeTransferEEvRSH_RT_
BEf:_DESTransform__cctor_m1179482644
m2a:__ZN14BlendShapeData8TransferI14SafeBinaryReadEEvRT_
sSd:_Enum_Format_m2294492821
uVa:__ZN7Texture25ReloadFromStorageIfNeededEPvb
gpc:__Z35Transfer_Blittable_FixedBufferFieldI9JSONWritehEvRK29SerializationCommandArgumentsR31RuntimeSerializationCommandInfo
NRf:_OverflowException__ctor_m2564269836
TFg:_ShimEnumerator_get_Entry_m2332479818_gshared
oNd:_DateTime_CheckDateTimeKind_m329345155_AdjustorThunk
RIc:_Update_Max
cki:__ZN6il2cpp6icalls8mscorlib6SystemL15ThrowNoWideningEv
W1b:__ZNK23TransformChangeDispatch24GetChangeMaskForInterestENS_12InterestTypeE
bjc:__Z45Transform_CUSTOM_INTERNAL_CALL_TransformPointP12Il2CppObjectRK8Vector3fRS1_
tVe:__ZN23InterfaceActionInvoker2Ii18Color32_t874517518E6InvokeEjP11Il2CppClassP12Il2CppObjectiS0_
y_b:__ZL10KeyHandleriPK23EmscriptenKeyboardEventPv
QSa:__ZNSt3__26__treeINS_12__value_typeI39DeprecatedFastPropertyNameSerializationfEENS_19__map_value_compareIS2_S3_NS_4lessIS2_EELb1EEENS_9allocatorIS3_EEE7destroyEPNS_11__tree_nodeIS3_PvEE
ACc:_tt_cmap4_char_index
kMf:_TimeSpan_op_Addition_m3421801803
Ajb:__ZNK12HandlerChain8IsHiddenERK13FileEntryData
Zfj:__ZL50Graphic_t2426225576_CustomAttributesCacheGeneratorP21CustomAttributesCache
jrb:__ZL26Transfer_SimpleNativeClassI17RemapPPtrTransfer10RectOffsetLb0EEvRK29SerializationCommandArgumentsR31RuntimeSerializationCommandInfo
ezc:__Z14ValidateFormatR13dynamic_arrayIN20TextRenderingPrivate16TextFormatChangeELj4EE
kMd:_DateTime_System_IConvertible_ToInt32_m2789391054_AdjustorThunk
bhg:__Z73RuntimeInvoker_Single_t2076509932_Vector3_t2243707580_Vector3_t2243707580PFvvEPK10MethodInfoPvPS4_
zde:_ASN1Convert_FromInt32_m1541043489
tdd:_PointerInputModule_ProcessMove_m3200120346
kHd:_Convert_ToByte_m1008221737
o9e:_MD2Managed_MD2Transform_m3825201358
Fhj:__ZL69Scrollbar_t3248359358_CustomAttributesCacheGenerator_m_OnValueChangedP21CustomAttributesCache
deb:__ZNSt3__26vectorIN9ShaderLab20SerializedSubProgram13BufferBindingENS_9allocatorIS3_EEEC2ERKS6_
Ijd:_Dropdown_AddOptions_m835420907
KGa:__ZNK9ShaderLab20ShaderBlendStateDesc15ToGfxBlendStateEPK19ShaderPropertySheetS3_R13GfxBlendState
Ugd:_CanvasUpdateRegistry_IsRebuildingLayout_m1677873278
Ay:__ZN11UnityEngine9AnimationL22GenericBindingCallbackEPvS1_i
BIc:_Compute_Point_Displacement
zhb:__ZN9ShaderLab9IntShaderC2Ev
L5h:__ZN6il2cpp6icalls8mscorlib6SystemL9IsPrivateEPK9EventInfo
tDi:__ZN6il2cpp6icalls8mscorlib6System10Reflection4Emit11TypeBuilder20setup_internal_classEP27Il2CppReflectionTypeBuilderS7_
gTg:_ArrayReadOnlyList_1_IndexOf_m1809425308_gshared
x7h:_il2cpp_gc_disable
qoc:__ZN5Unity9rapidjson6WriterI16TempBufferWriterNS0_4UTF8IcEES4_13JSONAllocatorE11WriteUint64Ey
pqf:_X509Chain_GetSubjectKeyIdentifier_m4232927227
Nwj:_glGetShaderInfoLog__wrapper
sEd:_Hashtable_Clone_m165405752
xXh:__ZN13Il2CppHashMapIPK22Il2CppGenericParameterP11Il2CppClassN6il2cpp5utils11PointerHashIS1_EENSt3__28equal_toIS2_EENS9_9allocatorINS9_4pairIK10KeyWrapperIS2_ES4_EEEEEC2EjRKS8_RKSB_
htc:__ZN8JSONRead21TransferSTLStyleArrayI31ArrayOfManagedObjectsTransfererEEvRT_17TransferMetaFlags
LCa:__Z15CreateDirectoryRKN4core12basic_stringIcNS_20StringStorageDefaultIcEEEE
VPa:__Z21CalculateGlobalMatrix23TransformAccessReadOnly
yKi:__ZL70InternalsVisibleToAttribute_t1037732567_CustomAttributesCacheGeneratorP21CustomAttributesCache
C5a:__ZNK13BuildSettings22GetTypeVirtualInternalEv
Sse:_MonoIO_GetCurrentDirectory_m1509324201
_Hf:_UTF32Encoding_GetHashCode_m4205784236
Dki:__ZN6il2cpp6icalls8mscorlib6System10Reflection8Assembly27GetManifestResourceInternalEP24Il2CppReflectionAssemblyP12Il2CppStringPiPP22Il2CppReflectionModule
n0b:__Z13RegisterClassI14RenderSettingsEvv
hVb:__ZNK25CameraStackRenderingState25CalculateCameraTargetTypeEv
SBi:_GC_set_on_event
ctg:__Z80RuntimeInvoker_Boolean_t3825574718_Navigation_t1571958496_Navigation_t1571958496PFvvEPK10MethodInfoPvPS4_
JSe:_Collection_1_ConvertItem_m3563206219_gshared
hMf:_TimeSpan_Subtract_m3597791685_AdjustorThunk
Sw:__ZN7mecanim12statemachine24CreateStateMachineOutputEPKNS0_20StateMachineConstantEjRNS_6memory9AllocatorE
ksi:__ZN6il2cpp2vm12GenericClass8GetClassEP18Il2CppGenericClass
Gba:__ZNK9GfxDevice27GetActiveRenderSurfaceWidthEv
WRc:__ZN11UnityEngine15PlatformWrapper28GetCleanGraphicsFixedVersionEv
w:tempBigIntP
Y9h:__ZN6il2cpp2vm4Type7GetTypeEPK10Il2CppType
gvd:_AssemblyLoadEventHandler_Invoke_m108373765
sdd:_PointerInputModule_ShouldStartDrag_m4163638715
aPh:__ZL24UnresolvedVirtualCall_76P12Il2CppObjectPK10MethodInfo
ola:__ZN6prcoreL17RemapGenericFloatI18TexFormatRGBAFloat17TexFormatRGBAHalfEEvPKNS_9InnerInfoE
wJb:__Z16FindCameraStacksRKNSt3__24listI4PPtrI6CameraENS_9allocatorIS3_EEEERNS_6vectorI11CameraStackNS4_ISA_EEEE
UXa:__ZN10GISettings8TransferI14SafeBinaryReadEEvRT_
sn:FUNCTION_TABLE_vifff
F2e:_ReadOnlyCollection_1_System_Collections_Generic_ICollectionU3CTU3E_Remove_m2957273994_gshared
sXb:__ZN19CustomRenderTexture12ClearGPUDataEv
iad:_BaseInputModule_ShouldActivateModule_m2899747874
nsg:__Z86RuntimeInvoker_Int32_t2071877448_DateTimeOffset_t1362988906_DateTimeOffset_t1362988906PFvvEPK10MethodInfoPvPS4_
PQa:__ZN13RenderTexture13ApplySettingsEv
rvj:_glVertexAttrib4f__wrapper
Ue:_JS_Sound_SetListenerPosition
kn:FUNCTION_TABLE_fiffi
SYf:_ModuleBuilderTokenGenerator_GetToken_m3427457873
VOc:__Z55Register_UnityEngine_CanvasGroup_get_ignoreParentGroupsv
jAg:_Selectable_get_isPointerInside_m3162215687
o_d:_Array_FindIndex_TisRuntimeObject_m4149904176_gshared
HGe:_List_1_System_Collections_IList_Contains_m149594880_gshared
UQf:_UnauthorizedAccessException__ctor_m3480402128
Oce:_BigInteger_op_Modulus_m3788401748
kah:_ArgInfo_GetInOutArgs_m3184132151
Fbb:__ZNK8Material16MarkDependenciesER27GarbageCollectorThreadState
cvh:_Random_Range_m3327624272
pqc:__ZL17Transfer_GUIStyleI9JSONWriteLb0EEvRK29SerializationCommandArgumentsR31RuntimeSerializationCommandInfo
kOb:__Z28GetHaloVertexPositionsStereoP8Vector3fRKS_S2_f
dma:__ZN6prcoreL27StretchGenericFloatBilinearI15TexFormatRGHalfEEvPKNS_9InnerInfoE
LDe:_Enumerator_MoveNext_m598197344_AdjustorThunk
cX:__GLOBAL__sub_I_runtime_misc_0_cpp
Z7c:_String_JoinUnchecked_m1880555587
QGa:__ZNK9ShaderLab7Program21GetMatchingSubProgramEPK6ShaderPKNS_4PassERK16ShaderKeywordSetjPS7_R19ShaderSnippetResult
n2d:_Array_InternalArray__Insert_TisKeyValuePair_2_t1174980068_m2464431954_gshared
vhc:__Z49Register_UnityEngine_Resources_GetBuiltinResourcev
MCc:_tt_cmap10_char_index
Ejd:_Dropdown_Awake_m335654827
PMg:_Dictionary_2_U3CCopyToU3Em__0_m1479035402_gshared
kCd:_BitArray_set_Item_m3801461194
$Xh:__ZN15dense_hashtableINSt3__24pairIK10KeyWrapperIPK22Il2CppGenericParameterEP11Il2CppClassEES6_N6il2cpp5utils11PointerHashIS4_EEN14dense_hash_mapIS6_S9_SE_NS6_14EqualsComparerINS0_8equal_toIS5_EEEENS0_9allocatorISA_EEE9SelectKeyESJ_SL_E3endEv
I7c:_String_Remove_m3580114465
MFh:_GUIUtility_EndGUIFromException_m3100752188
mP:__ZN11AudioSource24ClearExtensionPropertiesE12PropertyName
Sfb:__ZN9ShaderLab22SerializedBindChannels8TransferI19StreamedBinaryWriteILb0EEEEvRT_
upb:__ZN15SerializeTraitsI5RectTIiEE8TransferI14SafeBinaryReadEEvRS1_RT_
jdg:__Z82RuntimeInvoker_Int32_t2071877448_RuntimeObject_Int32_t2071877448_Int16_t4041245914PFvvEPK10MethodInfoPvPS4_
Gnf:_WebHeaderCollection_AddWithoutValidate_m1479880592
Jyc:_UNITY_FT_Stream_ReadUShort
Ypd:_InputField_OnEnable_m3797157569
Hfc:__Z51Register_UnityEngine_GUILayer_INTERNAL_CALL_HitTestv
xSa:__ZNSt3__26__treeINS_12__value_typeIN4core12basic_stringIcNS2_20StringStorageDefaultIcEEEES6_EENS_19__map_value_compareIS6_S7_NS_4lessIS6_EELb1EEE13stl_allocatorIS7_L18MemLabelIdentifier1ELi16EEE7destroyEPNS_11__tree_nodeIS7_PvEE
gSh:_Nullable_1__ctor_m796575255_gshared
Hxi:__ZN6il2cpp2vm8Profiler7GCEventE13Il2CppGCEvent
uMd:_DateTimeUtils_ToString_m3878360633
Qii:__ZN15dense_hashtableINSt3__24pairIK10KeyWrapperIP11Il2CppClassES4_EES5_N6il2cpp8metadata16SZArrayClassHashEN14dense_hash_mapIS5_S4_SA_NS5_14EqualsComparerINS9_19SZArrayClassCompareEEENS0_9allocatorIS7_EEE9SelectKeyESE_SG_E4findERS6_
bki:__ZN6il2cpp6icalls8mscorlib6SystemL16ThrowInvalidCastEPK11Il2CppClassS5_
kha:__Z13IsDepthFormat14GraphicsFormat
M6a:__ZN12AspectRatios8TransferI24GenerateTypeTreeTransferEEvRT_
_hh:_Bounds_GetHashCode_m458298790
rvc:__Z12FormatBufferPciPKcz
Ked:_TouchInputModule_Process_m1373751353
jYf:_MethodBuilder_Invoke_m1874904900
lYh:__ZN6il2cpp2vm5Class13GetArrayClassEP11Il2CppClassj
YFb:__ZN19RuntimeSceneManager18LoadSceneAsyncIntoER10UnitySceneRKN4core12basic_stringIcNS2_20StringStorageDefaultIcEEEENS_11LoadingModeEb
mVf:_DerivedType_InvokeMember_m4149586013
Wjf:_TlsStream_SetLength_m1460039587
emc:__ZN11IMGUIModule12AddGUIScriptER8ListNodeI13MonoBehaviourE
nb:invoke_difi
Y4:__ZL50StaticRegisterSceneLoadedCallback_LightmapSettingsPv
q9f:__Z119RuntimeInvoker_Void_t1841601450_RuntimeObject_RuntimeObject_RuntimeObject_RuntimeObject_Int32_t2071877448_RuntimeObjectPFvvEPK10MethodInfoPvPS4_
Km:FUNCTION_TABLE_iiffi
Hmd:_GridLayoutGroup_get_cellSize_m1061731753
Kga:__ZN21GLESGpuProgramApplier11ApplyVectorERKN20GpuProgramParameters14ValueParameterEPK8Vector4ft
WQc:__ZN22BaseUnityConnectClient17SaveSessionValuesEv
ama:__ZN6prcoreL27StretchGenericFloatBilinearI18TexFormatRGBAFloatEEvPKNS_9InnerInfoE
sfh:_Parser_IsIgnoreCase_m4155598997
WDh:_GUILayoutUtility_LayoutSingleGroup_m3024581181
XEc:_cff_size_done
BTb:__ZN29ExtractProjectionPlanesHelperILb1EE5ApplyERK10Matrix4x4fP5Plane
cKb:__ZN22RenderingCommandBuffer13GetAndCheckRTE24BuiltinRenderTextureTypeRKN9ShaderLab16FastPropertyNameEPKcPP13RenderTexture
IXb:__ZN6Camera34UpdatePreviousViewProjectionMatrixEv
WRa:__ZN9ShaderLab11ShaderState25RemoveUnsupportedProgramsEPK6Shader
Mgb:__ZL23AddGpuProgramParametersR20GpuProgramParametersRKNSt3__26vectorIN9ShaderLab20SerializedSubProgram15MatrixParameterENS1_9allocatorIS5_EEEERKNS2_INS4_15VectorParameterENS6_ISB_EEEEiP16PropertyNamesSet
Ljc:__Z44Register_UnityEngine_Object_DestroyImmediatev
$Pi:__ZL62_ConstructorBuilder_t1236878896_CustomAttributesCacheGeneratorP21CustomAttributesCache
pqe:_Int64_System_IConvertible_ToInt16_m2022633688_AdjustorThunk
aCe:_OrdinalComparer__ctor_m2952942058
NTc:__ZNSt3__26__treeINS_12__value_typeIN4core12basic_stringIcNS2_20StringStorageDefaultIcEEEEN11UnityEngine7Connect19RemoteSettingsValueEEENS_19__map_value_compareIS6_SA_NS_4lessIS6_EELb1EEE13stl_allocatorISA_L18MemLabelIdentifier6ELi16EEE16__construct_nodeERKNS_4pairIKS6_S9_EE
nAh:_Transform_INTERNAL_get_localPosition_m130325652
YP:__Z71Register_UnityEngine_AudioSource_INTERNAL_CALL_ClearExtensionPropertiesv
bGi:__ZN6il2cpp8metadata25Il2CppGenericClassCompare7CompareEPK18Il2CppGenericClassS4_
cC:__ZNK8Animator20IsInMatchTargetStateEv
dH:__ZN13AudioListener23VirtualRedirectTransferER24GenerateTypeTreeTransfer
vMi:__ZL51TextInfo_t3620182823_CustomAttributesCacheGeneratorP21CustomAttributesCache
Lmc:__Z36Register_UnityEngine_GUI_set_changedv
Phd:_ColorTween_get_startColor_m278546349_AdjustorThunk
$Ff:_Encoding_get_Unicode_m1382741113
Vhh:_Behaviour_set_enabled_m602406666
x8g:_LifetimeServices_set_SponsorshipTimeout_m1403222216
Dzd:_Char_ToString_m1401375624_AdjustorThunk
Y$d:_Array_InternalArray__ICollection_Add_TisTableRange_t2011406615_m147373358_gshared
DId:_Convert_ToDateTime_m1251728572
_$d:_Array_InternalArray__ICollection_Add_TisBoolean_t3825574718_m1009318882_gshared
A3e:_ReadOnlyCollection_1_System_Collections_IList_set_Item_m1149349508_gshared
nw:__ZN27AnimationLayerMixerPlayable18SetInputConnectionEP8Playablei
Yv:__ZN7mecanim28TransformValueArrayBlendNodeEiiiRKNS_10ValueArrayERKNS_14ValueArrayMaskERS0_RS3_RNS_16ValueArrayWeightEf
XAf:_ObjectReader_ReadObjectContent_m3949770110
hph:_Mesh_get_colors32_m1054093013
MZh:__ZN6il2cpp2vm5Class40GetInterfaceInvokeDataFromVTableSlowPathEPK12Il2CppObjectPK11Il2CppClassj
GLa:__ZN20TierGraphicsSettings8TransferI18StreamedBinaryReadILb0EEEEvRT_
iji:__GLOBAL__sub_I_Thread_cpp
FSa:__ZN14SafeBinaryRead8TransferINSt3__24pairIN9ShaderLab16FastPropertyNameE10ColorRGBAfEEEEvRT_PKc17TransferMetaFlags
jWh:__ZL9rshift128PyS_
RAf:_ObjectReader_RecordFixup_m1893348030
A7d:_LayoutGroup_SetProperty_TisRuntimeObject_m1703476175_gshared
gWf:_EnumBuilder_GetElementType_m1228393631
Ygi:__ZN14dense_hash_mapI10KeyWrapperINSt3__24pairIPK12PropertyInfoP11Il2CppClassEEEj17ReflectionMapHashIS8_ENS9_14EqualsComparerINS1_8equal_toIS8_EEEENS1_9allocatorINS2_IKS9_jEEEEE13set_empty_keyERSH_
Mg:_glRenderbufferStorage
Boi:__ZNK15dense_hashtableINSt3__24pairIK10KeyWrapperINS1_IPKcS4_EEEiEES6_24NamespaceAndNamePairHashN14dense_hash_mapIS6_iS9_NS6_14EqualsComparerI26NamespaceAndNamePairEqualsEENS0_9allocatorIS8_EEE9SelectKeyESD_SF_E13find_positionERS7_
jgc:__Z45Register_UnityEngine_Input_get_touchSupportedv
_Rc:__ZN11UnityEngine15PlatformWrapper28GetTextureFormatSupportFlagsEv
BAc:_UNITY_FT_Create_Class_pshinter_module_class
f7c:_String_CompareOrdinalCaseInsensitiveUnchecked_m2002640463
Xwd:_Boolean_GetHashCode_m1894638460
zFc:_cf2_setError
oIf:_UTF7Encoding_InternalGetChars_m4157428055
oab:__Z33InterpolateLightProbeCoefficientsRK17LightProbeContextRK29LightProbeSamplingCoordinatesR20SphericalHarmonicsL2
zFg:_Enumerator_Reset_m3129803197_AdjustorThunk
vIb:__ZZ23InitPlayerLoopCallbacksvEN35PreUpdateSendMouseEventsRegistrator7ForwardEv
_ee:_SmallXmlParser_HandleBufferedContent_m3397096753
_ea:__ZNK6Camera25GetNormalizedViewportRectEP13RenderTextureb
Zg:_glDisable
erd:_InputField_OnDeselect_m3963675647
iRa:__ZN13RenderTexture8TransferI24GenerateTypeTreeTransferEEvRT_
Wwi:__ZN6il2cpp5utils11StringUtils15StringDuplicateEPKDsj
rsf:_BaseMachine_Scan_m122450399
Wu:__ZN17AnimationPlayable17ProcessRootMotionEP35AnimationPlayableEvaluationConstantP32AnimationPlayableEvaluationInputP33AnimationPlayableEvaluationOutput
oAd:_ArrayList_CopyTo_m2353632788
Emh:_GameObject_get_activeSelf_m2643917226
P4:__ZNSt3__26vectorINS_4pairIyP17VertexDeclarationEENS_9allocatorIS4_EEE6assignIPS4_EENS_9enable_ifIXaasr21__is_forward_iteratorIT_EE5valuesr16is_constructibleIS4_NS_15iterator_traitsISB_E9referenceEEE5valueEvE4typeESB_SB_
jDj:b119
sJb:__ZNK8Material12GetPassCountEv
RFd:_Enumerator__cctor_m3784927209
aDj:b110
bDj:b111
cDj:b112
esj:_bitshift64Ashr
eDj:b114
fDj:b115
gDj:b116
hDj:b117
Cia:__ZN4crnd12crn_unpacker22decode_alpha_endpointsEv
fUb:__Z23CullDynamicObjectsUmbraPK4AABBPKN5Umbra15OcclusionBufferER9IndexList
Mx:__ZThn148_NK26AnimatorControllerPlayable41GetStateMachineBehaviourVectorDescriptionEv
BCc:_tt_cmap4_char_next
ooh:_Mathf_Approximately_m1944881077
ejg:__Z444RuntimeInvoker_Boolean_t3825574718_RuntimeObject_RuntimeObject_RuntimeObject_ColorU26_t3402129837_Int32_t2071877448_Single_t2076509932_Single_t2076509932_Int32_t2071877448_SByte_t454417549_SByte_t454417549_Int32_t2071877448_Int32_t2071877448_Int32_t2071877448_Int32_t2071877448_SByte_t454417549_Int32_t2071877448_Single_t2076509932_Single_t2076509932_Single_t2076509932_Single_t2076509932_SByte_t454417549_SByte_t454417549_UInt32U26_t2197289955PFvvEPK10MethodInfoPvPS4_
Fqh:_GeneralNames_ToString_m800435094
Ifd:_BaseMeshEffect_OnDidApplyAnimationProperties_m2484799839
M8c:_ASCIIEncoding_GetString_m3931709239
vCh:_Vector4_Equals_m2166390052
Cxh:_RectTransform_SetInsetAndSizeFromParentEdge_m2595554673
BW:__GLOBAL__sub_I_runtime_assetbundles_1_cpp
tI:__ZN4FMOD7Channel11setPositionEjj
Rh:_glBindSampler
P4e:_ReadOnlyCollection_1_System_Collections_Generic_ICollectionU3CTU3E_Clear_m964488020_gshared
Vh:_glGetVertexAttribiv
h7c:_String_IndexOfAny_m2027595557
a0d:_Array_InternalArray__ICollection_Add_TisChar_t3454481338_m422084244_gshared
LLc:__ZN2UI11CanvasGroup23VirtualRedirectTransferER18StreamedBinaryReadILb0EE
qzh:_Texture__ctor_m1220114221
utc:__ZN8JSONRead8TransferIbEEvRT_PKc17TransferMetaFlagsb
yof:_X509KeyUsageExtension_Decode_m3292847033
ekg:__Z52RuntimeInvoker_RaycastResult_t21186376_RuntimeObjectPFvvEPK10MethodInfoPvPS4_
n$f:_Module_filter_by_type_name_ignore_case_m3574895736
xXa:__ZN26CustomRenderTextureManager19PreAllocateMaterialEP19CustomRenderTexture
xAf:_ObjectReader_ReadObject_m397855326
Ryi:_GC_promote_black_lists
Ind:_Image_get_fillAmount_m3354146540
iuc:__Z29Transfer_Blittable_ArrayFieldI8JSONRead8Vector4fEvRT_R9ArrayInfoRK23StaticTransferFieldInfo
Qn:FUNCTION_TABLE_vf
oo:FUNCTION_TABLE_vd
tNf:_Type_GetMethod_m1930231379
qo:FUNCTION_TABLE_vi
iY:__ZN13RuntimeStaticI37UnityShaderCompilerExtPluginConfigureLb0EE16StaticInitializeEPv
yTc:__ZN11UnityEngine7Connect17DeviceStatusEvent20SetDeviceAspectRatioEf
oae:_SimpleCollator_GetContraction_m1391584430
_wd:_CultureInfo_get_InvariantCulture_m398972276
Awd:_Boolean_System_IConvertible_ToInt64_m4142756949_AdjustorThunk
IE:__ZNK8Animator17HasBoundPlayablesEv
Jnc:__ZN5Unity9rapidjson13GenericReaderINS0_4UTF8IcEES3_13JSONAllocatorE10ParseFalseILj0ENS0_19GenericStringStreamIS3_EENS0_15GenericDocumentIS3_S4_S4_EEEEvRT0_RT1_
c9e:_HMAC_initializePad_m3828610671
PQg:_EqualityComparer_1_System_Collections_IEqualityComparer_Equals_m1089835085_gshared
W$c:_RSAParameters_t1462703416_marshal_pinvoke_cleanup
b6h:__ZN6il2cpp2vm7Runtime9SetConfigEPKc
moc:__ZN5Unity9rapidjson12PrettyWriterI16TempBufferWriterNS0_4UTF8IcEES4_13JSONAllocatorE10StartArrayEv
ta:invoke_iiifiii
Fli:__ZN6il2cpp2vm9Exception11FromNameMsgEPK11Il2CppImagePKcS6_S6_
fNf:_Type_internal_from_name_m1506974323
an:FUNCTION_TABLE_fiiifii
cE:__ZN10HumanTrait15InitializeClassEv
Y6:__Z14GetTimeManagerv
JWc:__ZN19TransportJavaScript7CleanupEv
KCa:__Z12GUIDToStringRK9UnityGUIDPc
HL:__ZN11AudioSource22UnmuteActiveVideoSinksEv
Twi:__ZN4utf88internal20is_overlong_sequenceIiEEbjT_
Pi:_glReadBuffer
yEa:__Z9SetLocalR15TransformAccessRKN4math7_float4Ey
EBd:_SynchronizedArrayListWrapper_get_Count_m4104930530
ZPb:__Z30SetupBakedOcclusionForGeometrybRK26SharedLightmapSettingsDataRK15LightmapIndicesR17ShaderPassContext
X2c:_SecurityPermission_IsSubsetOf_m1087302418
jec:__Z41Register_UnityEngine_Cursor_get_lockStatev
iDh:_Event_Internal_GetMousePosition_m2992465246
vPb:__Z14SetupLightmapsRK8Vector4fS1_R17ShaderPassContext
wfi:__ZN14dense_hash_mapI10KeyWrapperIPK14Il2CppAssemblyEPK22Il2CppMonoAssemblyNameN6il2cpp5utils11PointerHashIS2_EENS4_14EqualsComparerINSt3__28equal_toIS3_EEEENSD_9allocatorINSD_4pairIKS4_S7_EEEEE13set_empty_keyERSJ_
duf:_Interval_get_Empty_m3170923997
eQa:__ZL20InitializeGUIShadersv
N1b:__Z20DestroyObjectDelayedP6Objectf
OV:__ZN20DynamicHeapAllocatorI17LowLevelAllocatorED0Ev
tqd:_InputField_OnDrag_m726194348
wbe:_PreviousInfo__ctor_m1442166472_AdjustorThunk
SMb:__ZN9DepthPassD2Ev
jUh:_TextGenerator_get_rectExtents_m954923136
mH:__ZN11AudioFilter6GetDSPEv
T_:__ZN19RuntimeSceneManager14CanUnloadSceneEP10UnityScene
rcg:__Z50RuntimeInvoker_Single_t2076509932_Int64_t909078037PFvvEPK10MethodInfoPvPS4_
UMb:__Z22ExtractRenderNodeQueueRK11CullResults15ExtractionFlagsR15RenderNodeQueue
e4d:_Array_InternalArray__set_Item_TisContentType_t1028629049_m703420360_gshared
TQe:_List_1_set_Item_m1431784996_gshared
tG:__ZN24AudioScriptBufferManagerC2Ev
Dxc:__ZNSt3__26vectorIh13stl_allocatorIhL18MemLabelIdentifier1ELi16EEE8__appendEj
f6f:__Z95RuntimeInvoker_Void_t1841601450_RuntimeObject_Int32_t2071877448_Int32_t2071877448_RuntimeObjectPFvvEPK10MethodInfoPvPS4_
Anc:__ZN8JSONRead32GetValueForKeyWithNameConversionEPKN5Unity9rapidjson12GenericValueINS1_4UTF8IcEE13JSONAllocatorEEPKc
Gxc:__ZN20TextRenderingPrivate8FontImpl16ResetPackingDataEv
O_d:_Array_InternalArray__IndexOf_TisLink_t865133271_m3612939760_gshared
anh:_Input_get_mousePresent_m1100327283
hpc:__Z18Transfer_BlittableI9JSONWriteLb0EfEvRK29SerializationCommandArgumentsR31RuntimeSerializationCommandInfo
Uha:__Z21GetAsyncUploadManagerv
Gj:_emscripten_glDetachShader
v9d:_SafeHandleZeroOrMinusOneIsInvalid_get_IsInvalid_m2033528032
pzd:_Char_IsUpper_m4083577610
Iha:__ZN17GenericDynamicVBO20ReleaseChunkInternalERK21DynamicVBOChunkHandlejj
pKc:__ZL27CleanupModule_TextRenderingv
u9d:_SafeHandleZeroOrMinusOneIsInvalid__ctor_m3340306667
Goj:_fmodl
XBf:_SerializationInfo_AddValue_m902275108
Uoj:_fmodf
Jva:__ZN12CachedWriter11Align4WriteEv
YNb:__Z20DoDeferredRenderLoopR17RenderLoopContextR13dynamic_arrayI16RenderObjectDataLj4EES4_RK11CullResultsRP13RenderTextureSA_Pb
aGb:__ZN19RuntimeSceneManager11CreateSceneEv
DBh:_Vector2_op_Implicit_m385881926
NEc:_ps_get_standard_strings
YPb:__Z27SetupBakedOcclusionForLightbRK15SharedLightDataR17ShaderPassContext
qEi:__ZN6il2cpp2os5Mutex6UnlockEv
nzg:_ScrollRect_OnScroll_m3346515304
wEe:_Enumerator_System_Collections_IEnumerator_get_Current_m3461301268_gshared
JLg:_Dictionary_2_CopyToCheck_m1638253305_gshared
UJb:__Z18RenderImageFiltersR10RenderLoopb
gW:__Z19free_alloc_internalPv18MemLabelIdentifier
$Oc:__Z43CanvasRenderer_Get_Custom_PropMaterialCountP12Il2CppObject
hQb:__ZNSt3__227__insertion_sort_incompleteIR23CompareReflectionProbesP31RuntimeReflectionProbeBlendInfoEEbT0_S5_T_
w0e:_ReadOnlyCollection_1_System_Collections_Generic_IListU3CTU3E_set_Item_m25653560_gshared
Duc:__ZN8JSONRead21TransferSTLStyleArrayI13dynamic_arrayI11QuaternionfLj4EEEEvRT_17TransferMetaFlags
iij:__ZL68Selectable_t1490392188_CustomAttributesCacheGenerator_m_InteractableP21CustomAttributesCache
zac:__ZN19RuntimeSceneManager32LoadSceneAsyncByNameOrBuildIndexERKN4core12basic_stringIcNS0_20StringStorageDefaultIcEEEEiNS_11LoadingModeEb
cbf:_CertificateSelectionCallback_Invoke_m2902629105
p4:__ZN10InputEventD2Ev
HHd:_DateTimeFormatInfo_GetAllDateTimePatternsInternal_m1587126173
Koe:_NumberFormatter_Append_m3268121457
Gga:__ZN15dense_hashtableINSt3__24pairIK9TextureIDiEES2_N12TextureIdMap20TextureIDHashFunctorEN14dense_hash_mapIS2_iS6_NS0_8equal_toIS2_EE13stl_allocatorIS4_L18MemLabelIdentifier67ELi16EEE9SelectKeyES9_SC_E12resize_deltaEjj
VWc:__ZN22UnityWebRequestManagerD2Ev
F$c:_RSA_ToXmlString_m4145056574
IRd:_Double_System_IConvertible_ToUInt64_m1318285078_AdjustorThunk
loj:_isalpha
Vxg:_Selectable_FindSelectable_m2739582497
tnd:_LayoutGroup_GetAlignmentOnAxis_m1783063916
wMd:_DateTimeUtils_ZeroPad_m86470512
Z3h:__ZN6il2cpp2vmL17IsSocketAsyncCallEP14Il2CppDelegate
mJh:_U3CStartU3Ec__Iterator0_MoveNext_m42377021_gshared
rwi:__ZN6il2cpp2vm6String6NewLenEPKcj
bEb:__ZN17PersistentManager9AddStreamEv
Wk:_time
dph:_Mesh_get_uv_m1990385212
muh:_PlayableOutput_Equals_m2167434642_AdjustorThunk
hmd:_Graphic_UnregisterDirtyLayoutCallback_m1724443555
_8e:_CryptoConvert_ToHex_m2874017189
fGc:_cf2_stack_free
Obd:_ExecuteEvents_get_pointerClickHandler_m713983310
Ku:__ZN7mecanim9animation19EvaluateFloatValuesEPKNS0_18ClipMuscleConstantEPKNS_18ValueArrayConstantEPKNS0_12ClipBindingsEPKNS0_10ClipOutputEPNS0_18AnimationNodeStateEfbb
JC:__ZN8Animator31ClearInternalControllerPlayableEv
MRf:_WeakReference_Finalize_m3318354542
WDa:__ZN10GameObject8TransferI24GenerateTypeTreeTransferEEvRT_
$Ee:_Enumerator_VerifyState_m3913376581_gshared
obi:__ZN15dense_hashtableINSt3__24pairIK10KeyWrapperINS1_IPK9FieldInfoP11Il2CppClassEEEjEES9_17ReflectionMapHashIS8_EN14dense_hash_mapIS9_jSD_NS9_14EqualsComparerINS0_8equal_toIS8_EEEENS0_9allocatorISB_EEE9SelectKeyESI_SK_E4findERSA_
TBj:_glDeleteSync__wrapper
aJd:_Decimal_op_Implicit_m623319612
wIg:_ValueCollection_System_Collections_Generic_ICollectionU3CTValueU3E_Remove_m98888100_gshared
abd:_EventTrigger_OnPointerExit_m2119176877
wKf:_ThreadAbortException__ctor_m1623816114
v2b:__ZN13ProduceHelperI30RuntimeInitializeOnLoadManagerLb0EE7ProduceE18MemLabelIdentifier18ObjectCreationMode
JVb:__ZN13RenderTexture19SetAutoGenerateMipsEb
kja:__Z20GetTextureFormatInfo13TextureFormat
N4b:__Z40InitializeLightAnimationBindingInterfacev
E8f:__Z119RuntimeInvoker_RuntimeObject_RuntimeObject_RuntimeObject_Int32_t2071877448_Int32_t2071877448_MonoIOErrorU26_t1029615899PFvvEPK10MethodInfoPvPS4_
xx:__ZN26AnimatorControllerPlayable8GetFloatEiRf
Qvg:_Shadow__ctor_m924057531
Qcd:_PointerEventData_set_worldPosition_m192283671
MCi:__ZN6il2cpp5utils10MemoryPool6MallocEj
NF:__ZN11SoundHandle8InstanceD2Ev
y7:__ZN31CanvasBatchIntermediateRenderer13StaticDestroyEPv
Hth:_X509Store_BuildCrlsCollection_m52567568
w0:__ZNSt3__23mapIiP15MonoScriptCacheNS_4lessIiEE13stl_allocatorINS_4pairIKiS2_EEL18MemLabelIdentifier78ELi16EEEixERS7_
H8d:_Array_InternalArray__get_Item_TisUICharInfo_t3056636800_m3872982785_gshared
jph:_Mesh_SetNormals_m2780518036
rSd:_Enum_ToString_m662345249
yhg:__Z150RuntimeInvoker_Single_t2076509932_Single_t2076509932_Single_t2076509932_SingleU26_t4173844468_Single_t2076509932_Single_t2076509932_Single_t2076509932PFvvEPK10MethodInfoPvPS4_
gec:__Z41Register_UnityEngine_CullingGroup_Disposev
iWa:__ZN7Cubemap23VirtualRedirectTransferER19StreamedBinaryWriteILb0EE
jBa:__ZN25MultiBlocksMemoryFileData5WriteEyyPKv
nMe:_List_1_System_Collections_IList_Add_m4271264217_gshared
sgi:__ZN14dense_hash_mapI10KeyWrapperIPK10Il2CppTypeEjN6il2cpp8metadata14Il2CppTypeHashENS4_14EqualsComparerINS6_26Il2CppTypeEqualityComparerEEENSt3__29allocatorINSB_4pairIKS4_jEEEEE13set_empty_keyERSE_
Wma:__ZL17ProgramUniform2fvPK7ApiGLESjiihPKv
Ozj:b83
yxc:__ZN20TextRenderingPrivate8FontImpl21HasCharacterInTextureEjijfPj
Hpj:_htonl
uea:__Z20GetBufferManagerGLESv
xAb:__ZN18StreamedBinaryReadILb0EE21TransferSTLStyleArrayI31ArrayOfManagedObjectsTransfererEEvRT_17TransferMetaFlags
zIf:_UTF7Decoder_GetChars_m2790530452
ssc:__Z18Transfer_BlittableI8JSONReadLb0EtEvRK29SerializationCommandArgumentsR31RuntimeSerializationCommandInfo
rCg:_Text_set_fontSize_m2101304336
pAc:_pshinter_module_class_pic_free
shj:__ZL68Navigation_t1571958496_CustomAttributesCacheGenerator_m_SelectOnLeftP21CustomAttributesCache
gy:__ZN34AnimationStateMachineMixerPlayable13EndTransitionEv
Mwi:__ZNSt3__212basic_stringIDsNS_11char_traitsIDsEENS_9allocatorIDsEEE9__grow_byEjjjjjj
WH:__ZN12AudioManager21FixMasterGroupRoutingEv
E1c:_SymmetricAlgorithm_set_Key_m2973350820
Lfj:__ZL58FontData_t2614388407_CustomAttributesCacheGenerator_m_FontP21CustomAttributesCache
Inf:_WebHeaderCollection_IsHeaderValue_m1723393133
Iwc:__ZN20TextRenderingPrivate8FontImpl13CharacterInfo8TransferI24GenerateTypeTreeTransferEEvRT_
J6f:__Z69RuntimeInvoker_Boolean_t3825574718_Int32_t2071877448_SByte_t454417549PFvvEPK10MethodInfoPvPS4_
Ati:__ZN6il2cpp2os10ThreadImpl33UnregisterCurrentThreadForCleanupEv
qw:__ZN27AnimationLayerMixerPlayable22PrepareAnimationEventsEfR13dynamic_arrayI22AnimationClipEventInfoLj4EE
Omb:__Z18Transfer_BlittableI14SafeBinaryReadLb1E4AABBEvRK29SerializationCommandArgumentsR31RuntimeSerializationCommandInfo
Jsi:__ZN6il2cpp6icalls8mscorlib6System4Enum12get_hashcodeEP12Il2CppObject
PBi:_GC_set_no_dls
fGi:__ZN6il2cpp8metadata26Il2CppGenericMethodCompare6EqualsEPK19Il2CppGenericMethodS4_
P5:__Z22CreateMutexLockedQueue18MemLabelIdentifier
BG:__ZN9AudioClip7WWWOpenEPKciPjPPvS4_
Fmb:__Z18Transfer_BlittableI14SafeBinaryReadLb0E8Vector2fEvRK29SerializationCommandArgumentsR31RuntimeSerializationCommandInfo
a4d:_Array_InternalArray__set_Item_TisPlayableBinding_t2498078091_m2071396616_gshared
fxe:_SynchronizedReader_Peek_m282642073
Kdb:__ZN15SerializeTraitsIN9ShaderLab20SerializedSubProgram16TextureParameterEE8TransferI14SafeBinaryReadEEvRS2_RT_
Bxd:_Byte_System_IConvertible_ToInt16_m1575115635_AdjustorThunk
PBh:_Vector3_set_Item_m2026854946_AdjustorThunk
_8g:_Context_get_HasGlobalDynamicSinks_m3205328884
Nae:_SimpleCollator_CompareQuick_m619038530
rjf:_SslStreamBase_EndRead_m1072850679
fd:_SDL_GetTicks
Hie:_X509CertificateEnumerator_System_Collections_IEnumerator_get_Current_m1643583406
doa:__ZN18GfxFramebufferGLES20CleanupFBOMapForRBIDERKj
hdi:__ZN15dense_hashtableINSt3__24pairIK10KeyWrapperINS1_IPK11Il2CppImageP11Il2CppClassEEEjEES9_17ReflectionMapHashIS8_EN14dense_hash_mapIS9_jSD_NS9_14EqualsComparerINS0_8equal_toIS8_EEEENS0_9allocatorISB_EEE9SelectKeyESI_SK_E6insertERKSB_
MTb:__Z21CreateShadowCullerJobP30CreateUmbraShadowCullerJobData
Oma:__ZL18ProgramUniform2uivPK7ApiGLESjiihPKv
$lj:_AudioConfigurationChangeHandler_BeginInvoke_m1585211075
KQb:__Z33GenerateShadowCasterPartsSortDataRK16ShadowCasterDatajRK15RenderNodeQueueRKNSt3__26vectorI20ShadowCasterPartData13stl_allocatorIS7_L18MemLabelIdentifier2ELi16EEEERK10Matrix4x4fRjP20ShadowCasterSortData
Rmh:_GUILayer_INTERNAL_CALL_HitTest_m381183969
zHh:_UnityAction_2_Invoke_m319876726_gshared
Jpb:__Z29Transfer_Blittable_ArrayFieldI14SafeBinaryRead9BoundsIntEvRT_R9ArrayInfoRK23StaticTransferFieldInfo
zNg:_Dictionary_2_ToTKey_m4209561517_gshared
tFc:_cf2_computeDarkening
lzi:_GC_expand_hp_inner
gqi:__ZNK15dense_hashtableI10KeyWrapperIP18Il2CppGenericClassES3_N6il2cpp8metadata22Il2CppGenericClassHashEN14dense_hash_setIS3_S6_NS3_14EqualsComparerINS5_25Il2CppGenericClassCompareEEENSt3__29allocatorIS3_EEE8IdentityESA_SD_E12test_deletedEj
cfc:__Z25Screen_Get_Custom_PropDpiv
Jmd:_GridLayoutGroup_get_spacing_m1909275195
Iwi:__ZN4utf812find_invalidIPKcEET_S3_S3_
Xrf:_X509ExtensionCollection_System_Collections_ICollection_CopyTo_m3421329346
Fyi:_GC_err_printf
TWf:_FieldBuilder_SetValue_m3109503557
sld:_Graphic_OnBeforeTransformParentChanged_m1866292273
Opf:_X509Certificate2_Verify_m1574874641
QS:__ZN11UnityEngine15CloudWebService20WebRequestRestClient7PrepareEv
Jej:__ZL58PhysicsRaycaster_t249603239_CustomAttributesCacheGeneratorP21CustomAttributesCache
mxc:__ZN20TextRenderingPrivate19NativeTextGenerator23FixLineHorizontalOffsetEiii
JFd:_SortedList_GetEnumerator_m1318483481
VDh:_GUILayoutUtility_LayoutFreeGroup_m2224160855
qz:__ZN7mecanim9animation19DestroyAnimationSetEPNS0_12AnimationSetERNS_6memory9AllocatorE
Cvj:_emscripten_glDepthRange__wrapper
x1:__ZN14SerializedFile7ReleaseEv
cUh:_TextGenerator__ctor_m1469954680
Ukb:__ZN16MemoryFileSystem4OpenER13FileEntryData14FilePermission16FileAutoBehavior
l7:__ZN13RuntimeStaticI13RendererSceneLb0EE13StaticDestroyEPv
Ssb:__Z18Transfer_BlittableI24GenerateTypeTreeTransferLb1E12PropertyNameEvRK29SerializationCommandArgumentsR31RuntimeSerializationCommandInfo
L4b:__ZN5Light15InitializeClassEv
K5a:__ZN14SafeBinaryRead21TransferSTLStyleArrayI10vector_mapIPKN5Unity4TypeE7Hash128NSt3__24lessIS5_EENS7_9allocatorINS7_4pairIS5_S6_EEEEEEEvRT_17TransferMetaFlags
AG:__ZN9AudioClip18GetQueuedAudioDataEPPvj
dKc:__ZN20TextRenderingPrivate21TextMeshGeneratorImpl14GarbageCollectEv
K8b:__ZNK9Texture2D17CheckHasPixelDataEv
Fub:__Z18Transfer_BlittableI19StreamedBinaryWriteILb0EELb0E9BoundsIntEvRK29SerializationCommandArgumentsR31RuntimeSerializationCommandInfo
BMb:__Z18SetShadowsKeywordsR17ShaderPassContext9LightType10ShadowType16ShadowProjectionbb
Xgi:__ZN14dense_hash_mapI10KeyWrapperINSt3__24pairIPK12PropertyInfoP11Il2CppClassEEEj17ReflectionMapHashIS8_ENS9_14EqualsComparerINS1_8equal_toIS8_EEEENS1_9allocatorINS2_IKS9_jEEEEEC2EjRKSB_RKSF_
A4b:__ZN17CollisionMeshDataC2Ev
dbh:_Regex_get_RightToLeft_m529734879
Qyg:_ScrollRect_SetDirty_m93243192
LXa:__ZN16LightmapSettings23VirtualRedirectTransferER19StreamedBinaryWriteILb0EE
MIb:__ZZ23InitPlayerLoopCallbacksvEN47PostLateUpdateMemoryFrameMaintenanceRegistrator7ForwardEv
to:FUNCTION_TABLE_viiififii
Yzi:_GC_push_next_marked
Bab:__ZN18IDCollectorFunctor18GenerateInstanceIDEi17TransferMetaFlags
Voe:_NumberFormatter_ToDecHex_m1474793296
qkg:__Z74RuntimeInvoker_Int32_t2071877448_RaycastHit_t87180320_RaycastHit_t87180320PFvvEPK10MethodInfoPvPS4_
ixa:__ZN14StackAllocatorD0Ev
Gji:__ZN6il2cpp2vm6Thread8SetStateEP12Il2CppThreadNS0_11ThreadStateE
_Be:_OperatingSystem_Clone_m1943707477
Tkd:_FontData_set_richText_m29558601
NKf:_Scheduler_Change_m4063588742
c5d:_Array_Resize_TisVector2_t2243707579_m1117258774_gshared
V2:__ZNSt3__27__sort4IRNS_6__lessI14ObjectLoadDataS2_EEPS2_EEjT0_S6_S6_S6_T_
hLb:__ZNK25CameraStackRenderingState16GetCurrentCameraEv
mbc:__Z22PlayableValidityChecksRK9HPlayableb
k7a:__ZN15ResourceManagerD2Ev
XKe:_List_1_Insert_m2532850849_gshared
Xdc:__Z41Register_UnityEngine_Camera_GetAllCamerasv
mvg:_MaskableGraphic_OnCanvasHierarchyChanged_m2012659245
wia:__ZN4crnd12crn_unpacker10unpack_dxnEPPhjjjjjj
iUc:__ZN28PerformanceReportingSettings8TransferI14SafeBinaryReadEEvRT_
vJd:_Double_Parse_m2344589511
zbg:__Z78RuntimeInvoker_Boolean_t3825574718_IntPtr_t_Int32_t2071877448_SByte_t454417549PFvvEPK10MethodInfoPvPS4_
Asc:__Z18Transfer_BlittableI8JSONReadLb1E5RectTIiEEvRK29SerializationCommandArgumentsR31RuntimeSerializationCommandInfo
Eki:__ZN6il2cpp2vm22EmbeddedResourceRecordC2ERKS1_
dWa:__ZN9Texture2D13AwakeFromLoadE17AwakeFromLoadMode
eae:_MSCompatUnicodeTableUtil__cctor_m1479836795
qfh:_PositionAssertion__ctor_m3703837499
gsd:_LayoutGroup_get_minWidth_m4111745491
Iwe:_StreamWriter_Initialize_m1707678624
bsi:__ZN6il2cpp2vm3RCW14QueryInterfaceILb0EEEP14Il2CppIUnknownP15Il2CppComObjectRK10Il2CppGuid
Jyg:_ScrollRect_set_verticalScrollbar_m2903688658
Ska:__ZN6prcoreL17RemapGenericFloatI15TexFormatRFloat18TexFormatARGBFloatEEvPKNS_9InnerInfoE
rQi:__ZL50_Thread_t1894135853_CustomAttributesCacheGeneratorP21CustomAttributesCache
soh:_Mathf__cctor_m2286160987
NXg:_InternalEnumerator_1_get_Current_m1047712960_gshared
gij:__ZL67Selectable_t1490392188_CustomAttributesCacheGenerator_m_SpriteStateP21CustomAttributesCache
hVc:__ZN11UnityEngine15PlatformWrapper20GetPlayerPrefsUInt64ERKN4core12basic_stringIcNS1_20StringStorageDefaultIcEEEEy
kQb:__ZN20ReflectionProbeCacheC2ER13BatchRendererR15RenderLoopStats
$7:__ZN18AssetBundleManagerC2Ev
Sjb:__ZNK12HandlerChain6ExistsERK13FileEntryData
y$i:__ZL61ExtensionAttribute_t1840441203_CustomAttributesCacheGeneratorP21CustomAttributesCache
TJd:_Convert_ToInt32_m2734833291
$Qb:__Z30FindDirectAttenuationFromProbeP18ForwardLightsBlockbiRK10RenderNodeRK23FindForwardLightsParamsf
P4a:__ZN12InputManager23VirtualRedirectTransferER24GenerateTypeTreeTransfer
Xib:__ZN9Transform23VirtualRedirectTransferER24GenerateTypeTreeTransfer
ahb:__ZNSt3__26vectorIN9ShaderLab20SerializedSubProgram12UAVParameterENS_9allocatorIS3_EEE21__push_back_slow_pathIKS3_EEvRT_
E7g:_CrossAppDomainChannel_RegisterCrossAppDomainChannel_m43456045
Grf:_X509ChainElement_Count_m228862214
vMf:_TimeZone_IsDaylightSavingTime_m1840774423
WHc:_UNITY_tt_size_ready_bytecode
Clh:_InvokableCallList_ClearPersistent_m2011323876
_vc:__ZN13TextRendering4FontD2Ev
H2f:__Z47RuntimeInvoker_Single_t2076509932_RuntimeObjectPFvvEPK10MethodInfoPvPS4_
Syc:_UNITY_FT_Stream_Open
Utb:__Z29Transfer_Blittable_ArrayFieldI24GenerateTypeTreeTransfer9BoundsIntEvRT_R9ArrayInfoRK23StaticTransferFieldInfo
OBa:__ZN10MemoryFile4ReadEyyPvPy
Vhb:__ZN8keywords18KeywordSetToStringERK16ShaderKeywordSetRN4core12basic_stringIcNS3_20StringStorageDefaultIcEEEE
naa:__ZN13GfxDeviceGLES26UpdateViewProjectionMatrixEv
rih:_Bounds_op_Inequality_m1440807554
$4b:__ZZL23RegisterLightPropertiesR22GenericPropertyBindingEN22Wrapper_LightIntensity13SetFloatValueEPvf
aF:__ZN4FMOD3DSP12setParameterEif
yEb:__ZN13MemoryManager16StaticInitializeEv
ZLi:__ZL53StackFrame_t2050294881_CustomAttributesCacheGeneratorP21CustomAttributesCache
lf:___cxa_free_exception
Q3e:_ReadOnlyCollection_1_System_Collections_ICollection_CopyTo_m4126742951_gshared
bJ:__ZN4FMOD22FakeModChannelCallbackEPv
rf:_emscripten_glValidateProgram
ZLa:__ZN4Mesh10CreateMeshEv
pei:__ZN6il2cpp2gc19AppendOnlyGCHashMapINSt3__24pairIPK9EventInfoP11Il2CppClassEEP21Il2CppReflectionEvent17ReflectionMapHashIS9_ENS2_8equal_toIS9_EEE3AddERKS9_SB_
TF:__ZN4FMOD7SystemI11createSoundEPKcjP22FMOD_CREATESOUNDEXINFOPPNS_5SoundE
Kzf:_ArrayFixupRecord_FixupImpl_m2377725358
QFc:_cf2_stack_clear
iRd:_Double_System_IConvertible_ToBoolean_m4251806534_AdjustorThunk
XFg:_ShimEnumerator_Reset_m2247049027_gshared
pmi:__ZN6il2cpp6icalls8mscorlib6System4Type27get_IsGenericTypeDefinitionEP20Il2CppReflectionType
KVb:__ZN7Texture13SetAnisoLevelEi
cR:__ZNSt3__26__treeINS_12__value_typeIN4core12basic_stringIcNS2_20StringStorageDefaultIcEEEEjEENS_19__map_value_compareIS6_S7_NS_4lessIS6_EELb1EEE13stl_allocatorIS7_L18MemLabelIdentifier88ELi16EEE7destroyEPNS_11__tree_nodeIS7_PvEE
Zpf:_X509Chain_Process_m2508784250
MPe:_List_1_RemoveAt_m2929488689_gshared
GJc:_raccess_guess_vfat
gQc:__Z44Canvas_CUSTOM_GetETC1SupportedCanvasMaterialv
_Ka:__ZN11HaloManager10UpdateHaloEiR9Transform11ColorRGBA32fjP6Object
IY:__ZN33InstancedMeshIntermediateRenderer13StaticDestroyEPv
Dne:_Int16_Parse_m3012618547
hni:__ZN14dense_hash_mapI10KeyWrapperIP14Il2CppIUnknownEjN6il2cpp5utils11PointerHashIS1_EENS3_14EqualsComparerINSt3__28equal_toIS2_EEEENS9_9allocatorINS9_4pairIKS3_jEEEEE13set_empty_keyERSF_
_8f:__Z50RuntimeInvoker_Void_t1841601450_OpCode_t2247480392PFvvEPK10MethodInfoPvPS4_
QJa:__Z21DestroyShadowMapCacheP14ShadowMapCache
Rw:__ZN7mecanim9animation25CreateControllerWorkspaceEPKNS0_18ControllerConstantERNS_6memory9AllocatorE
EDe:_Enumerator_VerifyState_m739025304_gshared
_id:_Graphic_RegisterDirtyVerticesCallback_m4169445219
vgi:__ZN15dense_hashtableINSt3__24pairIK10KeyWrapperIPK10Il2CppTypeEjEES6_N6il2cpp8metadata14Il2CppTypeHashEN14dense_hash_mapIS6_jSB_NS6_14EqualsComparerINSA_26Il2CppTypeEqualityComparerEEENS0_9allocatorIS8_EEE9SelectKeyESF_SH_E14squash_deletedEv
Fmi:__ZN6il2cpp2vm13LivenessState5ResetEv
mmg:__Z138RuntimeInvoker_Void_t1841601450_RuntimeObject_Color32_t874517518_Int32_t2071877448_Int32_t2071877448_Single_t2076509932_Single_t2076509932PFvvEPK10MethodInfoPvPS4_
Koc:__ZN9JSONWrite8TransferI11KeyframeTplIfEEEvRT_PKc17TransferMetaFlags
YBg:_Text_get_cachedTextGenerator_m224335893
Oni:__ZN6il2cpp2vm3RCW23GetOrCreateFromIUnknownEP14Il2CppIUnknownP11Il2CppClass
pHb:__ZN24BuiltinShaderParamValuesC2Ev
Zoc:__ZL41CreateJSONTransferFunctionScriptingTraitsv
Mte:_FileStream_get_CanWrite_m775322953
zCb:__Z23GetLateBehaviourManagerv
Kbd:_ExecuteEvents_Execute_m2863348178
r1:__ZN10MemoryPool10DeallocateEPv
elc:__ZN8GUIState8SetEventERK10InputEvent
xke:_NumberFormatInfo__ctor_m2752806684
Djf:_SslStreamBase_get_CanRead_m3061866682
Yna:__ZN14GfxDeviceStats10ResetFrameEv
ach:_PatternCompiler_EmitFastRepeat_m1175707353
U7d:_Array_InternalArray__get_Item_TisKeyValuePair_2_t3716250094_m3120861630_gshared
sAc:_cff_driver_class_pic_free
QOf:_UInt32_TryParse_m3987111861
Jtj:dynCall_vif
Ktj:dynCall_vid
GJe:_List_1_System_Collections_IList_get_Item_m3989815218_gshared
Ltj:dynCall_vii
mAb:__Z18Transfer_BlittableI18StreamedBinaryReadILb0EELb0EdEvRK29SerializationCommandArgumentsR31RuntimeSerializationCommandInfo
rbh:_Enumerator_System_Collections_IEnumerator_MoveNext_m3313126804
FMb:__ZNK17InstancedPropInfo14IsInstanceableERK19ShaderPropertySheet
Hua:__ZN5Unity9Component16CheckConsistencyEv
vfd:_LayoutRebuilder_ValidController_m2595049322
Gna:__ZN7ApiGLES11CheckShaderERjb
FHa:__ZN19ShaderPropertySheet37CreateTextureAuxPropertyUninitializedEN9ShaderLab16FastPropertyNameES1_PKc
hvb:__ZL26Transfer_SimpleNativeClassI19StreamedBinaryWriteILb0EE10RectOffsetLb1EEvRK29SerializationCommandArgumentsR31RuntimeSerializationCommandInfo
T7d:_Array_InternalArray__get_Item_TisKeyValuePair_2_t1174980068_m964958642_gshared
pTc:__ZN11UnityEngine7Connect17DeviceStatusEventD2Ev
Vbi:__ZN15dense_hashtableINSt3__24pairIK10KeyWrapperIPK10Il2CppTypeEjEES6_N6il2cpp8metadata14Il2CppTypeHashEN14dense_hash_mapIS6_jSB_NS6_14EqualsComparerINSA_26Il2CppTypeEqualityComparerEEENS0_9allocatorIS8_EEE9SelectKeyESF_SH_E3endEv
bRb:__Z28GetNonInterpolatedLightProbeRK17LightProbeContextjR20SphericalHarmonicsL2
l0d:_Array_InternalArray__ICollection_Add_TisDateTime_t693205669_m3559987213_gshared
eda:__ZN13GfxDeviceGLES17SetGpuProgramNameEP10GpuProgramPKc
bT:__ZNK11UnityEngine15CloudWebService25WebRequestDownloadHandler11GetProgressEv
oVh:_CanvasGroup_IsRaycastLocationValid_m2290612432
e3h:__ZN6il2cpp2vm13MetadataCache28GetMethodDefinitionFromIndexEi
Qui:__ZN6il2cpp2os20FileErrnoToErrorCodeEi
ASa:__ZN14SafeBinaryRead19TransferSTLStyleMapINSt3__23mapI39DeprecatedFastPropertyNameSerialization10ColorRGBAfNS1_4lessIS3_EENS1_9allocatorINS1_4pairIKS3_S4_EEEEEEEEvRT_17TransferMetaFlags
M$f:_MonoEventInfo_GetEventInfo_m2331957186
zjh:_Component_get_transform_m3374354972
$g:_atexit
wCd:_BitArrayEnumerator_Reset_m3218489242
Oxd:_Byte_System_IConvertible_ToUInt16_m2275325191
Xwh:_RectTransform_INTERNAL_get_anchorMin_m3722367822
Yei:__ZN6il2cpp2vmL31GetObjectForMissingDefaultValueEj
lRc:__ZN11UnityEngine15PlatformWrapper30GetVRPlayAreaBoundaryDimensionEv
L0h:__ZNK15dense_hashtableINSt3__24pairIK10KeyWrapperIN6il2cpp5utils13dynamic_arrayIPK10Il2CppTypeLj4EEEEPFvvEEESA_NS3_8metadata19Il2CppSignatureHashEN14dense_hash_mapISA_SD_SG_NSA_14EqualsComparerINSF_22Il2CppSignatureCompareEEENS0_9allocatorISE_EEE9SelectKeyESK_SM_E10test_emptyEj
teb:__ZN9ShaderLab14SerializedPassC2ERKS0_
CVg:_InternalEnumerator_1_System_Collections_IEnumerator_get_Current_m3088751576_AdjustorThunk
Hba:__ZNK9GfxDevice28GetActiveRenderSurfaceHeightEv
l:STACKTOP
uHc:_cff_get_name_index
Iye:_Math_Cos_m43596019
aYa:__ZN21EnlightenSceneMapping16BuildRemapTablesEv
R7b:__ZN17TransformInternal27UpdateDeepChildCountUpwardsER18TransformHierarchyii
k0g:_InternalEnumerator_1_System_Collections_IEnumerator_get_Current_m1533037706_AdjustorThunk
prj:__ZNK10__cxxabiv117__class_type_info16search_above_dstEPNS_19__dynamic_cast_infoEPKvS4_ib
A:tempBigIntD
U5c:_Single_Equals_m3359827399_AdjustorThunk
fbd:_EventTrigger_OnPointerClick_m413999043
z:tempBigIntI
j8e:_PrimalityTests_RabinMillerTest_m2029846965
y:tempBigIntR
x:tempBigIntS
_yh:_Sprite_INTERNAL_get_border_m3953160722
pn:FUNCTION_TABLE_viffi
pyc:_open_face_PS_from_sfnt_stream
kzf:_ServerIdentity_CreateObjRef_m1056204803
Z2:__ZN6Object18RegisterInstanceIDEPS_
xsb:__Z18Transfer_BlittableI24GenerateTypeTreeTransferLb1EsEvRK29SerializationCommandArgumentsR31RuntimeSerializationCommandInfo
ori:__ZN15dense_hashtableINSt3__24pairIK10KeyWrapperIP12Il2CppObjectEN6il2cpp2gc9CachedCCWEEES5_NS7_5utils11PointerHashIS3_EEN14dense_hash_mapIS5_S9_SD_NS5_14EqualsComparerINS0_8equal_toIS4_EEEENS0_9allocatorISA_EEE9SelectKeyESI_SK_E11set_deletedER30dense_hashtable_const_iteratorISA_S5_SD_SM_SI_SK_E
xaa:__ZNK9GfxDevice18GetWorldViewMatrixEv
RJe:_List_1_Contains_m3819542652_gshared
kdf:_TlsServerKeyExchange__ctor_m247733406
c1e:_ReadOnlyCollection_1_System_Collections_IList_Add_m3065652010_gshared
Fxi:__ZN6il2cpp6icalls8mscorlib6System7Convert17Base64ToByteArrayEPDsib
VIh:_IndexedSet_1_Clear_m2776064367_gshared
$sg:__Z82RuntimeInvoker_Boolean_t3825574718_RaycastResult_t21186376_RaycastResult_t21186376PFvvEPK10MethodInfoPvPS4_
q0h:__ZNSt3__218__insertion_sort_3IRN6il2cpp5utils11collections13ArrayValueMapIPK10Il2CppType17Il2CppInteropData26InteropDataToTypeConverterNS1_8metadata14Il2CppTypeLessENSA_26Il2CppTypeEqualityComparerEE12SortComparerEPS8_EEvT0_SH_T_
Baa:__ZNK9GfxDevice25GetDeviceProjectionMatrixEv
nmf:_HttpWebRequest__ctor_m1248252412
ma:invoke_iidiii
Dsb:__Z18Transfer_BlittableI24GenerateTypeTreeTransferLb1EtEvRK29SerializationCommandArgumentsR31RuntimeSerializationCommandInfo
TRf:_RankException__ctor_m2119191472
eP:__ZN12AudioManager33GetCurrentAmbisonicDefinitionNameE31UnityAudioEffectDefinitionFlags
nac:__ZN10systeminfo24GetRuntimePlatformStringEv
xrc:__ZN9JSONWrite8TransferI13dynamic_arrayI4AABBLj4EEEEvRT_PKc17TransferMetaFlags
$8f:__Z64RuntimeInvoker_Void_t1841601450_OpCode_t2247480392_RuntimeObjectPFvvEPK10MethodInfoPvPS4_
vwh:_Rect_GetHashCode_m2708838453
Bwa:__ZN10SpookyHash5ShortEPKvjPyS2_
Wlj:_AudioSettings_InvokeOnAudioManagerUpdate_m667489537
Bnf:_SPKey_Equals_m1112627532
Zve:_Stream_Close_m1499612649
jah:_ArgInfo__ctor_m3787931268
Ysh:_X509Chain_Build_m175470596
Xih:_Camera_INTERNAL_CALL_RaycastTry2D_m268676834
HHa:__ZN9ShaderLab6TexEnvC2ERKNS_25SerializedTexturePropertyE
vEa:__ZN9Transform32SetLocalScaleWithoutNotificationERKN4math7_float3Ey
Idf:_TlsServerCertificate__ctor_m3697944709
J3h:__ZN6il2cpp2vm19SocketPollingThread14DequeueRequestEv
Gui:__ZL10RevealLinkPv
S3d:_Array_InternalArray__set_Item_TisSingle_t2076509932_m4273663642_gshared
Ei:___cxa_end_catch
uYf:_MethodBuilder_MakeGenericMethod_m303913412
JSf:_AssemblyName_InternalGetPublicKeyToken_m3706025887
Stj:dynCall_viffffii
sbd:_ExecuteEvents_Execute_m4235029535
xjh:_Color32_ToString_m685380321_AdjustorThunk
oQc:__Z43Register_UnityEngine_Canvas_set_scaleFactorv
HJc:_raccess_guess_linux_cap
yP:__Z36AudioSource_Get_Custom_PropIsPlayingP12Il2CppObject
shf:_ReceiveRecordAsyncResult_get_AsyncWaitHandle_m1602093076
_lg:__Z113RuntimeInvoker_Boolean_t3825574718_Ray_t2469606224_RaycastHitU26_t1969197280_Single_t2076509932_Int32_t2071877448PFvvEPK10MethodInfoPvPS4_
yAb:__Z19TransferField_ArrayI18StreamedBinaryReadILb0EE27Converter_UnityEngineObjectEvRK23StaticTransferFieldInfoR31RuntimeSerializationCommandInfoRT0_
udg:__Z221RuntimeInvoker_Void_t1841601450_Int32_t2071877448_Int16_t4041245914_Int16_t4041245914_SByte_t454417549_SByte_t454417549_SByte_t454417549_SByte_t454417549_SByte_t454417549_SByte_t454417549_SByte_t454417549_SByte_t454417549PFvvEPK10MethodInfoPvPS4_
foc:__ZNK5Unity9rapidjson12GenericValueINS0_4UTF8IcEE13JSONAllocatorE6AcceptINS0_12PrettyWriterI16TempBufferWriterS3_S3_S4_EEEEbRT_
zNa:__ZN5Light8TransferI24GenerateTypeTreeTransferEEvRT_
BZ:__Z33InitializeBuiltinShaderParamNamesv
gva:__ZNK16TypeTreeIterator4TypeEv
ZBh:_Vector3_get_sqrMagnitude_m1445517847
hah:_LeaseManager__ctor_m2166901364
LHb:__ZN10FileSystem25MountDataFolderFileSystemERKN4core12basic_stringIcNS0_20StringStorageDefaultIcEEEES6_
mj:_glGetUniformLocation
Pba:__ZN13GfxDeviceGLES32CreateColorRenderSurfacePlatformEP17RenderSurfaceBase19RenderTextureFormat
hG:__ZN12AudioManager24CreateFMODSoundFromMovieEP9AudioClip
izh:_StackTraceUtility_ExtractStackTrace_m2375126700
d2h:__ZN6il2cpp2vm13MetadataCache24GetGenericInstanceMethodEPK10MethodInfoPK20Il2CppGenericContext
J1a:__ZNK9Texture3D12GetDimensionEv
gae:_SimpleCollator_SetCJKTable_m1356471502
Fpe:_Int32_System_IConvertible_ToUInt64_m2888588559_AdjustorThunk
n2:__Z24ConvertSeparatorsToUnityPc
b5a:__ZNSt3__213__vector_baseI9InputAxisNS_9allocatorIS1_EEED2Ev
oji:__ZN6il2cpp2vm6Thread20FreeThreadStaticDataEP12Il2CppThread
r2f:__Z28RuntimeInvoker_RuntimeObjectPFvvEPK10MethodInfoPvPS4_
tTd:_Exception_get_ClassName_m2189012117
xse:_IOException__ctor_m613517077
v6g:_MarshalDirectiveException__ctor_m3894820706
dGc:_cf2_glyphpath_finalize
$Fd:_Stack__ctor_m521896492
yLb:__Z20LookRotationToMatrixRK8Vector3fS1_P10Matrix3x3f
guj:dynCall_viififi
lCc:_UNITY_FT_Stream_Free
RMf:_Type_GetTypeFromHandle_m432505302
bji:__ZN15dense_hashtableINSt3__24pairIK10KeyWrapperINS1_IP11Il2CppClassjEEES4_EES6_N6il2cpp8metadata14ArrayClassHashEN14dense_hash_mapIS6_S4_SB_NS6_14EqualsComparerINSA_17ArrayClassCompareEEENS0_9allocatorIS8_EEE9SelectKeyESF_SH_E12maybe_shrinkEv
gme:_GuidParser_ParseHex_m3163482281
g6g:_GCHandle_FreeHandle_m2466807271
vld:_GraphicRegistry_get_instance_m2112667631
kR:__ZN11UnityEngine15CloudWebService14DataDispatcher25OnDataBlockConsumedStaticEPv
xbd:_ExecuteEvents_Execute_m2476343313
kQi:__ZL54_MethodInfo_t3642518830_CustomAttributesCacheGeneratorP21CustomAttributesCache
Egd:_CanvasUpdateRegistry_CleanInvalidItems_m1402635291
Myb:__Z29Transfer_Blittable_ArrayFieldI18StreamedBinaryReadILb1EE11QuaternionfEvRT_R9ArrayInfoRK23StaticTransferFieldInfo
E0d:_Array_InternalArray__ICollection_Add_TisSByte_t454417549_m46595441_gshared
Sbd:_ExecuteEvents_get_endDragHandler_m56074740
FDh:_GUIUtility_GetDefaultSkin_m3585053327
Hqd:_InputField_IsValidChar_m3929866302
jdb:__Z14resize_trimmedINSt3__26vectorIN9ShaderLab20SerializedSubProgram16SamplerParameterENS0_9allocatorIS4_EEEEEvRT_j
Szd:_ArrayList__cctor_m2090802806
_qj:__ZNSt3__212basic_stringIcNS_11char_traitsIcEENS_9allocatorIcEEE6insertEjPKcj
$oc:__Z44InitializeTransferFunctionScriptingTraitsForI8JSONReadEvR31TransferFunctionScriptingTraits
HGb:__ZNSt3__27__sort4IRNS_4lessIN22BuiltinResourceManager8ResourceEEEPS3_EEjT0_S7_S7_S7_T_
Bbd:_ExecuteEvents_Execute_m171612015
uia:__ZN4crnd12crn_unpacker11unpack_dxt5EPPhjjjjjj
zPf:_UInt32_System_IConvertible_ToUInt64_m4083788326_AdjustorThunk
NIc:_UNITY_tt_face_get_location
DEf:_DESTransform_Permutation_m4174035780
Fse:_Path_IsDsc_m1314465747
Hte:_MonoIO_Seek_m3461199288
yWb:__ZN10GameObject34AddFirstTransformComponentInternalEP9Transform
iec:__Z31Cursor_Get_Custom_PropLockStatev
QX:__ZNSt3__26__treeINS_12__value_typeINS_4pairIPcS3_EENS_3setIS3_15compare_tstringIPKcENS_9allocatorIS3_EEEEEENS_19__map_value_compareIS4_SD_20smaller_tstring_pairIS8_ELb1EEENSA_ISD_EEE7destroyEPNS_11__tree_nodeISD_PvEE
tM:__ZN12AudioManager29GetCurrentAmbisonicDefinitionE31UnityAudioEffectDefinitionFlags
dYh:__ZN15dense_hashtableINSt3__24pairIK10KeyWrapperIPK22Il2CppGenericParameterEP11Il2CppClassEES6_N6il2cpp5utils11PointerHashIS4_EEN14dense_hash_mapIS6_S9_SE_NS6_14EqualsComparerINS0_8equal_toIS5_EEEENS0_9allocatorISA_EEE9SelectKeyESJ_SL_E15insert_noresizeERKSA_
Kec:__Z52Register_UnityEngine_GameObject_GetComponentInParentv
V5a:__ZN15SerializeTraitsINSt3__24pairIPKN5Unity4TypeE7Hash128EEE8TransferI14SafeBinaryReadEEvRS7_RT_
LTb:__Z37GenerateCombinedDynamicVisibleListJobP11CullResults
e$a:__ZNK13ScreenManager21GetCursorInsideWindowEv
bui:__ZN6il2cpp2vmL22RaiseOverflowExceptionEv
fqe:_Int64_System_IConvertible_ToByte_m3027162116_AdjustorThunk
$ah:_Match_get_Empty_m3581361913
JQb:__Z20IntersectAABBFrustumRK4AABBPK5Planej
W7c:_String_Concat_m626692867
Wmh:_Input_GetMouseButtonDown_m2313448302
R5b:__ZN13RenderManager15InitializeClassEv
lpb:__ZN15SerializeTraitsI12PropertyNameE8TransferI14SafeBinaryReadEEvRS0_RT_
YXd:_PlayableHandle_IsPlayableOfType_TisAnimationOffsetPlayable_t1019600543_m3217464196_AdjustorThunk
DW:__GLOBAL__sub_I_runtime_baseclasses_2_cpp
grc:__ZN9JSONWrite8TransferI11ColorRGBA32EEvRT_PKc17TransferMetaFlags
Otc:__Z22TransferField_NonArrayI8JSONRead27Converter_SimpleNativeClassI8GradientEEvRK23StaticTransferFieldInfoR31RuntimeSerializationCommandInfoRT0_
S2e:_ReadOnlyCollection_1_System_Collections_IList_RemoveAt_m2372993063_gshared
mna:__ZNSt3__26vectorI15ComputeShaderCBNS_9allocatorIS1_EEE21__push_back_slow_pathIKS1_EEvRT_
CDb:__ZN10MonoScript13AwakeFromLoadE17AwakeFromLoadMode
Y0b:__ZN13ProduceHelperI11MonoManagerLb0EE7ProduceE18MemLabelIdentifier18ObjectCreationMode
fqa:__ZNK18GfxFramebufferGLES15DiscardContentsER12ObjectHandleI17RenderSurface_TagP17RenderSurfaceBaseE
Lee:_KeyPairPersistence_IsUserProtected_m37342608
nqc:__Z18Transfer_BlittableI9JSONWriteLb1EdEvRK29SerializationCommandArgumentsR31RuntimeSerializationCommandInfo
iyj:_glGetIntegerv__wrapper
Wne:_NumberFormatter_ResetCharBuf_m3823516989
H:Math_pow
Uva:__ZN10GameObject28FinalizeAddComponentInternalEPN5Unity9ComponentE
YAd:_ArrayListWrapper_CopyTo_m735618473
eXa:__ZN9Texture2DD2Ev
hMa:__ZNK17InstancedPropInfo15RenderInstancesERK15RenderNodeQueuePK17BatchInstanceDataj17ShaderChannelMaskPFbPvS6_iR11MeshBuffersR16DrawBuffersRangeRiSC_E
lAd:_ArrayList_Remove_m3941780739
Kcg:__Z69RuntimeInvoker_Void_t1841601450_SByte_t454417549_TimeSpan_t3430258949PFvvEPK10MethodInfoPvPS4_
JDh:_GUIUtility_Internal_GetDefaultSkin_m2938938210
tUf:_ConstructorBuilder_not_created_m2150488017
V3f:__Z63RuntimeInvoker_Char_t3454481338_Int16_t4041245914_RuntimeObjectPFvvEPK10MethodInfoPvPS4_
EHh:_UnityAction_2_BeginInvoke_m2906232794_gshared
RE:__ZNSt3__26vectorIiNS_9allocatorIiEEE6insertENS_11__wrap_iterIPKiEERS5_
Ggh:_Uri_AppendQueryAndFragment_m2358658590
Jq:__ZN13dynamic_arrayIhLj1EE18resize_initializedEjRKh12ResizePolicy
A5:__ZN27IntermediateRendererManagerD2Ev
Kab:__ZN17PersistentManager27GetLoadErrorMessageFromPathERKN4core12basic_stringIcNS0_20StringStorageDefaultIcEEEE
SEf:_DecoderReplacementFallbackBuffer_Fallback_m1790184670
_l:_glGenRenderbuffers
gli:__ZN6il2cpp6icalls8mscorlib6System2IO6MonoIO19GetCurrentDirectoryEPi
xRb:__Z21IntersectSegmentPlaneRK8Vector3fS1_RK5PlanePS_
b8c:_String_GetHashCode_m931956593
u6a:__ZN14PlayerSettings23VirtualRedirectTransferER17RemapPPtrTransfer
yyj:_emscripten_glGetIntegerv__wrapper
jM:__ZN12AudioManager31GetCurrentSpatializerDefinitionEv
P3a:__ZN12MeshRenderer16UpdateCachedMeshEv
Tob:__Z19TransferField_ArrayI14SafeBinaryRead27Converter_SimpleNativeClassI8GradientEEvRK23StaticTransferFieldInfoR31RuntimeSerializationCommandInfoRT0_
w$b:__ZN15dense_hashtableINSt3__24pairIKN4core12basic_stringIcNS2_20StringStorageDefaultIcEEEE10vector_setI4PPtrI11SpriteAtlasENS0_4lessISB_EE13stl_allocatorISB_L18MemLabelIdentifier81ELi16EEEEES6_20StringHash32FunctionIS6_EN14dense_hash_mapIS6_SH_SK_NS0_8equal_toIS6_EESE_ISI_LSF_81ELi16EEE9SelectKeyESN_SO_E15insert_noresizeERKSI_
poi:__ZN6il2cpp2vm5Image9GetCorlibEv
ny:__ZNK27StateMachineBehaviourPlayer25FireStateMachineBehaviourEiiN7mecanim12statemachine19StateMachineMessageE
lyg:_ScrollRectEvent__ctor_m2283981448
pcg:__Z52RuntimeInvoker_Single_t2076509932_Single_t2076509932PFvvEPK10MethodInfoPvPS4_
Zlg:__Z109RuntimeInvoker_Single_t2076509932_RuntimeObject_RuntimeObject_Single_t2076509932_ILayoutElementU26_t440254879PFvvEPK10MethodInfoPvPS4_
eFe:_Enumerator_VerifyState_m3913376581_AdjustorThunk
blf:_NameObjectCollectionBase_System_Collections_ICollection_CopyTo_m810189168
Oxh:_Renderer_get_sortingOrder_m2559463128
dWb:__ZN6Camera15SetOrthographicEb
OBc:_UNITY_FT_Stream_GetUShort
Iaa:__ZN13GfxDeviceGLES14DisableScissorEv
rPi:__ZL71ReliabilityContractAttribute_t1625655220_CustomAttributesCacheGeneratorP21CustomAttributesCache
WKd:_Decimal_op_Explicit_m1986696267
dNg:_Dictionary_2_System_Collections_ICollection_CopyTo_m3578539931_gshared
toe:_NumberFormatter_AppendDecimalString_m3532330813
Cc:_glVertexAttrib4f
MUf:_ILGenerator__ctor_m3365621387
dTd:_Environment_GetFolderPath_m1849163024
nde:_ASN1_Add_m2540239672
aXd:_Array_InternalArray__ICollection_Remove_TisInt16_t4041245914_m3380378727_gshared
kwf:_MethodDictionary_CopyTo_m1721788774
ywc:__ZNSt3__26vectorINS_4pairINS1_IttEEfEENS_9allocatorIS3_EEE8__appendEj
R7g:_SinkProviderData__ctor_m1828480392
Sdd:_RaycastResult_ToString_m2233441736_AdjustorThunk
uAi:_GC_set_hdr_marks
nMa:__Z17SetupObjectMatrixRK10Matrix4x4fi
Z4c:_SecurityFrame_ToString_m1282306399
cbe:_SimpleCollator_MatchesBackwardCore_m1884994267
ZLf:_TimeSpan_From_m1249538749
NPc:__Z84Register_UnityEngine_RectTransformUtility_INTERNAL_CALL_RectangleContainsScreenPointv
yae:_SimpleCollator_GetSortKey_m1317491197
TX:__ZN13RuntimeStaticINSt3__23mapINS0_4pairIPcS3_EEPFbPvR14SafeBinaryReadE20smaller_tstring_pairIPKcENS0_9allocatorINS2_IKS4_S9_EEEEEELb0EE13StaticDestroyES5_
U$f:_MonoEvent_GetCustomAttributes_m3899596098
uKd:_Convert_ToSByte_m3295168715
At:__ZN7mecanim9animation16CreateClipMemoryEPKNS0_4ClipEiRNS_6memory9AllocatorE
myc:_open_face
P3b:__ZZL31RegisterOtherRendererPropertiesR22GenericPropertyBindingEN30Wrapper_RendererReceiveShadows13SetFloatValueEPvf
IOc:__Z17RegisterModule_UIv
pye:_UnmanagedMemoryStream_Flush_m3305300000
fGb:__ZL11LoadManagerRKN4core12basic_stringIcNS_20StringStorageDefaultIcEEEEi
vba:__ZN9GfxDevice24CreateRenderDepthSurfaceE9TextureIDiiii16TextureDimension17DepthBufferFormat18SurfaceCreateFlags
nBf:_ObjectManager_DoFixups_m835924385
Nyf:_RemotingServices_CreateWellKnownServerIdentity_m3390048085
$F:__ZN4FMOD5Sound11setUserDataEPv
scb:__ZN14SafeBinaryRead21TransferSTLStyleArrayINSt3__26vectorIN9ShaderLab19SerializedSubShaderENS1_9allocatorIS4_EEEEEEvRT_17TransferMetaFlags
iw:__ZN27AnimationLayerMixerPlayable13SetInputCountEi
O8e:_ARC4Managed_KeySetup_m73384687
dCa:__ZNK25SingleBlockMemoryFileData4SizeEv
mNd:_DateTime_Equals_m2562884703
MA:__ZN9BlobWrite8TransferIN7mecanim12statemachine18StateMachineMemoryEEEvRT_PKc17TransferMetaFlags
WJ:__ZL50UnityAudioEffect_InternalSetFloatParameterCallbackP14FMOD_DSP_STATEif
Nqi:__ZNK15dense_hashtableINSt3__24pairIK10KeyWrapperIP12Il2CppObjectEN6il2cpp2gc9CachedCCWEEES5_NS7_5utils11PointerHashIS3_EEN14dense_hash_mapIS5_S9_SD_NS5_14EqualsComparerINS0_8equal_toIS4_EEEENS0_9allocatorISA_EEE9SelectKeyESI_SK_E3endEv
yV:__ZN17LowLevelAllocator4FreeEPvj
SEd:_KeyMarker__cctor_m2057880225
IXh:__ZN15dense_hashtableINSt3__24pairIK10KeyWrapperIPK22Il2CppGenericParameterEP11Il2CppClassEES6_N6il2cpp5utils11PointerHashIS4_EEN14dense_hash_mapIS6_S9_SE_NS6_14EqualsComparerINS0_8equal_toIS5_EEEENS0_9allocatorISA_EEE9SelectKeyESJ_SL_E9copy_fromERKSO_j
Nle:_TextInfo_get_ListSeparator_m3426465394
oue:_FileStream_BeginWrite_m3895959548
Pef:_Context_set_RecordProtocol_m1968834768
R3:__ZL19StaticCleanupPlayerPv
Pqf:_X509Certificate2Enumerator_MoveNext_m1861665712
c7b:__ZN13PlayableGraph4StopEv
G5f:__Z87RuntimeInvoker_RuntimeObject_RuntimeObject_RuntimeObject_RuntimeObject_SByte_t454417549PFvvEPK10MethodInfoPvPS4_
Z7:__ZN15dense_hashtableINSt3__24pairIKN4core12basic_stringIcNS2_20StringStorageDefaultIcEEEEP11AssetBundleEES6_20StringHash32FunctionIS6_EN14dense_hash_mapIS6_S9_SC_NS0_8equal_toIS6_EENS0_9allocatorISA_EEE9SelectKeyESF_SH_ED2Ev
rJb:__Z24HandleRoundedCornerPropsP19ShaderPropertySheetRK5RectTIfERK8Vector4ff
$8c:_DecoderExceptionFallbackBuffer_Fallback_m3457210607
NCh:_WaitForSecondsRealtime__ctor_m3561981695
MK:__ZN12AudioManager37RebindAudioSourcesAndSubMixersToMixerEP10AudioMixer
sh:_emscripten_set_touchmove_callback
Mua:__ZN9Behaviour10DeactivateE19DeactivateOperation
$Xe:_Collection_1_System_Collections_IList_get_Item_m2836259259_gshared
EVa:__ZN13StreamingInfo8TransferI14SafeBinaryReadEEvRT_
Rcb:__ZN15dense_hashtableINSt3__24pairIKiN4core17string_with_labelILi1EEEEEi18SInt32HashFunctionN14dense_hash_mapIiS5_S7_NS0_8equal_toIiEE13stl_allocatorIS6_L18MemLabelIdentifier1ELi16EEE9SelectKeyESA_SD_E15insert_noresizeERKS6_
Mp:__Z23CalculateGlobalRotation23TransformAccessReadOnly
bSa:__ZNK9ShaderLab7Program11IsSupportedEPK6Shader
Tqf:_X509Store_Close_m2412711366
M3b:__Z43InitializeRendererAnimationBindingInterfacev
k3:__ZL26DestroyGameObjectRecursiveR10GameObjectR11BatchDelete
Sug:_CullStateChangedEvent__ctor_m4025397477
LAi:_GC_allochblk_nth
LJf:_Mutex_ReleaseMutex_m2143813124
qPf:_UInt32_System_IConvertible_ToSByte_m604037412_AdjustorThunk
GNc:__ZZN2UI6Canvas15InitializeClassEvEN33FunctorImpl_1523kTransformChanged4CallEPviR11MessageData
_2b:__Z7HaloTexP9Texture2DPhiiii
Suj:dynCall_i
h1d:_Array_InternalArray__ICollection_CopyTo_TisKeyValuePair_2_t3749587448_m2750720485_gshared
Zrh:_X509Certificate__cctor_m2984068893
b7d:_Component_GetComponents_TisRuntimeObject_m1186222966_gshared
euj:dynCall_f
ctb:__Z35Transfer_Blittable_FixedBufferFieldI24GenerateTypeTreeTransferjEvRK29SerializationCommandArgumentsR31RuntimeSerializationCommandInfo
jUa:__ZN8Playable13SetInputCountEi
ytj:dynCall_v
Rve:_Path__cctor_m3685888661
gPd:_Decimal_System_IConvertible_ToDateTime_m4247760250_AdjustorThunk
Jde:_BitConverterLE_ULongFromBytes_m2583105400
Ooa:__ZN7ApiGLES14TextureSamplerEjjRK24GfxTextureSamplingParams17TextureColorSpace
XLg:_Dictionary_2_ToTKey_m965425080_gshared
lIa:__ZN6Camera23VirtualRedirectTransferER14SafeBinaryRead
zJe:_List_1_System_Collections_IList_Insert_m2838947798_gshared
ZEi:__ZNSt3__26vectorINS_12basic_stringIDsNS_11char_traitsIDsEENS_9allocatorIDsEEEENS4_IS6_EEE8__appendEj
YLf:_TimeSpan_FromDays_m2859053398
MSc:__ZN11UnityEngine7Connect13ConnectConfig11ConfigValueD2Ev
gfa:__ZNSt3__26__treeINS_12__value_typeIjP14DataBufferGLESEENS_19__map_value_compareIjS4_NS_4lessIjEELb1EEENS_9allocatorIS4_EEE7destroyEPNS_11__tree_nodeIS4_PvEE
h7b:__ZN13PlayableGraph15SetPrepareStageE13DirectorStage
xb:invoke_viiiiiiii
Vye:_MissingMemberException__ctor_m2869542203
opa:__ZN18GfxFramebufferGLES24UpdateDefaultFramebufferEP17RenderSurfaceBaseS1_N2gl6HandleILNS2_10ObjectTypeE9EEE
tlj:_AudioSource_AddAmbisonicExtension_m312887346
BPe:_List_1_Find_m160737912_gshared
egh:_Uri_EnsureAbsoluteUri_m1892758054
JXa:__ZN16LightmapSettings5ResetEv
sza:__ZN12FileAccessor4ReadEyPvPy
Fmc:__Z42Register_UnityEngine_Event_get_commandNamev
Qzd:_ArrayList_ThrowNewArgumentOutOfRangeException_m3795973535
goc:__ZN5Unity9rapidjson12PrettyWriterI16TempBufferWriterNS0_4UTF8IcEES4_13JSONAllocatorE12PrettyPrefixENS0_4TypeE
Ach:_Regex_Init_m1873144192
Nde:_BitConverterLE_ToDouble_m516016818
U2:__ZNK15FileSystemEntry6ExistsEv
o4a:__ZNK9Transform21GetLocalToWorldMatrixER10Matrix4x4f
tUh:_TextGenerator_ValidatedSettings_m647349856
$9e:_EncryptedPrivateKeyInfo__ctor_m3398795484
GAh:_Transform_SetParent_m3603514159
aH:__ZN13AudioListener23VirtualRedirectTransferER19StreamedBinaryWriteILb0EE
kca:__ZN13GfxDeviceGLES11CopyTextureE9TextureIDS0_
txj:_emscripten_glViewport__wrapper
Fjg:__Z47RuntimeInvoker_RuntimeObject_Single_t2076509932PFvvEPK10MethodInfoPvPS4_
G8g:_Context__cctor_m3895126354
QHc:_tt_size_select
CR:__ZN11UnityEngine15CloudWebService17SessionEventQueue15RestoreFromFileER12FileAccessorPvy
l6a:__ZN14PlayerSettingsD2Ev
Ote:_FileStream_get_Length_m2265080501
kNf:_Type_type_is_assignable_from_m1620694099
zzi:_GC_reclaim_all
b6:__ZN13PlayableGraph14DestroyOutputsEv
F9g:_ContextAttribute_GetPropertiesForNewContext_m4007241045
kf:___syscall122
pBh:_Vector2_set_Item_m985527261_AdjustorThunk
D7e:_Kernel_Subtract_m2224959291
c5g:_ResourceSet__ctor_m2566914412
H8e:_ASN1Convert_ToDateTime_m2305963290
w1c:_SymmetricAlgorithm_Finalize_m1665128997
N6e:_BigInteger__ctor_m2991182310
EZh:__ZN6il2cpp2vm5Class6IsEnumEPK11Il2CppClass
Ydc:__Z52Register_UnityEngine_Camera_INTERNAL_CALL_RaycastTryv
Qpj:_mkdir
nHd:_Convert_ToByte_m791636053
E1g:_InternalEnumerator_1_get_Current_m2986222582_AdjustorThunk
Dxh:_Vector2_set_Item_m985527261
wuj:dynCall_iifi
fcc:__ZN18ScriptingArguments13CopyFromOtherERKS_
fEc:_ps_hints_close
d6b:__Z16CreateRenderLoopR6Camera
iW:_tlsf_create
G2g:_DefaultComparer_Compare_m4039941311_gshared
eIg:_Enumerator_MoveNext_m2534596951_AdjustorThunk
v7a:__ZN14SafeBinaryRead21TransferSTLStyleArrayINSt3__26vectorIN15ResourceManager10DependencyE13stl_allocatorIS4_L18MemLabelIdentifier52ELi16EEEEEEvRT_17TransferMetaFlags
cCb:__ZN13MonoBehaviour23VirtualRedirectTransferER18StreamedBinaryReadILb0EE
aeb:__ZN9ShaderLab20SerializedSubProgramC2ERKS0_
I0c:_SHA256Managed_ProcessBlock_m1064908669
Srj:__ZNK10__cxxabiv121__vmi_class_type_info27has_unambiguous_public_baseEPNS_19__dynamic_cast_infoEPvi
uLd:_Convert_ToUInt64_m2215781574
ssh:_X509Certificate_VerifySignature_m4020723406
CUd:_CompareInfo_LastIndexOf_m2978196696
hee:_DSAManaged_Generate_m3166917081
FEg:_Enumerator_VerifyCurrent_m3330382363_AdjustorThunk
mzg:_ScrollRect_StopMovement_m1824352159
f_a:__ZN15QualitySettings23VirtualRedirectTransferER19StreamedBinaryWriteILb0EE
IOb:__Z20RenderFullScreenQuadR9GfxDeviceRK6Camera17ShaderChannelMaskRK5RectTIfEf21MonoOrStereoscopicEye
U_e:_ReadOnlyCollection_1_System_Collections_IList_Contains_m2320811592_gshared
Oea:__ZN16RenderTextureMap5QueryEPK17RenderSurfaceBase
hNa:__ZN5Light17MainThreadCleanupEv
bye:_UnexceptionalStreamWriter_Write_m186237617
$yg:_ScrollRect_UpdateScrollbars_m3921404746
ZAj:_emscripten_glUniform4iv__wrapper
Uwd:_Boolean_CompareTo_m1086129598_AdjustorThunk
Z3b:__ZN8Material8GetFloatEN9ShaderLab16FastPropertyNameE
qAc:_psnames_module_class_pic_free
Pkc:__Z11GetGUIStatev
kg:_pthread_key_create
dAd:_ArrayList_Clear_m3834604134
rg:_emscripten_glGetObjectParameterivARB
xIa:__ZN15SerializeTraitsI10ColorRGBAfE8TransferI14SafeBinaryReadEEvRS0_RT_
_2h:__ZN6il2cpp2vm13MetadataCache27GetEventDefinitionFromIndexEi
X3:__ZN22BuiltinResourceManager13StaticDestroyEPv
S4d:_Array_Resize_TisCustomAttributeTypedArgument_t1498197914_m3055365808_gshared
b3:__ZN10GameObject17GetComponentIndexEPN5Unity9ComponentE
J$a:__ZN14SafeBinaryRead21TransferSTLStyleArrayI13dynamic_arrayI7SubMeshLj4EEEEvRT_17TransferMetaFlags
M5c:_Single_IsNegativeInfinity_m2615809279
bqe:_Int32_GetTypeCode_m3811463295_AdjustorThunk
Jcf:_CipherSuiteFactory_GetSsl3SupportedCiphers_m2476597368
Imf:_IPv6Address_Fill_m1824197512
qzc:__ZNK13TextRendering4Font11GetMaterialEv
IJ:__ZN29AudioEffectInternalDefinition9CreateDSPEPN4FMOD6SystemEPvPfP23UnityAudioAmbisonicDataPP25UnityAudioSpatializerData
oJc:_UNITY_tt_face_vary_cvt
ekc:__GLOBAL__sub_I_Grid_cpp
P4h:__ZNK6il2cpp5utils10functional6FilterINSt3__212basic_stringIcNS3_11char_traitsIcEENS3_9allocatorIcEEEENS0_13VmStringUtils21CaseSensitiveComparerEEclIPKcEEbRKT_
$kc:__Z28DidLoadAllAssembliesCallbackv
_Xb:__ZN35RegisterRuntimeInitializeAndCleanup22ExecuteInitializationsEv
cya:__ZN23PreloadManagerOperation14SetFinalTimingEffff
i:DYNAMICTOP_PTR
ABh:_Vector2_op_Division_m1216397880
Ojd:_Dropdown_SetupTemplate_m1416189897
kKb:__Z11CopyTextureP7TextureiiS0_ii
X5a:__ZN13BuildSettings8TransferI18StreamedBinaryReadILb0EEEEvRT_
Yvg:_PositionAsUV1__ctor_m412270210
W5b:__ZN10GameObject15InitializeClassEv
ZBf:_SerializationInfo_GetInt16_m3549836657
_ec:__Z38Renderer_Get_Custom_PropSortingLayerIDP12Il2CppObject
Gij:__ZL90StencilMaterial_t1630303189_CustomAttributesCacheGenerator_StencilMaterial_Add_m1745413071P21CustomAttributesCache
GWd:_Array_InternalArray__ICollection_Contains_TisWorkRequest_t1154022482_m865286315_gshared
PRd:_Double_Equals_m920556135_AdjustorThunk
Lya:__ZN14AsyncOperationD0Ev
Ebf:_CipherSuite_get_ExpandedKeyMaterialSize_m296573450
nGd:_Stack_Push_m284336154
xbc:__Z25scripting_raise_exception21ScriptingExceptionPtr
cpd:_InputField_set_caretBlinkRate_m3521089516
ZMd:_DateTime_Add_m4237489122
E7a:__ZN15ResourceManager10Dependency8TransferI14SafeBinaryReadEEvRT_
bzi:_GC_extend_size_map
H3g:_Comparer_1_System_Collections_IComparer_Compare_m637596782_gshared
kK:__ZN4FMOD6System9setDriverEi
kqi:__ZN6il2cpp8metadataL24RecursiveGenericDepthForEPK17Il2CppGenericInst
$Fa:__ZNK9Transform11GetRotationEv
Gpf:_X509Certificate2_Find_m833446211
Vec:__Z36Register_UnityEngine_GameObject_Findv
BEc:_pshinter_get_globals_funcs
dtb:__Z18Transfer_BlittableI24GenerateTypeTreeTransferLb0EyEvRK29SerializationCommandArgumentsR31RuntimeSerializationCommandInfo
eSa:__ZN8Material14CreateMaterialER6ShaderN6Object9HideFlagsEb
Uee:_KeyPairPersistence_FromXml_m2310151202
MOd:_DBNull_System_IConvertible_ToUInt64_m2919804476
_pj:_fread
qDc:_tt_cmap12_char_map_binary
Ybg:__Z51RuntimeInvoker_Double_t4078015681_Int16_t4041245914PFvvEPK10MethodInfoPvPS4_
Wzc:_ft_outline_glyph_transform
jqa:__Z25GetBuiltinResourceManagerv
s_g:_InternalEnumerator_1_System_Collections_IEnumerator_get_Current_m439366097_AdjustorThunk
vqi:__ZN6il2cpp2gc8GCHandle15GetTargetHandleEP12Il2CppObjectii
Ih:_llvm_trap
GZ:__ZNSt3__27__sort5IRNS_6__lessIN12_GLOBAL__N_114ParamNameIndexES3_EEPS3_EEjT0_S7_S7_S7_S7_T_
pse:_Directory_CreateDirectory_m3561886598
Z$c:_RSAPKCS1KeyExchangeFormatter_CreateKeyExchange_m1122286094
yzi:_get_index
fP:__ZN11AudioSource7SetMuteEb
cJa:__Z26scripting_method_get_class18ScriptingMethodPtr
Vdf:_ClientSessionInfo_get_Valid_m3589823308
Tfe:_PKCS1_Sign_v15_m2137018891
$Xd:_SetPropertyUtility_SetClass_TisRuntimeObject_m3524554928_gshared
SMa:__ZN17CollisionMeshData20VertexDataHasChangedEv
V3h:__ZN6il2cpp2vm21ThreadPoolCompartment12DetachThreadEP12Il2CppThread
Lba:__ZN13GfxDeviceGLES30SetBackBufferColorDepthSurfaceEP17RenderSurfaceBaseS1_
DGf:_Latin1Encoding_GetBytes_m1067304501
tnc:__Z52Register_UnityEngine_GUIUtility_get_systemCopyBufferv
y7b:__ZN16StreamedResource8TransferI18StreamedBinaryReadILb0EEEEvRT_
kgc:__Z49Register_UnityEngine_Input_get_imeCompositionModev
Qcb:__ZN15dense_hashtableINSt3__24pairIKiN4core17string_with_labelILi1EEEEEi18SInt32HashFunctionN14dense_hash_mapIiS5_S7_NS0_8equal_toIiEE13stl_allocatorIS6_L18MemLabelIdentifier1ELi16EEE9SelectKeyESA_SD_E12resize_deltaEjj
_Ub:__ZNK20OcclusionCullingData22GetStaticRendererCountEv
BBc:_UNITY_tt_face_free_ps_names
_uc:__GLOBAL__sub_I_runtime_particlesystem_modules_5_cpp
LOb:__ZNK6Camera17GetSkyboxMaterialEv
fCj:_emscripten_glDisableVertexAttribArray__wrapper
MWg:_InternalEnumerator_1_get_Current_m3259181373_AdjustorThunk
bZg:_InternalEnumerator_1_get_Current_m789289033_gshared
I8d:_Array_InternalArray__get_Item_TisUILineInfo_t3621277874_m1432166059_gshared
R3a:__ZN12MeshRenderer18CalculateLocalAABBER4AABBRKS_RK4Mesh
srh:_X509CertificateCollection_GetEnumerator_m3994741635
$cg:__Z242RuntimeInvoker_Boolean_t3825574718_RuntimeObject_RuntimeObject_RuntimeObject_SByte_t454417549_DateTimeU26_t3448131235_DateTimeOffsetU26_t3212986406_RuntimeObject_Int32_t2071877448_SByte_t454417549_BooleanU26_t3168250738_BooleanU26_t3168250738PFvvEPK10MethodInfoPvPS4_
Gme:_Guid_ToString_m3927110175
bV:__ZN21UnityDefaultAllocatorI17LowLevelAllocatorE8AllocateEji
dnf:_IPv6Address_AsIPv4Int_m3565745471
wMc:__ZL28InitializeUIScriptingClassesv
Rkh:_Display_RecreateDisplayList_m1746695619
TFb:__ZN10UnityScene10ClearRootsEv
Njb:__ZN12HandlerChain10AtomicMoveER13FileEntryDataS1_
aYd:_SetPropertyUtility_SetStruct_TisBoolean_t3825574718_m752301298_gshared
D6:__ZZN15DirectorManager15InitializeClassEvEN48PreLateUpdateDirectorDeferredEvaluateRegistrator7ForwardEv
Wvc:__ZN20SpeedTreeWindManager6UpdateEf
gfh:_Literal_GetWidth_m1285678191
RId:_Decimal_ThrowAtPos_m3318712794
BFh:_GUITargetAttribute_GetGUITargetAttrValue_m3706077059
tge:_RSAManaged_GetPaddedValue_m4394397
wC:__ZN7mecanim9animation20CreateAvatarConstantEPNS_8skeleton8SkeletonEPNS1_13SkeletonPoseTIN4math4trsXEEES8_PNS_5human5HumanES3_iRKS6_RNS_6memory9AllocatorE
$xe:_UnexceptionalStreamWriter__ctor_m2209699189
NLe:_List_1_Find_m970100220_gshared
LXd:_Array_InternalArray__ICollection_Remove_TisVector2_t2243707579_m3881494282_gshared
m3a:__ZN14CompressedMesh8TransferI19StreamedBinaryWriteILb0EEEEvRT_
CSf:_AssemblyFileVersionAttribute__ctor_m2026149866
_1d:_Array_InternalArray__ICollection_CopyTo_TisUILineInfo_t3621277874_m2142954044_gshared
IYf:_TypeBuilder_SetParent_m387557893
FBh:_Vector2_get_up_m1721661564
ucf:_CipherSuiteCollection_cultureAwareCompare_m1825407448
BMd:_DateTimeFormatInfo_GetEraName_m1437894363
E2d:_Array_InternalArray__Insert_TisLabelFixup_t4090909514_m3927736182_gshared
dsf:_X509KeyUsageExtension_Encode_m3100824560
yLa:__ZN24GenerateTypeTreeTransfer8TransferI21PlatformShaderDefinesEEvRT_PKc17TransferMetaFlags
m7a:__ZNK15ResourceManager22GetTypeVirtualInternalEv
bOg:_DefaultComparer_GetHashCode_m1728348656_gshared
uqd:_InputField_MouseDragOutsideRect_m3758282095
gqh:_Object__cctor_m3758199678
Rvg:_Outline_ModifyMesh_m3796381413
gwc:__ZN13TextRendering4Font23VirtualRedirectTransferER24GenerateTypeTreeTransfer
jtf:_Interpreter_PopulateGroup_m4098755954
laf:_PrivateKeyInfo_DecodeRSA_m919734506
tgc:__ZNSt3__27__sort4IRNS_6__lessI11KeyframeTplIfES3_EEPS3_EEjT0_S7_S7_S7_T_
$le:_GuidParser_Reset_m3389485794
HO:__ZN11AudioSource15InitializeClassEv
LRe:_Enumerator_System_Collections_IEnumerator_get_Current_m1270503615_gshared
cWg:_InternalEnumerator_1_System_Collections_IEnumerator_get_Current_m3315293493_gshared
TFh:_TextEditor__ctor_m1435332308
iOb:__ZN11HaloManager17RenderGeometryJobEP25DynamicVBOGeometryJobDataj
kZg:_InternalEnumerator_1_System_Collections_IEnumerator_get_Current_m4023948615_gshared
vE:__ZNSt3__227__insertion_sort_incompleteIRPFbN7mecanim9animation13MuscleIndexIdES3_EPS3_EEbT0_S8_T_
F9c:_BaseInput_get_mousePresent_m3571192771
rCj:_emscripten_glBlendEquation__wrapper
wii:__ZN15dense_hashtableINSt3__24pairIK10KeyWrapperIP11Il2CppClassES4_EES5_N6il2cpp8metadata16SZArrayClassHashEN14dense_hash_mapIS5_S4_SA_NS5_14EqualsComparerINS9_19SZArrayClassCompareEEENS0_9allocatorIS7_EEE9SelectKeyESE_SG_E13set_empty_keyERKS7_
Lqj:__ZNSt3__212basic_stringIcNS_11char_traitsIcEENS_9allocatorIcEEE6__initEPKcj
Nj:_emscripten_set_fullscreenchange_callback
Efe:_KeyPairPersistence__IsUserProtected_m3417764903
Gsf:_CategoryUtils_CategoryFromName_m226887453
jQd:_Decimal_op_Division_m1099836590
nU:__ZN11UnityEngine15CloudWebService14DataDispatcher22ResetNetworkRetryIndexEv
Sj:_emscripten_glDrawArrays
iIb:__ZZ23InitPlayerLoopCallbacksvEN43EarlyUpdateExecuteMainThreadJobsRegistrator7ForwardEv
QT:__ZN11UnityEngine15CloudWebService19SessionEventManagerC2Ev
ite:_File_Open_m1543461971
xEd:_Hashtable_KeyEquals_m1433874944
HCh:_Vector4__cctor_m1770725722
tXc:__ZN13RuntimeStaticI14dynamic_bitsetLb0EE16StaticInitializeEPv
S8:__ZNSt3__222__merge_move_constructIRNS_4lessIN4core12basic_stringIcNS2_20StringStorageDefaultIcEEEEEENS_11__wrap_iterIPS6_EESB_EEvT0_SC_T1_SD_PNS_15iterator_traitsISC_E10value_typeET_
Odc:__Z41Register_UnityEngine_Camera_get_eventMaskv
ZO:__ZL19CleanupModule_Audiov
cMh:_GenericComparer_1_Compare_m2516380588_gshared
s8h:__ZN6il2cpp2os4File10DeleteFileERKNSt3__212basic_stringIcNS2_11char_traitsIcEENS2_9allocatorIcEEEEPi
qse:_File_Exists_m1685968367
MUh:_Canvas_get_scaleFactor_m1899077319
hqb:__Z29Transfer_Blittable_ArrayFieldI14SafeBinaryReadiEvRT_R9ArrayInfoRK23StaticTransferFieldInfo
L4h:__ZN6il2cpp6icalls8mscorlib6System8MonoType8GetFieldEP20Il2CppReflectionTypeP12Il2CppStringi
U0h:__ZN15dense_hashtableINSt3__24pairIK10KeyWrapperIN6il2cpp5utils13dynamic_arrayIPK10Il2CppTypeLj4EEEEPFvvEEESA_NS3_8metadata19Il2CppSignatureHashEN14dense_hash_mapISA_SD_SG_NSA_14EqualsComparerINSF_22Il2CppSignatureCompareEEENS0_9allocatorISE_EEE9SelectKeyESK_SM_E5clearEv
Nyj:_emscripten_glVertexAttrib3fv__wrapper
D5e:_Comparison_1_BeginInvoke_m1549337842_gshared
rth:_X509Crl_VerifySignature_m25189948
$2a:__ZN18StreamedBinaryReadILb0EE21TransferSTLStyleArrayI13dynamic_arrayI10Matrix4x4fLj16EEEEvRT_17TransferMetaFlags
g1b:__ZNK28MonoBehaviourPropertyBinding13GetFloatValueERKN11UnityEngine9Animation10BoundCurveE
pCf:_RuntimeFieldHandle_Equals_m1202966418_AdjustorThunk
oBi:_GC_generic_malloc
FHg:_Enumerator_System_Collections_IEnumerator_get_Current_m2160496972_AdjustorThunk
Qba:__ZN13GfxDeviceGLES32CreateDepthRenderSurfacePlatformEP17RenderSurfaceBase17DepthBufferFormat
Kih:_Camera_INTERNAL_CALL_ScreenToViewportPoint_m2554844623
$$a:__ZN24GenerateTypeTreeTransfer8TransferINSt3__26vectorI13dynamic_arrayI8Vector2fLj4EENS1_9allocatorIS5_EEEEEEvRT_PKc17TransferMetaFlags
YDg:_Enumerator_System_Collections_IDictionaryEnumerator_get_Value_m120250090_gshared
fOa:__ZN19LightProbeOcclusion8TransferI14SafeBinaryReadEEvRT_
ibh:_MatchCollection_TryToGet_m2938913145
JCj:_emscripten_glIsTexture__wrapper
Pph:_MessageTypeSubscribers_get_MessageTypeId_m184006475
UYc:_KeyedHashAlgorithm_get_Key_m3672929432
nba:__ZN9GfxDevice25ReleaseAsyncCommandHeaderEPN21GfxDeviceAsyncCommand3ArgE
$oh:_Mesh_SetSizedArrayForChannel_m3453069292
n9e:_MD2Managed_HashCore_m248147901
dCb:__ZN13MonoBehaviour23VirtualRedirectTransferER17RemapPPtrTransfer
Yqa:__ZN21UniformBufferTFMethod20IsBoneCountSupportedEi
Uxg:_Selectable_FindSelectableOnLeft_m3706572906
Wue:_MemoryStream__ctor_m4073175573
moh:_Mathf_Clamp_m966229550
YRa:__ZN6Shader27MarkShaderStateNotSupportedEPKS_
X5d:_Array_Sort_TisVector4_t2243707581_TisVector4_t2243707581_m917148421_gshared
bOf:_UInt16_System_IConvertible_ToBoolean_m887616848_AdjustorThunk
Wej:__ZL81AnimationTriggers_t3244928895_CustomAttributesCacheGenerator_m_HighlightedTriggerP21CustomAttributesCache
xqa:__ZN25TransformFeedbackSkinning8SkinMeshERK18VertexStreamSourceP9GfxBufferP17GPUSkinPoseBufferS4_ii17ShaderChannelMaskb
Fni:__ZN15dense_hashtableINSt3__24pairIK10KeyWrapperIP14Il2CppIUnknownEjEES5_N6il2cpp5utils11PointerHashIS3_EEN14dense_hash_mapIS5_jSB_NS5_14EqualsComparerINS0_8equal_toIS4_EEEENS0_9allocatorIS7_EEE9SelectKeyESG_SI_E12resize_deltaEjj
DHf:_UnicodeEncoding_GetCharCount_m3719064538
Qwd:_Boolean_CompareTo_m3691698947
cOg:_DefaultComparer_Equals_m3262686272_gshared
Ivb:__Z22TransferField_NonArrayI19StreamedBinaryWriteILb0EE27Converter_SimpleNativeClassI8GUIStyleEEvRK23StaticTransferFieldInfoR31RuntimeSerializationCommandInfoRT0_
zwe:_StreamReader_ReadToEnd_m3871366821
iAg:_Selectable_set_interactable_m63718297
uuc:__ZN8JSONRead8TransferIN4math12int3_storageEEEvRT_PKc17TransferMetaFlagsb
dJb:__ZN27IntermediateRendererManager29ClearAllIntermediateRenderersEv
Z1d:_Array_InternalArray__ICollection_CopyTo_TisUICharInfo_t3056636800_m2132994790_gshared
Np:__Z17CalculateGlobalSM23TransformAccessReadOnlyRKN4math7_float4E
PQ:__ZN23CloudWebServicesManager23VirtualRedirectTransferER18StreamedBinaryReadILb0EE
Rl:_emscripten_glLoadIdentity
mYb:__ZNSt3__26vectorINS_4pairIN4core12basic_stringIcNS2_20StringStorageDefaultIcEEEEPK17MessageIdentifierEENS_9allocatorISA_EEE26__swap_out_circular_bufferERNS_14__split_bufferISA_RSC_EEPSA_
YGd:_Decimal_op_GreaterThan_m1625379433
vTb:__Z29CullShadowCastersWithoutUmbraR9IndexListRK17CullingParametersPK4AABBjj
Chb:__ZN6Shader16GetDefaultOrNullEv
op:__ZN4AABB8TransferI14SafeBinaryReadEEvRT_
zdg:__Z79RuntimeInvoker_RuntimeObject_SByte_t454417549_SByte_t454417549_SByte_t454417549PFvvEPK10MethodInfoPvPS4_
Zme:_Int16_System_IConvertible_ToDecimal_m2010889121_AdjustorThunk
CXd:_Array_InternalArray__ICollection_Remove_TisPlayableBinding_t2498078091_m2632165671_gshared
qYa:__ZN18StreamedBinaryReadILb0EE21TransferSTLStyleArrayI13dynamic_arrayI12LightmapDataLj4EEEEvRT_17TransferMetaFlags
c_b:__Z11MD5ToStringPh
fEe:_Enumerator_MoveNext_m2625246500_AdjustorThunk
Yfc:__Z38Input_Get_Custom_PropCompositionStringv
WIf:_UTF8Encoding_GetPreamble_m4179999478
wZh:__ZN6il2cpp2vm5Class19GetArrayElementSizeEPK11Il2CppClass
vEd:_SyncHashtable__ctor_m3750218498
YR:__ZN9JSONWrite8TransferIN4core12basic_stringIcNS1_20StringStorageDefaultIcEEEEEEvRT_PKc17TransferMetaFlags
Eqh:_GeneralNames_get_IPAddresses_m1712556836
jIf:_UTF7Encoding_GetByteCount_m253528135
ldd:_PointerInputModule_CopyFromTo_m2185451090
H2d:_Array_InternalArray__Insert_TisRefEmitPermissionSet_t2708608433_m4154753514_gshared
Uqj:__ZNSt3__212basic_stringIcNS_11char_traitsIcEENS_9allocatorIcEEE6resizeEjc
i$d:_Array_InternalArray__IndexOf_TisMonoResource_t3127387157_m1933788179_gshared
o6a:__ZN14PlayerSettings16CheckConsistencyEv
JN:__ZN11AudioModule30GetOrCreateDSPFromCustomFilterEP17AudioCustomFilter
HJa:__ZN19AtomicPageAllocatorD2Ev
vn:FUNCTION_TABLE_viiiiiiiiiiiiii
foi:__ZN6il2cpp6icalls8mscorlib6System13GlobalizationL20culture_lcid_locatorEPKvS5_
kVe:_Collection_1_Add_m3182287887_gshared
ycd:_PointerEventData_set_useDragThreshold_m2778439880
sVa:__ZNK12CubemapArray16ExtractImageImplEP14ImageReferenceNS0_8BlitModeEbi
Rgc:__Z63Register_UnityEngine_MonoBehaviour_StartCoroutine_Auto_Internalv
DNa:__ZN5Light8TransferI19StreamedBinaryWriteILb0EEEEvRT_
tac:__ZN10systeminfo24GetSystemLanguageCultureEi
hHf:_StringBuilder_Append_m3618697540
yzg:_ScrollRect_get_normalizedPosition_m1640825682
c3c:_SecurityElement_IsValidAttributeName_m2201790420
A6a:__ZN10VRSettings8TransferI14SafeBinaryReadEEvRT_
jOf:_UInt16_System_IConvertible_ToDecimal_m984067306_AdjustorThunk
KUb:__Z18AddGroupToWorkloadR26BlockRangeBalancedWorkloadjR13dynamic_arrayI10BlockRangeLj4EERS1_IjLj4EE
Zzc:_UNITY_FT_Outline_Get_CBox
J0d:_Array_InternalArray__ICollection_Add_TisUInt16_t986882611_m2791161149_gshared
mX:__GLOBAL__sub_I_runtime_gfxdevice_0_cpp
oEg:_Enumerator_Reset_m3115320746_gshared
doe:_NumberFormatter_FormatDecimal_m1435371940
qae:_SimpleCollator_GetTailContraction_m1037943844
p_c:_RC2CryptoServiceProvider_CreateEncryptor_m252199767
gJh:_U3CStartU3Ec__Iterator0_MoveNext_m2339115502_gshared
_Vc:__ZN20UnityWebRequestProtoI24UnityWebRequestTransport16AtomicRefCounter14RedirectHelper14ResponseHelper15DownloadHandler13UploadHandler12HeaderHelper14AsyncOperationE8FinalizeEv
zjg:__Z165RuntimeInvoker_Void_t1841601450_RuntimeObject_Int32_t2071877448_Int32_t2071877448_RuntimeObject_Int32_t2071877448_Single_t2076509932_Single_t2076509932_RuntimeObjectPFvvEPK10MethodInfoPvPS4_
AGa:__ZN22PerThreadPageAllocator14AcquireNewPageEj
VO:__ZN24AudioScriptBufferManager15DidReloadDomainEv
vsb:__Z18Transfer_BlittableI24GenerateTypeTreeTransferLb1E9BoundsIntEvRK29SerializationCommandArgumentsR31RuntimeSerializationCommandInfo
wPb:__ZN6Camera13ClearNoSkyboxEb
tqe:_Int64_System_IConvertible_ToInt64_m989981560_AdjustorThunk
WKe:_List_1_CheckIndex_m2576265846_gshared
lkg:__Z110RuntimeInvoker_Boolean_t3825574718_Vector2_t2243707579_Vector2_t2243707579_Single_t2076509932_SByte_t454417549PFvvEPK10MethodInfoPvPS4_
rDh:_Event_get_mousePosition_m1191943012
Gud:_Array_combsort_m2486643569
mph:_Mesh_SetUVs_m3637760384
q5:__ZNSt3__27__sort5IR17CompareInstanceIDPP6ObjectEEjT0_S6_S6_S6_S6_T_
fYb:__ZN13sorted_vectorINSt3__24pairIN4core12basic_stringIcNS2_20StringStorageDefaultIcEEEEPK17MessageIdentifierEEN10vector_mapIS6_S9_NS0_4lessIS6_EENS0_9allocatorISA_EEE13value_compareESF_E4findIS6_EENS0_11__wrap_iterIPSA_EERKT_
oOg:_DefaultComparer_Equals_m145577182_gshared
Bea:__ZN18GfxFramebufferGLES10InvalidateEv
_ie:_SmallXmlParser_SkipWhitespaces_m2923234398
tPd:_Decimal_System_IConvertible_ToSingle_m1736019752_AdjustorThunk
ria:__ZN4crnd11crnd_deleteINS_13prefix_coding14decoder_tablesEEEvPT_
LY:__ZN10MemoryPoolD2Ev
$5g:_GCHandle__ctor_m2952050298_AdjustorThunk
Nlc:__ZNSt3__26__treeINS_12__value_typeIN4core12basic_stringIcNS2_20StringStorageDefaultIcEEEEN5IMGUI12NamedControlEEENS_19__map_value_compareIS6_S9_NS_4lessIS6_EELb1EEENS_9allocatorIS9_EEE7destroyEPNS_11__tree_nodeIS9_PvEE
bif:_SslClientStream_get_SelectedClientCertificate_m1580018944
XHd:_DateTime_FromTicks_m75527956
kee:_KeyGeneratedEventHandler_Invoke_m4220935979
dJf:_CompressedStack_Capture_m179370023
Vna:__ZN14GfxDeviceStats19EndClientFrameStatsEv
JQd:_DebuggerTypeProxyAttribute__ctor_m3082078467
MXd:_Array_InternalArray__ICollection_Remove_TisVector3_t2243707580_m3881497481_gshared
Cpj:___mmap
nbc:__ZN9Scripting26RaiseArgumentNullExceptionEPKc
kDj:b120
vW:__ZL18InternalLogConsolePKcz
woj:_lseek
EKe:_List_1_System_Collections_IList_set_Item_m2267202349_gshared
yFe:_Enumerator_System_Collections_IEnumerator_get_Current_m3866069145_AdjustorThunk
CVe:_Collection_1_ConvertItem_m2972284337_gshared
$jf:_AuthorityKeyIdentifierExtension_Decode_m1941074339
mM:__ZN11AudioSource16UpdatePauseStateEv
Z4:__ZL52StaticUnregisterSceneLoadedCallback_LightmapSettingsPv
Ew:__ZN7mecanim5human25HumanPoseAddAdditiveLayerERNS0_9HumanPoseERKS1_fRKNS_6bitsetILj70EEE
s8:__ZN13RuntimeStaticI18SpriteAtlasManagerLb0EE16StaticInitializeEPv
hmf:_RemoteCertificateValidationCallback_Invoke_m2237177542
mnd:_HorizontalOrVerticalLayoutGroup_set_childForceExpandWidth_m1140293254
jFi:__ZN6il2cpp5utils25NativeDelegateMethodCache17AddNativeDelegateEPFvvEPK10MethodInfo
ilf:_NameObjectCollectionBase_BaseAdd_m964300824
PVd:_Array_InternalArray__ICollection_Contains_TisKeyValuePair_2_t1174980068_m650645929_gshared
HOb:__ZN27DeviceViewProjMatricesStateD2Ev
u$c:_RNGCryptoServiceProvider_RngOpen_m2238023214
zTf:_CustomAttributeData_GetCustomAttributes_m4124612360
gsb:__Z18Transfer_BlittableI24GenerateTypeTreeTransferLb0E8Vector3fEvRK29SerializationCommandArgumentsR31RuntimeSerializationCommandInfo
cpi:__ZN15dense_hashtableINSt3__24pairIK10KeyWrapperINS1_IPKcS4_EEEiEES6_24NamespaceAndNamePairHashN14dense_hash_mapIS6_iS9_NS6_14EqualsComparerI26NamespaceAndNamePairEqualsEENS0_9allocatorIS8_EEE9SelectKeyESD_SF_E14squash_deletedEv
cwc:__ZNK13TextRendering4Font22GetTypeVirtualInternalEv
wji:__ZN6il2cpp2vm6Thread16RequestInterruptEP12Il2CppThread
X7a:__ZN19StreamedBinaryWriteILb0EE21TransferSTLStyleArrayINSt3__26vectorIN15ResourceManager10DependencyE13stl_allocatorIS5_L18MemLabelIdentifier52ELi16EEEEEEvRT_17TransferMetaFlags
Sjf:_TlsStream_get_Position_m3551173234
A8g:_LeaseManager_SetPollTime_m3137304074
IDd:_Hashtable_CalcPrime_m1835281409
f:HEAPU32
lja:__ZN6prcoreL10inner_flipILj2EEEvPhS1_j
KYf:_TypeBuilder_has_ctor_method_m3449702467
m1a:__ZNK14Texture2DArray16ExtractImageImplEP14ImageReferenceNS0_8BlitModeEbi
Jqc:__ZN9JSONWrite8TransferIbEEvRT_PKc17TransferMetaFlags
aud:_Array_CreateInstance_m679102425
zxa:__ZN12TLSAllocatorI14StackAllocatorED0Ev
c6g:_GCHandle_GetTarget_m2056570211
n5a:__ZN11TimeManager16CheckConsistencyEv
aMb:__ZN21GfxDeviceAsyncCommand10ArgScratch15ThreadedCleanupEv
aae:_MSCompatUnicodeTable_IsJapaneseSmallLetter_m2541532635
V6e:_BigInteger_GenerateRandom_m1878468830
Hrb:__ZN12NativeBufferI27Converter_UnityEngineObjectE15SetupForWritingER9ArrayInfo
Pld:_Graphic_UpdateGeometry_m2431537946
XBe:_ObsoleteAttribute__ctor_m834417715
pe:_glTexImage3D
WO:__Z20RegisterModule_Audiov
Dcf:_TlsCipherSuite__ctor_m2983563913
vSa:__ZNSt3__26vectorINS_4pairI11ShaderTagIDS2_EENS_9allocatorIS3_EEE6insertENS_11__wrap_iterIPKS3_EERS8_
ye:_JS_SystemInfo_GetCurrentCanvasWidth
Lbc:__ZL34GetComponentsImplementationRecurseILb1ELi0ELi1EEbR10GameObjectbRK17CompareParametersRK39GetComponentsImplementation_ReturnValue
jmi:__ZN6il2cpp2vm14PlatformInvoke30MarshalCSharpStringToCppStringEP12Il2CppString
Ori:__ZN6il2cpp2vm5Field10IsInstanceEP9FieldInfo
W6a:__ZN10VRSettings8TransferI18StreamedBinaryReadILb0EEEEvRT_
Hv:__ZN22AnimationMixerPlayable12MixerProcessEP35AnimationPlayableEvaluationConstantP32AnimationPlayableEvaluationInputP33AnimationPlayableEvaluationOutputM17AnimationPlayableFvS1_S3_S5_EPFvS1_S3_S5_ESA_PFvS5_S1_S3_S5_PN7mecanim16ValueArrayWeightEfEPFvS1_S3_S5_SD_fE
EXg:_InternalEnumerator_1_System_Collections_IEnumerator_get_Current_m1322273508_AdjustorThunk
Xjb:__ZN22LocalFileSystemHandler4NameEv
Uqe:_Int64_TryParse_m3093198325
sfg:__Z145RuntimeInvoker_Void_t1841601450_RuntimeObject_RuntimeObject_RuntimeObject_Int32_t2071877448_Int32_t2071877448_Int32_t2071877448_Int32_t2071877448PFvvEPK10MethodInfoPvPS4_
p4h:__ZN6il2cpp2vm10ThreadPool5QueueEP14Il2CppDelegatePPvS3_P12Il2CppObject
Ovb:__Z19TransferField_ArrayI19StreamedBinaryWriteILb0EE27Converter_SimpleNativeClassI8GradientEEvRK23StaticTransferFieldInfoR31RuntimeSerializationCommandInfoRT0_
yte:_FileLoadException_ToString_m319701103
Nve:_NullStream_Seek_m1809916110
Hsc:__Z18Transfer_BlittableI8JSONReadLb0E12PropertyNameEvRK29SerializationCommandArgumentsR31RuntimeSerializationCommandInfo
oQd:_Delegate_SetMulticastInvoke_m361277268
H9c:_BaseInput_GetMouseButtonUp_m32571233
tFf:_EncoderReplacementFallbackBuffer_get_Remaining_m2777488845
j0a:__ZN7SubMesh8TransferI18StreamedBinaryReadILb0EEEEvRT_
JNa:__ZN15SharedLightData17MainThreadCleanupEv
OIf:_UTF8Encoding_GetCharCount_m3557355060
iXg:_InternalEnumerator_1_System_Collections_IEnumerator_get_Current_m127456009_gshared
hkc:__ZNK19RectangleCellLayout9CellRoundERKN4Grid9GridStateERKN4math7_float3E
cf:_emscripten_glIsEnabled
Qxb:__ZN18StreamedBinaryReadILb1EE21TransferSTLStyleArrayI13dynamic_arrayIdLj8EEEEvRT_17TransferMetaFlags
Mec:__Z45Register_UnityEngine_GameObject_get_transformv
X$:__Z29scripting_class_instance_size17ScriptingClassPtr
cuc:__Z29Transfer_Blittable_ArrayFieldI8JSONRead5RectTIiEEvRT_R9ArrayInfoRK23StaticTransferFieldInfo
s6e:_Func_2_Invoke_m2929712329_gshared
Dif:_SslHandshakeHash_initializePad_m4132246594
crf:_X509CertificateCollection_get_Item_m848456018
qU:__ZN11UnityEngine15CloudWebService19SessionEventManager26ProcessEventQueueJobStaticEPv
Xdh:_AnchorInfo_get_IsUnknownWidth_m3747592836
Fmg:__Z99RuntimeInvoker_Void_t1841601450_Int32_t2071877448_Int32_t2071877448_Int32_t2071877448_RuntimeObjectPFvvEPK10MethodInfoPvPS4_
KU:__ZN11UnityEngine15CloudWebService19SessionEventManager37OnTimerExpiredPerformArchiveJobStaticEPv
Bpc:__Z18Transfer_BlittableI9JSONWriteLb1E9BoundsIntEvRK29SerializationCommandArgumentsR31RuntimeSerializationCommandInfo
Dkh:_DebugLogHandler_Internal_LogException_m4229368478
IPa:__ZN10builtintex15GetWhiteTextureEv
lGi:__ZN6il2cpp6icalls8mscorlib6System10Reflection4Emit11DerivedType21create_unmanaged_typeEP20Il2CppReflectionType
aAf:_FormatterConverter_ToInt32_m1004171952
gGh:_InvokableCall_1_Invoke_m2228071798_gshared
n7:__Z29GetOcclusionPortalManagerListv
ftd:_Array_System_Collections_IList_set_Item_m4290470392
Jyf:_RemotingConfiguration_RegisterActivatedServiceType_m4003543022
gic:__Z39Register_UnityEngine_Sprite_get_texturev
t8g:_ConfigHandler_GetNotNull_m2454680251
gWh:__ZL10rescale128PyS_Piiiii
EG:__ZN9AudioClip7WWWSeekEPvjS0_
RKb:__ZN8GUILayer14RenderGUILayerE5RectTIfEjR17ShaderPassContext
bY:__ZL32StaticInitializeIUnityInterfacesPv
FLb:__Z13CameraProjectRK8Vector3fRK10Matrix4x4fS4_RK5RectTIiERS_b
Q8a:__ZN30RuntimeInitializeOnLoadManager15ClassMethodInfo8TransferI19StreamedBinaryWriteILb0EEEEvRT_
j4:__Z22CreateMutexLockedStackv
rMd:_DateTime_System_IConvertible_ToType_m3821835592
yuf:_IntervalCollection_get_Item_m1667788970
IGb:__ZNSt3__27__sort5IRNS_4lessIN22BuiltinResourceManager8ResourceEEEPS3_EEjT0_S7_S7_S7_S7_T_
zGf:_Latin1Encoding_GetByteCount_m2812921286
wgb:__ZN9ShaderLab11ShaderStateD2Ev
bPd:_Decimal_System_IConvertible_ToByte_m3432160840
sGf:_UTF7Encoding__ctor_m1941256679
qDb:__Z23TransferScriptingObjectI24GenerateTypeTreeTransferEvRT_18ScriptingObjectPtr17ScriptingClassPtrPK15MonoScriptCache
dAf:_BinaryCommon__cctor_m3619690968
lzc:_UNITY_FT_Set_Pixel_Sizes
_sh:_X509Chain_FindCertificateRoot_m589250107
CRf:_Version_GetHashCode_m880841176
$z:__ZN8Animator24SortJobsBasedOnHierarchyERK13dynamic_arrayINS_11AnimatorJobELj8EERS0_IS2_Lj4EE
uvb:__ZL17Transfer_GUIStyleI19StreamedBinaryWriteILb0EELb0EEvRK29SerializationCommandArgumentsR31RuntimeSerializationCommandInfo
Kjb:__ZNK12HandlerChain6TargetERK13FileEntryDataR15FileSystemEntry
zFf:_Encoding__ctor_m3985582722
ZAf:_ObjectManager_RaiseOnDeserializingEvent_m1841526046
e8c:_String_CreateString_m560359261
fBc:_UNITY_FT_Init_Class_tt_service_get_cmap_info
WXc:_DSA_ToXmlString_m1014346120
G0c:_SHA256Managed__ctor_m1410575277
kqh:_Plane_Raycast_m3246912889_AdjustorThunk
xUd:_CompareInfo_internal_index_managed_m859405335
kwd:_Boolean_System_IConvertible_ToDateTime_m2613818037_AdjustorThunk
r3h:__ZNSt3__211__tree_nextIPNS_16__tree_node_baseIPvEEEET_S5_
j2e:_ReadOnlyCollection_1_System_Collections_IList_Clear_m2240307498_gshared
Hpi:__ZN15dense_hashtableI10KeyWrapperIP18Il2CppGenericClassES3_N6il2cpp8metadata22Il2CppGenericClassHashEN14dense_hash_setIS3_S6_NS3_14EqualsComparerINS5_25Il2CppGenericClassCompareEEENSt3__29allocatorIS3_EEE8IdentityESA_SD_E14squash_deletedEv
qsi:__ZN6il2cpp2vm11MethodStack17GetStackFramesRawEv
Mla:__ZN6prcoreL17RemapGenericFloatI17TexFormatRGBAHalf17TexFormatRGBFloatEEvPKNS_9InnerInfoE
pAf:_BinaryFormatter_NoCheckDeserialize_m1968202401
fmd:_Graphic_CrossFadeAlpha_m4067047552
Lkg:__Z92RuntimeInvoker_Void_t1841601450_RuntimeObject_RuntimeObject_Color32_t874517518_RuntimeObjectPFvvEPK10MethodInfoPvPS4_
Whc:__Z35Sprite_Get_Custom_PropPixelsPerUnitP12Il2CppObject
l0h:__ZNSt3__26__sortIRN6il2cpp5utils11collections13ArrayValueMapIPK10Il2CppType17Il2CppInteropData26InteropDataToTypeConverterNS1_8metadata14Il2CppTypeLessENSA_26Il2CppTypeEqualityComparerEE12SortComparerEPS8_EEvT0_SH_T_
Tab:__ZN11PreloadDataD2Ev
TWc:__ZN15DownloadHandler14ProcessHeadersERK9HeaderMap
twc:__ZNSt3__26vectorINS_4pairIifEE13stl_allocatorIS2_L18MemLabelIdentifier35ELi16EEE6assignINS_11__wrap_iterIPS2_EEEENS_9enable_ifIXaasr21__is_forward_iteratorIT_EE5valuesr16is_constructibleIS2_NS_15iterator_traitsISC_E9referenceEEE5valueEvE4typeESC_SC_
Yb:invoke_iifi
vph:_MonoBehaviour_StopCoroutineViaEnumerator_Auto_m2222980381
yLi:__ZL79Hashtable_t909839986_CustomAttributesCacheGenerator_Hashtable__ctor_m3742489710P21CustomAttributesCache
EDg:_VertexHelper_AddUIVertexStream_m3599763288
OPg:_EqualityComparer_1_System_Collections_IEqualityComparer_Equals_m1565968086_gshared
v3d:_Array_InternalArray__set_Item_TisSlot_t2022531261_m3811041838_gshared
JKa:__ZN15SharedLightData15UpdateTransformERK9Transform
L_c:_RijndaelTransform__cctor_m1393306207
Cld:_Graphic_get_defaultMaterial_m1022773737
HEc:_UNITY_FT_Init_Class_pscmaps_interface
rBg:_Slider_OnDidApplyAnimationProperties_m3202463395
AUh:_TextGenerator_PopulateAlways_m817480435
VEf:_EncoderExceptionFallback__ctor_m3203614411
_md:_GridLayoutGroup_SetLayoutVertical_m3233681648
Gfc:__Z44Register_UnityEngine_RectOffset_get_verticalv
MNf:_Type_MakeGenericType_m973683242
OEi:__ZN6il2cpp2vm9LastError31InitializeLastErrorThreadStaticEv
A2b:__ZN13ProduceHelperI13RenderTextureLb0EE7ProduceE18MemLabelIdentifier18ObjectCreationMode
bre:_Int64_ToString_m2785525583
dK:__ZN4FMOD6System17setSoftwareFormatEi17FMOD_SOUND_FORMATii18FMOD_DSP_RESAMPLER
PWf:_FieldBuilder_GetCustomAttributes_m291168515
Mza:__ZN15dense_hashtableINSt3__24pairIKN4core12basic_stringIcNS2_20StringStorageDefaultIcEEEEP20ArchiveStorageReaderEES6_20StringHash32FunctionIS6_EN14dense_hash_mapIS6_S9_SC_NS0_8equal_toIS6_EE13stl_allocatorISA_L18MemLabelIdentifier55ELi16EEE9SelectKeyESF_SI_E12expand_arrayEjN21dense_hash_map_traits17integral_constantIbLb0EEE
q0f:_MonoGenericCMethod__ctor_m2520666358
ulh:_InvokableCall_remove_Delegate_m3232269751
eh:_JS_SystemInfo_GetCurrentCanvasHeight
cjj:__ZL75CanvasScaler_t2574720772_CustomAttributesCacheGenerator_m_FallbackScreenDPIP21CustomAttributesCache
OUg:_InternalEnumerator_1_System_Collections_IEnumerator_get_Current_m1313308902_gshared
bxf:_ReturnMessage_get_OutArgs_m299904174
lSa:__ZNK8Material22GetTypeVirtualInternalEv
Wmc:__Z34GUIStyle_Get_Custom_PropFixedWidthP12Il2CppObject
rge:_RSAManaged_get_PublicOnly_m2603845138
rPd:_Decimal_System_IConvertible_ToSByte_m3745141000_AdjustorThunk
Fui:__ZN6il2cpp2gc16GarbageCollector11GetWeakLinkEPPv
kAe:_MonoType_GetMethods_m353342170
N2f:__Z108RuntimeInvoker_Boolean_t3825574718_SByte_t454417549_RuntimeObject_Int32_t2071877448_ExceptionU26_t1467204777PFvvEPK10MethodInfoPvPS4_
bti:__GLOBAL__sub_I_Console_cpp
Cla:__ZN6prcoreL17RemapGenericFloatI14TexFormatRHalf17TexFormatRGBAHalfEEvPKNS_9InnerInfoE
n6h:__ZN6il2cpp2vm7Runtime11InvokeArrayEPK10MethodInfoPvP11Il2CppArrayPP15Il2CppException
oke:_GregorianCalendar_get_Eras_m4010603022
zSd:_Enum_System_IConvertible_ToUInt16_m1001858842
KLg:_Dictionary_2_make_pair_m394533803_gshared
GIc:_Dual_Project
AF:__ZN9AudioClip23VirtualRedirectTransferER14SafeBinaryRead
Ghh:_AsyncOperation_t3814632279_marshal_pinvoke_back
Koa:__ZN4gles20EnsureTextureCreatedEP7ApiGLESP17RenderSurfaceGLES
Usd:_LayoutRebuilder_U3CRebuildU3Em__2_m3239837417
qMb:__ZN15ReplacementPass13PrepareSubsetEjRK10RenderNodeifRK17ShaderReplaceData
sPd:_Decimal_System_IConvertible_ToSingle_m1736019752
VK:__Z32AudioMeasurement_GetTimeConstantff
uvi:__ZN6il2cpp8metadata11FieldLayout12LayoutFieldsEjjjRKNSt3__26vectorIPK10Il2CppTypeNS2_9allocatorIS6_EEEERNS1_15FieldLayoutDataE
u5i:__ZL54ContextMenu_t2283362202_CustomAttributesCacheGeneratorP21CustomAttributesCache
ZTb:__ZL27PrepareSceneNodesJobCombineP25ScheduleSceneNodesJobData
wue:_Stream_EndWrite_m263497992
tzd:_Char_Parse_m2121403806
J9:__ZN13GfxDeviceGLESD2Ev
J5:__ZN18AsyncUploadManager13StaticDestroyEPv
_Vf:_EnumBuilder_GetConstructorImpl_m331611313
dcb:__ZN6Shader7SetNameEPKc
Gid:_DefaultControls_SetParentAndAlign_m3048898502
uXb:__ZN19CustomRenderTexture22HandleBoundaryWrappingERKNS_14UpdateZoneInfoEj
n3h:__ZN6il2cpp2vm13MetadataCache32GenerateCustomAttributeTypeCacheEi
rrf:_X509Chain__cctor_m826131835
Gph:_PlayerConnection_CreateInstance_m2419948763
RAh:_Transform_GetEnumerator_m1156558734
uz:__ZNK11UnityEngine9Animation30GenericBindingValueArrayUniqueclERKNS0_14GenericBindingES4_
dvd:_ArrayTypeMismatchException__ctor_m1923871345
hEf:_CspParameters__ctor_m3051314030
Awa:__ZNK15dense_hashtableINSt3__24pairIKNS1_I9UnityGUIDxEE15SpriteAtlasDataEES3_23SpriteRenderDataKeyHashN14dense_hash_mapIS3_S5_S7_NS0_8equal_toIS3_EE13stl_allocatorIS6_L18MemLabelIdentifier81ELi16EEE9SelectKeyESA_SD_E23find_position_with_hashERS4_j
vEh:_GUILayoutEntry_set_style_m864176480
zAh:_Transform_INTERNAL_set_localRotation_m1514748659
LIc:_Direct_Move_Y
JIc:_Direct_Move_X
Aqf:_X509ChainElement_Set_m2634474339
gwd:_Boolean_System_IConvertible_ToByte_m1443044213_AdjustorThunk
Ai:_glClearDepthf
p2b:__ZN19SkinnedMeshRenderer7GetMeshEv
Pib:__ZN19RuntimeSceneManager14GetActiveSceneEv
JGb:__ZNSt3__218__insertion_sort_3IRNS_4lessIN22BuiltinResourceManager8ResourceEEEPS3_EEvT0_S7_T_
M5h:__ZN6il2cpp6icalls8mscorlib6SystemL8IsStaticEPK9EventInfo
pfc:__Z29RectOffset_Set_Custom_PropTopP12Il2CppObjecti
Wnf:_WebRequest__ctor_m1537196628
wnf:_ServicePointManager_get_CertificatePolicy_m345233313
ace:_BigInteger_op_Equality_m366854173
dOa:__ZN14SafeBinaryRead21TransferSTLStyleArrayI13dynamic_arrayI19LightProbeOcclusionLj4EEEEvRT_17TransferMetaFlags
Z7b:__ZN19StreamedBinaryWriteILb0EE4InitE24TransferInstructionFlags20BuildTargetSelection
Yug:_MaskableGraphic_Cull_m3130802047
Ycc:__Z40Register_UnityEngine_Application_OpenURLv
mhf:_RecordProtocol_MapV2CipherCode_m4064211604
uYd:_Enumerable_Where_TisRuntimeObject_m1140705402_gshared
C8c:_ASCIIEncoding_GetByteCount_m2696039881
$gf:_ReceiveRecordAsyncResult_SetComplete_m2441107665
MOa:__ZN20SphericalHarmonicsL28TransferI19StreamedBinaryWriteILb0EEEEvRT_
mmj:_BeLive_Awake_m332617507
Sgd:_CanvasUpdateRegistry_InternalUnRegisterCanvasElementForLayoutRebuild_m3740187734
B1b:__ZNK28RectTransformPropertyBinding9BindValueER6ObjectRKN11UnityEngine9Animation14GenericBindingERNS3_10BoundCurveE
uVf:_DerivedType_get_AssemblyQualifiedName_m2010127631
y3a:__ZN4Mesh14UploadMeshDataEb
G2d:_Array_InternalArray__Insert_TisMonoResource_t3127387157_m2580914422_gshared
mZg:_InternalEnumerator_1_System_Collections_IEnumerator_get_Current_m4023948615_AdjustorThunk
GSb:__ZN14qsort_internal5QSortIP16RenderObjectDatai25RenderPrePassObjectSorterEEvT_S4_T0_T1_
Tje:_ArgIterator_Equals_m2415994310
lgg:__Z85RuntimeInvoker_Char_t3454481338_RuntimeObject_Int32U26_t455636984_CharU26_t1894467670PFvvEPK10MethodInfoPvPS4_
E2b:__ZN14RenderSettings12CleanupClassEv
cic:__Z43DataUtility_CUSTOM_INTERNAL_CALL_GetPaddingP12Il2CppObjectR8Vector4f
rN:__ZN21AudioScriptingClasses26InvokeOnAudioManagerUpdateEP21ScriptingExceptionPtr
Pia:__ZN18AsyncUploadManager15DoDeCruncherJobEP26FileAssetUploadInstruction
Hca:__ZN9GfxDevice15ImmediateNormalEfff
xFf:_EncoderReplacementFallbackBuffer_GetNextChar_m1811006007
xtb:__ZN13GUIStyleState8TransferI24GenerateTypeTreeTransferEEvRT_
Z1:__ZN20dynamic_block_vectorI14FileIdentifierE22push_back_no_constructEv
E1a:__ZN9Texture3D23VirtualRedirectTransferER14SafeBinaryRead
jHf:_StringBuilder_Append_m1462406979
Ndb:__ZNSt3__26vectorIN9ShaderLab20SerializedSubProgram16TextureParameterENS_9allocatorIS3_EEE8__appendEj
pXa:__ZN9Texture2D13UploadTextureEi
cGf:_Type_GetType_m773255995
Woh:_Mesh_ClearImpl_m2894829935
qHc:_cff_get_cid_from_glyph_index
Tkj:_PCMSetPositionCallback_Invoke_m1437833149
bwg:_RawImage__ctor_m527845386
eK:__ZN4FMOD6System19setSoftwareChannelsEi
pua:__ZN9GfxDevice19SetSinglePassStereoE16SinglePassStereo
N3d:_Array_InternalArray__set_Item_TisResourceCacheItem_t333236149_m2074358118_gshared
uFg:_Enumerator_MoveNext_m3349738440_gshared
cpf:_X500DistinguishedName_DecodeRawData_m3640767187
GJf:_Monitor_Monitor_wait_m3813798368
XVd:_Array_InternalArray__ICollection_Contains_TisDouble_t4078015681_m2262383923_gshared
Nwd:_Boolean_System_IConvertible_ToUInt64_m3594533761
png:__Z85RuntimeInvoker_Boolean_t3825574718_SpriteStateU26_t1330646292_SpriteState_t1353336012PFvvEPK10MethodInfoPvPS4_
ogc:__Z60Register_UnityEngine_Input_INTERNAL_set_compositionCursorPosv
kbj:__ZL51Collider_t3497673348_CustomAttributesCacheGeneratorP21CustomAttributesCache
Gbe:_BigInteger_get_Rng_m1268152318
Htj:dynCall_viiiii
w7f:__Z90RuntimeInvoker_Boolean_t3825574718_RuntimeObject_RuntimeObject_RuntimeObject_RuntimeObjectPFvvEPK10MethodInfoPvPS4_
Mtj:dynCall_viiiif
S$f:_MonoEvent_IsDefined_m3151861274
tZf:_PropertyBuilder_GetCustomAttributes_m1029078269
SDc:_Cubic_To
gdf:_TlsStream_WriteInt24_m1660453494
Ldc:__Z44Register_UnityEngine_Camera_get_farClipPlanev
oOa:__ZNSt3__26vectorINS_4pairI7Hash128iEE13stl_allocatorIS3_L18MemLabelIdentifier82ELi16EEE8__appendEj
Fq:__Z25InverseTransformDirection23TransformAccessReadOnlyRKN4math7_float3Eb
mO:__ZNK12AudioManager15GetDSPBlockSizeEv
k6a:__ZNK17IAnimationBinding30CurveAttributeToSerializedPathERKN11UnityEngine9Animation10BoundCurveE
iig:__Z87RuntimeInvoker_Color_t2020392075_Color_t2020392075_Color_t2020392075_Single_t2076509932PFvvEPK10MethodInfoPvPS4_
gri:__ZN6il2cpp2gc16GarbageCollector14GetOrCreateCCWEP12Il2CppObjectRK10Il2CppGuid
kpi:__ZN6il2cpp2vm5Image21FromTypeNameParseInfoEPK11Il2CppImageRKNS0_17TypeNameParseInfoEb
rga:__ZN17BufferManagerGLES13AcquireBufferEjN14DataBufferGLES11BufferUsageEb
uGd:_Console_OpenStandardError_m3676373108
oye:_UnmanagedMemoryStream_SetLength_m1805321486
kef:_Context_get_ProtocolNegotiated_m624488778
Zud:_SimpleEnumerator_MoveNext_m1696906961
FUc:__ZN16UnityAdsSettingsD0Ev
Zef:_Context_StartSwitchingSecurityParameters_m373522596
z1f:_MonoProperty_GetRequiredCustomModifiers_m576853384
vha:__ZNK7ApiGLES10DebugLabelEN2gl10ObjectTypeEjPKc
__d:_Array_InternalArray__IndexOf_TisInt16_t4041245914_m1619355230_gshared
TZd:__ZN21InterfaceFuncInvoker2Ii18Color32_t874517518S0_E6InvokeEjP11Il2CppClassP12Il2CppObjectS0_S0_
Rrj:__ZNK10__cxxabiv121__vmi_class_type_info16search_below_dstEPNS_19__dynamic_cast_infoEPKvib
iqe:_Int64_System_IConvertible_ToDateTime_m1002280174
Mga:__ZN19ConstantBuffersGLES13SetCBConstantEiiPKvi
oHd:_Convert_ToByte_m9159597
Ush:_X509Store_BuildCertificatesCollection_m4224672591
dic:__Z38DataUtility_CUSTOM_Internal_GetMinSizeP12Il2CppObjectP13Vector2fIcall
Z6b:__ZN8PlayableC2E17ScriptingClassPtr18DirectorPlayerType
V4g:_ResourceEnumerator_get_Key_m1012797265
ioe:_NumberFormatter_FormatPercent_m776769918
f7h:_il2cpp_class_has_attribute
WKf:_Scheduler_ShrinkIfNeeded_m2186823111
$af:_Alert_get_IsCloseNotify_m577852330
s0:__Z27FindOrCreateMonoScriptCache17ScriptingClassPtr22InitScriptingCacheTypeP6Objecti
nzb:__Z18Transfer_BlittableI18StreamedBinaryReadILb0EELb1E8Vector3fEvRK29SerializationCommandArgumentsR31RuntimeSerializationCommandInfo
BNc:__ZN2UI14CanvasRenderer13SyncVertexPtrER8JobFenceNS0_8SyncFlagE
K0:__Z35scripting_method_get_argument_count18ScriptingMethodPtr
wya:__ZN18AssetBundleManager18SortPreloadObjectsER13dynamic_arrayIiLj4EEb
fOf:_UInt16_System_IConvertible_ToChar_m4055364664_AdjustorThunk
YBh:_Vector3_SqrMagnitude_m3835019255
Wec:__Z20Gradient_CUSTOM_InitP12Il2CppObject
wnc:__Z48Register_UnityEngine_GUIUtility_Internal_ExitGUIv
fhi:__ZN14dense_hash_mapI10KeyWrapperINSt3__24pairIPK9FieldInfoP11Il2CppClassEEEj17ReflectionMapHashIS8_ENS9_14EqualsComparerINS1_8equal_toIS8_EEEENS1_9allocatorINS2_IKS9_jEEEEE15set_deleted_keyERSH_
ish:_X509Certificate_get_RawData_m1262574599
mNa:__ZN5Light23VirtualRedirectTransferER19StreamedBinaryWriteILb0EE
wxd:_Byte_System_IConvertible_ToDouble_m4224320007
bUb:__ZL21CullDynamicObjectsJobP14CullingJobDataj
ELc:__ZN2UI15ClearCanvasDataER8JobFenceRNS_10CanvasDataE
Umf:_IPAddress_ToString_m1462985652
K_f:_MethodBase_GetMethodFromHandleNoGenericCheck_m4274264088
IIg:_ValueCollection_System_Collections_Generic_ICollectionU3CTValueU3E_Clear_m3471385195_gshared
_Eg:_Enumerator_get_CurrentKey_m1408186928_AdjustorThunk
dYb:__ZN14ManagerContext17InitializeClassesEv
svg:_MaskUtilities_GetRectMasksForClip_m1540508301
Zxa:__ZN19StreamedBinaryWriteILb0EE21TransferSTLStyleArrayINSt3__26vectorI14ConstantStringNS2_9allocatorIS4_EEEEEEvRT_17TransferMetaFlags
Vt:__ZN7mecanim5human20MaskHasRightFootGoalERKNS_6bitsetILj70EEE
Exb:__ZN18StreamedBinaryReadILb1EE21TransferSTLStyleArrayI31ArrayOfManagedObjectsTransfererEEvRT_17TransferMetaFlags
IGe:_List_1_System_Collections_IList_IndexOf_m406088260_gshared
LRf:_WeakReference_get_Target_m1672141897
lce:_Kernel_DwordDivMod_m4066997639
tEc:_t1_hints_open
sRc:__ZN11UnityEngine15PlatformWrapper24GetVRTrackedAreaGeometryER13dynamic_arrayI8Vector3fLj4EE
eeg:__Z68RuntimeInvoker_Boolean_t3825574718_DateTime_t693205669_RuntimeObjectPFvvEPK10MethodInfoPvPS4_
p2c:_X509Certificate_GetCertHash_m2299453268
QZc:_MD5CryptoServiceProvider__ctor_m457716966
OVd:_Array_InternalArray__ICollection_Contains_TisKeyValuePair_2_t888819835_m3819112676_gshared
GJd:_Decimal_s64_m2965457432
f9b:__Z18TransformPoints3x4RK10Matrix4x4fPK8Vector3fjPS2_ji
gXc:__ZN22UnityWebRequestManager21CreateUnityWebRequestEv
_I:__ZN4FMOD7Channel11getUserDataEPPv
bxh:_RectTransform_INTERNAL_set_anchorMax_m4173108796
wBc:_UNITY_tt_face_load_gasp
Flg:__Z150RuntimeInvoker_RuntimeObject_RuntimeObject_Int32_t2071877448_Int32_t2071877448_Int32_t2071877448_Int32_t2071877448_Int32_t2071877448_Int32_t2071877448PFvvEPK10MethodInfoPvPS4_
K1e:_ReadOnlyCollection_1_System_Collections_IList_Insert_m3650067527_gshared
Uyc:_ft_ansi_stream_close
dm:_JS_Sound_SetPitch
zgj:__ZL69InputField_t1631627530_CustomAttributesCacheGenerator_m_TextComponentP21CustomAttributesCache
V7h:_il2cpp_runtime_invoke_convert_args
Jtc:__Z19TransferField_ArrayI8JSONRead27Converter_SimpleNativeClassI10RectOffsetEEvRK23StaticTransferFieldInfoR31RuntimeSerializationCommandInfoRT0_
k4g:_Enumerator_get_CurrentKey_m447338908_AdjustorThunk
hdf:_Context_get_SecurityProtocol_m1600902905
ili:__ZN6il2cpp6icalls8mscorlib6System2IO6MonoIO11GetFileStatEP12Il2CppStringPNS3_8FileStatEPi
qda:__ZN9GfxDevice33InsertCustomMarkerCallbackAndDataEPFviPvEiS0_j
fVc:__ZN11UnityEngine15PlatformWrapper16GenerateRandomIdEv
sMb:__ZNK9ShaderLab9IntShader6GetTagE11ShaderTagIDb
yRb:__Z25CalculateShadowCasterCullbPK5PlaneRK10Matrix4x4fRK8Vector3fff9LightTypeS7_R16ShadowCasterCullPKb
B6h:_il2cpp_get_corlib
bZc:_HMAC_HashCore_m1869699062
iSf:_Assembly_GetTypes_m1317253146
ROa:__ZN11Tetrahedron8TransferI19StreamedBinaryWriteILb0EEEEvRT_
lne:_Int16_System_IConvertible_ToType_m2901377575_AdjustorThunk
vqe:_Int64_System_IConvertible_ToSByte_m253213816_AdjustorThunk
rOc:__ZN2UI14CanvasRenderer11SetMaterialEP8Materiali
qdd:_MouseState_SetButtonState_m2329922363
kte:_FileStream__ctor_m3815606687
pzi:_GC_freehblk
Qne:_NumberFormatter_NumberToString_m668979517
b5e:_ReadOnlyCollection_1_System_Collections_IList_Remove_m2507730234_gshared
GHb:__Z36GiveDebuggerChanceToAttachIfRequiredv
lIg:_Enumerator_System_Collections_IEnumerator_Reset_m2482663638_gshared
Tbc:__ZN9Scripting35DestroyObjectFromScriptingImmediateEP6Objectb
SUb:__ZNK6Camera48AreVRStereoViewMatricesWithinSingleCullToleranceEv
$7i:__ZL53Rigidbody2D_t502193897_CustomAttributesCacheGeneratorP21CustomAttributesCache
cyf:_RemotingServices_GetRemoteObject_m3663391550
iAj:_glGetRenderbufferParameteriv__wrapper
FRe:_Queue_1_Peek_m1224538505_gshared
n9f:__Z105RuntimeInvoker_RuntimeObject_Int32_t2071877448_RuntimeObject_RuntimeObject_RuntimeObject_SByte_t454417549PFvvEPK10MethodInfoPvPS4_
c$d:_Array_InternalArray__IndexOf_TisRuntimeObject_m2440219229_gshared
UPh:__ZL25UnresolvedVirtualCall_122P12Il2CppObject23PropertyName_t217228410fPK10MethodInfo
qc:invoke_iiiiiiiiiiiiiii
svi:__ZN6il2cpp2os6Thread33UnregisterCurrentThreadForCleanupEv
LCj:_emscripten_glIsRenderbuffer__wrapper
d_h:__ZN15dense_hashtableINSt3__24pairIK10KeyWrapperIPK11Il2CppClassEPKcEES6_N6il2cpp5utils11PointerHashIS3_EEN14dense_hash_mapIS6_S9_SE_NS6_14EqualsComparerINS0_8equal_toIS5_EEEENS0_9allocatorISA_EEE9SelectKeyESJ_SL_E9copy_fromERKSO_j
ULc:__ZN2UI11CanvasGroup8TransferI19StreamedBinaryWriteILb0EEEEvRT_
pyb:__Z29Transfer_Blittable_ArrayFieldI18StreamedBinaryReadILb1EE5RectTIiEEvRT_R9ArrayInfoRK23StaticTransferFieldInfo
TLa:__ZNK20IntermediateRenderer8GetLayerEv
e6h:__ZN6il2cpp5utils9PathUtils7CombineIcEENSt3__212basic_stringIT_NS3_11char_traitsIS5_EENS3_9allocatorIS5_EEEERKSA_RKNS0_10StringViewIS5_EE
k_a:__ZN15QualitySettings8TransferI14SafeBinaryReadEEvRT_
XZh:__ZN14dense_hash_mapI10KeyWrapperIPK11Il2CppClassEPKcN6il2cpp5utils11PointerHashIS1_EENS4_14EqualsComparerINSt3__28equal_toIS3_EEEENSC_9allocatorINSC_4pairIKS4_S6_EEEEE13set_empty_keyERSI_
Ayh:_SendMouseEvents_SendEvents_m1854997939
Bpb:__ZN14SafeBinaryRead21TransferSTLStyleArrayI13dynamic_arrayIxLj8EEEEvRT_17TransferMetaFlags
$we:_StringReader_CheckObjectDisposedException_m3099453260
Bkf:_ListDictionary_System_Collections_IEnumerable_GetEnumerator_m2244736244
vpi:__ZNSt3__26vectorIN6il2cpp2vm5Image20EmbeddedResourceDataENS_9allocatorIS4_EEE21__push_back_slow_pathIS4_EEvOT_
jX:__GLOBAL__sub_I_runtime_utilities_0_cpp
tEi:__ZN6il2cpp2os9FastMutexD2Ev
nlg:__Z97RuntimeInvoker_Void_t1841601450_SByte_t454417549_SByte_t454417549_Int32_t2071877448_RuntimeObjectPFvvEPK10MethodInfoPvPS4_
y_d:_Array_IndexOf_TisCustomAttributeTypedArgument_t1498197914_m3666284377_gshared
Nce:_Kernel_AddSameSign_m2332657679
hkh:_Cursor_get_lockState_m300851107
D$:__ZN14SerializedFile10ReadObjectEx18ObjectCreationModebPPK8TypeTreePbR6Object
TSe:_Collection_1_System_Collections_IList_IndexOf_m3460849589_gshared
c9b:__ZN4Mesh12SetIndexDataEiiPKv16GfxPrimitiveTypei
MGb:__ZN14dynamic_bitset6resizeEjb
$9c:_BaseInputModule_FindCommonRoot_m2696088443
uS:__ZN11UnityEngine15CloudWebService10RestClientINS0_23WebRequestRestHeaderMapEE7SetDataEPKhj
WA:__ZN7mecanim8skeleton16SkeletonPoseCopyIN4math4trsXES3_EEvPKNS0_13SkeletonPoseTIT_EEPNS4_IT0_EE
YZh:__ZN14dense_hash_mapI10KeyWrapperIPK11Il2CppClassEPKcN6il2cpp5utils11PointerHashIS1_EENS4_14EqualsComparerINSt3__28equal_toIS3_EEEENSC_9allocatorINSC_4pairIKS4_S6_EEEEE15set_deleted_keyERSI_
caa:__ZN9GfxDevice34SetStencilRefWhenStencilWasSkippedEi
BSc:__ZN11UnityEngine7Connect13ConnectConfig20RestoreTimeoutConfigERK13dynamic_arrayIiLj4EEjRS3_
pc:invoke_fi
rDi:__ZN6il2cpp6icalls8mscorlib6System10Reflection4Emit11TypeBuilder20create_runtime_classEP27Il2CppReflectionTypeBuilderS7_
uW:__ZL21InternalAssertConsolePKcz
O5:__ZN18AsyncUploadManagerC2E18MemLabelIdentifier
nc:invoke_ff
yd:_emscripten_glVertexAttrib3f
Adi:__ZN30dense_hashtable_const_iteratorINSt3__24pairIK10KeyWrapperINS1_IPK11Il2CppImageP11Il2CppClassEEEjEES9_17ReflectionMapHashIS8_EN14dense_hash_mapIS9_jSD_NS9_14EqualsComparerINS0_8equal_toIS8_EEEENS0_9allocatorISB_EEE9SelectKeyESI_SK_EppEv
jwh:_Rect_set_yMax_m1836907767_AdjustorThunk
azd:_Char_CompareTo_m3044885427
sLe:_List_1_System_Collections_IList_IndexOf_m2887559165_gshared
UIg:_ValueCollection__ctor_m1825701219_gshared
bxc:__ZN20TextRenderingPrivate8TextMesh11ApplyToMeshEv
Bwg:_GetRaycastNonAllocCallback_Invoke_m106496059
cwj:_emscripten_glDrawRangeElements__wrapper
CVh:_CanvasRenderer_set_popMaterialCount_m3475132987
dJa:__Z28scripting_class_is_valuetype17ScriptingClassPtr
u_b:__ZNSt3__25dequeI10InputEventNS_9allocatorIS1_EEE19__add_back_capacityEv
kEe:_Enumerator_System_Collections_IEnumerator_Reset_m336811426_AdjustorThunk
lqa:__ZN13ComputeShader13SetValueParamERKN9ShaderLab16FastPropertyNameEiPKv
D3a:__ZN14BlendShapeDataD2Ev
i3h:__ZN6il2cpp2vm13MetadataCache25GetIndexForTypeDefinitionEPK11Il2CppClass
Pma:__ZL18ProgramUniform3uivPK7ApiGLESjiihPKv
vvd:_Attribute_IsDefined_m1350918959
_Oc:__Z47CanvasRenderer_Set_Custom_PropHasPopInstructionP12Il2CppObjecth
i1f:_MonoProperty_get_DeclaringType_m4236036432
xma:__ZN5Image8SetImageEii13TextureFormatb
a1:__ZN17MessageIdentifier21GetRegisteredMessagesEv
hSg:_U3CGetEnumeratorU3Ec__Iterator0_System_Collections_IEnumerator_get_Current_m480171694_gshared
CWd:_Array_InternalArray__ICollection_Contains_TisContentType_t1028629049_m2321684690_gshared
UU:__Z13RegisterClassI23CloudWebServicesManagerEvv
moi:__GLOBAL__sub_I_Image_cpp
Hye:_Math_Sin_m2320256962
m4e:_ReadOnlyCollection_1_System_Collections_Generic_IListU3CTU3E_Insert_m2409570138_gshared
FKe:_List_1_Add_m2123823603_gshared
KTa:__ZNSt3__27__sort5IRPFbRKNS_4pairIN9ShaderLab16FastPropertyNameEfEES6_EPS4_EEjT0_SB_SB_SB_SB_T_
Afd:_CanvasUpdateRegistry__ctor_m4037208045
qDh:_Event_Finalize_m270300156
Evi:__ZN14dense_hash_mapI10KeyWrapperIPK19Il2CppGenericMethodEP10MethodInfoN6il2cpp8metadata23Il2CppGenericMethodHashENS4_14EqualsComparerINS8_26Il2CppGenericMethodCompareEEENSt3__29allocatorINSD_4pairIKS4_S6_EEEEE15set_deleted_keyERSG_
Npb:__Z29Transfer_Blittable_ArrayFieldI14SafeBinaryRead4AABBEvRT_R9ArrayInfoRK23StaticTransferFieldInfo
M1e:_ReadOnlyCollection_1_System_Collections_IList_RemoveAt_m2396335261_gshared
xGg:_Transform_1_Invoke_m2675095773_gshared
tjd:_Dropdown_set_captionImage_m1952025570
Fcj:__ZL56g_UnityEngine_UI_Assembly_CustomAttributesCacheGeneratorP21CustomAttributesCache
mge:_RSAManaged_remove_KeyGenerated_m452989252
Ffc:__Z46Register_UnityEngine_RectOffset_get_horizontalv
WUa:__ZN18DelayedCallManager8ClearAllEv
yYb:__ZN17PersistentManagerC2E18MemLabelIdentifierii
Dgc:__Z22Mesh_CUSTOM_HasChannelP12Il2CppObject30InternalScriptingShaderChannel
Mcj:__ZL117EventSystem_t3466835263_CustomAttributesCacheGenerator_EventSystem_t3466835263____lastSelectedGameObject_PropertyInfoP21CustomAttributesCache
Fki:__ZN6il2cpp2os8AutoLockD2Ev
SSb:__ZNK25RenderPrePassObjectSorterclERK16RenderObjectDataS2_
Pxb:__Z22TransferField_NonArrayI18StreamedBinaryReadILb1EE27Converter_SimpleNativeClassI8GUIStyleEEvRK23StaticTransferFieldInfoR31RuntimeSerializationCommandInfoRT0_
me:_Mix_LoadWAV_RW
VEh:_GUIStyle_set_stretchWidth_m281327581
zP:__Z45AudioSource_Get_Custom_PropSpatializeInternalP12Il2CppObject
Woa:__Z13IsFloatFormat14GraphicsFormat
cr:__ZNSt3__27__sort4IRNS_6__lessIN11UnityEngine9Animation13CachedBindingES4_EEPS4_EEjT0_S8_S8_S8_T_
qqi:__ZN6il2cpp2gcL12alloc_handleEPNS0_10HandleDataEP12Il2CppObjectb
Xzj:_emscripten_glGetAttribLocation__wrapper
Cgd:_CanvasScaler_HandleConstantPhysicalSize_m687057631
Q7h:_il2cpp_object_get_virtual_method
fTb:__Z13InitIndexListR9IndexListj
gie:_PKCS12_Encrypt_m1401341763
a2:__ZL16ReadTypeTreeImplILb1EEbR8TypeTreeRK16TypeTreeIteratorRPKhS6_i
Ee:_glBlendEquationSeparate
O0c:_SHA384_Create_m1970724783
nm:_emscripten_glDeleteVertexArrays
Kda:__ZN13GfxDeviceGLES17SetComputeUniformE12ObjectHandleI18ComputeProgram_TagPvER18ComputeShaderParamjPKv
tBj:b95
ZBj:_emscripten_glValidateProgram__wrapper
l9b:__ZN13MeshScripting27PrintErrorCantAccessChannelEPK4Mesh30InternalScriptingShaderChannel
kfe:_SmallXmlParser_ReadComment_m1117342068
Le:_emscripten_glUniform3fv
aSa:__ZN9ShaderLab7Program14RemoveVariantsERK13dynamic_arrayI16ShaderKeywordSetLj4EE
Rli:__ZN6il2cpp2vm9Exception20GetArgumentExceptionEPKcS3_
Wuc:__Z29Transfer_Blittable_ArrayFieldI8JSONReadiEvRT_R9ArrayInfoRK23StaticTransferFieldInfo
hAj:_glDrawArrays__wrapper
ZN:__ZN9AudioClip27IsFormatSupportedByPlatformERKN4core12basic_stringIcNS0_20StringStorageDefaultIcEEEE
KVa:__ZN29SerializeTraitsForStringTypesIN4core12basic_stringIcNS0_20StringStorageDefaultIcEEEEE8TransferI24GenerateTypeTreeTransferEEvRS4_RT_
Ueb:__ZN9ShaderLab26SerializedShaderDependency8TransferI24GenerateTypeTreeTransferEEvRT_
z4f:__Z92RuntimeInvoker_RuntimeObject_RuntimeObject_Int32_t2071877448_Int32_t2071877448_RuntimeObjectPFvvEPK10MethodInfoPvPS4_
QBc:_UNITY_FT_Match_Size
rhd:_ColorBlock_Equals_m738243050
nv:__ZN7mecanim20CreateValueArrayMaskEPKNS_18ValueArrayConstantERNS_6memory9AllocatorE
qqj:_free
elf:_NameObjectCollectionBase_GetEnumerator_m646294968
jih:_Bounds_set_size_m4260584766_AdjustorThunk
tRc:__ZN11UnityEngine7Connect14AppUpdateEventC2Ev
OIa:__ZN12ImageFilters17RemoveImageFilterERK11ImageFilter
Ulj:_AudioSettings_InvokeOnAudioConfigurationChanged_m4035594278
rda:__ZN9GfxDevice31InsertCustomBlitCallbackAndDataEPFviPvER33UnityRenderingExtCustomBlitParams
JHb:__Z32AddPathRemapsForBuiltinResourcesRKN4core12basic_stringIcNS_20StringStorageDefaultIcEEEE
Iyh:_HitInfo_SendMessage_m3395411273_AdjustorThunk
fee:_DSAManaged_remove_KeyGenerated_m61544860
frb:__ZL26Transfer_SimpleNativeClassI17RemapPPtrTransfer17AnimationCurveTplIfELb0EEvRK29SerializationCommandArgumentsR31RuntimeSerializationCommandInfo
Hqh:_KeyUsageExtension_Decode_m4115739726
pm:_glDeleteTransformFeedbacks
qf:_JS_WebRequest_Send
vyi:__ZN6il2cpp2os4Time31GetTicks100NanosecondsMonotonicEv
Wti:__ZNSt3__26__treeINS_12basic_stringIcNS_11char_traitsIcEENS_9allocatorIcEEEENS_4lessIS6_EENS4_IS6_EEE16__construct_nodeIJRKS6_EEENS_10unique_ptrINS_11__tree_nodeIS6_PvEENS_22__tree_node_destructorINS4_ISH_EEEEEEDpOT_
gGd:_Stack_Clear_m771767447
Aqe:_Int64_System_IConvertible_ToUInt16_m2638682734
zQi:__ZL102ChannelServices_t2007814595_CustomAttributesCacheGenerator_ChannelServices_RegisterChannel_m3832858065P21CustomAttributesCache
mTc:__ZN18UnityConnectClient32OnVrControllerStateChangedStaticEPS_13dynamic_arrayIN4core12basic_stringIcNS2_20StringStorageDefaultIcEEEELj4EE
srj:__ZNK10__cxxabiv117__class_type_info24process_found_base_classEPNS_19__dynamic_cast_infoEPvi
qSh:_Nullable_1_Equals_m1889119397_AdjustorThunk
qVh:_CanvasRenderer_INTERNAL_CALL_SetColor_m1064368306
p3h:__ZN6il2cpp2vm13MetadataCache21GetFieldInfoFromIndexEj
Owg:_Raycast2DCallback_BeginInvoke_m4219004388
nwi:__GLOBAL__sub_I_String_cpp
Gkf:_ListDictionary_FindEntry_m432748847
kq:__ZNSt3__26vectorIN4core12basic_stringIcNS1_20StringStorageDefaultIcEEEENS_9allocatorIS5_EEE6assignINS_11__wrap_iterIPS5_EEEENS_9enable_ifIXaasr21__is_forward_iteratorIT_EE5valuesr16is_constructibleIS5_NS_15iterator_traitsISE_E9referenceEEE5valueEvE4typeESE_SE_
w6h:_il2cpp_init
Ynh:_Mathf_Cos_m3039455602
iLc:__ZNSt3__26__treeIPN2UI14CanvasRendererENS_4lessIS3_EENS_9allocatorIS3_EEE7destroyEPNS_11__tree_nodeIS3_PvEE
f7f:__Z176RuntimeInvoker_Boolean_t3825574718_RuntimeObject_Int32U26_t455636984_Int32_t2071877448_Int32_t2071877448_Int32_t2071877448_RuntimeObject_SByte_t454417549_ContextU26_t3131521781PFvvEPK10MethodInfoPvPS4_
dca:__ZN13GfxDeviceGLES22UploadTextureSubData2DE9TextureIDPKhiiiiii14GraphicsFormat
dEh:_GUILayoutEntry__ctor_m3585399294
hfc:__Z35Register_UnityEngine_Screen_get_dpiv
Jfi:__ZNK15dense_hashtableINSt3__24pairIK10KeyWrapperIPK14Il2CppAssemblyEPK22Il2CppMonoAssemblyNameEES6_N6il2cpp5utils11PointerHashIS4_EEN14dense_hash_mapIS6_SA_SF_NS6_14EqualsComparerINS0_8equal_toIS5_EEEENS0_9allocatorISB_EEE9SelectKeyESK_SM_E5beginEv
mtc:__ZN8JSONRead8TransferIxEEvRT_PKc17TransferMetaFlagsb
Yvc:__ZN13SpeedTreeWind7AdvanceEbd
pl:___syscall193
$fa:__ZN18GlslGpuProgramGLES19ApplyGpuProgramGLESERK20GpuProgramParametersPKh
Oac:__ZN9Transform16SetLocalPositionERK8Vector3f
wnd:_LayoutGroup_GetTotalMinSize_m2600700952
R_b:__ZN10BootConfig4Data12InitFromFileEPPKcjS2_
kzb:__Z15Transfer_StringI18StreamedBinaryReadILb0EELb0EEvRK29SerializationCommandArgumentsR31RuntimeSerializationCommandInfo
MJ:__ZN12SoundManagerC2Ev
uBc:_UNITY_tt_face_free_name
N7b:__ZN17TransformInternal24AddTransformSubhierarchyER18TransformHierarchyjS1_RjS2_yb
K5d:_Array_Sort_TisUICharInfo_t3056636800_m37864585_gshared
i9:__ZN15dense_hashtableINSt3__24pairIKN4core12basic_stringIcNS2_20StringStorageDefaultIcEEEE10vector_setI4PPtrI11SpriteAtlasENS0_4lessISB_EE13stl_allocatorISB_L18MemLabelIdentifier81ELi16EEEEES6_20StringHash32FunctionIS6_EN14dense_hash_mapIS6_SH_SK_NS0_8equal_toIS6_EESE_ISI_LSF_81ELi16EEE9SelectKeyESN_SO_E4swapERSR_
QAj:_emscripten_glGetUniformfv__wrapper
Jna:__ZN14DataBufferGLES3MapEjjj
U_g:_InternalEnumerator_1_System_Collections_IEnumerator_get_Current_m771161214_gshared
Co:FUNCTION_TABLE_fidi
VEg:_Enumerator_get_CurrentValue_m2645962456_gshared
cBj:_emscripten_glGetShaderiv__wrapper
B0b:__Z13RegisterClassI9TransformEvv
wTa:__ZN18UnityPropertySheet11UnityTexEnv8TransferI19StreamedBinaryWriteILb0EEEEvRT_
bGa:__ZNK6Camera33CalculateFarPlaneWorldSpaceLengthEv
$4g:_ResourceInfo_t3933049236_marshal_pinvoke_back
njh:_Color_Lerp_m527444458
ydi:__ZNK15dense_hashtableINSt3__24pairIK10KeyWrapperINS1_IPK11Il2CppImageP11Il2CppClassEEEjEES9_17ReflectionMapHashIS8_EN14dense_hash_mapIS9_jSD_NS9_14EqualsComparerINS0_8equal_toIS8_EEEENS0_9allocatorISB_EEE9SelectKeyESI_SK_E5beginEv
G6h:_il2cpp_array_new
b0d:_Array_InternalArray__ICollection_Add_TisDictionaryEntry_t3048875398_m279246399_gshared
q7g:_ChannelServices_GetCurrentChannelInfo_m4080942430
bI:__ZN4FMOD3DSP8getInputEiPPS0_PPNS_13DSPConnectionE
ACe:_KeyValuePair_2_ToString_m2882821022_AdjustorThunk
GM:__ZN11SoundHandle8Instance13CreateChannelERS_b
L3a:__ZN10MeshFilter23VirtualRedirectTransferER17RemapPPtrTransfer
Xzc:_ft_outline_glyph_bbox
vAh:_Transform_INTERNAL_set_rotation_m366775404
XG:__ZN13AudioListenerD2Ev
MJc:_UNITY_FT_Done_Library
FDg:_VertexHelper__cctor_m1150948588
RNc:__ZN2UI13CanvasManager17EmitDataForCameraEP6Camera
$ri:__ZN6il2cpp2vm6Object16GetVirtualMethodEP12Il2CppObjectPK10MethodInfo
FGg:_Transform_1_Invoke_m1111426439_gshared
Lhc:__Z44Register_UnityEngine_Material_GetTextureImplv
yAj:_glUniform3uiv__wrapper
LEb:__ZL8MainLoopv
_Sf:_Binder_ConvertArgs_m2999223281
FWf:_TypeBuilder_IsDefined_m3186251655
wPc:__Z47Register_UnityEngine_CanvasRenderer_SetMaterialv
a8g:_ConfigHandler_ValidatePath_m3188987489
xpa:__ZN15dense_hashtableINSt3__24pairIKPK17RenderSurfaceBaseP13RenderTextureEES4_19PointerHashFunctionIS4_EN14dense_hash_mapIS4_S7_SA_NS0_8equal_toIS4_EE13stl_allocatorIS8_L18MemLabelIdentifier67ELi16EEE9SelectKeyESD_SG_E12resize_deltaEjj
rBe:_NumberFormatter_get_IntegerDigits_m3972411141
g4a:__ZThn32_N12MeshRendererD1Ev
KQa:__ZN13RenderTexture23VirtualRedirectTransferER19StreamedBinaryWriteILb0EE
ZFg:_ShimEnumerator_MoveNext_m2728191736_gshared
fQf:_UInt64_System_IConvertible_ToInt32_m930227577_AdjustorThunk
hxi:__ZN6il2cpp2vm13ComObjectBase17GetMarshalSizeMaxERK10Il2CppGuidPvjS5_jPj
J3b:__ZN9TransformC2E18MemLabelIdentifier18ObjectCreationMode
oqj:_truncate
Gfb:__ZN9ShaderLab27SerializedShaderVectorValue8TransferI18StreamedBinaryReadILb0EEEEvRT_
OYa:__ZN8Renderer21RendererBecameVisibleEv
f3e:_ReadOnlyCollection_1_System_Collections_Generic_ICollectionU3CTU3E_Clear_m2503787861_gshared
Kpj:___stpncpy
ZUe:_Collection_1_System_Collections_IList_Add_m669232520_gshared
SNe:_List_1_RemoveAt_m1843849279_gshared
cZ:__ZN10MemoryPool16StaticInitializeEPv
H7:__ZN11TypeManager21CleanupGlobalInstanceEv
eEh:_LayoutCache__ctor_m3175562018
XNf:_TypedReference_GetHashCode_m3498861551_AdjustorThunk
N:Math_atan
_9h:__ZNSt3__212basic_stringIcNS_11char_traitsIcEENS_9allocatorIcEEE6__initIPKcEENS_9enable_ifIXsr21__is_forward_iteratorIT_EE5valueEvE4typeESA_SA_
GG:__ZNK10SampleClip11GetResourceEv
tBa:__ZN4core12basic_stringIcNS_20StringStorageDefaultIcEEE6resizeEj
Imc:__Z43Register_UnityEngine_Event_set_displayIndexv
Y0g:_InternalEnumerator_1_System_Collections_IEnumerator_get_Current_m2821735692_AdjustorThunk
bvc:__GLOBAL__sub_I_CmEventProfiler_cpp
i8e:_PrimalityTests_GetSPPRounds_m873706010
kHf:_StringBuilder_AppendLine_m1686706871
Q4e:_ReadOnlyCollection_1_System_Collections_Generic_IListU3CTU3E_Insert_m584948331_gshared
zDa:__ZN17GlobalGameManager23VirtualRedirectTransferER24GenerateTypeTreeTransfer
mve:_MemoryStream_ToArray_m547789004
UTc:__ZN19UnityConnectServiceD0Ev
ZXd:_PlayableHandle_IsPlayableOfType_TisAnimatorControllerPlayable_t1744083903_m1628500864_gshared
Aue:_MonoIO_SetLength_m1019790894
nIb:__ZZ23InitPlayerLoopCallbacksvEN46EarlyUpdateUpdateAllUnityWebStreamsRegistrator7ForwardEv
RQf:_UIntPtr_ToString_m387842486
gKa:__ZNSt3__26vectorIfNS_9allocatorIfEEE8__appendEjRKf
cSc:__ZN11UnityEngine15PlatformWrapper21GetCopyTextureSupportEv
Ald:_Graphic_get_depth_m3526566553
IN:__ZN11AudioModule27IsFormatSupportedByPlatformEPKc
MCd:_CollectionBase_get_InnerList_m44314156
ASd:_Enum_System_IConvertible_ToUInt32_m3575456858
eFa:__ZNSt3__26vectorI17SortingLayerEntryNS_9allocatorIS1_EEE6assignINS_11__wrap_iterIPS1_EEEENS_9enable_ifIXaasr21__is_forward_iteratorIT_EE5valuesr16is_constructibleIS1_NS_15iterator_traitsISA_E9referenceEEE5valueEvE4typeESA_SA_
E1:__ZN14SerializedFile14SerializedTypeD2Ev
Ouc:__Z19TransferField_ArrayI8JSONRead16Converter_StringEvRK23StaticTransferFieldInfoR31RuntimeSerializationCommandInfoRT0_
_Sb:__Z19SetupShadowCullDataRK27ScriptableCullingParametersRK17ShaderReplaceDataPK22SceneCullingParametersf16ShadowProjectionR14ShadowCullData
vxa:__ZNK25ThreadsafeLinearAllocator22GetAllocatedMemorySizeEv
bFc:_cff_size_request
AUa:__ZN15DirectorManager14ConnectionPool12SwitchBucketEP14ConnectionList
dNf:_Type_EqualsInternal_m266086934
wLc:__ZN2UI11CompareFuncEPNS_6CanvasES1_
SI:__ZN4FMOD7Channel11set3DSpreadEf
IEi:__ZN6il2cpp2os6Memory14AlignedReAllocEPvjj
W:Math_fround
HVa:__ZN24GenerateTypeTreeTransfer16TransferTypelessEPjPKc17TransferMetaFlags
Hwc:__ZN20TextRenderingPrivate8FontImpl8TransferI24GenerateTypeTreeTransferEEvRT_
gZc:_HMACMD5__ctor_m3425004426
Rge:_SymmetricTransform_InternalTransformBlock_m55428483
Qma:__ZL18ProgramUniform4uivPK7ApiGLESjiihPKv
Qze:_LongComparer_Compare_m398047722
lQg:_EqualityComparer_1_System_Collections_IEqualityComparer_Equals_m2170611288_gshared
ovd:_Attribute_CheckParameters_m1754681684
wHf:_UnicodeEncoding_GetByteCount_m2761661599
GPa:__ZN10builtintex21GetAttenuationTextureEv
Om:FUNCTION_TABLE_viiiiiiiiiiiiiii
fih:_Bounds_set_center_m1010418458_AdjustorThunk
AAg:_Selectable_TriggerAnimation_m3096883407
T8b:__ZNK4Mesh19CanAccessFromScriptEv
OY:__Z15GetGraphicsCapsv
Cea:__ZN7ApiGLES15BindVertexArrayEN2gl6HandleILNS0_10ObjectTypeE3EEE
Y4b:__ZZL23RegisterLightPropertiesR22GenericPropertyBindingEN21Wrapper_LightDrawHalo13GetFloatValueEPv
WGh:_UnityAction_1_BeginInvoke_m2825236457_gshared
Yu:__ZN17AnimationPlayable17GetAnimationClipsER13dynamic_arrayIP13AnimationClipLj4EE
iQb:__Z20IntersectionAABBAABBRK10MinMaxAABBS1_PS_
Mei:__ZN30dense_hashtable_const_iteratorINSt3__24pairIK10KeyWrapperINS1_IPK9EventInfoP11Il2CppClassEEEjEES9_17ReflectionMapHashIS8_EN14dense_hash_mapIS9_jSD_NS9_14EqualsComparerINS0_8equal_toIS8_EEEENS0_9allocatorISB_EEE9SelectKeyESI_SK_EppEv
mMf:_TimeSpan_op_GreaterThan_m2202243191
A$b:__ZN18BackgroundJobQueue29ScheduleMainThreadJobInternalEPFvPvES0_
cqf:_X509Chain_IsSelfIssued_m2009755967
NLc:__ZN2UI11CanvasGroup23VirtualRedirectTransferER24GenerateTypeTreeTransfer
umb:__Z18Transfer_BlittableI14SafeBinaryReadLb1EhEvRK29SerializationCommandArgumentsR31RuntimeSerializationCommandInfo
SMd:_DateTime_GetTimeMonotonic_m4135038456
N8:__ZNSt3__224__buffered_inplace_mergeIRNS_4lessIN4core12basic_stringIcNS2_20StringStorageDefaultIcEEEEEENS_11__wrap_iterIPS6_EEEEvT0_SC_SC_T_NS_15iterator_traitsISC_E15difference_typeESG_PNSF_10value_typeE
dHf:_StringBuilder_Append_m3636508479
bc:invoke_viifff
X_:__Z22DestroyObjectHighLevelP6Objectb
uNb:__Z26BeginRenderQueueExtractionR15RenderNodeQueuePK16RendererCullDataRK13CullingOutputPK12LODDataArray15ExtractionFlagsP18JobBatchDispatcher
Wwc:__ZNK13TextRendering4Font10GetTextureEv
j_c:_SymmetricAlgorithm_set_KeySize_m270664177
lj:_emscripten_glVertexAttrib3fv
Ckj:__ZL49Shadow_t4269599528_CustomAttributesCacheGeneratorP21CustomAttributesCache
Kki:__ZN6il2cpp6icalls8mscorlib6System9Threading6Thread16SetName_internalEP12Il2CppThreadP12Il2CppString
pj:_glBeginTransformFeedback
XKa:__ZN18JobBatchDispatcherC2E11JobPriorityi
Gkc:__ZN8GUIStyle14GetBuiltinFontEv
Xca:__ZN9GfxDevice13EndFrameStatsEv
f3b:__Z7Empty2DP9Texture2DPhiiii
yre:_IntPtr_ToString_m1500137303_AdjustorThunk
Jdd:_RaycasterManager__cctor_m3713028899
Nji:__ZN6il2cpp6icalls8mscorlib6System7Runtime15InteropServices7Marshal19copy_from_unmanagedEiiP11Il2CppArrayi
$Je:_List_1_CheckCollection_m1228076404_gshared
CKh:_SymmetricTransform_ThrowBadPaddingException_m2553969731
WG:__ZL34StaticDestroyAudioCustomFilterRootPv
tqa:__ZN19ComputeShaderKernelD2Ev
X_b:__ZN10systeminfo21GetTemporaryCachePathEv
xGf:_Encoding_GetBytes_m3820493744
IXe:_Collection_1_IsValidItem_m2164075061_gshared
SAa:__ZN15ArchiveReadFile4ReadEyyPvPy
CUh:_TextGenerator_GetPreferredHeight_m2983948849
Lhb:__ZN12ScriptMapper8TransferI14SafeBinaryReadEEvRT_
Kef:_Context_set_ClientWriteKey_m1137238126
Msb:__Z18Transfer_BlittableI24GenerateTypeTreeTransferLb1E10Matrix4x4fEvRK29SerializationCommandArgumentsR31RuntimeSerializationCommandInfo
Aeh:_Expression_GetFixedWidth_m2900825908
LMh:_GenericEqualityComparer_1_Equals_m1663005117_gshared
UUf:_ILGenerator_Mono_GetCurrentOffset_m3553856682
jrc:__ZN9JSONWrite8TransferI10Matrix4x4fEEvRT_PKc17TransferMetaFlags
EHi:__ZL58Decimal_t724701077_CustomAttributesCacheGenerator_MinValueP21CustomAttributesCache
tGc:_cf2_hintmap_map
pFe:_Enumerator_VerifyState_m3639069574_AdjustorThunk
lQi:__ZL50_Module_t2144668161_CustomAttributesCacheGeneratorP21CustomAttributesCache
xpb:__ZN15SerializeTraitsI5RectTIfEE8TransferI14SafeBinaryReadEEvRS1_RT_
Qxa:__ZNK14SerializedFile15GetTypeIfExistsEx
zic:__Z41Register_UnityEngine_Texture_get_wrapModev
Hyc:_UNITY_FT_Raccess_Get_DataOffsets
Wrf:_X509Extension_CopyFrom_m2644634650
j7b:__ZN14PlayableOutputC2EjP13PlayableGraph
aZa:__ZThn32_NK8Renderer11GetMaterialEi
Rfb:__ZN9ShaderLab20SerializedSubProgram8TransferI19StreamedBinaryWriteILb0EEEEvRT_
rUi:__ZL118SecurityManager_t3191249573_CustomAttributesCacheGenerator_SecurityManager_t3191249573____SecurityEnabled_PropertyInfoP21CustomAttributesCache
CIe:_List_1_System_Collections_IList_Insert_m813883425_gshared
Cyi:__ZN6il2cpp6icalls8mscorlib6System7Runtime15InteropServices8GCHandle15GetTargetHandleEP12Il2CppObjectii
G6g:_SafeHandle_Dispose_m3871883741
ik:_unsetenv
V9:__ZN9GfxDevice29GetMinimumNodesPerGraphicsJobEv
W2a:__ZN17BlendShapeChannel8TransferI24GenerateTypeTreeTransferEEvRT_
Lch:_Parser_NewParseException_m3909819299
LQc:__ZN22BaseUnityConnectClient12CloseServiceEv
X6:__ZN15DirectorManager17OnSampleFixedTimeEv
qUb:__ZNK13RendererScene21GetDynamicObjectCountEv
$Hg:_Enumerator_System_Collections_IEnumerator_get_Current_m1805365227_AdjustorThunk
Wyi:_GC_is_black_listed
Qpd:_InputField_set_caretSelectPositionInternal_m2063243072
stb:__ZN24GenerateTypeTreeTransfer32TransferSTLStyleArrayWithElementI23ManagedObjectTransfererEEvRT_17TransferMetaFlags
a0g:_InternalEnumerator_1_System_Collections_IEnumerator_get_Current_m3043347404_AdjustorThunk
sui:__ZN6il2cpp6icalls8mscorlib6System11Environment12get_PlatformEv
sue:_WriteDelegate_BeginInvoke_m2985235908
lOd:_DateTimeOffset_get_Offset_m2335492074_AdjustorThunk
d7d:_Component_GetComponentsInChildren_TisRuntimeObject_m1992201622_gshared
dAc:_UNITY_FT_Destroy_Class_tt_driver_class
ipe:_Int32_System_IConvertible_ToChar_m719315943_AdjustorThunk
Lr:__GLOBAL__sub_I_runtime_animation_0_cpp
Wah:_Match__ctor_m478172746
e3d:_Array_InternalArray__Insert_TisWorkRequest_t1154022482_m452198486_gshared
qdc:__Z42Register_UnityEngine_Behaviour_get_enabledv
Kye:_Math_Pow_m3099781906
a9h:__ZN6il2cpp2vm14TypeNameParser23ParseNestedTypeOptionalERi
vAe:_MonoType_ReorderParamArrayArguments_m979187413
b7e:_BigInteger_ToString_m1842353154
sEi:__ZN6il2cpp2os13FastMutexImplC2Ev
NQc:__ZN22BaseUnityConnectClient14QueueCoreEventERN11UnityEngine15CloudWebService17CloudServiceEventEb
hVg:_InternalEnumerator_1_get_Current_m2882946014_gshared
v8a:__ZN30RuntimeInitializeOnLoadManager9ClassInfo8TransferI14SafeBinaryReadEEvRT_
j6g:_GCHandle_Equals_m170815541_AdjustorThunk
IQb:__ZL13RenderCastersiRK8Vector3fS1_RK13ShadowJobDataR17ShaderPassContextRKNSt3__26vectorI16ShadowCasterData13stl_allocatorIS9_L18MemLabelIdentifier2ELi16EEEERKNS8_I20ShadowCasterPartDataSA_ISG_LSB_2ELi16EEEERK15RenderNodeQueuebPKj
jl:_emscripten_glGetShaderInfoLog
Y_c:_RIPEMD160Managed_Compress_m3844168032
FOd:_DBNull_System_IConvertible_ToInt32_m3596596664
Xoe:_Int16_ToString_m1247017262_AdjustorThunk
YBc:_UNITY_ft_glyphslot_set_bitmap
Y$:__ZN24GenerateTypeTreeTransfer18SetScriptingObjectE18ScriptingObjectPtri
FOa:__ZN18StreamedBinaryReadILb0EE21TransferSTLStyleArrayI13dynamic_arrayI20SphericalHarmonicsL2Lj4EEEEvRT_17TransferMetaFlags
zpe:_Int32_System_IConvertible_ToType_m573330549_AdjustorThunk
HTf:_CustomAttributeTypedArgument_Equals_m1555989603
cvi:__ZN6il2cpp2os6ThreadC2EPNS0_10ThreadImplE
b$b:__ZN6prcoreL11inner_clearILj3EEEvPhjjj
PHa:__Z29FindReflectionProbeFromAnchorP9TransformRK4AABBRS1_RsS5_
lVd:_CultureInfo_insert_into_shared_tables_m348522444
tuf:_Interval_Merge_m1170166798
Gzf:_WellKnownServiceTypeEntry__ctor_m1109686429
lIc:_Read_CVT_Stretched
k5h:__ZN6il2cpp6icalls8mscorlib6System18CollectTypeMethodsINS_5utils10functional10TrueFilterEEEvP11Il2CppClassPKS7_jRKT_RNSt3__26vectorIPK10MethodInfoNSE_9allocatorISI_EEEERA65535_b
lRe:_Enumerator_get_Current_m2566716693_AdjustorThunk
UEb:__Z14SetPlayerPause11PlayerPauseb
Bkd:_FontData_get_defaultFontData_m3296571046
Xyb:__ZN18StreamedBinaryReadILb1EE8TransferI13dynamic_arrayIfLj4EEEEvRT_PKc17TransferMetaFlags
Vph:_Object_Internal_CloneSingle_m1822942073
iqd:_InputField_InPlaceEditing_m1040314765
a_:__Z30scripting_stack_trace_info_for21ScriptingExceptionPtrR14StackTraceInfo
$uj:_glCompressedTexSubImage3D__wrapper
clj:_AudioExtensionManager_AddSpatializerExtension_m1061433739
bQa:__ZN18ShadowMapJobHeaderD0Ev
Ydi:__ZN15dense_hashtableINSt3__24pairIK10KeyWrapperINS1_IPK12PropertyInfoP11Il2CppClassEEEjEES9_17ReflectionMapHashIS8_EN14dense_hash_mapIS9_jSD_NS9_14EqualsComparerINS0_8equal_toIS8_EEEENS0_9allocatorISB_EEE9SelectKeyESI_SK_EC2ERKSN_j
lI:__ZN15AudioReverbZone7CleanupEv
E9:__ZN10BufferGLESD0Ev
AEb:__Z20scripting_gc_disablev
G$g:_InternalEnumerator_1_System_Collections_IEnumerator_get_Current_m790514740_gshared
flj:_AudioSettings_GetSpatializerPluginName_m698617843
j4c:__Z9NullCheckPv
gUc:__ZN22UnityAnalyticsSettings8TransferI14SafeBinaryReadEEvRT_
gii:__ZN15dense_hashtableINSt3__24pairIK10KeyWrapperIP11Il2CppClassES4_EES5_N6il2cpp8metadata16SZArrayClassHashEN14dense_hash_mapIS5_S4_SA_NS5_14EqualsComparerINS9_19SZArrayClassCompareEEENS0_9allocatorIS7_EEE9SelectKeyESE_SG_EC2ERKSJ_j
_Cb:__ZN9Scripting35ErrorMessageForUnsupportedEnumFieldE17ScriptingFieldPtr
BGc:_cf2_hintmask_isNew
Yyb:__Z29Transfer_Blittable_ArrayFieldI18StreamedBinaryReadILb1EEfEvRT_R9ArrayInfoRK23StaticTransferFieldInfo
z2d:_Array_InternalArray__Insert_TisIntPtr_t_m3232864760_gshared
jma:__ZN6prcoreL26RemapGenericIntegerToFloatI17TexFormatARGB888818TexFormatARGBFloatEEvPKNS_9InnerInfoE
QNh:__ZL24UnresolvedVirtualCall_10P12Il2CppObjectPK10MethodInfo
Kzj:_emscripten_glCompressedTexSubImage2D__wrapper
QXc:_DSA_FromXmlString_m2141326025
tyi:__ZN6il2cpp6icalls8mscorlib6System7Runtime16CompilerServices14RuntimeHelpers15InitializeArrayEP11Il2CppArrayi
lVc:__ZZN18UnityConnectClient23RegisterGlobalCallbacksEvEN46EarlyUpdateUnityConnectClientUpdateRegistrator7ForwardEv
EKg:_Dictionary_2_System_Collections_IDictionary_Remove_m2901901588_gshared
dnh:_Input_get_touchCount_m814531925
q4h:__ZN6il2cpp2vmL29SocketPollingThreadEntryPointEPv
TMd:_DateTime_GetNow_m1004310079
Z7f:__Z97RuntimeInvoker_Void_t1841601450_RuntimeObject_Int32_t2071877448_SByte_t454417549_SByte_t454417549PFvvEPK10MethodInfoPvPS4_
d3a:__ZN10Matrix4x4f8TransferI18StreamedBinaryReadILb0EEEEvRT_
WFh:_CachedInvokableCall_1_Invoke_m3335223860_gshared
Gjf:_SslStreamBase_get_Length_m763159069
G5e:_Comparison_1_Invoke_m4190993814_gshared
YL:__ZN4FMOD7Channel19getReverbPropertiesEP29FMOD_REVERB_CHANNELPROPERTIES
u1g:_InternalEnumerator_1_get_Current_m906360510_AdjustorThunk
PQd:_StackFrame_GetSecureFileName_m389986943
$zf:_FormatterConverter_ToInt16_m2774942580
Agd:_CanvasScaler_HandleConstantPixelSize_m229625308
pX:__GLOBAL__sub_I_platformdependent_webgl_source_0_cpp
DTb:__ZL23NormalizeRobustInternalRK8Vector3fRfS2_f
Fgd:_CanvasUpdateRegistry_PerformUpdate_m2200492017
Nvc:__GLOBAL__sub_I_modules_terrain_public_2_cpp
SHf:_UTF32Encoding_GetCharCount_m3319809517
a5h:__ZN6il2cpp6icalls8mscorlib6System8MonoType13GetInterfacesEP20Il2CppReflectionType
cT:__ZN11UnityEngine15CloudWebService25WebRequestDownloadHandler7OnAbortEv
aO:__ZN9AudioClip16EnableLegacyModeEv
WHb:__ZN23ManagedAttributeManager15InitializeClassEv
qvi:__ZN6il2cpp2os6Thread22SetNativeThreadCleanupEPFvPvE
Rcc:__Z35Application_Get_Custom_PropPlatformv
L6h:_il2cpp_class_from_system_type
Szh:_TouchScreenKeyboard_Open_m4126304679
$m:FUNCTION_TABLE_vdd
rsb:__Z18Transfer_BlittableI24GenerateTypeTreeTransferLb1E10ColorRGBAfEvRK29SerializationCommandArgumentsR31RuntimeSerializationCommandInfo
jla:__ZN6prcoreL17RemapGenericFloatI18TexFormatRGBAFloat16TexFormatRGFloatEEvPKNS_9InnerInfoE
dae:_MSCompatUnicodeTable_FillCJKCore_m1100372933
B4h:__ZN6il2cpp6icalls8mscorlib6System8MonoType8get_NameEP20Il2CppReflectionType
Rob:__ZNSt3__26vectorI10RectOffset13stl_allocatorIS1_L18MemLabelIdentifier1ELi16EEE8__appendEj
aId:_DateTime_op_Inequality_m1607380213
jt:__ZN21AnimationClipPlayable22PrepareAnimationEventsEfR13dynamic_arrayI22AnimationClipEventInfoLj4EE
I6d:_Dictionary_2_Do_ICollectionCopyTo_TisRuntimeObject_m4050345195_gshared
jWd:_Array_InternalArray__ICollection_Contains_TisResourceCacheItem_t333236149_m1769941464_gshared
Kza:__ZN15dense_hashtableINSt3__24pairIKN4core12basic_stringIcNS2_20StringStorageDefaultIcEEEEP20ArchiveStorageReaderEES6_20StringHash32FunctionIS6_EN14dense_hash_mapIS6_S9_SC_NS0_8equal_toIS6_EE13stl_allocatorISA_L18MemLabelIdentifier55ELi16EEE9SelectKeyESF_SI_E9copy_fromERKSL_j
Aqi:__ZN14dense_hash_mapI10KeyWrapperIP12Il2CppObjectEN6il2cpp2gc9CachedCCWENS4_5utils11PointerHashIS1_EENS3_14EqualsComparerINSt3__28equal_toIS2_EEEENSB_9allocatorINSB_4pairIKS3_S6_EEEEE13set_empty_keyERSH_
Po:FUNCTION_TABLE_ff
N0a:__ZNSt3__218__stable_sort_moveIRNS_4lessI4PPtrI11SpriteAtlasEEENS_11__wrap_iterIPS4_EEEEvT0_SA_T_NS_15iterator_traitsISA_E15difference_typeEPNSD_10value_typeE
Ro:FUNCTION_TABLE_fi
u9c:_BaseEventData_set_selectedObject_m2198139983
Gz:__ZNSt3__227__insertion_sort_incompleteIRN11UnityEngine9Animation11BindingSortEPNS_4pairINS2_14GenericBindingEPNS2_10BoundIndexEEEEEbT0_SB_T_
DFi:__ZN6il2cpp2vm16GenericContainer19GetGenericParameterEPK22Il2CppGenericContainert
Syd:_Char_System_IConvertible_ToSingle_m2547558725_AdjustorThunk
yZf:_PropertyBuilder_GetSetMethod_m3440414495
Nlh:_UnityEventBase_FindMethod_m3314394402
rd:_emscripten_glGetAttribLocation
uIb:__ZZ23InitPlayerLoopCallbacksvEN39PostLateUpdateResetInputAxisRegistrator7ForwardEv
PK:__ZN4FMOD12ChannelGroup14getParentGroupEPPS0_
Whf:_SslClientStream_add_ServerCertValidation_m684653638
vd:_emscripten_set_blur_callback
nwh:_Rect_Contains_m846865666_AdjustorThunk
ODi:__GLOBAL__sub_I_MemoryMappedFile_cpp
kwj:___cxa_pure_virtual__wrapper
_ia:__ZNK14ImageReference9ClipImageEiiii
sRb:__ZN10Matrix4x4f30SetPositionAndOrthoNormalBasisERK8Vector3fS2_S2_S2_
Kwa:__ZN5RectTIfE8TransferI24GenerateTypeTreeTransferEEvRT_
pig:__Z87RuntimeInvoker_Void_t1841601450_RuntimeObject_Vector3_t2243707580_HitInfoU26_t216915145PFvvEPK10MethodInfoPvPS4_
P7g:_CrossAppDomainSink__cctor_m1547233779
A9d:_TableRange__ctor_m1944319286_AdjustorThunk
tLb:__ZN12FlareManager6UpdateEv
Hwj:_glColorMask__wrapper
aQi:__ZL59_ConstructorInfo_t3269099341_CustomAttributesCacheGeneratorP21CustomAttributesCache
cwg:_RawImage_get_mainTexture_m3865646934
She:_X509CertificateEnumerator_MoveNext_m1031936092
qmi:__ZN6il2cpp6icalls8mscorlib6System4Type29GetGenericTypeDefinition_implEP20Il2CppReflectionType
jdf:_TlsStream__ctor_m2982031560
zof:_X509EnhancedKeyUsageExtension__ctor_m4050164330
Q_g:_InternalEnumerator_1_get_Current_m2198364332_AdjustorThunk
c6a:__ZN27GenericSlowGarbageCollector16ProcessReferenceEi
uyf:_RealProxy_InternalGetProxyType_m858618403
BTd:_FieldAccessException__ctor_m1240495912
Igh:_Uri_HexUnescapeMultiByte_m25670899
sgd:_CanvasScaler_set_dynamicPixelsPerUnit_m742632820
dpj:_fopen
nzc:__ZN20TextRenderingPrivate8FontImplD2Ev
NU:__ZN19CloudServiceHandler8SaveFileERKN4core12basic_stringIcNS0_20StringStorageDefaultIcEEEEPKvj
aad:_BaseInputModule_HandlePointerExitAndEnter_m1570886840
Urf:_X509EnhancedKeyUsageExtension_CopyFrom_m1426370958
Bxj:_glFramebufferTexture2D__wrapper
IFi:__ZN6il2cpp6icalls8mscorlib6System7Runtime8Remoting7Proxies9RealProxy27InternalGetTransparentProxyEP12Il2CppObjectP12Il2CppString
ANe:_List_1_AddEnumerable_m1000825969_gshared
Eti:__ZN6il2cpp2vm6Method10IsInflatedEPK10MethodInfo
zyi:__ZNK6il2cpp8metadata14Il2CppTypeLessclEPK10Il2CppTypeS4_
tzi:_GC_remove_header
n8a:__ZNSt3__26vectorIi13stl_allocatorIiL18MemLabelIdentifier13ELi16EEE8__appendEj
lwh:_Rect_Contains_m3575749021_AdjustorThunk
yle:_RegionInfo_GetHashCode_m1038358761
noh:_Mathf_Lerp_m1928161522
h8g:_ConfigHandler_ReadCustomProviderData_m784203316
dFa:__ZNSt3__26vectorI17SortingLayerEntryNS_9allocatorIS1_EEE7reserveEj
fef:_Context_set_MasterSecret_m1422386411
sOa:__ZN11Tetrahedron8TransferI14SafeBinaryReadEEvRT_
Dvb:__Z19TransferField_ArrayI19StreamedBinaryWriteILb0EE27Converter_UnityEngineObjectEvRK23StaticTransferFieldInfoR31RuntimeSerializationCommandInfoRT0_
_kj:_PCMSetPositionCallback_BeginInvoke_m252731440
Daf:_RSAManaged_ToXmlString_m2606223477
Tch:_CharacterClass__ctor_m1318163925
jmg:__Z150RuntimeInvoker_Void_t1841601450_Vector3_t2243707580_Color32_t874517518_Vector2_t2243707579_Vector2_t2243707579_Vector3_t2243707580_Vector4_t2243707581PFvvEPK10MethodInfoPvPS4_
Nfa:__Z16GetMSAALevelDesc9MSAALevel
ZJb:__ZN8Renderer27EnsureTransformInfoUpToDateEv
f8:__ZN15dense_hashtableINSt3__24pairIKN4core12basic_stringIcNS2_20StringStorageDefaultIcEEEEP11AssetBundleEES6_20StringHash32FunctionIS6_EN14dense_hash_mapIS6_S9_SC_NS0_8equal_toIS6_EENS0_9allocatorISA_EEE9SelectKeyESF_SH_E9copy_fromERKSK_j
jCj:_emscripten_glFrontFace__wrapper
La:invoke_fiffi
_Di:__ZN6il2cpp5utils6Memory6CallocEjj
W1:__ZN14SerializedFile14SerializedType8ReadTypeILb1EEEbibRPKhS3_Pi
wxj:_emscripten_glRenderbufferStorage__wrapper
oUa:__ZN8Playable7SetTimeEd
LZ:__ZN13RuntimeStaticI12GraphicsCapsLb0EE16StaticInitializeEPv
N1a:__ZN9Texture3D17UploadToGfxDeviceEv
wsc:__Z18Transfer_BlittableI8JSONReadLb1E8Vector4fEvRK29SerializationCommandArgumentsR31RuntimeSerializationCommandInfo
xCc:_tt_cmap2_validate
yQa:__ZN13RenderTexture14SetColorFormatE19RenderTextureFormat
gHc:_cff_cmap_unicode_done
Soe:_NumberFormatter_Init_m1515770916
ffh:_Literal_Compile_m3864266818
jng:__Z72RuntimeInvoker_Boolean_t3825574718_CharU26_t1894467670_Int16_t4041245914PFvvEPK10MethodInfoPvPS4_
qEb:__ZN9Scripting20SendScriptingMessageER10GameObjectPKc18ScriptingObjectPtr
QEb:__Z26IsSplashScreenFadeCompletev
TMa:__Z17SendMessageDirectR6ObjectRK17MessageIdentifierR11MessageData
kqd:_InputField_LateUpdate_m1045279070
Rdc:__Z42Register_UnityEngine_Camera_get_clearFlagsv
c5h:__ZNSt3__26__treeIP11Il2CppClassNS_4lessIS2_EENS_9allocatorIS2_EEED2Ev
UKg:_Dictionary_2_InitArrays_m852496598_gshared
ZGf:_StringBuilder_set_Chars_m1019094834
HXb:__ZN13RenderManager27UpdatePreviousFrameMatricesEv
Owb:__Z35Transfer_Blittable_FixedBufferFieldI18StreamedBinaryReadILb1EExEvRK29SerializationCommandArgumentsR31RuntimeSerializationCommandInfo
Uxd:_Byte_System_IConvertible_ToUInt64_m2667486567
P3:__Z22SetManagerPtrInContextiP6Object
Z6a:__ZN14PlayerSettings8TransferI19StreamedBinaryWriteILb0EEEEvRT_
gsc:__Z18Transfer_BlittableI8JSONReadLb0E10ColorRGBAfEvRK29SerializationCommandArgumentsR31RuntimeSerializationCommandInfo
mYe:_Collection_1_Remove_m2017992820_gshared
w2d:_Array_InternalArray__Insert_TisInt16_t4041245914_m371511339_gshared
kUf:_ConstructorBuilder_get_next_table_index_m932085784
EJg:_ValueCollection_System_Collections_ICollection_get_SyncRoot_m919209341_gshared
l1h:__ZN15dense_hashtableINSt3__24pairIK10KeyWrapperIN6il2cpp5utils13dynamic_arrayIPK10Il2CppTypeLj4EEEEPFvvEEESA_NS3_8metadata19Il2CppSignatureHashEN14dense_hash_mapISA_SD_SG_NSA_14EqualsComparerINSF_22Il2CppSignatureCompareEEENS0_9allocatorISE_EEE9SelectKeyESK_SM_E14squash_deletedEv
xBg:_Slider_UpdateDrag_m1963963631
kDf:_SByte_Equals_m755715567
U5:__ZN15DirectorManagerD2Ev
Eae:_SortKeyBuffer_AppendNormal_m2554296431
KRc:__ZN11UnityEngine15PlatformWrapper12GetInfoFlagsEv
fig:__Z87RuntimeInvoker_Void_t1841601450_Int32_t2071877448_Single_t2076509932_Single_t2076509932PFvvEPK10MethodInfoPvPS4_
$ni:__ZN6il2cpp6icalls8mscorlib6System13Globalization11CultureInfo45construct_internal_locale_from_current_localeEP17Il2CppCultureInfo
Qgj:__ZL70InputField_t1631627530_CustomAttributesCacheGenerator_m_CaretBlinkRateP21CustomAttributesCache
x_d:_Array_IndexOf_TisCustomAttributeNamedArgument_t94157543_m2205974312_gshared
Nqa:__ZN15TextureTFMethod16BindForRenderingEj
DWd:_Array_InternalArray__ICollection_Contains_TisUICharInfo_t3056636800_m2001435744_gshared
eOg:_DefaultComparer_GetHashCode_m3250641461_gshared
Qsf:_Key_ToString_m1129871742
Mud:_Array_Sort_m1417611156
wpj:_access
L5f:__Z59RuntimeInvoker_RuntimeObject_RuntimeObject_Int64_t909078037PFvvEPK10MethodInfoPvPS4_
uoi:__ZN15dense_hashtableINSt3__24pairIK10KeyWrapperINS1_IPKcS4_EEEiEES6_24NamespaceAndNamePairHashN14dense_hash_mapIS6_iS9_NS6_14EqualsComparerI26NamespaceAndNamePairEqualsEENS0_9allocatorIS8_EEE9SelectKeyESD_SF_E4findERS7_
pgh:_Uri_Merge_m2181117222
Swc:__ZN20TextRenderingPrivate8FontImpl13CharacterInfo8TransferI19StreamedBinaryWriteILb0EEEEvRT_
t3h:__ZN6il2cpp2os19SocketHandleWrapper7ReleaseEv
Qid:_DefaultControls_CreateRawImage_m2572997170
GLf:_TimeSpan_get_TotalDays_m3496775483_AdjustorThunk
Q5a:__ZNSt3__27__sort4IRNS_6__lessINS_4pairIPKN5Unity4TypeE7Hash128EES8_EEPS8_EEjT0_SC_SC_SC_T_
$wa:__ZNK11NamedObject22GetTypeVirtualInternalEv
pKf:_Thread_Start_m1419497481
OBh:_Vector3_set_Item_m2026854946
Uig:__Z94RuntimeInvoker_Void_t1841601450_RuntimeObject_PlayableGraph_t1041204988_RuntimeObject_IntPtr_tPFvvEPK10MethodInfoPvPS4_
P7d:_Array_InternalArray__get_Item_TisDictionaryEntry_t3048875398_m2371191320_gshared
Tfj:__ZL62FontData_t2614388407_CustomAttributesCacheGenerator_m_RichTextP21CustomAttributesCache
Q7f:__Z65RuntimeInvoker_Double_t4078015681_RuntimeObject_Int32_t2071877448PFvvEPK10MethodInfoPvPS4_
lUg:_InternalEnumerator_1_get_Current_m2351441486_gshared
HHg:_Enumerator_System_Collections_IEnumerator_Reset_m1146954164_AdjustorThunk
jmc:__ZN11IMGUIModule21QueryGUIDisplayTargetE17ScriptingClassPtr
gbc:__ZN11UTF16StringC2ERKS_18MemLabelIdentifier
o0h:__ZNSt3__27__sort4IRN6il2cpp5utils11collections13ArrayValueMapIPK10Il2CppType17Il2CppInteropData26InteropDataToTypeConverterNS1_8metadata14Il2CppTypeLessENSA_26Il2CppTypeEqualityComparerEE12SortComparerEPS8_EEjT0_SH_SH_SH_T_
Gsj:dynCall_vidi
L1e:_ReadOnlyCollection_1_System_Collections_IList_Remove_m2350545199_gshared
rsj:___udivdi3
$ac:__ZN11PlayerPrefs9SetStringERKN4core12basic_stringIcNS0_20StringStorageDefaultIcEEEES6_
ZEh:_GUILayoutGroup_ToString_m3992339043
jCi:__ZN6il2cpp6icalls8mscorlib6System8Delegate18SetMulticastInvokeEP14Il2CppDelegate
jsd:_LayoutGroup_get_minHeight_m2270010946
OS:__ZN11UnityEngine15CloudWebService20WebRequestRestClient5BeginEv
S8e:_ARC4Managed_GenerateIV_m2815460576
L4c:_String_Substring_m2032624251
D4b:__ZN8Material12CleanupClassEv
OMd:_DateTime_get_DayOfWeek_m2345429939_AdjustorThunk
jNf:_Type_GetTypeCode_m1044483454
k5g:_ResourceSet_GetObjectInternal_m3556256510
Orb:__Z22TransferField_NonArrayI17RemapPPtrTransfer27Converter_SimpleNativeClassI10RectOffsetEEvRK23StaticTransferFieldInfoR31RuntimeSerializationCommandInfoRT0_
cId:_DateTimeOffset__ctor_m2870721395
aM:__ZN20SoundChannelInstance11set3DSpreadEf
vz:__ZNSt3__26__sortIRN11UnityEngine9Animation11BindingSortEPNS_4pairINS2_14GenericBindingEPNS2_10BoundIndexEEEEEvT0_SB_T_
H7c:_String_ReplaceFallback_m64616664
J0f:_MonoMethod_GetCustomAttributes_m2493833930
P6a:__ZN24GenerateTypeTreeTransfer32TransferSTLStyleArrayWithElementI16SplashScreenLogoEEvRT_17TransferMetaFlags
rbi:__ZN15dense_hashtableINSt3__24pairIK10KeyWrapperINS1_IPK9FieldInfoP11Il2CppClassEEEjEES9_17ReflectionMapHashIS8_EN14dense_hash_mapIS9_jSD_NS9_14EqualsComparerINS0_8equal_toIS8_EEEENS0_9allocatorISB_EEE9SelectKeyESI_SK_E6insertERKSB_
t_h:__ZN14dense_hash_mapI10KeyWrapperIPKcEP11Il2CppClassN6il2cpp5utils11StringUtils12StringHasherIS2_EENS3_14EqualsComparerINS7_13VmStringUtils21CaseSensitiveComparerEEENSt3__29allocatorINSF_4pairIKS3_S5_EEEEEC2EjRKSA_RKSE_
xxh:_Vector2_get_one_m542290559
ope:_Int32_System_IConvertible_ToDouble_m3322226667_AdjustorThunk
U1d:_Array_InternalArray__ICollection_CopyTo_TisPlayableBinding_t2498078091_m2296273826_gshared
W4:__Z37InitializeIntermediateRendererManagerPv
Lyi:_GC_log_printf
vdc:__Z27Camera_Get_Custom_PropDepthP12Il2CppObject
FDf:_CodeAccessPermission_ToString_m3345031296
dsi:__ZN6il2cpp2vm6Object5UnboxEP12Il2CppObject
bmf:_FtpWebRequest__ctor_m3003551676
Yfe:_EncryptedPrivateKeyInfo__ctor_m832236482
IZ:__ZN23DefaultMeshVertexFormatC2E17ShaderChannelMask
hxb:__ZL26Transfer_SimpleNativeClassI18StreamedBinaryReadILb1EE8GradientLb1EEvRK29SerializationCommandArgumentsR31RuntimeSerializationCommandInfo
T5c:_Single_Equals_m3359827399
$Jf:_Thread_FreeLocalSlotValues_m2948667652
a5b:__ZZL23RegisterLightPropertiesR22GenericPropertyBindingEN18Wrapper_LightRange13GetFloatValueEPv
sfa:__ZN7ApiGLES10InvalidateERK14GfxContextGLES
Fde:_ASN1Convert_ToOid_m2695991795
rJc:_UNITY_FT_Init_Class_tt_service_truetype_glyf
Gnh:_ManagedStreamHelpers_ValidateLoadFromStream_m733853519
pEi:__ZN6il2cpp2os5Mutex7TryLockEjb
QY:__Z20IsVectorBuiltinParamPKcPi
Cri:__ZN6il2cpp2vm5Field8GetFlagsEP9FieldInfo
c_g:_InternalEnumerator_1_get_Current_m727737343_AdjustorThunk
xhc:__Z58Register_UnityEngine_SceneManagement_Scene_GetNameInternalv
v1:__Z13IsFileCreatedRKN4core12basic_stringIcNS_20StringStorageDefaultIcEEEE
vDi:__ZN6il2cpp6icalls8mscorlib6System21CurrentSystemTimeZone15GetTimeZoneDataEiPP11Il2CppArrayS6_
Jlj:_AudioExtensionManager_GetListenerSpatializerExtensionType_m3668710088
VXa:__ZN16LightmapSettings18TransferDeprecatedI14SafeBinaryReadEEvRT_
nri:__ZN15dense_hashtableINSt3__24pairIK10KeyWrapperIP12Il2CppObjectEN6il2cpp2gc9CachedCCWEEES5_NS7_5utils11PointerHashIS3_EEN14dense_hash_mapIS5_S9_SD_NS5_14EqualsComparerINS0_8equal_toIS4_EEEENS0_9allocatorISA_EEE9SelectKeyESI_SK_E5eraseE30dense_hashtable_const_iteratorISA_S5_SD_SM_SI_SK_E
l6c:_String__cctor_m710226597
LW:__GLOBAL__sub_I_runtime_camera_renderloops_1_cpp
RZe:_Collection_1_IsValidItem_m404831699_gshared
fMf:_TimeSpan_Negate_m4198463235_AdjustorThunk
eKa:__ZN12FlareManager9AddCameraER6Camera
TM:__ZN11AudioSource8TransferI14SafeBinaryReadEEvRT_
b9b:__ZN4Mesh17SetIndicesComplexEPKvjj16GfxPrimitiveTypei
T1f:_ParameterInfo_GetCustomAttributes_m2985072480
jYe:_Collection_1_Insert_m4010554762_gshared
Hu:__ZN7mecanim9animation23TransformDeltasFromClipEiiiRKNS0_18ClipMuscleConstantERKNS0_12ClipBindingsERKNS_14ValueArrayMaskERN4math4trsXESC_SC_
t5d:_Array_Sort_TisRuntimeObject_m1954851512_gshared
Xzb:__Z18Transfer_BlittableI18StreamedBinaryReadILb0EELb0E12PropertyNameEvRK29SerializationCommandArgumentsR31RuntimeSerializationCommandInfo
xsj:___divdi3
E9g:_ContextAttribute_GetHashCode_m3646968314
xae:_SimpleCollator_GetSortKey_m540875593
igb:__ZN9ShaderLab9IntShader26CreateFromSerializedShaderERKNS_16SerializedShaderERNSt3__26vectorI4PPtrI6ShaderENS4_9allocatorIS8_EEEEbPS7_
Mih:_Camera_INTERNAL_CALL_ScreenPointToRay_m305063597
rKb:__ZN19ShaderPropertySheet16SetComputeBufferEN9ShaderLab16FastPropertyNameE15ComputeBufferIDNS_8SetFlagsE
Ovi:__ZNK15dense_hashtableINSt3__24pairIK10KeyWrapperIPK19Il2CppGenericMethodEP10MethodInfoEES6_N6il2cpp8metadata23Il2CppGenericMethodHashEN14dense_hash_mapIS6_S9_SD_NS6_14EqualsComparerINSC_26Il2CppGenericMethodCompareEEENS0_9allocatorISA_EEE9SelectKeyESH_SJ_E5beginEv
Lu:__ZN7mecanim21CreateFloatValueArrayEPKNS_18ValueArrayConstantERNS_6memory9AllocatorE
cKf:_Thread_GetCachedCurrentCulture_m450033007
IUb:__ZL12CullGroupJobP20CullingGroupsJobDataj
Rzi:_GC_remove_dangling_disappearing_links
CT:__ZN11UnityEngine15CloudWebService14RestDownloader9IsAbortedEv
Rx:__ZN7mecanim12statemachine28DestroyStateMachineWorkspaceEPNS0_21StateMachineWorkspaceERNS_6memory9AllocatorE
Mk:_emscripten_glNormalPointer
$mc:__Z30GUIStyle_CUSTOM_SetDefaultFontP12Il2CppObject
$tf:_Interval_t2354235237_marshal_pinvoke_back
go:FUNCTION_TABLE_f
Uo:FUNCTION_TABLE_i
aQd:_Decimal_ToString_m541380585_AdjustorThunk
M7:__ZN11TypeManager12RegisterTypeERK20TypeRegistrationDesc
zn:FUNCTION_TABLE_v
K2a:__ZNSt3__26vectorI17BlendShapeChannelNS_9allocatorIS1_EEE8__appendEj
Cnd:_Image_get_preserveAspect_m2161836851
Cp:__ZN18StreamedBinaryReadILb0EE21TransferSTLStyleArrayI13dynamic_arrayI8Vector3fLj4EEEEvRT_17TransferMetaFlags
AIb:__ZZ23InitPlayerLoopCallbacksvEN43PostLateUpdateUpdateAllRenderersRegistrator7ForwardEv
gab:__ZN21LightProbeProxyVolume13GetRenderDataER27LightProbeProxyVolumeSample
QLd:_CurrentSystemTimeZone_GetDaylightChanges_m2777828412
t6h:__ZN6il2cpp2vm7Runtime30CallUnhandledExceptionDelegateEP12Il2CppDomainP14Il2CppDelegateP15Il2CppException
YSh:_Predicate_1_Invoke_m577088274_gshared
HAh:_Transform_SetParent_m1020583764
Byf:_RemotingProxy_get_TypeName_m1400928020
w5a:__ZN11TimeManager8TransferI24GenerateTypeTreeTransferEEvRT_
Cae:_SortKeyBuffer_GetResult_m962852575
jae:_SimpleCollator_Category_m1504096908
Vq:__ZNK11UnityEngine9Animation28GenericAnimationBindingCache10BindCustomERKNS0_14GenericBindingER9TransformRNS0_10BoundCurveE
y9h:__ZN6il2cpp2vm17TypeNameParseInfoC2ERKS1_
PTc:__ZN18UnityConnectClient17InitConnectClientEv
kTg:_ArrayReadOnlyList_1_ReadOnlyError_m2158247090_gshared
Snj:_memcmp
eNd:_DateTime_CompareTo_m3372173896
qSc:__ZN11UnityEngine7Connect18ConnectSessionInfo8TransferER9JSONWrite
xph:_MonoBehaviour_StopCoroutine_Auto_m2947240387
cjh:_Color__ctor_m3831565866
MP:__Z74Register_UnityEngine_AudioListener_INTERNAL_CALL_ReadExtensionPropertyNamev
D4a:__ZN9Scripting32GetCachedPtrFromScriptingWrapperE18ScriptingObjectPtr
pNc:__ZN2UI29ScheduleUIJobsForInstructionsERNS_7BatchesEjPKNS_13UIInstructionEfjjPNS_13CanvasJobDataE
HK:__ZN5audio5mixer22CreateAudioMixerMemoryERKNS0_18AudioMixerConstantEPN4FMOD6SystemERN7mecanim6memory9AllocatorEib
RCb:__ZL65EmitSerializationCommandsForLinearCollectionOfManagedObjectsFieldRK31TransferFunctionScriptingTraitsRK23TransferArrayField_InfoR20SerializationCommandR32SerializationCommandQueueBuilderRP20AllowNameConversions
Fhf:_RSASslSignatureDeformatter_VerifySignature_m3138484348
q1d:_Array_InternalArray__ICollection_CopyTo_TisDecimal_t724701077_m1087621311_gshared
tFg:_Enumerator_System_Collections_IDictionaryEnumerator_get_Value_m2325383168_AdjustorThunk
mKd:_Convert_ToInt64_m4280008532
Ggc:__Z28Mesh_CUSTOM_SetTrianglesImplP12Il2CppObjectiP11Il2CppArrayih
whj:__ZL61RawImage_t2749640213_CustomAttributesCacheGenerator_m_TextureP21CustomAttributesCache
AGb:__ZL20ShaderWarmupFuncImplP6ShaderiPN9ShaderLab4PassERK16ShaderKeywordSetP10DynamicVBOPvR17ShaderPassContext
WYc:_HMAC_set_Key_m1530357889
f0h:__ZN15dense_hashtableI10KeyWrapperIPK17Il2CppGenericInstES4_N6il2cpp8metadata21Il2CppGenericInstHashEN14dense_hash_setIS4_S7_NS4_14EqualsComparerINS6_24Il2CppGenericInstCompareEEENSt3__29allocatorIS4_EEE8IdentityESB_SE_E6insertERKS4_
Jai:__ZN15dense_hashtableINSt3__24pairIK10KeyWrapperINS1_IPK14Il2CppAssemblyP11Il2CppClassEEEjEES9_17ReflectionMapHashIS8_EN14dense_hash_mapIS9_jSD_NS9_14EqualsComparerINS0_8equal_toIS8_EEEENS0_9allocatorISB_EEE9SelectKeyESI_SK_E3endEv
zuj:dynCall_iiii
nxg:_Scrollbar_set_numberOfSteps_m579707524
xTc:__ZN11UnityEngine7Connect17DeviceStatusEventC2Ev
aoj:_fmt_u
qga:__ZN14DataBufferGLES12RecordUpdateEv
cOa:__ZN14SafeBinaryRead21TransferSTLStyleArrayI13dynamic_arrayI20SphericalHarmonicsL2Lj4EEEEvRT_17TransferMetaFlags
y4g:_ResourceManager__cctor_m2190112652
fyc:__ZN20TextRenderingPrivate15DynamicFontData28GetFaceForFontRefFromOSFontsERKNS_7FontRefE
Gwe:_StreamWriter__ctor_m4232641237
fsi:__ZN6il2cpp2vm12GenericClass12SetupMethodsEP11Il2CppClass
Ikb:__ZNK20LocalFileSystemPosix18GetApplicationPathEv
MId:_Decimal__ctor_m3876694886
OCb:__ZN9Scripting30IsSystemCollectionsGenericListE17ScriptingClassPtr
i5b:__ZZL23RegisterLightPropertiesR22GenericPropertyBindingEN28Wrapper_LightShadowNearPlane13GetFloatValueEPv
xvd:_AttributeUsageAttribute__ctor_m2873156923
INc:__ZN2UI23InitializeCanvasManagerEv
EDa:__ZN10GameObject16CheckConsistencyEv
C2b:__ZN14RenderSettings15InitializeClassEv
fof:_AsnEncodedData_set_Oid_m3568255745
Qec:__Z46Register_UnityEngine_GameObject_get_activeSelfv
tif:_SslClientStream_OnRemoteCertificateValidation2_m3416857045
FCf:_RuntimeTypeHandle_Equals_m452760426_AdjustorThunk
M2b:__ZL19OnLightProbesUpdatev
K1g:_InternalEnumerator_1_System_Collections_IEnumerator_get_Current_m762846484_AdjustorThunk
qsb:__Z18Transfer_BlittableI24GenerateTypeTreeTransferLb0E10ColorRGBAfEvRK29SerializationCommandArgumentsR31RuntimeSerializationCommandInfo
Xsj:dynCall_iifii
oMc:__ZN2UI16GetCanvasManagerEv
n9b:__ZN15GUIEventManager8PopEventER10InputEvent
mfc:__Z31RectOffset_Get_Custom_PropRightP12Il2CppObject
LKc:__Z54Register_UnityEngine_TextGenerator_GetVerticesInternalv
o_c:__Z3BoxP11Il2CppClassPv
UUd:_CultureInfo_Clone_m2970753766
utf:_IntStack_Push_m1259764820
Sqa:__ZN21UniformBufferTFMethodD2Ev
ote:_FileStream_InitBuffer_m2153931481
NNf:_Type_MakeGenericType_m2765875033
Dbc:__ZL34GetComponentsImplementationRecurseILb1ELi1ELi2EEbR10GameObjectbRK17CompareParametersRK39GetComponentsImplementation_ReturnValue
cka:__ZN6prcoreL12RemapGenericI15TexFormatRGB56515TexFormatRGB888EEvPKNS_9InnerInfoE
wqd:_InputField_OnEndDrag_m1818224847
Sne:_NumberFormatter_GetInstance_m2421260460
O8d:_AttributeHelperEngine_GetCustomAttributeOfType_TisRuntimeObject_m2532320824_gshared
POc:__Z41CanvasGroup_Get_Custom_PropBlocksRaycastsP12Il2CppObject
ycb:__ZNSt3__26vectorIN9ShaderLab26SerializedShaderDependencyENS_9allocatorIS2_EEE8__appendEj
WXg:_InternalEnumerator_1_System_Collections_IEnumerator_get_Current_m4242639349_gshared
n3:__ZN32TransformHierarchyChangeDispatch26DispatchSelfAndAllChildrenE15TransformAccessNS_12InterestTypeE
RP:__Z46Register_UnityEngine_AudioSource_get_isPlayingv
gGf:_UTF32Encoding__ctor_m3199945978
l4:__ZN13RuntimeStaticI22VirtualJoystickManagerLb0EE13StaticDestroyEPv
jH:__ZN13AudioListener12ApplyFiltersEv
Hle:_SortKey_GetHashCode_m2534654444
_Vd:_Array_InternalArray__ICollection_Contains_TisInt64_t909078037_m1425723755_gshared
fff:_HandshakeMessage_Update_m1733566706
lEi:__ZN6il2cpp8metadata27Il2CppGenericContextCompare7CompareEPK20Il2CppGenericContextS4_
Gtj:dynCall_viiii
dBd:_ArrayListWrapper_ToArray_m235921330
I_f:_MemberInfoSerializationHolder_Serialize_m4243060728
KDh:_GUIUtility_Internal_GetGUIDepth_m2168931083
jvg:_MaskableGraphic_OnDisable_m2605143092
C9h:__ZNSt3__214__split_bufferIN6il2cpp2vm17TypeNameParseInfoERNS_9allocatorIS3_EEED2Ev
ENf:_Type_GetConstructor_m663514781
nqe:_Int64_System_IConvertible_ToDouble_m638786774_AdjustorThunk
_6:__ZN15DirectorManager14ConnectionPool16GrowEmptyBucketsEv
Pne:_Int16_ToString_m1247017262
e$:__ZN17PersistentManager32CopyToAwakeFromLoadQueueInternalER18AwakeFromLoadQueue
cOb:__ZNK6Camera16SetActiveVRUsageEv
vPf:_UInt32_System_IConvertible_ToUInt16_m2798641702
Pxj:_emscripten_glDrawElementsInstanced__wrapper
Msc:__ZL26Transfer_SimpleNativeClassI8JSONRead8GradientLb1EEvRK29SerializationCommandArgumentsR31RuntimeSerializationCommandInfo
uoj:_open
SId:_Decimal_ThrowInvalidExp_m3430267638
Rji:__ZN6il2cpp6icalls8mscorlib6System5Array5CloneEP11Il2CppArray
OXb:__Z30GetPlayerShouldRunInBackgroundv
z1g:_InternalEnumerator_1_get_Current_m2986222582_gshared
BHf:_UnicodeEncoding_GetBytes_m4175529985
$Nc:__Z13RegisterClassIN2UI6CanvasEEvv
yxg:_Selectable_OnDisable_m2660228016
Yja:__ZN6prcoreL12RemapGenericI11TexFormatI815TexFormatRGB565EEvPKNS_9InnerInfoE
cdg:__Z75RuntimeInvoker_DateTime_t693205669_DateTime_t693205669_TimeSpan_t3430258949PFvvEPK10MethodInfoPvPS4_
yfa:__ZNK13TranslateGLES17FramebufferTargetEN2gl17FramebufferTargetE
uui:__ZL11on_gc_event11GCEventType
Jii:__ZNSt3__214__split_bufferIN6il2cpp8metadata18GenericArrayMethodERNS_9allocatorIS3_EEED2Ev
h5c:_Single_System_IConvertible_ToBoolean_m2661548087_AdjustorThunk
sYc:_DSASignatureDeformatter_VerifySignature_m4078616251
Qxj:b62
Axj:b61
Dwj:b60
dzj:b67
t$d:_Array_InternalArray__IndexOf_TisUInt16_t986882611_m390127593_gshared
Eod:_InputField_set_shouldHideMobileInput_m2478534110
Uxj:b64
U7c:_String_Concat_m3881798623
ezj:b68
RWf:_FieldBuilder_IsDefined_m2730324893
lYi:__ZL56FlagsAttribute_t859561169_CustomAttributesCacheGeneratorP21CustomAttributesCache
wJa:__ZNSt3__26__treeINS_12__value_typeIi17ShadowCachingDataEENS_19__map_value_compareIiS3_NS_4lessIiEELb1EEE13stl_allocatorIS3_L18MemLabelIdentifier66ELi16EEE7destroyEPNS_11__tree_nodeIS3_PvEE
pgg:__Z102RuntimeInvoker_RuntimeObject_RuntimeObject_RuntimeObject_Int32_t2071877448_RuntimeObject_RuntimeObjectPFvvEPK10MethodInfoPvPS4_
a5e:_ReadOnlyCollection_1_System_Collections_IList_Insert_m571902768_gshared
tbg:__Z93RuntimeInvoker_Single_t2076509932_SingleU26_t4173844468_Single_t2076509932_Single_t2076509932PFvvEPK10MethodInfoPvPS4_
Itj:dynCall_iifffi
E9b:__Z9SetIIMGUIP6IIMGUI
jFd:_SyncHashtable_ContainsKey_m3408601214
PCc:_tt_cmap10_get_info
pFb:__Z28SetupPixelCorrectCoordinatesi
I7b:__ZNSt3__218__insertion_sort_3IRN10vector_mapIiiNS_4lessIiEE13stl_allocatorINS_4pairIiiEEL18MemLabelIdentifier1ELi16EEE13value_compareEPS6_EEvT0_SD_T_
Sfa:__Z5SplitRKN4core12basic_stringIcNS_20StringStorageDefaultIcEEEEcRNSt3__26vectorIS3_NS6_9allocatorIS3_EEEEi
Cfh:_RegularExpression_Compile_m3944989565
sYh:__ZN6il2cpp2vmL10InitLockedEP11Il2CppClassRKNS_2os12FastAutoLockE
V$:__ZN17ScriptingGCHandle28ResolveBackendNativeGCHandleEj
YNg:_DefaultComparer_Equals_m524689061_gshared
g7b:__ZN13PlayableGraph16DestroyRecursiveEP8Playable
fkc:__ZNK19RectangleCellLayout11CellToLocalERKN4Grid9GridStateERKN4math7_float3E
gRd:_Double_System_IConvertible_ToType_m4036266196_AdjustorThunk
uH:__ZN12AudioManagerD0Ev
_nj:___fwritex
Tb:invoke_viiififii
iue:_Stream_EndRead_m2148943753
e6a:__ZNK22GenericPropertyBinding13SetFloatValueERKN11UnityEngine9Animation10BoundCurveEf
t2b:__ZN6ShaderC2E18MemLabelIdentifier18ObjectCreationMode
brj:__ZNSt3__211char_traitsIcE4findEPKcjRS2_
DJc:_raccess_guess_darwin_ufs_export
THb:__ZN11TypeManager18InitializeAllTypesEv
rF:__ZN9AudioClipD0Ev
PGh:_InvokableCall_3_Invoke_m2530072389_gshared
VWd:_Array_InternalArray__ICollection_Remove_TisKeyValuePair_2_t38854645_m3060436673_gshared
TJe:_List_1_Find_m3480386930_gshared
HPg:_EqualityComparer_1__cctor_m51007461_gshared
yw:__ZN27AnimationLayerMixerPlayable26ProcessAnimationLayerBeginEP35AnimationPlayableEvaluationConstantP32AnimationPlayableEvaluationInputP33AnimationPlayableEvaluationOutput
$$b:__Z13RegisterClassI8GUILayerEvv
K_b:__ZN25ThreadsafeLinearAllocatorC2EiiPKc
Xae:_SimpleCollator_IsSuffix_m740049399
Zna:__ZN14GfxContextGLES11MakeCurrentER7ApiGLESN2gl13ContextHandleE
Brh:_PKCS12__cctor_m3312759338
eIc:_UNITY_tt_glyphzone_new
pdf:_RecordProtocol_BeginSendRecord_m166940611
Tze:_ShortComparer_Compare_m1398180168
WTh:_TextGenerationSettings_CompareColors_m2745847049_AdjustorThunk
NTi:__ZL56SecurityAction_t446643378_CustomAttributesCacheGeneratorP21CustomAttributesCache
yGb:__ZN16GraphicsSettings22WarmupPreloadedShadersEv
aQc:__Z34Canvas_Set_Custom_PropSortingOrderP12Il2CppObjecti
uve:_MonoIO_get_ConsoleError_m592181393
PAb:__ZN18StreamedBinaryReadILb0EE8TransferI13dynamic_arrayI12PropertyNameLj4EEEEvRT_PKc17TransferMetaFlags
Bgb:__ZN9ShaderLab4Pass6RetainEv
rWh:__ZL11decimalLog2P19il2cpp_decimal_repr
Qhf:_SslCipherSuite_prf_m2084589217
ab:invoke_iiiiiiffiiiiiiiiiffffiii
nLc:__ZN2UI6Canvas8TransferI14SafeBinaryReadEEvRT_
lig:__Z51RuntimeInvoker_Color32_t874517518_Color_t2020392075PFvvEPK10MethodInfoPvPS4_
Tbi:__ZN6il2cpp2gc19AppendOnlyGCHashMapIPK10Il2CppTypeP20Il2CppReflectionTypeNS_8metadata14Il2CppTypeHashENS7_26Il2CppTypeEqualityComparerEE3AddERKS4_S6_
IQ:__ZN11UnityEngine15CloudWebService17CloudJobScheduler11ScheduleJobEPFvPvES2_
Y7i:__ZL57CSSMeasureFunc_t2092170507_CustomAttributesCacheGeneratorP21CustomAttributesCache
wme:_Guid_Equals_m2389236871_AdjustorThunk
RR:__ZN11UnityEngine15CloudWebService17CloudServiceEvent12ToJsonStringER9JSONWrite
O4:__ZNK18VertexChannelsInfoltERKS_
yUi:__ZL93ASCIIEncoding_t3022927988_CustomAttributesCacheGenerator_ASCIIEncoding_GetDecoder_m3693600923P21CustomAttributesCache
Loc:__ZN9JSONWrite8TransferIfEEvRT_PKc17TransferMetaFlags
Khd:_ContentSizeFitter_SetLayoutHorizontal_m2830034151
LBa:__ZN10MemoryFileD0Ev
sbc:__ZN10MonoScript27InitializeAndRegisterScriptERKN4core12basic_stringIcNS0_20StringStorageDefaultIcEEEES6_S6_S6_b
sEf:_DES_set_Key_m2689203108
hJb:__Z23DrawSplashAndWatermarksv
PUg:_InternalEnumerator_1_get_Current_m1526874475_gshared
K8d:_Array_InternalArray__get_Item_TisWorkRequest_t1154022482_m2456727038_gshared
Tqh:_SubjectAltNameExtension_ToString_m1300810903
wge:_RSAManaged_ImportParameters_m2382611442
rob:__ZN13GUIStyleState8TransferI14SafeBinaryReadEEvRT_
j3g:_Comparer_1_System_Collections_IComparer_Compare_m2490067344_gshared
Kbh:_PatternCompiler_EmitSet_m866698437
Nd:_glDrawArrays
EVh:_CanvasRenderer_SetAlphaTexture_m1030438445
A0e:_ReadOnlyCollection_1_System_Collections_IList_Add_m527174473_gshared
kXg:_InternalEnumerator_1_System_Collections_IEnumerator_get_Current_m127456009_AdjustorThunk
oNh:_HashSet_1_System_Collections_Generic_ICollectionU3CTU3E_CopyTo_m1933244740_gshared
bVi:__ZL54UTF8Encoding_t111055448_CustomAttributesCacheGeneratorP21CustomAttributesCache
HD:__ZN23AnimatedPropertyBuilder5BuildEP13AnimationClip18ScriptingObjectPtr
Nsd:_LayoutRebuilder_LayoutComplete_m498127808
p0d:_Array_InternalArray__ICollection_Add_TisInt32_t2071877448_m1775306598_gshared
OWd:_Array_InternalArray__ICollection_Remove_TisChar_t3454481338_m1562002771_gshared
jqe:_Int64_System_IConvertible_ToDateTime_m1002280174_AdjustorThunk
_2a:__ZN14BlendShapeData8TransferI18StreamedBinaryReadILb0EEEEvRT_
JKb:__ZN13sorted_vectorINSt3__24pairIiN17InstancedPropInfo12PropertyTypeEEEN10vector_mapIiS3_NS0_4lessIiEE13stl_allocatorIS4_L18MemLabelIdentifier1ELi16EEE13value_compareESA_E21sort_clear_duplicatesEv
sIc:_Round_To_Grid
nyc:_UNITY_FT_Stream_Close
Nqj:__ZNSt3__212basic_stringIcNS_11char_traitsIcEENS_9allocatorIcEEEC2ERKS5_jjRKS4_
F8:__ZL20FormatOrderedProcessPKcP17FormatOrderedDataPc
kec:__Z35DebugLogHandler_CUSTOM_Internal_Log7LogTypeP12Il2CppStringP12Il2CppObject
wph:_MonoBehaviour_StopCoroutine_m606332095
Oxj:_emscripten_glShaderBinary__wrapper
Tma:__ZL17ProgramUniform3ivPK7ApiGLESjiihPKv
Jba:__ZN9GfxDevice25GetBackBufferColorSurfaceEv
cCa:__ZN25SingleBlockMemoryFileData9SetLengthEy
U7b:__Z29AwakeAndActivateClonedObjectsPP6ObjectRK10vector_mapIiiNSt3__24lessIiEE13stl_allocatorINS3_4pairIiiEEL18MemLabelIdentifier1ELi16EEE
Dgi:__ZN15dense_hashtableINSt3__24pairIK10KeyWrapperINS1_IPK10MethodInfoP11Il2CppClassEEEjEES9_17ReflectionMapHashIS8_EN14dense_hash_mapIS9_jSD_NS9_14EqualsComparerINS0_8equal_toIS8_EEEENS0_9allocatorISB_EEE9SelectKeyESI_SK_E14squash_deletedEv
ckg:__Z55RuntimeInvoker_Void_t1841601450_RaycastResult_t21186376PFvvEPK10MethodInfoPvPS4_
s0b:__Z13RegisterClassI6ShaderEvv
one:_Int16_System_IConvertible_ToUInt32_m883204517
S4g:_ResourceCacheItem_t333236149_marshal_pinvoke_cleanup
bHe:_List_1_CheckMatch_m1196994270_gshared
EXc:__ZN13RuntimeStaticI11WindManagerLb0EE13StaticDestroyEPv
tLd:_Convert_ToUInt64_m3559662221
eqc:__Z18Transfer_BlittableI9JSONWriteLb1EaEvRK29SerializationCommandArgumentsR31RuntimeSerializationCommandInfo
ygi:__ZN13Il2CppHashMapINSt3__24pairIPK10MethodInfoP11Il2CppClassEEj17ReflectionMapHashIS7_ENS0_8equal_toIS7_EENS0_9allocatorINS1_IK10KeyWrapperIS7_EjEEEEEC2EjRKS9_RKSB_
aOb:__ZN11HaloManager11HasAnyHalosEPK11CullResults
Uzd:_ArrayList_set_Item_m1858827078
A1a:__ZN9Texture3D23VirtualRedirectTransferER19StreamedBinaryWriteILb0EE
mAi:_GC_reclaim_block
$8e:_HMAC__ctor_m2605930831
yO:__Z13RegisterClassI10SampleClipEvv
XQb:__ZNK23ForwardShaderRenderLoop18RenderObjectSorterILb1EEclERK21ForwardRenderPassDataS4_
H1h:__ZN15dense_hashtableI10KeyWrapperIPK19Il2CppGenericMethodES4_N6il2cpp8metadata23Il2CppGenericMethodHashEN14dense_hash_setIS4_S7_NS4_14EqualsComparerINS6_26Il2CppGenericMethodCompareEEENSt3__29allocatorIS4_EEE8IdentityESB_SE_E12maybe_shrinkEv
Jra:__ZN10BufferGLES10BeginWriteEjj
G1h:__ZNK15dense_hashtableI10KeyWrapperIPK19Il2CppGenericMethodES4_N6il2cpp8metadata23Il2CppGenericMethodHashEN14dense_hash_setIS4_S7_NS4_14EqualsComparerINS6_26Il2CppGenericMethodCompareEEENSt3__29allocatorIS4_EEE8IdentityESB_SE_E12test_deletedEj
OA:__ZN7mecanim12statemachine18StateMachineMemory8TransferI9BlobWriteEEvRT_
S1c:_ToBase64Transform_Dispose_m1132043687
xhi:__GLOBAL__sub_I_ArrayMetadata_cpp
UPf:_UInt64_System_IConvertible_ToByte_m953298241
Ira:__ZN7ApiGLES11FlushBufferEjN2gl12BufferTargetEll
CLd:_Convert_ToUInt64_m1896191125
npb:__ZN14SafeBinaryRead21TransferSTLStyleArrayI13dynamic_arrayI8BitFieldLj4EEEEvRT_17TransferMetaFlags
poa:__ZN12_GLOBAL__N_127PrepareReadback_ResolveMSAAER18GfxFramebufferGLESR7ApiGLESP17RenderSurfaceGLESS5_
ZVf:_EnumBuilder_GetAttributeFlagsImpl_m4263246832
JTf:_CustomAttributeData_GetHashCode_m3989739430
ECg:_Text_AssignDefaultFont_m1295571657
f4b:__ZNK24RendererAnimationBinding9BindValueER6ObjectRKN11UnityEngine9Animation14GenericBindingERNS3_10BoundCurveE
Me:_glBindBuffer
AAb:__ZN8GUIStyle8TransferI18StreamedBinaryReadILb0EEEEvRT_
w5:__ZNSt3__213__stable_sortIRN10vector_mapIijNS_4lessIiEENS_9allocatorINS_4pairIijEEEEE13value_compareENS_11__wrap_iterIPS6_EEEEvT0_SE_T_NS_15iterator_traitsISE_E15difference_typeEPNSH_10value_typeEi
t0d:_Array_InternalArray__ICollection_Add_TisCustomAttributeNamedArgument_t94157543_m1003067274_gshared
X6a:__ZN10VRSettings8Daydream8TransferI18StreamedBinaryReadILb0EEEEvRT_
aib:__ZNSt3__218__insertion_sort_3IRNS_6__lessIN4core12basic_stringIcNS2_20StringStorageDefaultIcEEEES6_EEPS6_EEvT0_SA_T_
EEe:_Enumerator_System_Collections_IEnumerator_Reset_m925111644_gshared
RI:__ZN4FMOD7Channel13set3DPanLevelEf
Fnj:_isupper
ahg:__Z93RuntimeInvoker_Vector3_t2243707580_Vector3_t2243707580_Vector3_t2243707580_Single_t2076509932PFvvEPK10MethodInfoPvPS4_
FSf:_AssemblyName__ctor_m609734316
EFf:_Encoding_set_DecoderFallback_m2255528738
JSa:__ZNSt3__26__treeINS_12__value_typeIN9ShaderLab16FastPropertyNameEN18UnityPropertySheet11UnityTexEnvEEENS_19__map_value_compareIS3_S6_NS_4lessIS3_EELb1EEENS_9allocatorIS6_EEE7destroyEPNS_11__tree_nodeIS6_PvEE
Wif:_InternalAsyncResult_get_IsCompleted_m1463732458
S2h:__ZN6il2cpp2vm13MetadataCache24GetExportedTypeFromIndexEi
ooc:__ZN5Unity9rapidjson6WriterI16TempBufferWriterNS0_4UTF8IcEES4_13JSONAllocatorE9WriteUintEj
kqj:_getuid
end:_HorizontalLayoutGroup_CalculateLayoutInputVertical_m3516192138
iE:__ZN7mecanim5human8BoneNameEj
RGh:_InvokableCall_4__ctor_m2170162585_gshared
H0b:__Z13RegisterClassI10MonoScriptEvv
xfe:_AttrListImpl__ctor_m3211398293
uGh:_InvokableCall_1_Invoke_m417090952_gshared
Lwc:__ZN20TextRenderingPrivate8FontImpl8TransferI18StreamedBinaryReadILb0EEEEvRT_
YGf:_StringBuilder_get_Chars_m256627635
$uh:_UnityString_Format_m328130606
z4h:__ZN6il2cpp6icalls8mscorlib6System8MonoType22get_IsGenericParameterEP20Il2CppReflectionType
Wt:__ZN7mecanim5human14HumanPoseClearERNS0_9HumanPoseE
INi:__ZL58PropertyBuilder_t3694255912_CustomAttributesCacheGeneratorP21CustomAttributesCache
wse:_MonoIO_GetException_m957022672
lTa:__ZN18StreamedBinaryReadILb0EE19TransferSTLStyleMapINSt3__23mapIN9ShaderLab16FastPropertyNameE10ColorRGBAfNS2_4lessIS5_EENS2_9allocatorINS2_4pairIKS5_S6_EEEEEEEEvRT_17TransferMetaFlags
Zyh:_Sprite_get_border_m1504762991
Hpf:_X509Certificate2_GetValueAsString_m1286925493
uzd:_Char_ToLower_m2719897546
d4d:_Array_InternalArray__set_Item_TisHitInfo_t1761367055_m2693590376_gshared
rAe:_MonoType_IsPointerImpl_m648213545
Jke:_InvalidOperationException__ctor_m2801133788
$Wh:_AnimationOffsetPlayable__cctor_m346590438
GXb:__ZN13RenderManager28AreCamerasUsingMotionVectorsEv
z4:__Z25InitializeLODGroupManagerPv
Vda:__ZN13GfxDeviceGLES12EndStereoEyeE15StereoscopicEye
vgd:_CanvasScaler_SetScaleFactor_m3305903109
M0d:_Array_InternalArray__ICollection_Add_TisUriScheme_t1876590943_m3218110478_gshared
$Kb:__ZNK12ImageFilters28ApplyAfterTransparentFiltersEv
VPb:__Z20CalculateLightMatrixRK15SharedLightDataP10Matrix4x4f
hTc:__ZN11UnityEngine7Connect15AppRunningEvent12ToJsonStringER9JSONWrite
VTa:__ZN19ShaderPropertySheet5ClearEb
Rff:_TlsServerCertificate_ProcessAsTls1_m3083203628
_0e:_ReadOnlyCollection_1_System_Collections_Generic_IListU3CTU3E_set_Item_m1099846173_gshared
zLb:__ZNK6Camera11GetPositionEv
qs:__ZN8Animator19CreatePlayableGraphEv
sBj:_emscripten_glClearDepth__wrapper
DKd:_Convert_ToSByte_m1880147062
jlb:__ZNK16MemoryFileSystem8FilenameERK13FileEntryData
Qf:_glUniform1fv
Uf:_JS_FileSystem_Sync
VZc:_MD5CryptoServiceProvider_HashCore_m2367253552
Dea:__ZNSt3__26__treeINS_12__value_typeI21GLESRenderTargetSetupN2gl6HandleILNS3_10ObjectTypeE9EEEEENS_19__map_value_compareIS2_S7_NS_4lessIS2_EELb1EEENS_9allocatorIS7_EEE7destroyEPNS_11__tree_nodeIS7_PvEE
Psh:_X509StoreManager_get_TrustedRootCertificates_m122138510
toa:__ZN4gles15BlitFramebufferERNS_23BlitFramebufferDrawQuadER9GfxDeviceii9TextureIDiiiiiiii
Sf:__emscripten_sample_gamepad_data
S1b:__Z22DelayedDestroyCallbackP6ObjectPv
$xj:_glBlendEquationSeparate__wrapper
Amd:_GraphicRegistry__cctor_m4197769737
g1:__Z34scripting_class_get_declaring_type17ScriptingClassPtr
FTc:__ZN11UnityEngine7Connect20BasePersistentValues13RestoreValuesER8JSONRead
uaf:_KeyGeneratedEventHandler_Invoke_m1298576133
Vqd:_InputField_Rebuild_m3481959062
l5a:__ZN11TimeManagerD0Ev
ET:__ZN11UnityEngine15CloudWebService18RestFileDownloader10InitializeERKN4core12basic_stringIcNS2_20StringStorageDefaultIcEEEE
dL:__ZN12AudioManager33GetAudioEffectInternalDefinitionsEv
SWa:__ZN9Texture2D16DeleteGfxTextureEv
dkb:__ZN20LocalFileSystemPosix4OpenER13FileEntryData14FilePermission16FileAutoBehavior
V8e:_KeyBuilder_get_Rng_m2539978716
Skj:_AudioClip_InvokePCMSetPositionCallback_Internal_m1220105088
k7d:_BaseInvokableCall_ThrowOnInvalidArg_TisVector2_t2243707579_m879131569_gshared
Q0h:__ZN15dense_hashtableINSt3__24pairIK10KeyWrapperIN6il2cpp5utils13dynamic_arrayIPK10Il2CppTypeLj4EEEEPFvvEEESA_NS3_8metadata19Il2CppSignatureHashEN14dense_hash_mapISA_SD_SG_NSA_14EqualsComparerINSF_22Il2CppSignatureCompareEEENS0_9allocatorISE_EEE9SelectKeyESK_SM_ED2Ev
cLc:__ZN2UI6Canvas12AddToManagerEv
FBc:_UNITY_tt_face_load_sbit
WFg:_ShimEnumerator_get_Current_m2516732679_gshared
qGc:_cf2_hint_isTop
JWb:__ZN23ManagedAttributeManager21GetRequiredComponentsE17ScriptingClassPtr
zYb:__Z23InitializeStdConvertersv
nVe:_Collection_1_Contains_m3292349561_gshared
$nd:_Image_SetNativeSize_m3580044470
XPb:__ZN19ShaderPropertySheet17UpdateTextureInfoEiRK23FastTexturePropertyNamePK10TextureRef
JEc:_ps_unicodes_init
tIb:__ZZ23InitPlayerLoopCallbacksvEN38PreUpdateCheckTexFieldInputRegistrator7ForwardEv
zoi:__ZNK10KeyWrapperINSt3__24pairIPKcS3_EEE14EqualsComparerI26NamespaceAndNamePairEqualsEclERKS5_SA_
BCb:__ZN13MonoBehaviour17StopAllCoroutinesEv
X4:__Z34CleanupIntermediateRendererManagerPv
Uhe:_X509CertificateEnumerator__ctor_m1500464146
UMf:_Type_get_IsPointer_m3832342327
fmi:__ZN6il2cpp2vm9Exception27GetExecutionEngineExceptionEPKc
ALg:_Dictionary_2_System_Collections_ICollection_CopyTo_m2784181332_gshared
fh:_JS_WebRequest_GetResponseHeaders
VDb:__ZNSt3__26__treeINS_12__value_typeI26SerializedObjectIdentifieriEENS_19__map_value_compareIS2_S3_NS_4lessIS2_EELb1EEENS_9allocatorIS3_EEE7destroyEPNS_11__tree_nodeIS3_PvEE
dBc:_UNITY_FT_Create_Class_tt_cmap_classes
Vai:__ZN15dense_hashtableINSt3__24pairIK10KeyWrapperINS1_IPK14Il2CppAssemblyP11Il2CppClassEEEjEES9_17ReflectionMapHashIS8_EN14dense_hash_mapIS9_jSD_NS9_14EqualsComparerINS0_8equal_toIS8_EEEENS0_9allocatorISB_EEE9SelectKeyESI_SK_EC2ERKSN_j
lbc:__ZN9Scripting18RaiseNullExceptionEPKcz
g1e:_ReadOnlyCollection_1_System_Collections_IList_Insert_m2659121605_gshared
k7:__ZN13RuntimeStaticI13RendererSceneLb0EE16StaticInitializeEPv
hwg:_RawImage_SetNativeSize_m672994452
qh:_glCreateProgram
dfi:__ZN6il2cpp2vm10Reflection7IsFieldEP12Il2CppObject
Y1d:_Array_InternalArray__ICollection_CopyTo_TisContentType_t1028629049_m330597634_gshared
BBd:_SimpleEnumerator_Reset_m3524591211
lFa:__ZN24GenerateTypeTreeTransfer32TransferSTLStyleArrayWithElementI17SortingLayerEntryEEvRT_17TransferMetaFlags
Uwj:_glUniformMatrix3fv__wrapper
CKa:__ZN5Light9SetupHaloEv
dxb:__Z18Transfer_BlittableI18StreamedBinaryReadILb1EELb1E12PropertyNameEvRK29SerializationCommandArgumentsR31RuntimeSerializationCommandInfo
T4c:_SecurityFrame__ctor_m3738328608_AdjustorThunk
_fi:__ZN15dense_hashtableINSt3__24pairIK10KeyWrapperIPK22Il2CppGenericParameterEPK24MonoGenericParameterInfoEES6_N6il2cpp5utils11PointerHashIS4_EEN14dense_hash_mapIS6_SA_SF_NS6_14EqualsComparerINS0_8equal_toIS5_EEEENS0_9allocatorISB_EEE9SelectKeyESK_SM_EC2ERKSP_j
iZ:__ZN23TransformChangeDispatch12CleanupClassEPv
yac:__ZN8UserList11SendMessageERK17MessageIdentifier
TPc:__Z33Canvas_Get_Custom_PropScaleFactorP12Il2CppObject
gC:__ZNK26AnimatorControllerPlayable21GetStateMachineMemoryEi
R9h:__ZN6il2cpp2vm14TypeNameParser17ConsumeIdentifierEv
I3c:_EvidenceEnumerator_get_Current_m632582639
iTb:__Z15CullLocalLightsR8JobFenceS0_RK22SceneCullingParametersiPK8Vector4fRK13dynamic_arrayIhLj1EER9IndexListSC_PfP5RectTIfEP13TargetEyeMaskPPK5LightRK14ShadowCullData
d9c:_DecoderFallback_get_ReplacementFallback_m2155645318
vIa:__ZNK6Camera16GetTargetTextureEv
CWc:__ZNK20UnityWebRequestProtoI24UnityWebRequestTransport16AtomicRefCounter14RedirectHelper14ResponseHelper15DownloadHandler13UploadHandler12HeaderHelper14AsyncOperationE17GetUploadProgressEv
GId:_Convert_ToDateTime_m3528521877
Gob:__Z35Transfer_Blittable_SingleValueFieldI14SafeBinaryReadyEvRT_R17GeneralMonoObjectRK23StaticTransferFieldInfo
yUa:__ZN8Playable20ClearInputConnectionEi
CMb:__ZN13BatchRenderer12EndLoopFlushEv
gSd:_Enum_System_IConvertible_ToChar_m1838232954
hUd:_CultureInfo_CreateTextInfo_m2269397562
Utd:_Array_SetValue_m2469980129
I8b:__ZNK6Sprite11GetInnerUVsE20SpriteRenderDataMode
OC:__ZN11UnityEngine9Animation28DestroyAvatarBindingConstantEPNS0_21AvatarBindingConstantERN7mecanim6memory9AllocatorE
So:FUNCTION_TABLE_iiiiiiiiiiiiiii
Ltb:__Z29Transfer_Blittable_ArrayFieldI24GenerateTypeTreeTransfer11ColorRGBA32EvRT_R9ArrayInfoRK23StaticTransferFieldInfo
E1b:__ZN16MessageForwarder23RegisterMessageCallbackEiPFvPviR11MessageDataEPKN5Unity4TypeE
x8h:__ZN6il2cpp2os4File9SetLengthEPNS0_10FileHandleExPi
xMa:__ZN4Mesh30AcquireSharedMeshRenderingDataEv
ai:_gmtime
hi:_emscripten_glUniform3i
mfa:__ZNK7ApiGLES10GetContextEv
t5c:_Single_System_IConvertible_ToInt16_m962677079_AdjustorThunk
bnb:__Z18Transfer_BlittableI14SafeBinaryReadLb1E5RectTIfEEvRK29SerializationCommandArgumentsR31RuntimeSerializationCommandInfo
J_a:__ZN15TextureSettings14SetAnisoLimitsEii
Etb:__Z19TransferField_ArrayI24GenerateTypeTreeTransfer27Converter_SimpleNativeClassI10RectOffsetEEvRK23StaticTransferFieldInfoR31RuntimeSerializationCommandInfoRT0_
ula:__ZN6prcoreL17RemapGenericFloatI18TexFormatARGBFloat15TexFormatRGHalfEEvPKNS_9InnerInfoE
S7h:_il2cpp_object_unbox
T2c:_String_memcpy2_m2338403668
YTg:_InternalEnumerator_1_get_Current_m4154615771_AdjustorThunk
$lb:__ZNSt3__26vectorI4PPtrI10MonoScriptE13stl_allocatorIS3_L18MemLabelIdentifier78ELi16EEE8__appendEj
x3d:_Array_InternalArray__set_Item_TisDateTime_t693205669_m197118909_gshared
QYf:_ModuleBuilder_GetToken_m4190668737
OCj:_emscripten_glIsProgram__wrapper
s4b:__ZL22PrepareMeshRenderNodesILb1EEvR35RenderNodeQueuePrepareThreadContext
Gkb:__ZN20LocalFileSystemPosix5TouchER13FileEntryData
qrc:__ZN9JSONWrite8TransferI13dynamic_arrayItLj2EEEEvRT_PKc17TransferMetaFlags
rJf:_NativeEventCalls_SetEvent_internal_m2449488771
xi:_emscripten_glDrawElements
Z8:__ZN15dense_hashtableINSt3__24pairIKN4core12basic_stringIcNS2_20StringStorageDefaultIcEEEE13dynamic_arrayI4PPtrI6SpriteELj4EEEES6_20StringHash32FunctionIS6_EN14dense_hash_mapIS6_SC_SF_NS0_8equal_toIS6_EE13stl_allocatorISD_L18MemLabelIdentifier81ELi16EEE9SelectKeyESI_SL_ED2Ev
b0c:_RSAPKCS1SignatureDeformatter_SetHashAlgorithm_m894366837
Rhe:_X509Certificate_get_DSA_m3959895595
pwd:_Boolean_System_IConvertible_ToDouble_m624978277
lQd:_Delegate_get_Method_m2968370506
Lfd:_Button__ctor_m975719067
u1f:_MonoProperty_GetValue_m2150318626
OLf:_TimeSpan_CompareTo_m2891128664
kA:__ZN9BlobWriteD2Ev
_mh:_Input_get_mouseScrollDelta_m3621133506
onb:__ZL26Transfer_SimpleNativeClassI14SafeBinaryRead8GradientLb0EEvRK29SerializationCommandArgumentsR31RuntimeSerializationCommandInfo
aCj:_emscripten_glClientActiveTexture__wrapper
c2h:__ZNK15dense_hashtableI10KeyWrapperIPK17Il2CppGenericInstES4_N6il2cpp8metadata21Il2CppGenericInstHashEN14dense_hash_setIS4_S7_NS4_14EqualsComparerINS6_24Il2CppGenericInstCompareEEENSt3__29allocatorIS4_EEE8IdentityESB_SE_E4findERKS4_
hnh:_Input_get_compositionString_m3305020009
Cdg:__Z71RuntimeInvoker_Double_t4078015681_Double_t4078015681_Double_t4078015681PFvvEPK10MethodInfoPvPS4_
Dce:_PrimalityTests_RabinMillerTest_m1376858197
lZc:_HMACSHA1__ctor_m2027292306
oEf:_DES_Create_m2705450713
Gsh:_X509CertificateCollection_Remove_m2722259192
q$d:_Array_InternalArray__IndexOf_TisSingle_t2076509932_m2151846718_gshared
LQa:__ZN13RenderTexture23VirtualRedirectTransferER18StreamedBinaryReadILb0EE
DDh:_GUIUtility_CheckOnGUI_m4132974677
MUi:__ZL56StringBuilder_t1221177846_CustomAttributesCacheGeneratorP21CustomAttributesCache
joe:_NumberFormatter_FormatHexadecimal_m1317851390
dCc:_UNITY_tt_face_lookup_table
Kqf:_X509Certificate2Collection_AddRange_m1503879780
$nc:__ZN5Unity9rapidjson13GenericReaderINS0_4UTF8IcEES3_13JSONAllocatorE9ParseHex4INS0_25GenericInsituStringStreamIS3_EEEEjRT_
Tpa:__Z17ComputeMipmapSizeiii14GraphicsFormat
ste:_StreamReader__ctor_m871771009
cGc:_cf2_stack_pushFixed
via:__ZN4crnd12crn_unpacker12unpack_dxt5aEPPhjjjjjj
Phi:__ZNK15dense_hashtableINSt3__24pairIK10KeyWrapperINS1_IP11Il2CppClassjEEES4_EES6_N6il2cpp8metadata14ArrayClassHashEN14dense_hash_mapIS6_S4_SB_NS6_14EqualsComparerINSA_17ArrayClassCompareEEENS0_9allocatorIS8_EEE9SelectKeyESF_SH_E3endEv
Wdh:_AnchorInfo_get_Length_m1721106162
Iyf:_RemotingConfiguration_RegisterActivatedClientType_m2207611714
nHg:_Transform_1_Invoke_m1224512163_gshared
nEi:__ZN6il2cpp2os5Mutex4LockEb
vmd:_GraphicRaycaster_Raycast_m3351280444
Ryb:__Z29Transfer_Blittable_ArrayFieldI18StreamedBinaryReadILb1EE8Vector2fEvRT_R9ArrayInfoRK23StaticTransferFieldInfo
kPc:__Z50CanvasRenderer_CUSTOM_CreateUIVertexStreamInternalP12Il2CppObjectS0_S0_S0_S0_S0_S0_S0_S0_S0_
Z5:__ZN14PlayableOutput15PrepareTraverseERK9FrameData
Nmi:__ZN6il2cpp2vm13LivenessState25FieldCanContainReferencesEP9FieldInfo
DBb:__ZL19RequireCorLibMethodPKcS0_S0_
bwa:__ZNK5Unity9Component22GetTypeVirtualInternalEv
uMi:__ZL111RegionInfo_t3784626978_CustomAttributesCacheGenerator_RegionInfo_t3784626978____CurrencyNativeName_PropertyInfoP21CustomAttributesCache
Xl:_emscripten_get_fullscreen_status
OZc:_MD5_Create_m1572997499
zje:_AppDomain_LoadAssembly_m1537679648
hma:__ZN6prcoreL26RemapGenericIntegerToFloatI17TexFormatARGB888817TexFormatRGBFloatEEvPKNS_9InnerInfoE
qag:__Z146RuntimeInvoker_Void_t1841601450_RuntimeObject_RuntimeObject_Int64_t909078037_RuntimeObject_RuntimeObject_RuntimeObject_RuntimeObject_RuntimeObjectPFvvEPK10MethodInfoPvPS4_
vUb:__ZN15LODGroupManager27GarbageCollectCameraLODDataEv
vza:__ZN11NamedObjectC2E18MemLabelIdentifier18ObjectCreationMode
KXb:__ZN13ScreenManagerC2Ev
dCe:_OrdinalComparer_GetHashCode_m3400975772
aw:__ZN7mecanim20ValueArrayBlendBeginILb1EEEvRNS_14ValueArrayMaskE
Okc:__ZN12GUIClipState20CalculateMouseValuesER10InputEvent
Rsb:__Z18Transfer_BlittableI24GenerateTypeTreeTransferLb0E12PropertyNameEvRK29SerializationCommandArgumentsR31RuntimeSerializationCommandInfo
ifa:__ZN7ApiGLES4InitERK14GfxContextGLESR16GfxDeviceLevelGL
UHa:__ZNK11LightProbes14LightProbeData33GetLightProbeInterpolationWeightsERK8Vector3fRiR8Vector4fRf
wxf:_SoapServices_GetAssemblyName_m2037446159
aV:__ZN21UnityDefaultAllocatorI17LowLevelAllocatorED0Ev
WYa:__ZN8Renderer15SetIsRenderableEb
QUg:_InternalEnumerator_1_System_Collections_IEnumerator_get_Current_m1313308902_AdjustorThunk
oPf:_UInt32_System_IConvertible_ToInt64_m3091851828_AdjustorThunk
vma:__Z14DecodeBC7BlockP9HDRColorAPKh
d4b:__ZNK24RendererAnimationBinding12GetPPtrValueERKN11UnityEngine9Animation10BoundCurveE
Mdf:_ClientSessionCache__cctor_m1134810266
Seh:_CharacterClass_GetIntervalCost_m2706255216
uEb:__Z29FindRelativeTransformWithPathR9TransformPKcb
HAf:_ObjectReader_ReadGenericArray_m788836286
EBi:_GC_new_proc_inner
hc:invoke_fiiffi
sQa:__ZN19RenderBufferManager13GetTempBufferE17RenderTextureDesc
$Gc:_UNITY_FT_Init_Class_cff_service_glyph_dict
smb:__Z35Transfer_Blittable_FixedBufferFieldI14SafeBinaryReadiEvRK29SerializationCommandArgumentsR31RuntimeSerializationCommandInfo
zlh:_InvokableCallList_AddPersistentInvokableCall_m452514359
K_c:_RijndaelManagedTransform_TransformFinalBlock_m3663752599
Q7c:_String_Format_m4262916296
eLb:__ZNK25CameraStackRenderingState21IsRenderingLastCameraEv
Hja:__ZL24stbir__filter_catmullromff
Qae:_SimpleCollator_CompareInternal_m280569710
vxc:__ZN20TextRenderingPrivate15GetFormatStringER11UTF16StringR13dynamic_arrayINS_16TextFormatChangeELj4EE
fqf:_X509ExtensionEnumerator_get_Current_m3926549773
ceg:__Z77RuntimeInvoker_TimeSpan_t3430258949_TimeSpan_t3430258949_TimeSpan_t3430258949PFvvEPK10MethodInfoPvPS4_
J5h:__ZN6il2cpp6icalls8mscorlib6SystemL16CheckMemberMatchI9EventInfoNS_5utils10functional6FilterINSt3__212basic_stringIcNS8_11char_traitsIcEENS8_9allocatorIcEEEENS5_13VmStringUtils21CaseSensitiveComparerEEEEEbPKT_PK11Il2CppClassSN_iRKT0_
uoe:_NumberFormatter_IsZeroOnly_m3495795110
Kne:_Int32_ValidDigit_m2682121722
FWb:__Z23ValidateScriptComponentP10MonoScriptPN4core12basic_stringIcNS1_20StringStorageDefaultIcEEEE
Rt:__ZN7mecanim9animation12GetHumanPoseIfEEvRKNS0_18ClipMuscleConstantEPKT_RNS_5human9HumanPoseE
O0a:__ZNSt3__215__inplace_mergeIRNS_4lessI4PPtrI11SpriteAtlasEEENS_11__wrap_iterIPS4_EEEEvT0_SA_SA_T_NS_15iterator_traitsISA_E15difference_typeESE_PNSD_10value_typeEi
$Ai:_GC_init_headers
NDi:__ZNSt3__26__treeINS_12__value_typeINS_12basic_stringIcNS_11char_traitsIcEENS_9allocatorIcEEEEPFvvEEENS_19__map_value_compareIS7_SA_NS_4lessIS7_EELb1EEENS5_ISA_EEE13__lower_boundIS7_EENS_15__tree_iteratorISA_PNS_11__tree_nodeISA_PvEEiEERKT_SM_SM_
rHb:__ZN26SinglePassStereoSupportExt27InitSinglePassStereoSupportEP21ISinglePassStereoImplP9GfxDevice
Szc:_UNITY_FT_Init_Class_ft_outline_glyph_class
rod:_Image_get_preferredHeight_m1045199335
TU:__ZNSt3__23mapIN19CloudServiceHandler11ServiceTypeEPS1_NS_4lessIS2_EE13stl_allocatorINS_4pairIKS2_S3_EEL18MemLabelIdentifier88ELi16EEEixERS8_
hpf:_X509BasicConstraintsExtension__ctor_m4017912156
Tig:__Z75RuntimeInvoker_Playable_t1896841784_PlayableGraph_t1041204988_RuntimeObjectPFvvEPK10MethodInfoPvPS4_
bwj:_glTexStorage3D__wrapper
PEc:_ft_get_adobe_glyph_index
HDi:__ZNSt3__26__treeINS_12__value_typeINS_12basic_stringIcNS_11char_traitsIcEENS_9allocatorIcEEEEPFvvEEENS_19__map_value_compareIS7_SA_NS_4lessIS7_EELb1EEENS5_ISA_EEE25__emplace_unique_key_argsIS7_JRKNS_21piecewise_construct_tENS_5tupleIJOS7_EEENSL_IJEEEEEENS_4pairINS_15__tree_iteratorISA_PNS_11__tree_nodeISA_PvEEiEEbEERKT_DpOT0_
yic:__Z47Register_UnityEngine_Texture_Internal_GetHeightv
bDb:__Z25scripting_field_get_flags17ScriptingFieldPtr
Qph:_MessageEvent__ctor_m1822782644
Exg:_Scrollbar_OnBeginDrag_m574021735
DMg:_Dictionary_2_Add_m790520409_gshared
Ctc:__ZN8JSONRead8TransferIyEEvRT_PKc17TransferMetaFlagsb
Xmb:__Z18Transfer_BlittableI14SafeBinaryReadLb0EtEvRK29SerializationCommandArgumentsR31RuntimeSerializationCommandInfo
cSg:_U3CGetEnumeratorU3Ec__Iterator0_MoveNext_m2489948797_gshared
TV:__ZNK20DynamicHeapAllocatorI17LowLevelAllocatorE8ContainsEPKv
Oy:__ZN23AnimationPlayableOutput7DestroyEv
hag:__Z128RuntimeInvoker_Void_t1841601450_Byte_t3683104436_RuntimeObject_SByte_t454417549_ObjectU26_t597476745_HeaderU5BU5DU26_t2818328198PFvvEPK10MethodInfoPvPS4_
okh:_Debug_LogError_m3299155069
kmi:__ZN6il2cpp2vm14PlatformInvoke36MarshalCppStringToCSharpStringResultEPKc
dSb:__ZN8Material23GetStencilWriteMaterialEv
Uoa:__Z12GetBlockSize14GraphicsFormat
Cye:_Math_Log_m3325929366
wjf:_SslStreamBase_Flush_m2762644405
ndh:_Assertion__ctor_m1169129098
pDh:_Event_PopEvent_m4241312794
jFa:__ZN10TagManager8TransferI24GenerateTypeTreeTransferEEvRT_
ywg:_ReflectionMethodsCache_get_Singleton_m2330935729
Ttf:_InterpreterFactory_get_GroupCount_m1785101782
Jzd:_CharEnumerator_Clone_m3844021309
Qde:_BlockProcessor_Initialize_m3476609078
h9b:__Z35AllocExtractMeshComponentFromScriptRK4Mesh30InternalScriptingShaderChannel34InternalScriptingVertexChannelTypei
bw:__ZN7mecanim12SetValueMaskILb1EEEvPNS_14ValueArrayMaskEb
SEa:__ZN10TagManager23VirtualRedirectTransferER24GenerateTypeTreeTransfer
t3e:_ReadOnlyCollection_1_System_Collections_IList_Remove_m688362945_gshared
gWd:_Array_InternalArray__ICollection_Contains_TisMonoResource_t3127387157_m1257352693_gshared
Bja:__ZL23stbir__filter_trapezoidff
JP:__Z44Register_UnityEngine_AudioClip_get_ambisonicv
Osf:_Key_GetHashCode_m345804220
_Lf:_TimeSpan_FromHours_m2521548378
DRd:_Double_System_IConvertible_ToUInt16_m286326038
tVb:__ZN23ScriptableRenderContextD2Ev
xia:__ZN4crnd12crn_unpacker11unpack_dxt1EPPhjjjjjj
nhe:_PKCS12__ctor_m3492967071
CNa:__ZN14ShadowSettings8TransferI18StreamedBinaryReadILb0EEEEvRT_
Eci:__ZN15dense_hashtableINSt3__24pairIK10KeyWrapperINS1_IPK10MethodInfoP11Il2CppClassEEEjEES9_17ReflectionMapHashIS8_EN14dense_hash_mapIS9_jSD_NS9_14EqualsComparerINS0_8equal_toIS8_EEEENS0_9allocatorISB_EEE9SelectKeyESI_SK_E15insert_noresizeERKSB_
vKc:__Z32TextGenerator_CUSTOM_Dispose_cppP12Il2CppObject
lYf:_MethodBuilder_GetCustomAttributes_m923430117
dki:__ZN6il2cpp6icalls8mscorlib6System19ExtractWidenedValueE14Il2CppTypeEnumPv
L_g:_InternalEnumerator_1_get_Current_m2198364332_gshared
_Dh:_GUILayoutUtility_INTERNAL_CALL_Internal_GetWindowRect_m3180933350
kBi:_GC_invoke_finalizers
rKi:__ZL54InAttribute_t1394050551_CustomAttributesCacheGeneratorP21CustomAttributesCache
$$g:_InternalEnumerator_1_get_Current_m1715820327_gshared
inb:__Z18Transfer_BlittableI14SafeBinaryReadLb0E8BitFieldEvRK29SerializationCommandArgumentsR31RuntimeSerializationCommandInfo
_Yf:_OpCode_GetHashCode_m2974727122_AdjustorThunk
IVf:_EnumBuilder_get_BaseType_m63295819
lyd:_Byte_ToString_m1309661918_AdjustorThunk
rse:_Directory_CreateDirectoriesInternal_m2817848291
spe:_Int32_System_IConvertible_ToInt64_m3790029067
qVg:_InternalEnumerator_1_System_Collections_IEnumerator_get_Current_m3546309124_gshared
XHa:__ZNK10GameObject25QueryComponentByExactTypeEPKN5Unity4TypeE
sIf:_UTF7Encoding_GetDecoder_m396865028
NGa:__ZNK9ShaderLab22ShaderStencilStateDesc17ToGfxStencilStateEPK19ShaderPropertySheetS3_RK14GfxRasterStateR15GfxStencilState
Zee:_SmallXmlParser_ReadContent_m4038164984
Bth:_X509Extension_WriteLine_m364247613
sCc:_tt_cmap0_char_next
t_b:__ZN15GUIEventManager10QueueEventERK10InputEvent
wma:__Z15DecodeBC6HBlockP9HDRColorAPKh
_$b:__Z13RegisterClassI10GUIElementEvv
Jpe:_Int32_Equals_m753832628_AdjustorThunk
rBi:_GC_malloc_uncollectable
WCd:_CollectionBase_System_Collections_IList_get_IsReadOnly_m2883787483
ilb:__ZNK16MemoryFileSystem6ParentERK13FileEntryDataRN4core12basic_stringIcNS3_20StringStorageDefaultIcEEEE
WUh:_Canvas_get_targetDisplay_m150918273
B4:__ZN15LODGroupManagerD2Ev
Guc:__ZN8JSONRead21TransferSTLStyleArrayI13dynamic_arrayIN4math12int2_storageELj4EEEEvRT_17TransferMetaFlags
fSf:_Assembly_IsDefined_m2841897391
i8h:__GLOBAL__sub_I_File_cpp
HBa:__ZN12IFileAdapter9SetLengthER13FileEntryDatay
zpd:_InputField_set_lineType_m3589045448
Qhc:__Z39SortingLayer_CUSTOM_GetLayerValueFromIDi
Kc:_Mix_PlayMusic
kHc:_cff_cmap_encoding_init
PRg:_EqualityComparer_1_System_Collections_IEqualityComparer_GetHashCode_m2460068977_gshared
oWc:__Z34GetUnityWebRequestScriptingClassesv
RFb:__ZN19RuntimeSceneManager24PrepareNewBootstrapSceneEv
ytd:_Array_GetLongLength_m3005360186
ywa:__ZN10SpookyHash7Hash128EPKvjPyS2_
OTb:__ZL60CombineDirectionalShadowCasterCullingIndexListsAndDestroyJobP20ShadowCullingJobData
Kme:_Guid_ToString_m3858592945_AdjustorThunk
tXg:_InternalEnumerator_1_get_Current_m3206960238_gshared
nff:_TlsClientCertificate_ProcessAsSsl3_m3634449507
N3c:_Hash_GetData_m3416116641
ZYc:_HMAC_get_Block_m1367204253
Neb:__ZN9ShaderLab18SerializedPropertyC2ERKS0_
REc:_cff_driver_init
Wjd:_Dropdown_AlphaFadeList_m511547679
KVd:_Array_InternalArray__ICollection_Contains_TisChar_t3454481338_m1444673620_gshared
L4g:_ResourceReader_LoadResourceValues_m1346096618
O2b:__ZN16ReflectionProbes20DidChangeActiveSceneEP10UnitySceneS1_
roe:_NumberFormatter_RoundDecimal_m176606570
G7f:__Z90RuntimeInvoker_RuntimeObject_RuntimeObject_SByte_t454417549_RuntimeObject_SByte_t454417549PFvvEPK10MethodInfoPvPS4_
puf:_Interval_Contains_m3209397137_AdjustorThunk
C$a:__ZN16SpriteRenderData8TransferI14SafeBinaryReadEEvRT_
oJd:_Convert_ToDouble_m1714698801
V_g:_InternalEnumerator_1_get_Current_m35328337_gshared
c6b:__ZN6CameraC2E18MemLabelIdentifier18ObjectCreationMode
YRb:__ZL31SetRenderStateForStencilMarkingR9GfxDeviceR17ShaderPassContextjj
tCa:__ZN20ArchiveStorageReader20FillChunkCachedBlockEPNS_11CachedBlockE
kM:__ZN10AudioMixer16ResumeProcessingEv
fZe:_Collection_1_ConvertItem_m2559468638_gshared
Fch:_Parser_GetMapping_m2879066771
dpb:__ZNSt3__26vectorI17AnimationCurveTplIfE13stl_allocatorIS2_L18MemLabelIdentifier1ELi16EEE7reserveEj
Xcd:_PointerEventData_get_dragging_m220490640
Aye:_Math_Ceiling_m614624719
S7e:_BigInteger_op_Inequality_m4286929594
Yij:__ZL80CanvasScaler_t2574720772_CustomAttributesCacheGenerator_m_ReferencePixelsPerUnitP21CustomAttributesCache
B4c:_SecurityException__ctor_m230238597
SNc:__ZN2UI13CanvasManager21EmitGeometryForCameraEP6Camera
c1:__Z31AudioFilterReadValidateCallback18ScriptingMethodPtr17ScriptingClassPtrP6Object
moe:_CustomInfo_Parse_m3558073058
GCe:_KeyValuePair_2_get_Value_m1916631176_gshared
Nfb:__ZN9ShaderLab16SerializedTagMap8TransferI19StreamedBinaryWriteILb0EEEEvRT_
eKg:_Dictionary_2_InitArrays_m3810830177_gshared
bwh:_Rect_get_size_m1353657457_AdjustorThunk
Vki:__ZN6il2cpp6icalls8mscorlib6System9Threading6Thread25SetCachedCurrentUICultureEP12Il2CppThreadP12Il2CppObject
ACj:_glIsVertexArray__wrapper
iyf:_RemotingServices_DisposeIdentity_m266836454
Y$c:_RSAPKCS1KeyExchangeFormatter_SetRSAKey_m3575964424
Pxc:_UNITY_FT_Bitmap_Convert
NHd:_DateTimeUtils_GetStandardPattern_m4198947977
PTb:__Z22CullDirectionalShadowsR9IndexListPK9SceneNodePK4AABBR22DirectionalCullContext
v8d:_Array_InternalArray__get_Item_TisUInt16_t986882611_m2599215710_gshared
X3g:_Enumerator_System_Collections_IEnumerator_Reset_m2828524109_gshared
jTf:_Default_IsArrayAssignable_m3862319150
Zqh:_PKCS12_MAC_m3228833816
Smh:_IL2CPPStructAlignmentAttribute__ctor_m3421252534
q2h:__ZN15dense_hashtableINSt3__24pairIK10KeyWrapperIPK11Il2CppClassEPKcEES6_N6il2cpp5utils11PointerHashIS3_EEN14dense_hash_mapIS6_S9_SE_NS6_14EqualsComparerINS0_8equal_toIS5_EEEENS0_9allocatorISA_EEE9SelectKeyESJ_SL_E4findERS7_
Yne:_NumberFormatter_FastAppendDigits_m2324805728
PT:__ZN11UnityEngine15CloudWebService14RestDownloader7OnAbortEv
YAf:_FormatterServices_GetUninitializedObject_m1786947853
rL:__ZNK11AudioSource22GetTypeVirtualInternalEv
ida:__ZNK13GfxDeviceGLES18GetDefaultRTFormatEv
eJc:_UNITY_FT_Get_Glyph_Name
OHa:__Z13VFormatBufferPciPKcPi
Ftb:__Z19TransferField_ArrayI24GenerateTypeTreeTransfer27Converter_SimpleNativeClassI8GradientEEvRK23StaticTransferFieldInfoR31RuntimeSerializationCommandInfoRT0_
ioh:_Mathf_FloorToInt_m824771903
qyg:_ScrollRect_get_vertical_m3957330783
A1i:__ZL98GameObject_t1756533147_CustomAttributesCacheGenerator_GameObject_SendMessage_m3423113156____value1P21CustomAttributesCache
rR:__ZN11UnityEngine15CloudWebService16SessionContainer16MarkAsDispatchedERKN4core12basic_stringIcNS2_20StringStorageDefaultIcEEEE
lsi:__ZN6il2cpp2vm12GenericClass6IsEnumEP18Il2CppGenericClass
fjc:__Z26Transform_CUSTOM_IsChildOfP12Il2CppObjectS0_
Hmj:_GoLeft_Update_m99183197
_Ei:__ZNSt3__26vectorINS_12basic_stringIDsNS_11char_traitsIDsEENS_9allocatorIDsEEEENS4_IS6_EEE18__construct_at_endEj
oce:_BigInteger_op_Subtraction_m2941563507
g4b:__ZN13ProduceHelperI11PreloadDataLb0EE7ProduceE18MemLabelIdentifier18ObjectCreationMode
kFg:_Enumerator_Reset_m3129803197_gshared
vyj:_glDeleteSamplers__wrapper
Faa:__ZNK13GfxDeviceGLES11GetViewportEv
T9b:__ZN14AsyncOperation26ClearCachedScriptingObjectEv
_Ra:__ZNK9ShaderLab11ShaderState34ShouldRemoveAnyUnsupportedProgramsEv
bJc:_UNITY_tt_face_load_cvt
sMa:__ZN19ShaderPropertySheet29PreallocateArrayUninitializedEN9ShaderLab16FastPropertyNameENS_12PropertyTypeEj
I7g:_CrossAppDomainData__ctor_m899931420
l3h:__ZL32InitializeCustomAttributesCachesPv
cDa:__ZN20ArchiveStorageReaderD0Ev
ecb:__ZN6Shader23VirtualRedirectTransferER19StreamedBinaryWriteILb0EE
AAd:_ArrayListWrapper__ctor_m3783588291
Cvf:_MethodCall_get_MethodBase_m688041003
LWc:__ZN19TransportJavaScript7PrepareEv
aWd:_Array_InternalArray__ICollection_Contains_TisRuntimeObject_m4286375615_gshared
bbh:_Match_NextMatch_m1088868049
HCg:_Text_OnPopulateMesh_m835520031
B6a:__ZN10VRSettings9Cardboard8TransferI14SafeBinaryReadEEvRT_
Y4a:__ZNSt3__214__split_bufferI9InputAxisRNS_9allocatorIS1_EEED2Ev
Jkb:__ZNK20LocalFileSystemPosix20GetApplicationFolderEv
tR:__ZN11UnityEngine15CloudWebService14DataDispatcher31SetupSessionContainerToDispatchEv
oBb:__Z29Transfer_Blittable_ArrayFieldI18StreamedBinaryReadILb0EE8Vector3fEvRT_R9ArrayInfoRK23StaticTransferFieldInfo
oXd:_Array_InternalArray__ICollection_Remove_TisResourceInfo_t3933049236_m1768394498_gshared
vaf:_RSAManaged_get_KeySize_m3478823737
$v:__ZN7mecanim29TransformValueArrayBlendBeginEiiiRNS_14ValueArrayMaskE
hoh:_Mathf_CeilToInt_m3598987444
Tvg:_Shadow_ApplyShadowZeroAlloc_m2132231878
ZGa:__ZN9ShaderLab11shaderprops9GetVectorEPK19ShaderPropertySheetS3_NS_16FastPropertyNameE
$H:__ZN4FMOD12ChannelGroup10getDSPHeadEPPNS_3DSPE
DDe:_Enumerator_System_Collections_IEnumerator_Reset_m610822832_gshared
YHc:_UNITY_tt_size_run_prep
vH:__ZN12AudioManager17MainThreadCleanupEv
$Hf:_UTF32Encoding_GetByteCount_m77034086
nGa:__ZNK6Camera18ScreenToWorldPointERK8Vector3f
Iki:__ZN6il2cpp6icalls8mscorlib6System9Threading6Thread11GetDomainIDEv
kga:__ZNK13TranslateGLES13GetFormatDescE14GraphicsFormat
tvh:_Vector3_op_Addition_m394909128
Qza:__ZN17ArchiveFileSystemD0Ev
Rhh:_AttributeHelperEngine__cctor_m715531257
ZJf:_Thread_get_CurrentContext_m3123598616
EWh:__ZL22div192by96to32withRestPyS_S_jjj
LQb:__ZN14qsort_internal5QSortIP20ShadowCasterSortDatai26ShadowCasterSortDataSorterEEvT_S4_T0_T1_
Zrd:_LayoutElement_set_layoutPriority_m3326469165
_T:__ZN11UnityEngine15CloudWebService19SessionEventManager5StartERKN4core12basic_stringIcNS2_20StringStorageDefaultIcEEEEii
ilc:__ZN16GUIKeyboardState16SaveFromGUIStateER8GUIState
_ob:__Z22TransferField_NonArrayI14SafeBinaryRead27Converter_SimpleNativeClassI8GradientEEvRK23StaticTransferFieldInfoR31RuntimeSerializationCommandInfoRT0_
zf:_emscripten_glBufferData
KNc:__ZZN2UI23InitializeCanvasManagerEvEN53UIEventsCanvasManagerEmitOffScreenGeometryRegistrator7ForwardEv
Df:_glUniform3iv
Znd:_Image_OnAfterDeserialize_m457193290
spj:___fseeko
Apc:__Z18Transfer_BlittableI9JSONWriteLb0E9BoundsIntEvRK29SerializationCommandArgumentsR31RuntimeSerializationCommandInfo
o0d:_Array_InternalArray__ICollection_Add_TisInt16_t4041245914_m321723604_gshared
hKf:_Thread_SetCachedCurrentUICulture_m1504514384
Zpj:_fwrite
D9c:_BaseInput_get_compositionCursorPos_m3148596268
m9c:_AxisEventData_set_moveVector_m3227339885
UHg:_Enumerator_MoveNext_m1212551889_gshared
UBb:__ZN13MonoBehaviourD0Ev
Kie:_X509CertificateEnumerator_Reset_m3421070487
fNc:__ZN2UI6Canvas18UpdateEventIndexesEv
Gzd:_CharEnumerator_System_Collections_IEnumerator_get_Current_m1338581333
b9c:_DecoderFallback__cctor_m215821245
yad:_EventSystem_set_current_m1323649628
ehc:__Z50RectTransform_CUSTOM_INTERNAL_set_anchoredPositionP12Il2CppObjectRK13Vector2fIcall
Deb:__ZNSt3__26vectorIN9ShaderLab19SerializedSubShaderENS_9allocatorIS2_EEE6resizeEj
NPd:_Decimal_Multiply_m1884379383
pza:__ZN4FileC2Ev
y9g:_Context_GetNamedDataSlot_m372993642
fVf:_DerivedType_GetAttributeFlagsImpl_m876862795
Kci:__ZN15dense_hashtableINSt3__24pairIK10KeyWrapperINS1_IPK10MethodInfoP11Il2CppClassEEEjEES9_17ReflectionMapHashIS8_EN14dense_hash_mapIS9_jSD_NS9_14EqualsComparerINS0_8equal_toIS8_EEEENS0_9allocatorISB_EEE9SelectKeyESI_SK_E12maybe_shrinkEv
EEa:__ZN14BatchAllocator16AllocateInternalEPPvijjj
t0b:__Z13RegisterClassI6SpriteEvv
mzi:_min_bytes_allocd
dyb:__ZN17AnimationCurveTplIfE15InvalidateCacheEv
Tjc:__Z29Mesh_Get_Custom_PropCanAccessP12Il2CppObject
n0a:__ZN6Sprite8TransferI19StreamedBinaryWriteILb0EEEEvRT_
pxb:__Z35Transfer_Blittable_FixedBufferFieldI18StreamedBinaryReadILb1EEjEvRK29SerializationCommandArgumentsR31RuntimeSerializationCommandInfo
kvh:_Vector3_Normalize_m3717481874
Fmh:_GameObject_get_activeInHierarchy_m2532098784
Noh:_Mesh_SetTrianglesImpl_m2883494607
Rqe:_Int64_Parse_m4214159959
WIh:_IndexedSet_1_Contains_m4188067325_gshared
Qpg:__Z56RuntimeInvoker_Void_t1841601450_RaycastHit2D_t4063908774PFvvEPK10MethodInfoPvPS4_
rej:__ZL58BaseInputModule_t1295781545_CustomAttributesCacheGeneratorP21CustomAttributesCache
l8a:__Z14resize_trimmedINSt3__26vectorIi13stl_allocatorIiL18MemLabelIdentifier13ELi16EEEEEvRT_j
_D:__ZN7mecanim9animation18ControllerConstant15InitializeClassEv
W8:__ZNSt3__24pairIKN4core12basic_stringIcNS1_20StringStorageDefaultIcEEEE10vector_setI4PPtrI11SpriteAtlasENS_4lessISA_EE13stl_allocatorISA_L18MemLabelIdentifier81ELi16EEEEC2ERKSH_
ssa:__ZNK9ShaderLab6TexEnv11PrepareDataEiiP15GfxTextureParam
nUd:_CompareInfo_internal_compare_managed_m1173317301
so:FUNCTION_TABLE_iiiiiiiffiiiiiiiiiffffiiii
l5b:__ZZL23RegisterLightPropertiesR22GenericPropertyBindingEN22Wrapper_LightSpotAngle13SetFloatValueEPvf
ipd:_InputField_get_customCaretColor_m2991404035
tme:_Guid_Equals_m2346664749_AdjustorThunk
dy:__ZN7mecanim12statemachine20EvaluateStateMachineERKNS0_20StateMachineConstantERKNS0_17StateMachineInputERNS0_18StateMachineOutputERNS0_18StateMachineMemoryERNS0_21StateMachineWorkspaceE
WGc:_cff_parser_run
iBi:_GC_notify_or_invoke_finalizers
nRe:_Queue_1__ctor_m2730788670_gshared
Zde:_CryptoConvert_ToCapiPrivateKeyBlob_m850465939
nvi:__ZN6il2cpp2os6Thread5SleepEjb
AEh:_GUIStyle_INTERNAL_CALL_GetRectOffsetPtr_m1211429798
BPd:_Decimal_Add_m1535064574
Zvj:_emscripten_glUniform3f__wrapper
Fn:FUNCTION_TABLE_viiiifii
Qqh:_SubjectAltNameExtension_Decode_m3676245240
_vi:__ZN15dense_hashtableINSt3__24pairIK10KeyWrapperIPK19Il2CppGenericMethodEP10MethodInfoEES6_N6il2cpp8metadata23Il2CppGenericMethodHashEN14dense_hash_mapIS6_S9_SD_NS6_14EqualsComparerINSC_26Il2CppGenericMethodCompareEEENS0_9allocatorISA_EEE9SelectKeyESH_SJ_E4findERS7_
TWa:__ZN17SharedTextureDataC2E18MemLabelIdentifierii13TextureFormatjiibb
p2g:_DefaultComparer_Compare_m265474847_gshared
zne:_Int16_Parse_m4244889614
ZEa:__ZN10TagManager23AddDefaultLayerIfNeededEv
bKa:__ZN10FlareLayer12AddToManagerEv
eZe:_Collection_1_IsValidItem_m1082009684_gshared
h$c:_RIPEMD160Managed_HHH_m1385141959
aji:__ZNK15dense_hashtableINSt3__24pairIK10KeyWrapperINS1_IP11Il2CppClassjEEES4_EES6_N6il2cpp8metadata14ArrayClassHashEN14dense_hash_mapIS6_S4_SB_NS6_14EqualsComparerINSA_17ArrayClassCompareEEENS0_9allocatorIS8_EEE9SelectKeyESF_SH_E12test_deletedEj
Y_i:__ZL79X509Chain_t777637347_CustomAttributesCacheGenerator_X509Chain_Build_m2341271288P21CustomAttributesCache
G5a:__ZN13BuildSettings23VirtualRedirectTransferER24GenerateTypeTreeTransfer
xhg:__Z72RuntimeInvoker_Boolean_t3825574718_Single_t2076509932_Single_t2076509932PFvvEPK10MethodInfoPvPS4_
vtb:__ZN24GenerateTypeTreeTransfer21TransferSTLStyleArrayINSt3__26vectorI8GUIStyle13stl_allocatorIS3_L18MemLabelIdentifier1ELi16EEEEEEvRT_17TransferMetaFlags
ZOb:__Z16ApplySHConstantsI28ApplyBuiltinInstancePropertyEvRT_RK20SphericalHarmonicsL2
bsc:__Z18Transfer_BlittableI8JSONReadLb1E8Vector2fEvRK29SerializationCommandArgumentsR31RuntimeSerializationCommandInfo
fCa:__ZN20ArchiveStorageReader15ReadFromStorageEyyPvPy
pTa:__ZN8Material43AddDefaultShaderPropertiesToSavedPropertiesEv
WNb:__Z19DoPrePassRenderLoopR17RenderLoopContextR13dynamic_arrayI16RenderObjectDataLj4EES4_RK11CullResultsRP13RenderTextureSA_Pb
zV:__ZN13MemoryManager12LowLevelFreeEPvj
gMc:__ZN2UI14CanvasRenderer23VirtualRedirectTransferER24GenerateTypeTreeTransfer
bJb:__Z16PresentAfterDrawN9GfxDevice11PresentModeE
Oha:__ZN10DynamicVBO19FillQuadIndexBufferER21DynamicVBOChunkHandle
rFg:_Enumerator_System_Collections_IDictionaryEnumerator_get_Value_m2325383168_gshared
fyj:_glGenFramebuffers__wrapper
FAj:_glBindBufferBase__wrapper
tEf:_DESCryptoServiceProvider__ctor_m3979608654
Rmj:_Level1Intro_Update_m1875645055
hZ:__ZN23TransformChangeDispatch15InitializeClassEPv
hTf:_Default_CompareCloserType_m1367126249
rSh:_Nullable_1_GetHashCode_m1791015856_gshared
rOb:__ZN22MotionVectorRenderLoop16PerformRenderingER8JobFence
yQe:_List_1_Find_m1809770055_gshared
ree:_DSAManaged_ImportParameters_m987307570
LTh:_FontTextureRebuildCallback_Invoke_m3343763940
xT:__ZN11UnityEngine15CloudWebService18RestFileDownloader13OnReceiveDataEPKvj
fIc:_UNITY_TT_RunIns
iIc:_Current_Ppem
Oug:_StencilMaterial_Add_m2540251346
zoc:__ZN5Unity9rapidjson6WriterI16TempBufferWriterNS0_4UTF8IcEES4_13JSONAllocatorE10StartArrayEv
ozg:_ScrollRect_CalculateOffset_m1659273054
Ede:_ASN1Convert_ToInt32_m2828871616
aof:_AsnEncodedData__ctor_m1211934482
oWg:_InternalEnumerator_1_System_Collections_IEnumerator_get_Current_m1025729343_AdjustorThunk
Uuj:dynCall_iiiiiiiii
rX:__ZL25InitializeUnityWebStreamsPv
Zbb:__ZN6ShaderD0Ev
S8a:__ZN18BackgroundJobQueue19ScheduleJobInternalEPFvPvES0_RKNS_8JobFenceE
cQd:_Decimal_ToString_m759431975_AdjustorThunk
zJb:__ZN25CameraStackRenderingState18EndStereoRenderingEv
lkb:__ZN20LocalFileSystemPosix9SetLengthER13FileEntryDatay
Jkd:_FontData_set_bestFit_m1987821379
cSd:_Enum__cctor_m3214832791
skf:_HybridDictionary_set_Item_m4049906479
hFi:__ZN6il2cpp5utils25NativeDelegateMethodCache17GetNativeDelegateEPFvvE
ATg:_InternalEnumerator_1_System_Collections_IEnumerator_get_Current_m1335784110_AdjustorThunk
P6c:_String_IndexOf_m1887352430
L6a:__ZN26PlayerSettingsSplashScreen8TransferI24GenerateTypeTreeTransferEEvRT_
Yid:_Graphic_UnregisterDirtyMaterialCallback_m819829270
PSf:_AssemblyName_SetPublicKey_m1491402438
yg:_glScissor
LSc:__ZNSt3__26__treeINS_12__value_typeIN4core12basic_stringIcNS2_20StringStorageDefaultIcEEEE14CallbackArray2IRKS6_R8JSONReadEEENS_19__map_value_compareIS6_SD_NS_4lessIS6_EELb1EEE13stl_allocatorISD_L18MemLabelIdentifier6ELi16EEE7destroyEPNS_11__tree_nodeISD_PvEE
fYc:_DSACryptoServiceProvider_ExportParameters_m2503144019
qSf:_Assembly_GetName_m790410837
CQ:__Z6simd4fIN6detail9FourTupleEE13Simd4fFactoryIT_ERK13Simd4iFactoryIS3_E
Ifg:__Z109RuntimeInvoker_Boolean_t3825574718_Int32_t2071877448_Int32U26_t455636984_Int32U26_t455636984_SByte_t454417549PFvvEPK10MethodInfoPvPS4_
Hzc:_UNITY_ft_corner_is_flat
aca:__ZN13GfxDeviceGLES21RegisterNativeTextureE9TextureIDi16TextureDimension
Phc:__Z44Register_UnityEngine_Material_DisableKeywordv
fn:FUNCTION_TABLE_iiiiiiif
T8c:_DecoderExceptionFallback__ctor_m3330792769
KVg:_InternalEnumerator_1_System_Collections_IEnumerator_get_Current_m4259662004_gshared
bBj:_emscripten_glUniform4fv__wrapper
cn:FUNCTION_TABLE_iiiiiiii
F_c:_RijndaelManaged_CreateEncryptor_m315737265
w1d:_Array_InternalArray__ICollection_CopyTo_TisRuntimeObject_m1162822425_gshared
y2g:_DefaultComparer_Compare_m2804119458_gshared
V3d:_Array_InternalArray__set_Item_TisUInt16_t986882611_m59367493_gshared
wvc:__ZN19ControllerHitReportD2Ev
BGg:_Transform_1_Invoke_m1023901590_gshared
c8c:_String_GetCaseInsensitiveHashCode_m74381984
nT:__ZN11UnityEngine15CloudWebService23WebRequestUploadHandler8GetBytesEv
_ja:__ZN6prcoreL12RemapGenericI11TexFormatI817TexFormatARGB4444EEvPKNS_9InnerInfoE
nMh:_GenericEqualityComparer_1_Equals_m2469044952_gshared
r6a:__ZNK14PlayerSettings22GetTypeVirtualInternalEv
JMd:_DateTime_System_IConvertible_ToUInt64_m2788957482
UDc:_Bezier_Up
xKh:_SymmetricTransform_CheckInput_m1287204652
uNf:_Type_GetProperty_m1510204374
UCd:_CollectionBase_System_Collections_IList_Remove_m2931078938
rwh:_Rect_Overlaps_m2238446534
Dch:_Parser__ctor_m1719025083
Loi:__ZN15dense_hashtableINSt3__24pairIK10KeyWrapperINS1_IPKcS4_EEEiEES6_24NamespaceAndNamePairHashN14dense_hash_mapIS6_iS9_NS6_14EqualsComparerI26NamespaceAndNamePairEqualsEENS0_9allocatorIS8_EEE9SelectKeyESD_SF_EC2ERKSI_j
Lyg:_ScrollRect_set_horizontalScrollbarVisibility_m3790647510
e6:__ZN15DirectorManager12RegisterJobsEP13PlayableGraph
qmc:__Z38Event_CUSTOM_Internal_GetMousePositionP12Il2CppObjectP13Vector2fIcall
VT:__ZN11UnityEngine15CloudWebService14DataDispatcher10InitializeERKN4core12basic_stringIcNS2_20StringStorageDefaultIcEEEEPvjRNS0_18ICloudJobSchedulerE
vVc:__ZN22CrashReportingSettingsC2Ev
uGc:_cff_free_glyph_data
tBf:_ObjectManager_GetObject_m2241027343
vyg:_ScrollRect_set_elasticity_m4144797413
GU:__ZN11UnityEngine15CloudWebService14DataDispatcher17PlayerLoopHandlerEv
eCh:_Vector3_get_down_m2270176769
owh:_Rect_OrderMinMax_m2982601929
yPd:_Decimal_System_IConvertible_ToUInt64_m2457277336
fTc:__ZN11UnityEngine7Connect15AppRunningEventC2Ejjjj
Hsj:dynCall_iiiiifii
U0:__Z26GetManagedAttributeManagerv
lFg:_Enumerator_System_Collections_IEnumerator_Reset_m3225937576_AdjustorThunk
R9d:_MSCompatUnicodeTable_Category_m3854768527
qqa:__ZN19ComputeShaderKernelC2ERKS_
JKf:_Timer__cctor_m3277205579
RMa:__ZN4Mesh14ClearSkinCacheEv
Cjb:__ZNK12HandlerChain12LastModifiedERK13FileEntryData
gqc:__Z18Transfer_BlittableI9JSONWriteLb0EjEvRK29SerializationCommandArgumentsR31RuntimeSerializationCommandInfo
bgb:__ZL15GetIndexForNameRNSt3__23mapIN4core12basic_stringIcNS1_20StringStorageDefaultIcEEEEiNS_4lessIS5_EENS_9allocatorINS_4pairIKS5_iEEEEEERSA_
Ng:__exit
oL:__ZN11AudioSource13AwakeFromLoadE17AwakeFromLoadMode
zsh:_X509CertificateCollection_AddRange_m3644738604
TQc:__ZN22BaseUnityConnectClient19OnEnterStateStoppedEv
