xc:_glClearStencil
K0d:_Array_InternalArray__ICollection_Add_TisMark_t2724874473_m1613484179_gshared
Kuk:__ZL80Graphic_t2426225576_CustomAttributesCacheGenerator_Graphic_OnFillVBO_m1723985607P21CustomAttributesCache
Guj:__ZN6il2cpp2vm5Array13GetByteLengthEP11Il2CppArray
Vwg:_Raycast3DCallback_BeginInvoke_m3028685017
V5f:__Z79RuntimeInvoker_RuntimeObject_Int64_t909078037_Int64_t909078037_Int64_t909078037PFvvEPK10MethodInfoPvPS4_
_Qg:_EqualityComparer_1__cctor_m968537130_gshared
EMh:_TextGenerator_Invalidate_m1993568841
Z5e:_Comparison_1_Invoke_m353639462_gshared
rIa:__Z30GetIntermediateRendererManagerv
Cld:_GraphicRegistry_RegisterGraphicForCanvas_m2284226562
Via:__Z21SourceMipLevelForBlitiiii
aNa:__ZN31CanvasBatchIntermediateRenderer15AddAsRenderNodeER15RenderNodeQueueRK20DeprecatedSourceData
XFd:_Enumerator_get_Key_m2908810861
luh:_GUI_DoSetSkin_m2532620610
Qr:__ZN11UnityEngine9Animation28GenericAnimationBindingCacheD2Ev
b0h:__ZNSt3__23mapIP11Il2CppClassS2_NS_4lessIS2_EENS_9allocatorINS_4pairIKS2_S2_EEEEEC2Ev
PFe:_List_1_System_Collections_IList_IndexOf_m39706221_gshared
gLg:_Dictionary_2_Remove_m1849931834_gshared
NId:_Decimal_op_Implicit_m2971610317
yvh:_GUILayoutGroup_ResetCursor_m3614985691
_id:_Graphic_UnregisterDirtyVerticesCallback_m1526739224
qWb:__Z18RestoreRenderStateR20CameraRenderOldStateR17ShaderPassContext
FBd:_SynchronizedArrayListWrapper_get_Item_m3309425850
Ywb:__Z18Transfer_BlittableI18StreamedBinaryReadILb1EELb1E5RectTIfEEvRK29SerializationCommandArgumentsR31RuntimeSerializationCommandInfo
rEk:_UnityEventBase_RebuildPersistentCallsIfNeeded_m2776978024
Qsb:__Z18Transfer_BlittableI24GenerateTypeTreeTransferLb0E11ColorRGBA32EvRK29SerializationCommandArgumentsR31RuntimeSerializationCommandInfo
U0:__Z25scripting_class_from_name17ScriptingImagePtrPKcS1_
dTi:__ZN14dense_hash_mapI10KeyWrapperINSt3__24pairIPK12PropertyInfoP11Il2CppClassEEEj17ReflectionMapHashIS8_ENS9_14EqualsComparerINS1_8equal_toIS8_EEEENS1_9allocatorINS2_IKS9_jEEEEE15set_deleted_keyERSH_
aDb:__Z29scripting_class_enum_basetype17ScriptingClassPtr
thg:__Z111RuntimeInvoker_Void_t1841601450_Vector4_t2243707581_Vector4_t2243707581_Vector4_t2243707581_Vector4_t2243707581PFvvEPK10MethodInfoPvPS4_
OGi:__ZN14dense_hash_mapI10KeyWrapperIPK10Il2CppTypeEjN6il2cpp8metadata14Il2CppTypeHashENS4_14EqualsComparerINS6_26Il2CppTypeEqualityComparerEEENSt3__29allocatorINSB_4pairIKS4_jEEEEE3endEv
QXf:_GenericTypeParameterBuilder_GetHashCode_m867619899
lMf:_TimeSpan_ToString_m2947282901
wQg:_EqualityComparer_1__cctor_m3397254040_gshared
rkb:__ZNK20LocalFileSystemPosix6ParentERK13FileEntryDataRN4core12basic_stringIcNS3_20StringStorageDefaultIcEEEE
V5d:_Array_Sort_TisVector2_t2243707579_m1307634946_gshared
yga:__ZN7ApiGLES17CopyBufferSubDataEjjlll
bQf:_UInt64_System_IConvertible_ToDecimal_m4205696037
Hnc:__ZN5Unity9rapidjson15GenericDocumentINS0_4UTF8IcEE13JSONAllocatorS4_E11ParseStreamILj1ES3_NS0_25GenericInsituStringStreamIS3_EEEERS5_RT1_
jWh:__ZNSt3__26vectorIPK10Il2CppTypeNS_9allocatorIS3_EEE7reserveEj
pKh:_U3CCreateWhereIteratorU3Ec__Iterator1D_1_Reset_m1773515612_gshared
qOb:__ZN25CameraStackRenderingState20GetOrCreateBuiltinRTE24BuiltinRenderTextureTypeii17DepthBufferFormat19RenderTextureFormatj22RenderTextureReadWrite14VRTextureUsagei
DBh:_AesManaged_CreateEncryptor_m1729287824
g1a:__ZNK14Texture2DArray26CanReuploadDataToGfxDeviceEv
LSb:__ZN17PrePassRenderLoop14RenderBasePassEP13RenderTextureRK14LightingLayersR13dynamic_arrayI16RenderObjectDataLj4EERbR10MinMaxAABB
Kyd:_Char_System_IConvertible_ToInt16_m2741348777_AdjustorThunk
vlc:__ZN5IMGUI18RepaintModalWindowER8GUIState
t$e:_ReadOnlyCollection_1_System_Collections_Generic_IListU3CTU3E_set_Item_m1547026160_gshared
hHa:__ZNK15dense_hashtableINSt3__24pairIKN9ShaderLab7Program23ShaderKeywordSetAndHashEPKNS2_10SubProgramEEES4_NS3_24ShaderKeywordHashFunctorEN14dense_hash_mapIS4_S8_SA_NS0_8equal_toIS4_EE13stl_allocatorIS9_L18MemLabelIdentifier67ELi16EEE9SelectKeyESD_SG_E23find_position_with_hashERS5_j
TYj:__ZL61MarshalAsAttribute_t2900773360_CustomAttributesCacheGeneratorP21CustomAttributesCache
P$a:__Z23SetSpriteMeshIndexCountP14SharedMeshDataj
uQa:__ZN7Texture13SetFilterModeEi
Ycc:__Z46Register_UnityEngine_Application_get_isPlayingv
nyj:__ZN6il2cpp8metadata13GenericMethod9GetMethodEPK19Il2CppGenericMethod
jq:__ZNSt3__26vectorIN4core12basic_stringIcNS1_20StringStorageDefaultIcEEEENS_9allocatorIS5_EEE7reserveEj
fLd:_Convert_ToUInt16_m2130758075
DLi:__ZN15dense_hashtableINSt3__24pairIK10KeyWrapperINS1_IPK11Il2CppImageP11Il2CppClassEEEjEES9_17ReflectionMapHashIS8_EN14dense_hash_mapIS9_jSD_NS9_14EqualsComparerINS0_8equal_toIS8_EEEENS0_9allocatorISB_EEE9SelectKeyESI_SK_E3endEv
opf:_X509BasicConstraintsExtension_Encode_m3505127076
qci:__ZNKSt3__26vectorIP17Il2CppAsyncResultN6il2cpp2gc9AllocatorIS2_EEE5beginEv
Haa:__ZN13GfxDeviceGLES11SetViewportERK5RectTIiE
Ynd:_Image_get_pixelsPerUnit_m4104195799
rDg:_Toggle_InternalToggle_m2323729210
rPd:_Decimal_System_IConvertible_ToInt64_m2504363272
Iic:__Z24Time_Get_Custom_PropTimev
Std:_Array_GetValue_m3182152438
Pd:_emscripten_glDepthRange
t_i:__ZNSt3__216allocator_traitsIN6il2cpp2gc9AllocatorIP12Il2CppThreadEEE10deallocateERS6_PS5_j
FEf:_DESTransform_CipherFunct_m3559419566
EPj:__ZNSt3__216allocator_traitsINS_9allocatorINS_11__tree_nodeIPFvvEPvEEEEE9constructIS4_JRKS4_EEEvRS7_PT_DpOT0_
z_c:_Rijndael_Create_m113171669
zYb:__ZNSt3__26vectorINS_4pairIN4core12basic_stringIcNS2_20StringStorageDefaultIcEEEES6_EE13stl_allocatorIS7_L18MemLabelIdentifier38ELi16EEE12__move_rangeEPS7_SC_SC_
qdb:__Z14resize_trimmedINSt3__26vectorIN9ShaderLab20SerializedSubProgram12UAVParameterENS0_9allocatorIS4_EEEEEvRT_j
$nc:__ZN5Unity9rapidjson13GenericReaderINS0_4UTF8IcEES3_13JSONAllocatorE11ParseObjectILj1ENS0_25GenericInsituStringStreamIS3_EENS0_15GenericDocumentIS3_S4_S4_EEEEvRT0_RT1_
Vzf:_SerializationInfo_AddValue_m1781549036
pdf:_TlsServerKeyExchange_verifySignature_m3641534563
Z9b:__ZN13BuildSettings34ConvertScenePathToDisplayScenePathERKN4core12basic_stringIcNS0_20StringStorageDefaultIcEEEE
_2:__ZNSt3__218__insertion_sort_3IRNS_6__lessI14ObjectLoadDataS2_EEPS2_EEvT0_S6_T_
FBg:_Slider_FindSelectableOnLeft_m3136767885
tia:__ZN4crndL20crnd_default_reallocEPvjPjbS0_
GZd:_Array_BinarySearch_TisInt32_t2071877448_m51233948_gshared
xNk:__ZNSt3__212basic_stringIcNS_11char_traitsIcEENS_9allocatorIcEEEC2ERKS5_
qyf:_ProviderData_CopyFrom_m431414335
F0a:__ZN18SpriteAtlasManager19AddRequestingSpriteE4PPtrI6SpriteE
$Hf:_UTF32Encoding_GetPreamble_m767706727
tic:__Z33Texture_CUSTOM_Internal_GetHeightP12Il2CppObject
nsd:_LayoutGroup_get_preferredHeight_m3901163825
wUh:__ZNKSt3__214__split_bufferIPK10Il2CppTypeRNS_9allocatorIS3_EEE8capacityEv
Cli:__ZNSt3__216allocator_traitsINS_9allocatorIP9FieldInfoEEE11__constructIS3_JRKS3_EEEvNS_17integral_constantIbLb1EEERS4_PT_DpOT0_
uVb:__ZN23ScriptableRenderContextC2Ev
qId:_DateTime_AbsoluteDays_m3061694073
oFi:__ZN14dense_hash_mapI10KeyWrapperINSt3__24pairIPK9FieldInfoP11Il2CppClassEEEj17ReflectionMapHashIS8_ENS9_14EqualsComparerINS1_8equal_toIS8_EEEENS1_9allocatorINS2_IKS9_jEEEEE6insertERKSI_
TBj:__ZNSt3__216allocator_traitsINS_9allocatorIPK14Il2CppAssemblyEEE9constructIS4_JRKS4_EEEvRS5_PT_DpOT0_
_Ic:_UNITY_FT_Stream_GetChar
xxb:__Z18Transfer_BlittableI18StreamedBinaryReadILb1EELb1EdEvRK29SerializationCommandArgumentsR31RuntimeSerializationCommandInfo
xBj:__ZNSt3__213__vector_baseIPK14Il2CppAssemblyNS_9allocatorIS3_EEE7__allocEv
iFg:_Enumerator_System_Collections_IEnumerator_get_Current_m229223308_gshared
jDb:__Z26BuildSerializationCacheFor17ScriptingClassPtrRb
zoa:__ZN7ApiGLES15BlitFramebufferEN2gl6HandleILNS0_10ObjectTypeE9EEENS0_15FramebufferReadES3_S3_iiiiiiiiNS0_15FramebufferTypeE
iHk:_Mesh_CheckCanAccessSubmeshTriangles_m2644388378
Zeg:__Z112RuntimeInvoker_RuntimeObject_RuntimeObject_RuntimeObject_RuntimeObject_RuntimeObject_RuntimeObject_RuntimeObjectPFvvEPK10MethodInfoPvPS4_
Nrh:_UnitySynchronizationContext__ctor_m1804960286
oBd:_FixedSizeArrayListWrapper_AddRange_m2071800418
OD:__ZN13ProduceHelperI8AnimatorLb0EE7ProduceE18MemLabelIdentifier18ObjectCreationMode
CEb:__Z9InitInputv
Bbg:__Z85RuntimeInvoker_Boolean_t3825574718_Int64_t909078037_Int64_t909078037_SByte_t454417549PFvvEPK10MethodInfoPvPS4_
XFi:__ZN15dense_hashtableINSt3__24pairIK10KeyWrapperINS1_IPK9FieldInfoP11Il2CppClassEEEjEES9_17ReflectionMapHashIS8_EN14dense_hash_mapIS9_jSD_NS9_14EqualsComparerINS0_8equal_toIS8_EEEENS0_9allocatorISB_EEE9SelectKeyESI_SK_ED2Ev
CEe:_Enumerator_VerifyState_m2358705882_AdjustorThunk
hCc:_UNITY_tt_face_build_cmaps
Vxg:_Selectable_Navigate_m915280351
wlb:__ZN16MemoryFileSystem6DeleteER13FileEntryDatab
lja:__ZL21BlitScaleStbImageImplRK14ImageReferenceRS_NS_10ColorSpaceE
Wnh:_RectTransform_INTERNAL_set_pivot_m4248720081
Wjf:_TlsStream_set_Position_m378064217
Iob:__Z29Transfer_Blittable_ArrayFieldI14SafeBinaryReadyEvRT_R9ArrayInfoRK23StaticTransferFieldInfo
KL:__ZN20SoundChannelInstance15setChannelGroupEPN4FMOD12ChannelGroupE
F3c:_Evidence_Equals_m2325859915
Jkh:_PlayableHandle_INTERNAL_CALL_GetPlayableTypeOf_m1683061051
dsj:__ZNSt3__217__compressed_pairIPN6il2cpp2os10ThreadImpl10APCRequestERNS_9allocatorIS4_EEEC2ES5_S8_
$Sf:_Default__ctor_m172834064
lc:invoke_vifffii
j5i:__ZN6il2cpp2vm9Exception27RaiseNullReferenceExceptionEv
Edh:_Regex_IsMatch_m2159202025
pBa:__ZNK25MultiBlocksMemoryFileData5CloneEv
kHj:_GC_add_ext_descriptor
Bvf:_RemotingServices_GetMethodBaseFromName_m3271095947
hQk:dynCall_iiiiiiiiiiii
H8c:_ASCIIEncoding_GetBytes_m3617160053
tcf:_CipherSuiteCollection_System_Collections_IList_RemoveAt_m143866082
_hb:__ZL26KeywordSetToStringDontSortRKNSt3__26vectorIN4core12basic_stringIcNS1_20StringStorageDefaultIcEEEENS_9allocatorIS5_EEEERS5_
dla:__ZN6prcoreL17RemapGenericFloatI16TexFormatRGFloat17TexFormatRGBAHalfEEvPKNS_9InnerInfoE
fG:__ZN12AudioManager22CreateFMODSoundFromWWWEP10IWWWStream15FMOD_SOUND_TYPE17FMOD_SOUND_FORMATjjbbP10SampleClip
X3b:__ZNK32RendererMaterialAnimationBinding15GenerateBindingERKN4core12basic_stringIcNS0_20StringStorageDefaultIcEEEEbRN11UnityEngine9Animation14GenericBindingE
GKi:__ZN24dense_hashtable_iteratorINSt3__24pairIK10KeyWrapperINS1_IPK11Il2CppImageP11Il2CppClassEEEjEES9_17ReflectionMapHashIS8_EN14dense_hash_mapIS9_jSD_NS9_14EqualsComparerINS0_8equal_toIS8_EEEENS0_9allocatorISB_EEE9SelectKeyESI_SK_E30advance_past_empty_and_deletedEv
h0:__ZN8Remapper23GetOrGenerateInstanceIDERK26SerializedObjectIdentifier
Qwe:_StreamWriter_Flush_m3426120024
Ya:invoke_iiiiiifffiiifii
uue:_MemoryStream__ctor_m1489366847
Z3c:_SecurityElement_IsValidTag_m64902195
lFg:_Enumerator_System_Collections_IEnumerator_get_Current_m229223308_AdjustorThunk
e2f:_PropertyInfo_SetValue_m2961483868
egj:__ZNSt3__222__tree_node_destructorINS_9allocatorINS_11__tree_nodeINS_12__value_typeIP24Il2CppReflectionAssemblyPvEES6_EEEEEclEPS8_
xKe:_List_1_System_Collections_IList_Contains_m4193366963_gshared
Vgi:__ZNSt3__214__split_bufferI6pollfdRNS_9allocatorIS1_EEED2Ev
xTf:_ConstructorInfo_Invoke_m2144827141
a0a:__ZN6Sprite8TransferI24GenerateTypeTreeTransferEEvRT_
Bjc:__Z48Register_UnityEngine_Transform_SetAsFirstSiblingv
d0a:__ZN7SubMesh8TransferI24GenerateTypeTreeTransferEEvRT_
hDj:__ZN14Il2CppIMarshalC2Ev
i1f:_MonoProperty_get_CanWrite_m2124922514
kki:__ZN6il2cpp6icalls8mscorlib6SystemL16CheckMemberMatchI9FieldInfoNS_5utils10functional6FilterINSt3__212basic_stringIcNS8_11char_traitsIcEENS8_9allocatorIcEEEENS5_13VmStringUtils23CaseInsensitiveComparerEEEEEbPKT_PK11Il2CppClassSN_iRKT0_
wMk:_poll
gue:_Stream_BeginRead_m1985960185
e2b:__ZN13ProduceHelperI14Texture2DArrayLb0EE7ProduceE18MemLabelIdentifier18ObjectCreationMode
J9e:_MD4Managed_GG_m1462438360
Ygc:__Z53PlayableHandle_CUSTOM_INTERNAL_CALL_GetPlayableTypeOfR9HPlayable
Pac:__ZN9Transform23SetSiblingIndexInternalEib
Yre:_BinaryReader_CheckBuffer_m1059275266
Waa:__ZN13GfxDeviceGLES17DestroySubProgramEPN9ShaderLab10SubProgramE
Ot:__ZN7mecanim5human12HumanPoseSubERNS0_9HumanPoseERKS1_S4_
Jsh:_Vector3_Max_m2076081170
v9e:_MD4_Create_m2582504069
wjj:__ZN6il2cpp8metadata15GenericMetadata15GetGenericClassEiPK17Il2CppGenericInst
vwd:_Boolean_System_IConvertible_ToInt16_m977801621
hnb:__Z18Transfer_BlittableI14SafeBinaryReadLb0E10Matrix4x4fEvRK29SerializationCommandArgumentsR31RuntimeSerializationCommandInfo
BCb:__Z24GetFixedBehaviourManagerv
DLb:__ZN12FlareManager9UpdateJobEP25FlareManagerUpdateJobData
mii:__ZN6il2cpp2vm10ThreadPool4WaitEP17Il2CppAsyncResultPPv
xIk:_Plane__ctor_m730644932_AdjustorThunk
GKk:_vfprintf
Ulc:__ZN10GUIManager12AddGUIScriptER8ListNodeI13MonoBehaviourE
tMa:__ZN19ShaderPropertySheet20ReservePropertyCountEj
lMb:__ZN20DynamicPropertySheetD0Ev
EYb:__ZN14SafeBinaryRead17RegisterConverterEPKcS1_PFbPvRS_E
PX:__ZN35RegisterRuntimeInitializeAndCleanup8RegisterEPFvPvES2_iS0_
y4e:_ReadOnlyCollection_1_System_Collections_IList_Clear_m2600246370_gshared
see:_DSAManaged_NormalizeArray_m2287089393
Fjc:__Z21Object_CUSTOM_DestroyP12Il2CppObjectf
H0g:_InternalEnumerator_1_System_Collections_IEnumerator_get_Current_m2389982234_AdjustorThunk
Ehb:__ZN8Material26ResetAllCachedMaterialDataEP6Shader
iJc:_UNITY_TT_Get_MM_Var
OOh:__ZN6il2cpp6icalls8mscorlib6System7Decimal13decimal2Int64EP19il2cpp_decimal_reprPx
aa:invoke_diddi
ccd:_ExecuteEvents__cctor_m288775360
nLc:__ZNK2UI6Canvas13GetRenderModeEv
BJd:_Double_TryParseStringConstant_m2585405703
tmb:__Z18Transfer_BlittableI14SafeBinaryReadLb0EiEvRK29SerializationCommandArgumentsR31RuntimeSerializationCommandInfo
r8h:__ZN6il2cpp2vm13MetadataCache30GetPropertyDefinitionFromIndexEi
R4g:_ResourceEnumerator__ctor_m1679839941
Jwi:__ZNK6il2cpp2vm14TypeNameParser9CurrentIsEc
K_c:_RijndaelTransform_Clear_m1652144089
Mse:_MonoIO_GetException_m2577367044
UTc:__ZN22BaseUnityConnectClient17InitializeSessionERKN4core12basic_stringIcNS0_20StringStorageDefaultIcEEEES6_N19CloudServiceHandler13InitModeFlagsE
pij:___cxx_global_var_init_1_14630
MHg:_Enumerator_MoveNext_m1404007384_gshared
xBe:_NumberFormatter_get_IsZero_m1325357749
fHk:_Mesh_PrintErrorCantAccessIndices_m2990602703
bWk:_emscripten_glDeleteBuffers__wrapper
Jjg:__Z121RuntimeInvoker_Void_t1841601450_Single_t2076509932_Single_t2076509932_Single_t2076509932_Single_t2076509932_RuntimeObjectPFvvEPK10MethodInfoPvPS4_
RSd:_Enum_ToObject_m322320225
ucc:__ZN13MonoBehaviour34StopCoroutineFromEnumeratorManagedE18ScriptingObjectPtr
l2c:_X509Certificate__ctor_m3860837120
hmg:__Z109RuntimeInvoker_RuntimeObject_Ray_t2469606224_Single_t2076509932_Int32_t2071877448_RuntimeObject_RuntimeObjectPFvvEPK10MethodInfoPvPS4_
t4e:_ReadOnlyCollection_1_System_Collections_Generic_IListU3CTU3E_set_Item_m3663361643_gshared
$D:__ZN7mecanim9animation14AvatarConstant15InitializeClassEv
lbd:_EventTrigger_OnScroll_m626934407
O8a:__ZN30RuntimeInitializeOnLoadManager8TransferI18StreamedBinaryReadILb0EEEEvRT_
_Vf:_TypeBuilder_not_supported_m3178173643
ABc:_UNITY_tt_face_load_pclt
Pbc:__ZL34GetComponentsImplementationRecurseILb1ELi0ELi2EEbR10GameObjectbRK17CompareParametersRK39GetComponentsImplementation_ReturnValue
oOj:__ZN6il2cpp6icalls8mscorlib6System9Threading5Mutex20CreateMutex_internalEbP12Il2CppStringPb
lni:__ZNSt3__217__compressed_pairINS_15__tree_end_nodeIPNS_16__tree_node_baseIPvEEEENS_9allocatorINS_11__tree_nodeIP11Il2CppClassS3_EEEEEC2Ev
XAd:_ArrayListWrapper_Remove_m1105489978
HLb:__ZNK6Camera18WorldToScreenPointERK8Vector3fPb
Qvh:_GUISkin__ctor_m2824039590
Uwd:_Boolean_CompareTo_m3691698947_AdjustorThunk
gfj:__ZNKSt3__26vectorIPK11Il2CppClassNS_9allocatorIS3_EEE8max_sizeEv
NEd:_HashKeys_CopyTo_m3566668422
Vna:__Z18IsCompressedFormat14GraphicsFormat
Syd:_Convert_ToSByte_m2665932200
t$:__ZNSt3__227__insertion_sort_incompleteIRPFbRKN18AwakeFromLoadQueue4ItemES4_EPS2_EEbT0_S9_T_
VUf:_ILGenerator_label_fixup_m1325994348
fSj:__ZNSt3__26__treeINS_12__value_typeIPFvvEPK10MethodInfoEENS_19__map_value_compareIS3_S7_NS_4lessIS3_EELb1EEENS_9allocatorIS7_EEE12__node_allocEv
P3h:__ZN14dense_hash_mapI10KeyWrapperIN6il2cpp5utils13dynamic_arrayIPK10Il2CppTypeLj4EEEEPFvvENS1_8metadata19Il2CppSignatureHashENS8_14EqualsComparerINSB_22Il2CppSignatureCompareEEENSt3__29allocatorINSG_4pairIKS8_SA_EEEEE15set_deleted_keyERSJ_
Rvg:_Navigation_Equals_m4214630671_AdjustorThunk
F1e:_ReadOnlyCollection_1_System_Collections_Generic_IListU3CTU3E_set_Item_m257196015_gshared
E_f:_FieldInfo_GetPseudoCustomAttributes_m2500972355
gYa:__ZN26EnlightenSystemInformation8TransferI14SafeBinaryReadEEvRT_
Z7d:_Array_InternalArray__get_Item_TisLink_t2723257478_m2281261655_gshared
jVc:__ZN11UnityEngine15PlatformWrapper20SetPlayerPrefsUInt64ERKN4core12basic_stringIcNS1_20StringStorageDefaultIcEEEEy
Z3a:__ZN12MeshRendererD0Ev
dP:__ZN12AudioManager35GetCurrentSpatializerDefinitionNameEv
PDd:_Hashtable__ctor_m2702360557
yh:_utime
gth:_Vector4_get_sqrMagnitude_m641641704_AdjustorThunk
oB:__Z28SetExposedSkeletonTransformsRKN7mecanim9animation14AvatarConstantERKN11UnityEngine9Animation30AnimatorGenericBindingConstantERKNS_8skeleton13SkeletonPoseTIN4math4trsXEEERKNSA_INSB_7affineXEEERNS5_21AvatarBindingConstantEy
ZXd:_PlayableHandle_IsPlayableOfType_TisAnimationLayerMixerPlayable_t3057952312_m2522157783_AdjustorThunk
h8e:_PrimalityTest_Invoke_m4058801829
on:FUNCTION_TABLE_viiiiif
_yf:_RemotingConfiguration_SetCustomErrorsMode_m1844153208
tn:FUNCTION_TABLE_viiiiii
kVd:_CultureInfo_GetFormat_m3560116485
NC:__ZN7mecanim9animation22DestroyAvatarWorkspaceEPNS0_15AvatarWorkspaceERNS_6memory9AllocatorE
eeh:_AnchorInfo_get_IsPosition_m3791659233
RSb:__ZN15LightmapSTCacheC2ER13BatchRendererR15RenderLoopStats
qlc:__ZNSt3__210__list_impIN10GUIManager12SortedScriptE11memory_poolIS2_EE5clearEv
OUa:__ZN14PlayableOutput17SetSourcePlayableEP8Playable
G8a:__ZNSt3__26vectorIN4core12basic_stringIcNS1_20StringStorageDefaultIcEEEE13stl_allocatorIS5_L18MemLabelIdentifier13ELi16EEE8__appendEj
pzf:_TrackingServices__cctor_m3639412334
dC:__ZN7mecanim9animation29MotionOutputGetDeltaTransformEPKNS0_12MotionOutputE
a0b:__Z13RegisterClassI16GraphicsSettingsEvv
rPj:__ZNSt3__26__treeIPFvvENS_4lessIS2_EENS_9allocatorIS2_EEE10__end_nodeEv
wE:__ZN8Animator14OnAddComponentEPN5Unity9ComponentE
CQe:_List_1_CheckMatch_m1184924052_gshared
Yic:__Z43Transform_CUSTOM_INTERNAL_get_localRotationP12Il2CppObjectP11Quaternionf
S4b:__ZZL23RegisterLightPropertiesR22GenericPropertyBindingEN20Wrapper_LightColorr013SetFloatValueEPvf
bi:_emscripten_glGetTexParameteriv
Eaf:_RSAManaged_ImportParameters_m3060955884
r7g:_ChannelData_CopyFrom_m4049054607
j0b:__Z13RegisterClassI4MeshEvv
lUa:__ZN8PlayableD0Ev
x1h:__ZNK26InteropDataToTypeConverterclERK17Il2CppInteropData
IH:__ZN12AudioManager8TransferI19StreamedBinaryWriteILb0EEEEvRT_
Nue:_WriteDelegate_Invoke_m2103848735
SAh:_Locale_GetText_m512920887
Iyf:_RemotingConfiguration_get_ProcessId_m3870172209
Lle:_SortKey_ToString_m2406913228
$jb:__ZN22LocalFileSystemHandler9MakeLocalER13FileEntryDatab
PAj:__ZN6il2cpp2vm8Profiler10AllocationEP12Il2CppObjectP11Il2CppClass
IId:_Convert_ToDateTime_m1020507389
azc:__ZNSt3__23mapIN20TextRenderingPrivate7FontRefENS1_6OSFontENS_4lessIS2_EENS_9allocatorINS_4pairIKS2_S3_EEEEEixERS8_
hGk:_Material_SetInt_m2847439171
H8:__Z13FormatOrderedPKcz
Kse:_Path_IsPathRooted_m1347207448
DAf:_ObjectManager_RegisterObjectInternal_m879109503
HVd:_Array_get_swapper_TisVector4_t2243707581_m97441823_gshared
pwc:__ZN14SafeBinaryRead21TransferSTLStyleArrayI10vector_mapINSt3__24pairIttEEfN20TextRenderingPrivate8FontImpl14KerningCompareENS2_9allocatorINS3_IS4_fEEEEEEEvRT_17TransferMetaFlags
F0b:__Z13RegisterClassI15QualitySettingsEvv
Syj:__ZN6il2cpp2vm6String21InitializeEmptyStringEP11Il2CppClass
ASb:__ZN25DeferredRenderLoopScratchD0Ev
jw:__ZN27AnimationLayerMixerPlayable14SetInputWeightEif
Kt:__ZN7mecanim9animation17EvaluateHumanPoseERKNS0_18ClipMuscleConstantERKNS0_15ClipMuscleInputEPKfRKNS0_12MotionOutputERNS_5human9HumanPoseE
Lvi:__ZN6il2cpp2osL14FindFileHandleERK4stat
KLj:__ZNSt3__24pairIKNS_12basic_stringIcNS_11char_traitsIcEENS_9allocatorIcEEEEPFvvEEC2IJOS6_EJEEENS_21piecewise_construct_tENS_5tupleIJDpT_EEENSE_IJDpT0_EEE
Zcb:__ZN15dense_hashtableINSt3__24pairIKiN4core17string_with_labelILi1EEEEEi18SInt32HashFunctionN14dense_hash_mapIiS5_S7_NS0_8equal_toIiEE13stl_allocatorIS6_L18MemLabelIdentifier1ELi16EEE9SelectKeyESA_SD_E9copy_fromERKSG_j
wIa:__ZN6Camera11ResetAspectEv
ONf:_Type_get_IsGenericType_m3396841573
o7a:__ZN15ResourceManagerD0Ev
qpf:_X509BasicConstraintsExtension_get_HasPathLengthConstraint_m3788532759
sMa:__ZNK17InstancedPropInfo22FillInstancePropertiesER19ShaderPropertySheetjPK17BatchInstanceDatajRK15RenderNodeQueue
tHa:__ZN22CreateGpuProgramOutputD2Ev
MO:__ZN13ProduceHelperI13AudioListenerLb0EE7ProduceE18MemLabelIdentifier18ObjectCreationMode
nNh:_WillRenderCanvases_Invoke_m4267547094
HHd:_DateTimeFormatInfo_GetInstance_m3133223810
B7e:_ModulusRing_BarrettReduction_m2802101099
kjb:__ZN12HandlerChain4OpenER13FileEntryData14FilePermission16FileAutoBehavior
CIi:__ZN15dense_hashtableINSt3__24pairIK10KeyWrapperINS1_IPK10MethodInfoP11Il2CppClassEEEjEES9_17ReflectionMapHashIS8_EN14dense_hash_mapIS9_jSD_NS9_14EqualsComparerINS0_8equal_toIS8_EEEENS0_9allocatorISB_EEE9SelectKeyESI_SK_E6insertERKSB_
NIg:_ValueCollection_System_Collections_Generic_ICollectionU3CTValueU3E_Remove_m4188992987_gshared
t2:__ZN14FileCacherReadD2Ev
yab:__ZN13RendererScene23UpdatePreviousFrameDataEii
g0c:_RSAPKCS1SignatureDeformatter_VerifySignature_m1825067195
Ynh:_RectTransform_remove_reapplyDrivenProperties_m52143263
dIh:__ZL25UnresolvedVirtualCall_123P12Il2CppObjectffPK10MethodInfo
kec:__Z50Register_UnityEngine_CullingGroup_FinalizerFailurev
eDe:_KeyValuePair_2_ToString_m2613351884_gshared
kkj:__ZN6il2cpp2gcL13GetHandleSlotEj
gbb:__ZN27UnloadUnusedAssetsOperationD0Ev
sni:__ZN6il2cpp6icalls8mscorlib6SystemL20GetMethodsByNameImplINS_5utils10functional6FilterINSt3__212basic_stringIcNS7_11char_traitsIcEENS7_9allocatorIcEEEENS4_13VmStringUtils23CaseInsensitiveComparerEEEEEP11Il2CppArrayPK10Il2CppTypejRKT_
Qtk:__ZL69ColorBlock_t2652774230_CustomAttributesCacheGenerator_m_DisabledColorP21CustomAttributesCache
$wg:_Scrollbar__ctor_m2244981801
hPh:_AnimationLayerMixerPlayable__ctor_m678972180
K0c:_SHA256Managed_HashCore_m4111458495
$Ud:_CultureInfo_get_CompareInfo_m3085280862
EBf:_ObjectManager_RecordDelayedFixup_m1895730844
xF:__ZN9AudioClip23VirtualRedirectTransferER18StreamedBinaryReadILb0EE
Vdf:_ClientSessionInfo_CheckDisposed_m1394638186
uDf:_SByte_Parse_m2544167007
N5c:_Single_CompareTo_m2081476257
iej:__ZNSt3__26vectorIPK11Il2CppClassNS_9allocatorIS3_EEE9push_backERKS3_
Hbe:_BigInteger__ctor_m2945783161
Fff:_TlsClientHello_Update_m1723542631
unh:_RectOffset_set_top_m1587840032
Qme:_IndexOutOfRangeException__ctor_m3497760912
Bj:_glCopyTexSubImage2D
Ayf:_RealProxy_InternalGetTransparentProxy_m3415358600
wEe:_Enumerator_System_Collections_IEnumerator_Reset_m2200349770_gshared
LAj:__ZN6il2cpp6icalls8mscorlib6System7Convert24InternalFromBase64StringEP12Il2CppStringb
N1c:_SymmetricAlgorithm_CreateDecryptor_m4240570785
PCg:_Text_get_preferredWidth_m3352156860
lOc:__ZN2UI13CanvasManager14GetRenderOrderEPKNS_6CanvasE
dnb:__Z18Transfer_BlittableI14SafeBinaryReadLb0E5RectTIfEEvRK29SerializationCommandArgumentsR31RuntimeSerializationCommandInfo
GWc:__ZNK20UnityWebRequestProtoI24UnityWebRequestTransport16AtomicRefCounter14RedirectHelper14ResponseHelper15DownloadHandler13UploadHandler12HeaderHelper14AsyncOperationE14GetUploadBytesEv
J2e:_ReadOnlyCollection_1_System_Collections_Generic_IListU3CTU3E_RemoveAt_m878653284_gshared
vVd:_DateTimeFormatInfo_GetFormat_m3676195179
bha:__ZN14GfxContextGLES14GetFramebufferEv
sWk:_emscripten_glGenVertexArrays__wrapper
Qja:__ZN6prcoreL21CreateRemapAnyBlitterE13TextureFormatS0_
N9b:__ZN17AnimationCurveTplIfE16StripInvalidKeysEv
j0d:_Array_InternalArray__ICollection_Add_TisKeyValuePair_2_t3716250094_m2381539361_gshared
HDk:_InvokableCall_add_Delegate_m1994890856
Rie:_X509Extension_WriteLine_m2850991173
bNc:__ZNK2UI6Canvas17GetSortingLayerIDEv
Yui:_il2cpp_method_has_attribute
$$b:__Z13RegisterClassI17GlobalGameManagerEvv
PZa:__ZN8Renderer24SetupNewRendererForSceneEv
RRi:__ZNSt3__24pairIK10KeyWrapperIPK22Il2CppGenericParameterEPK24MonoGenericParameterInfoEC2IRSA_vEEOT_
fXd:_Array_InternalArray__ICollection_Remove_TisInt64_t909078037_m2653583130_gshared
qMh:_TextGenerator_Populate_Internal_m65392018
jJf:_Thread_get_ExecutionContext_m922067206
j7d:_BaseInvokableCall_ThrowOnInvalidArg_TisInt32_t2071877448_m2823200566_gshared
xsc:__Z35Transfer_Blittable_FixedBufferFieldI8JSONReadtEvRK29SerializationCommandArgumentsR31RuntimeSerializationCommandInfo
n7b:__ZN14PlayableOutput6HandleEv
x$a:__ZNK6Sprite22GetTypeVirtualInternalEv
nn:FUNCTION_TABLE_iiiiiiiiiiiiii
gfg:__Z100RuntimeInvoker_Void_t1841601450_SByte_t454417549_SByte_t454417549_Int32_t2071877448_SByte_t454417549PFvvEPK10MethodInfoPvPS4_
BOa:__ZN11Tetrahedron8TransferI24GenerateTypeTreeTransferEEvRT_
rCc:_UNITY_tt_get_cmap_info
Qtb:__Z29Transfer_Blittable_ArrayFieldI24GenerateTypeTreeTransfer5RectTIiEEvRT_R9ArrayInfoRK23StaticTransferFieldInfo
jPa:__ZN16ReflectionProbes8ScheduleEN18ReflectionProbeJob7JobTypeEP15ReflectionProbei
AYe:_Collection_1_IsFixedSize_m3675221982_gshared
FFe:_Enumerator_MoveNext_m3293920409_AdjustorThunk
_ya:__Z18IsDirectoryCreatedRKN4core12basic_stringIcNS_20StringStorageDefaultIcEEEE
rgj:__ZNSt3__210unique_ptrINS_11__tree_nodeINS_12__value_typeIP24Il2CppReflectionAssemblyPvEES5_EENS_22__tree_node_destructorINS_9allocatorIS7_EEEEE11get_deleterEv
YLc:__ZN2UI13CanvasManagerD2Ev
mmj:__ZNSt3__24pairIP12Il2CppObjectN6il2cpp2gc9CachedCCWEEC2IRS2_RS5_vEEOT_OT0_
d3g:_Comparer_1__cctor_m3112251759_gshared
Aof:_X509KeyUsageExtension_ToString_m1992050580
Hyc:_UNITY_FT_GlyphLoader_Done
jRf:_ValueType_DefaultEquals_m2245650968
reh:_BalancingGroup__ctor_m2474435406
a7g:_ConstructionCall__ctor_m1143766850
e3g:_Comparer_1_System_Collections_IComparer_Compare_m3203078743_gshared
PAf:_ObjectReader_ReadArrayOfString_m3752210963
fDc:_tt_cmap14_char_var_index
rAb:__Z35Transfer_Blittable_FixedBufferFieldI18StreamedBinaryReadILb0EEdEvRK29SerializationCommandArgumentsR31RuntimeSerializationCommandInfo
AEc:_psh_globals_new
Bue:_FileStream_Seek_m950719389
TId:_Decimal_stripStyles_m294582157
T9:__ZN9GfxDevice20SetMaxBufferedFramesEi
bLe:_List_1_RemoveAll_m4125997475_gshared
n7f:__Z98RuntimeInvoker_Void_t1841601450_Int32_t2071877448_Int32_t2071877448_RuntimeObject_SByte_t454417549PFvvEPK10MethodInfoPvPS4_
xQk:dynCall_vdd
MNc:__ZN2UIL17UnloadAllCanvasesEv
ZZb:__Z23ConvertIntegerToTypePtrIsEbPvR14SafeBinaryRead
N2j:__ZL54_MethodBase_t1935530873_CustomAttributesCacheGeneratorP21CustomAttributesCache
U9f:__Z96RuntimeInvoker_Void_t1841601450_SByte_t454417549_RuntimeObject_SByte_t454417549_SByte_t454417549PFvvEPK10MethodInfoPvPS4_
sBd:_FixedSizeArrayListWrapper_Remove_m1359458911
eBk:_CameraCallback_Invoke_m2640212610
Yja:__ZN6prcoreL29inner_stretch_rgb565_bilinearEPKNS_9InnerInfoE
Nfh:_Uri__ctor_m3927533881
LDi:__ZNK15dense_hashtableINSt3__24pairIK10KeyWrapperINS1_IPK14Il2CppAssemblyP11Il2CppClassEEEjEES9_17ReflectionMapHashIS8_EN14dense_hash_mapIS9_jSD_NS9_14EqualsComparerINS0_8equal_toIS8_EEEENS0_9allocatorISB_EEE9SelectKeyESI_SK_E12test_deletedEj
VPc:__Z33Canvas_Get_Custom_PropWorldCameraP12Il2CppObject
bCg:_Text_get_mainTexture_m813502234
hUj:__ZN6il2cpp8metadata19Il2CppSignatureHash4HashERKNS_5utils13dynamic_arrayIPK10Il2CppTypeLj4EEE
LRb:__ZNK14RenderSettings19GetFlatAmbientColorEv
qja:__ZN6prcoreL10inner_flipILj4EEEvPhS1_j
$5a:__ZN18StreamedBinaryReadILb0EE21TransferSTLStyleArrayI10vector_mapIPKN5Unity4TypeE7Hash128NSt3__24lessIS6_EENS8_9allocatorINS8_4pairIS6_S7_EEEEEEEvRT_17TransferMetaFlags
fy:__ZNK27StateMachineBehaviourPlayer15IsSenderEnabledEv
Y3g:_Enumerator_VerifyState_m2118679243_gshared
Iod:_InputField_get_shouldHideMobileInput_m3694613599
wjc:__Z40Register_UnityEngine_Transform_SetParentv
$dg:__Z56RuntimeInvoker_TimeSpan_t3430258949_TimeSpan_t3430258949PFvvEPK10MethodInfoPvPS4_
o1a:__ZN14Texture2DArray17UploadToGfxDeviceEv
d2e:_ReadOnlyCollection_1_System_Collections_Generic_IListU3CTU3E_Insert_m4216310986_gshared
R_e:_ReadOnlyCollection_1_System_Collections_Generic_IListU3CTU3E_set_Item_m1532495847_gshared
oJ:__Z14FMODMemoryFreePvjPKc
jod:_Image_AddQuad_m1600600902
RFc:_cf2_glyphpath_moveTo
VNd:_DateTimeOffset__ctor_m1796624924
xad:_BaseRaycaster_OnDisable_m1716508791
Ju:__ZN7mecanim23TransformValueArrayLoopEiiiRKN4math4trsXES3_RNS_10ValueArrayEf
Plc:__ZN5IMGUI14GUIWindowStateD2Ev
sHj:_GC_is_heap_ptr
s0i:__GLOBAL__sub_I_Assembly_cpp
yqh:_TouchScreenKeyboard_Open_m2033426733
qB:__ZN7mecanim5human10RetargetToEPKNS0_5HumanEPKNS0_9HumanPoseES6_RKN4math4trsXEPS4_PNS_8skeleton13SkeletonPoseTIS8_EESF_
Bu:__ZN7mecanim9animation8SeekClipERKNS0_12StreamedClipERNS0_18StreamedClipMemoryEf
gm:_emscripten_glIsTexture
_Ad:_ArrayListWrapper_CopyTo_m793444109
Nk:_emscripten_glHint
YIc:_ft_var_readpackeddeltas
dNd:_DateTime_AddMilliseconds_m1813199744_AdjustorThunk
lYf:_MethodBuilder_GetParameterCount_m467267889
Uwb:__Z35Transfer_Blittable_FixedBufferFieldI18StreamedBinaryReadILb1EEtEvRK29SerializationCommandArgumentsR31RuntimeSerializationCommandInfo
Unh:_RectTransform_INTERNAL_get_pivot_m4220117653
uaf:_RSAManaged__ctor_m1680944437
jm:_SDL_UpperBlit
fPa:__Z35GetTextureDecodeValuesWithIntensity16TextureUsageMode17TextureColorSpace10ColorSpacef
cyd:_Byte_GetHashCode_m2885528842_AdjustorThunk
VSi:__ZN15dense_hashtableINSt3__24pairIK10KeyWrapperINS1_IPK9EventInfoP11Il2CppClassEEEjEES9_17ReflectionMapHashIS8_EN14dense_hash_mapIS9_jSD_NS9_14EqualsComparerINS0_8equal_toIS8_EEEENS0_9allocatorISB_EEE9SelectKeyESI_SK_E15set_deleted_keyERKSB_
rKg:_Dictionary_2_OnDeserialization_m2092139626_gshared
chj:__ZN6il2cpp2vm5Image20EmbeddedResourceDataC2ENS0_22EmbeddedResourceRecordEPv
JCb:__ZN14SafeBinaryRead20OverrideRootTypeNameEPKc
x2:__ZN14FileCacherRead16UnlockCacheBlockEj
Whe:_X509Certificate_GetUnsignedBigInteger_m3491353542
Jc:_emscripten_glUniform1f
tjb:__ZNK12HandlerChain4SizeERK13FileEntryData
gzc:__Z20ParseImageParametersR11UTF16StringRiRN20TextRenderingPrivate16TextFormatChangeE
Oc:_emscripten_glUniform1i
msb:__Z18Transfer_BlittableI24GenerateTypeTreeTransferLb1EN4math12int3_storageEEvRK29SerializationCommandArgumentsR31RuntimeSerializationCommandInfo
zY:__Z33UnregisterDeviceEventCallbackImplPFv23UnityGfxDeviceEventTypeE
hxg:__Z14bankers_roundff
Ceb:__ZN9ShaderLab16SerializedTagMapaSERKS0_
ER:__ZN11UnityEngine15CloudWebService16SessionContainer20RestoreSessionHeaderERKN4core12basic_stringIcNS2_20StringStorageDefaultIcEEEES8_RNS0_13SessionHeaderE
JNd:_DateTime_ToString_m1117481977
IXf:_GenericTypeParameterBuilder_GetGenericArguments_m277381309
BC:__ZN11UnityEngine9Animation27CreateAvatarBindingConstantER9TransformPKN7mecanim9animation14AvatarConstantERNS3_6memory9AllocatorE
$Pf:_UInt64_System_IConvertible_ToDateTime_m2412118561
Icc:__ZN9BlobWriteC2ER13dynamic_arrayIhLj16EE24TransferInstructionFlags19BuildTargetPlatform
H0:__ZN14MessageHandler3GetEv
ad:_emscripten_glAttachShader
W0e:_ReadOnlyCollection_1__ctor_m1539890895_gshared
S9:__ZN9GfxDevice13SetActiveTierE12GraphicsTier
pEe:_Enumerator_System_Collections_IEnumerator_get_Current_m3079057684_AdjustorThunk
I4a:__ZNSt3__26vectorIN4core12basic_stringIcNS1_20StringStorageDefaultIcEEEENS_9allocatorIS5_EEE6assignIPS5_EENS_9enable_ifIXaasr21__is_forward_iteratorIT_EE5valuesr16is_constructibleIS5_NS_15iterator_traitsISC_E9referenceEEE5valueEvE4typeESC_SC_
Mee:_KeyPairPersistence_get_UserPath_m3433052783
jWj:__ZL58Decimal_t724701077_CustomAttributesCacheGenerator_MinusOneP21CustomAttributesCache
Mmb:__Z18Transfer_BlittableI14SafeBinaryReadLb0E11QuaternionfEvRK29SerializationCommandArgumentsR31RuntimeSerializationCommandInfo
$zb:__Z18Transfer_BlittableI18StreamedBinaryReadILb0EELb1E12PropertyNameEvRK29SerializationCommandArgumentsR31RuntimeSerializationCommandInfo
$V:_tlsf_walk_heap
uhe:_PKCS12_Decode_m731190390
SZg:_InternalEnumerator_1_get_Current_m1550231132_gshared
pRf:_Version_CheckedSet_m76493673
jb:invoke_vif
kb:invoke_vid
rOk:__ZNSt3__212basic_stringIcNS_11char_traitsIcEENS_9allocatorIcEEE6insertEjPKc
Z6j:__ZL67UnverifiableCodeAttribute_t765455733_CustomAttributesCacheGeneratorP21CustomAttributesCache
lb:invoke_vii
gLb:__ZNK12ImageFilters8DoRenderER17ShaderPassContextP13RenderTextureS3_RKNSt3__26vectorI11ImageFilterNS4_9allocatorIS6_EEEE
Lxa:__ZN12TLSAllocatorI14StackAllocatorE16ThreadInitializeEP13BaseAllocator
wAd:_ArrayList_Sort_m2778059513
raa:__ZN9GfxDevice32UpdateStereoViewProjectionMatrixE21MonoOrStereoscopicEye
SHb:__ZN15dense_hashtableINSt3__24pairIKN4core12basic_stringIcNS2_20StringStorageDefaultIcEEEEP20ArchiveStorageReaderEES6_20StringHash32FunctionIS6_EN14dense_hash_mapIS6_S9_SC_NS0_8equal_toIS6_EE13stl_allocatorISA_L18MemLabelIdentifier55ELi16EEE9SelectKeyESF_SI_E12resize_deltaEjj
Zfj:__ZNSt3__210unique_ptrINS_11__tree_nodeINS_12__value_typeIP24Il2CppReflectionAssemblyPvEES5_EENS_22__tree_node_destructorINS_9allocatorIS7_EEEEED2Ev
and:_LayoutGroup_SetChildAlongAxis_m2732017156
aPc:__Z41CanvasRenderer_CUSTOM_DisableRectClippingP12Il2CppObject
l9e:_MD2_Create_m539024737
igg:__Z112RuntimeInvoker_Void_t1841601450_RuntimeObject_Int32_t2071877448_Int32_t2071877448_RuntimeObject_SByte_t454417549PFvvEPK10MethodInfoPvPS4_
aCa:__ZN25SingleBlockMemoryFileDataD0Ev
Vxa:__ZNSt3__26vectorI14ConstantStringNS_9allocatorIS1_EEE6assignINS_11__wrap_iterIPS1_EEEENS_9enable_ifIXaasr21__is_forward_iteratorIT_EE5valuesr16is_constructibleIS1_NS_15iterator_traitsISA_E9referenceEEE5valueEvE4typeESA_SA_
zR:__ZN11UnityEngine15CloudWebService16SessionContainer21ConvertFromFolderTimeERKN4core12basic_stringIcNS2_20StringStorageDefaultIcEEEEPjPt
xob:__ZNSt3__26vectorI8GUIStyle13stl_allocatorIS1_L18MemLabelIdentifier1ELi16EEE7reserveEj
x$d:_Array_InternalArray__IndexOf_TisUInt32_t2149682021_m3231515987_gshared
a2b:__Z31CalculateHierarchyTransformType23TransformAccessReadOnly
y0b:__Z13RegisterClassI11TimeManagerEvv
fJ:__ZN4FMOD8ChannelI11setPositionEjj
M8f:__Z136RuntimeInvoker_IntPtr_t_RuntimeObject_Int32_t2071877448_Int32_t2071877448_Int32_t2071877448_Int32_t2071877448_MonoIOErrorU26_t1029615899PFvvEPK10MethodInfoPvPS4_
TEj:_GC_set_fl_marks
uaa:__ZN9GfxDevice17SetStereoViewportE15StereoscopicEyeRK5RectTIiE
H7:__ZN17BaseObjectManager13StaticDestroyEPv
_Ik:_ClickCount_AddCount_m634862334
T2j:__ZL56_ParameterInfo_t470209990_CustomAttributesCacheGeneratorP21CustomAttributesCache
DOd:_DBNull_System_IConvertible_ToChar_m3344298044
Rah:_LinkStack_Push_m2660199875
_H:__ZN4FMOD6Reverb13setPropertiesEPK22FMOD_REVERB_PROPERTIES
LVi:__ZN15dense_hashtableINSt3__24pairIK10KeyWrapperIP11Il2CppClassES4_EES5_N6il2cpp8metadata16SZArrayClassHashEN14dense_hash_mapIS5_S4_SA_NS5_14EqualsComparerINS9_19SZArrayClassCompareEEENS0_9allocatorIS7_EEE9SelectKeyESE_SG_E5clearEv
UMb:__ZN9DepthPass13PrepareSubsetEjRK10RenderNodeifRK17ShaderReplaceData
Thh:_X509CertificateCollection_Add_m4008705157
l9b:__Z35SetMeshComponentFromArrayFromScriptR4Mesh30InternalScriptingShaderChannel34InternalScriptingVertexChannelTypei17ScriptingArrayPtri
OXi:__ZNSt3__216allocator_traitsINS_9allocatorIN6il2cpp8metadata18GenericArrayMethodEEEE9constructIS4_JS4_EEEvRS5_PT_DpOT0_
P2e:_ReadOnlyCollection_1_System_Collections_IList_Add_m3806843030_gshared
IVe:_Collection_1_IsFixedSize_m1816795498_gshared
cq:__ZN4core20StringStorageDefaultIcE6assignEPKcj
Olj:__ZN15dense_hashtableINSt3__24pairIK10KeyWrapperIP12Il2CppObjectEN6il2cpp2gc9CachedCCWEEES5_NS7_5utils11PointerHashIS3_EEN14dense_hash_mapIS5_S9_SD_NS5_14EqualsComparerINS0_8equal_toIS4_EEEENS0_9allocatorISA_EEE9SelectKeyESI_SK_E3endEv
Jdd:_MouseButtonEventData_ReleasedThisFrame_m482758300
Roh:_SceneManager_Internal_SceneLoaded_m1729738062
yUi:__ZN15dense_hashtableINSt3__24pairIK10KeyWrapperINS1_IP11Il2CppClassjEEES4_EES6_N6il2cpp8metadata14ArrayClassHashEN14dense_hash_mapIS6_S4_SB_NS6_14EqualsComparerINSA_17ArrayClassCompareEEENS0_9allocatorIS8_EEE9SelectKeyESF_SH_E9copy_fromERKSK_j
xBd:_ReadOnlyArrayListWrapper_set_Item_m2199017141
bWb:__ZN6Camera6SetFarEf
Ohh:_DeriveBytes_DeriveIV_m3343375195
Qzc:_UNITY_FT_Init_Class_ft_bitmap_glyph_class
A$c:_RNGCryptoServiceProvider_GetBytes_m167497991
Gka:__ZN6prcoreL12RemapGenericI17TexFormatABGR888817TexFormatARGB8888EEvPKNS_9InnerInfoE
lDa:__ZN11GameManager17MainThreadCleanupEv
tph:_SetupCoroutine_InvokeMember_m170868586
HQc:__Z50Register_UnityEngine_UISystemProfilerApi_EndSamplev
Doj:__ZN6il2cpp2vm27StacktraceSentryMethodStackC2Ev
IVf:_TypeBuilder_get_Assembly_m492491492
Hb:invoke_vffff
OHc:_UNITY_tt_slot_init
LIb:__ZZ23InitPlayerLoopCallbacksvEN41PostLateUpdateUpdateResolutionRegistrator7ForwardEv
u_d:_Array_FindLastIndex_TisRuntimeObject_m986818300_gshared
HBb:__Z25scripting_array_class_get17ScriptingClassPtrj
zqc:__ZL22Transfer_ManagedObjectI9JSONWriteLb1EEvRK29SerializationCommandArgumentsR31RuntimeSerializationCommandInfo
fF:__ZNK10SampleClip22GetTypeVirtualInternalEv
zba:__ZN9GfxDevice20DestroyRenderSurfaceER12ObjectHandleI17RenderSurface_TagP17RenderSurfaceBaseE
HUh:__ZNSt3__214__split_bufferIPK10Il2CppTypeRNS_9allocatorIS3_EEE9__end_capEv
x8:__ZN18SpriteAtlasManagerC2Ev
jua:__ZN9GfxDevice22UpdateComputeResourcesEjPK9TextureIDPK16TextureDimensionPKijPKjjPK15ComputeBufferIDS7_PK20ComputeBufferCounterjSC_S2_S5_S9_SF_
uGa:__ZN12_GLOBAL__N_15qAsinEff
E6d:_Dictionary_2_Do_ICollectionCopyTo_TisKeyValuePair_2_t3749587448_m2536766696_gshared
Mxa:__ZN12TLSAllocatorI14StackAllocatorE13ThreadCleanupEv
vmj:__ZNSt3__23mapIjN6il2cpp2os17SocketHandleEntryENS_4lessIjEENS_9allocatorINS_4pairIKjS3_EEEEEC2Ev
y_d:_Array_IndexOf_TisRuntimeObject_m1815604637_gshared
rAj:__ZThn4_N6il2cpp2vm13ComObjectBase16MarshalInterfaceEP13Il2CppIStreamRK10Il2CppGuidPvjS7_j
B2a:__ZN4Mesh27SwizzleVertexColorsIfNeededEb
sEb:__Z27FindActiveTransformWithPathPKc
ilh:_PropertyName_op_Inequality_m2830582941
_ie:_SecurityParser_OnEndElement_m2909940377
YFa:__ZNK6Camera7GetNearEv
Ona:__ZN7ApiGLES11UnmapBufferEjN2gl12BufferTargetE
FAj:__ZN6il2cpp5utilsL24Utf32CharToSurrogatePairEjRA2_Ds
SWa:__Z25GetNextAllowedTextureSizeib13TextureFormat
kEb:__ZN20LocalFileSystemWebGL4CopyER13FileEntryDataS1_
WLe:_List_1_CheckIndex_m4231572822_gshared
_T:__ZN19CloudServiceHandler6RetainEv
e4c:_StrongName_Equals_m67226644
ymc:__Z36Event_CUSTOM_Internal_SetNativeEventPv
xGa:__ZN12BaseRenderer20FlattenToRenderQueueER15RenderNodeQueueRK20DeprecatedSourceData
lye:_UnmanagedMemoryStream_get_Length_m587008850
ybb:__Z34scripting_liveness_calculation_endPv
okc:__ZNK19RectangleCellLayout13GetCellCenterEv
T4c:_SecurityFrame_InitFromRuntimeFrame_m45195821
Eqf:_X509Chain_IsSignedWith_m292245392
VLi:__ZN14dense_hash_mapI10KeyWrapperINSt3__24pairIPK12PropertyInfoP11Il2CppClassEEEj17ReflectionMapHashIS8_ENS9_14EqualsComparerINS1_8equal_toIS8_EEEENS1_9allocatorINS2_IKS9_jEEEEE6insertERKSI_
Xt:__ZN21AnimationClipPlayable22ProcessAnimationNoClipEPK35AnimationPlayableEvaluationConstantPK32AnimationPlayableEvaluationInputP33AnimationPlayableEvaluationOutput
aXd:_Array_InternalArray__ICollection_Remove_TisDateTime_t693205669_m1275668216_gshared
_0e:_ReadOnlyCollection_1_System_Collections_Generic_ICollectionU3CTU3E_Remove_m3751131234_gshared
$rc:__Z18Transfer_BlittableI8JSONReadLb0E8Vector3fEvRK29SerializationCommandArgumentsR31RuntimeSerializationCommandInfo
v7g:_ChannelServices__cctor_m3534779830
PZi:__ZN6il2cpp2vm6Thread6DetachEP12Il2CppThread
frh:_Transform_set_localRotation_m3053695533
ODc:_Render_Single_Pass
LJd:_Convert_ToInt16_m416789348
aFf:_EncoderExceptionFallback_Equals_m762170768
ECh:_EqualityComparer_1__cctor_m2666196678_gshared
gvc:__GLOBAL__sub_I_runtime_dynamics_2_cpp
gEg:_Enumerator_get_CurrentValue_m3147984131_AdjustorThunk
HC:__ZN7mecanim8skeleton30SkeletonBuildReverseIndexArrayEPiPKiPKNS0_8SkeletonES6_
Dkc:__Z19GetGUIBlendMaterialv
njg:__Z69RuntimeInvoker_Boolean_t3825574718_TextGenerationSettings_t2543476768PFvvEPK10MethodInfoPvPS4_
Osj:__ZN6il2cpp2os10ThreadImpl5SleepEjb
nYe:_Collection_1_InsertItem_m1073626529_gshared
cmj:__ZN14dense_hash_mapI10KeyWrapperIP12Il2CppObjectEN6il2cpp2gc9CachedCCWENS4_5utils11PointerHashIS1_EENS3_14EqualsComparerINSt3__28equal_toIS2_EEEENSB_9allocatorINSB_4pairIKS3_S6_EEEEE6insertERKSI_
smh:_Rect_get_center_m2903917731_AdjustorThunk
UVk:_glBindSampler__wrapper
bDa:__ZNSt3__26vectorIN20ArchiveStorageHeader12StorageBlockE13stl_allocatorIS2_L18MemLabelIdentifier55ELi16EEE8__appendEj
Hf:_emscripten_set_mouseup_callback
m7d:_BaseInvokableCall_ThrowOnInvalidArg_TisColor_t2020392075_m3638385415_gshared
_Xb:__ZNK18ScreenManagerWebGL8GetWidthEv
pFh:_AudioExtensionManager_GetListenerSpatializerExtensionEditorType_m165088149
Jmd:_GridLayoutGroup_set_startAxis_m1635162426
cF:__ZN10SampleClipD2Ev
aah:_SynchronizationAttribute_EnterContext_m2984912761
mVd:_CultureInfo_construct_internal_locale_from_name_m971766383
Nsj:__ZN6il2cpp2os10ThreadImpl13SetWaitObjectEPNS0_5posix15PosixWaitObjectE
Rab:__Z13GetGISettingsv
_0d:_Array_InternalArray__ICollection_Add_TisUIVertex_t1204258818_m3869382594_gshared
KT:__ZN11UnityEngine15CloudWebService20WebRequestRestClientC2Ev
iHc:_cff_cmap_unicode_init
GSd:_Enum_ToObject_m2460371738
Ece:_PrimalityTests_Test_m1088386156
lth:_Vector4_SqrMagnitude_m1060560279
kMk:_readlink
HNi:__ZN15dense_hashtableINSt3__24pairIK10KeyWrapperINS1_IPK9EventInfoP11Il2CppClassEEEjEES9_17ReflectionMapHashIS8_EN14dense_hash_mapIS9_jSD_NS9_14EqualsComparerINS0_8equal_toIS8_EEEENS0_9allocatorISB_EEE9SelectKeyESI_SK_E12resize_deltaEjj
h5d:_Array_Resize_TisVector3_t2243707580_m893658391_gshared
PVg:_InternalEnumerator_1_System_Collections_IEnumerator_get_Current_m4259662004_AdjustorThunk
E8d:_Array_InternalArray__get_Item_TisKeyframe_t1449471340_m1003508933_gshared
tQj:__ZN6il2cpp2os13SemaphoreImplC2Eii
_bg:__Z50RuntimeInvoker_Double_t4078015681_Int64_t909078037PFvvEPK10MethodInfoPvPS4_
ohe:_StrongName_get_PublicKeyToken_m1968460885
y4a:__ZNK6Sprite9GetBoundsE8Vector2fbb
Xpi:__ZNKSt3__214__split_bufferIN6il2cpp6icalls8mscorlib6System12PropertyPairERNS_9allocatorIS5_EEE8capacityEv
uJa:__ZNK19RenderEventsContext21CleanupCommandBuffersEv
tPi:__ZN6il2cpp2vm10Reflection27GetCustomAttributesCacheForEPK10MethodInfo
kfa:__ZN11ContextGLES6CreateEi
Ure:_BinaryReader_Dispose_m4249456877
QId:_Double_ToString_m1085043609
PAb:__Z19TransferField_ArrayI18StreamedBinaryReadILb0EE27Converter_SimpleNativeClassI17AnimationCurveTplIfEEEvRK23StaticTransferFieldInfoR31RuntimeSerializationCommandInfoRT0_
Pbf:_CipherSuite_createEncryptionCipher_m1926075645
wIk:_Plane__ctor_m730644932
pxa:__ZN14StackAllocator16FrameMaintenanceEb
cmd:_Graphic_Raycast_m3582517890
uza:__Z18ReadStringFromFilePN4core17string_with_labelILi1EEERKNS_12basic_stringIcNS_20StringStorageDefaultIcEEEE
V2i:__ZN6il2cpp5utils10StringViewIcEC2ILj10EEERAT__Kc
h3:__ZNK10GameObject20QueryComponentByTypeEPKN5Unity4TypeE
nuh:_GUISkin_MakeCurrent_m1547433985
uFe:_Enumerator_MoveNext_m1367380970_AdjustorThunk
$Yf:_OpCode_GetHashCode_m2974727122
wFd:_Enumerator_Reset_m466659019
Qbf:_CipherSuite_createDecryptionCipher_m1118350455
Wbh:_PatternCompiler_EmitReference_m1381860071
wRd:_Double_System_IConvertible_ToInt16_m4200640326
bWa:__ZN11TextureData5ResetEv
Uec:__Z53Register_UnityEngine_GameObject_get_activeInHierarchyv
GWi:__ZNSt3__217__compressed_pairIPN6il2cpp8metadata18GenericArrayMethodENS_9allocatorIS3_EEEC2ES4_
_8:__ZN15dense_hashtableINSt3__24pairIKN4core12basic_stringIcNS2_20StringStorageDefaultIcEEEE13dynamic_arrayI4PPtrI6SpriteELj4EEEES6_20StringHash32FunctionIS6_EN14dense_hash_mapIS6_SC_SF_NS0_8equal_toIS6_EE13stl_allocatorISD_L18MemLabelIdentifier81ELi16EEE9SelectKeyESI_SL_EC2ERKSO_j
t_:__ZL30InitializeCoreScriptingClassesv
yYe:_Collection_1_CheckWritable_m3938993573_gshared
Dg:_glBlitFramebuffer
Mce:_BigInteger_GeneratePseudoPrime_m2606361440
jqb:__Z35Transfer_Blittable_SingleValueFieldI14SafeBinaryReadhEvRT_R17GeneralMonoObjectRK23StaticTransferFieldInfo
c8b:__ZN12CachedWriter15CompleteWritingEv
jxf:_RemotingServices_GetRealProxy_m620317996
gNb:__ZN13dynamic_arrayI11CulledLightLj4EE6insertEPS0_PKS0_S4_
fVa:__ZNK12CubemapArray22GetTypeVirtualInternalEv
SKh:_Predicate_1_Invoke_m2060780095_gshared
LOa:__ZN11Tetrahedron8TransferI18StreamedBinaryReadILb0EEEEvRT_
Kn:FUNCTION_TABLE_vif
Ln:FUNCTION_TABLE_vid
Mn:FUNCTION_TABLE_vii
Jbb:__Z40scripting_liveness_calculation_from_root18ScriptingObjectPtrPv
ORa:__ZN7Texture23VirtualRedirectTransferER24GenerateTypeTreeTransfer
Mxc:_UNITY_FT_Set_Transform
bkj:__ZN6il2cpp8metadata15GenericMetadata20RegisterGenericClassEP18Il2CppGenericClass
Ifg:__Z101RuntimeInvoker_OpFlags_t378191910_SByte_t454417549_SByte_t454417549_SByte_t454417549_SByte_t454417549PFvvEPK10MethodInfoPvPS4_
zVk:_glDeleteFramebuffers__wrapper
Bnd:_Image_get_overrideSprite_m706080347
o7e:_BigInteger_ModInverse_m1881894572
_si:__ZN6il2cpp2vm7Runtime17GetDelegateInvokeEP11Il2CppClass
s4b:__ZZN12MeshRenderer15InitializeClassEvEN29FunctorImpl_134kDidDeleteMesh4CallEPviR11MessageData
IRi:__ZN30dense_hashtable_const_iteratorINSt3__24pairIK10KeyWrapperIPK22Il2CppGenericParameterEPK24MonoGenericParameterInfoEES6_N6il2cpp5utils11PointerHashIS4_EEN14dense_hash_mapIS6_SA_SF_NS6_14EqualsComparerINS0_8equal_toIS5_EEEENS0_9allocatorISB_EEE9SelectKeyESK_SM_E30advance_past_empty_and_deletedEv
hYa:__ZN28EnlightenRendererInformation8TransferI14SafeBinaryReadEEvRT_
meg:__Z88RuntimeInvoker_RuntimeObject_RuntimeObject_Int32_t2071877448_RuntimeObject_RuntimeObjectPFvvEPK10MethodInfoPvPS4_
Q1j:__ZL69DefaultDependencyAttribute_t3858269114_CustomAttributesCacheGeneratorP21CustomAttributesCache
qCa:__ZNK15Lz4Decompressor16DecompressMemoryEPKvPjPvS2_
LIi:__ZN15dense_hashtableINSt3__24pairIK10KeyWrapperINS1_IPK10MethodInfoP11Il2CppClassEEEjEES9_17ReflectionMapHashIS8_EN14dense_hash_mapIS9_jSD_NS9_14EqualsComparerINS0_8equal_toIS8_EEEENS0_9allocatorISB_EEE9SelectKeyESI_SK_E13clear_deletedER30dense_hashtable_const_iteratorISB_S9_SD_SM_SI_SK_E
C3e:_ReadOnlyCollection_1_System_Collections_IList_get_Item_m887129009_gshared
BTa:__Z35UnityPropertySheet_MakeSortedColorsRKNSt3__23mapIN9ShaderLab16FastPropertyNameE10ColorRGBAfNS_4lessIS2_EENS_9allocatorINS_4pairIKS2_S3_EEEEEER10vector_mapIS2_S3_S5_NS6_INS7_IS2_S3_EEEEE
bPd:_Decimal_System_IConvertible_ToType_m3828527724_AdjustorThunk
uBc:_UNITY_tt_face_load_os2
d9e:_HMAC_get_Key_m2528863640
kZe:_Collection_1_IsSynchronized_m1366278230_gshared
Bpb:__Z29Transfer_Blittable_ArrayFieldI14SafeBinaryRead8Vector4fEvRT_R9ArrayInfoRK23StaticTransferFieldInfo
wVd:_Array_get_swapper_TisInt32_t2071877448_m2837069166_gshared
sIi:__ZN6il2cpp2gc19AppendOnlyGCHashMapINSt3__24pairIPK10MethodInfoP11Il2CppClassEEP22Il2CppReflectionMethod17ReflectionMapHashIS9_ENS2_8equal_toIS9_EEE3AddERKS9_SB_
e8g:_ConfigHandler_CheckPath_m2296459741
bdd:_PointerEventData_IsScrolling_m1971908975
CIb:__ZZ23InitPlayerLoopCallbacksvEN51PostLateUpdateUpdateCustomRenderTexturesRegistrator7ForwardEv
nPd:_Decimal_System_IConvertible_ToInt16_m3159038792
tu:__ZN7mecanim9animation12EvaluateClipEPKNS0_4ClipEPKNS0_9ClipInputEPNS0_10ClipMemoryEPNS0_10ClipOutputE
P7a:__ZNSt3__26vectorIN15ResourceManager10DependencyE13stl_allocatorIS2_L18MemLabelIdentifier52ELi16EEEC2INS_11__wrap_iterIPS2_EEEET_SB_RKS5_PNS_9enable_ifIXaasr21__is_forward_iteratorISB_EE5valuesr16is_constructibleIS2_NS_15iterator_traitsISB_E9referenceEEE5valueEvE4typeE
B0f:_MonoMethodInfo_GetReturnType_m2864247130
TUb:__ZN13RenderManager29SetCurrentCameraAndStackStateEP6CameraP25CameraStackRenderingState
arh:_Transform_INTERNAL_get_rotation_m1873681960
kFa:__ZNSt3__26__treeINS_12__value_typeIjN4core12basic_stringIcNS2_20StringStorageDefaultIcEEEEEENS_19__map_value_compareIjS7_NS_4lessIjEELb1EEE13stl_allocatorIS7_L18MemLabelIdentifier7ELi16EEE7destroyEPNS_11__tree_nodeIS7_PvEE
hZi:__ZN15dense_hashtableINSt3__24pairIK10KeyWrapperINS1_IP11Il2CppClassjEEES4_EES6_N6il2cpp8metadata14ArrayClassHashEN14dense_hash_mapIS6_S4_SB_NS6_14EqualsComparerINSA_17ArrayClassCompareEEENS0_9allocatorIS8_EEE9SelectKeyESF_SH_E12resize_deltaEjj
Sh:_JS_WebRequest_Release
fte:_DirectoryNotFoundException__ctor_m2242202556
ZR:__ZN11UnityEngine15CloudWebService14DataErrorEventD0Ev
o7i:__ZN6il2cpp6icalls8mscorlib6System4Type20internal_from_handleEi
n8c:_String_CreateString_m2448464375
jsf:_X509SubjectKeyIdentifierExtension__ctor_m2959112706
hEg:_Enumerator_Reset_m1147555085_AdjustorThunk
z_f:_FieldInfo_get_IsNotSerialized_m2322769148
Zjj:__ZN6il2cpp8metadata15GenericMetadata7InflateEPK19Il2CppGenericMethodPK20Il2CppGenericContext
EXa:__ZN19ShaderPropertySheet16SetArrayPropertyEN9ShaderLab16FastPropertyNameENS_12PropertyTypeEPKvj
u0f:_MonoGenericCMethod_get_ReflectedType_m2689239043
lZe:_Collection_1_IsFixedSize_m499196375_gshared
Thd:_ColorTween_set_startColor_m3546206870_AdjustorThunk
NLc:__ZN2UI11CanvasGroup23VirtualRedirectTransferER19StreamedBinaryWriteILb0EE
WYg:_InternalEnumerator_1_get_Current_m4083613828_gshared
zvi:__ZN6il2cpp2os4File11GetStdErrorEv
ihi:__ZNKSt3__26vectorI6pollfdNS_9allocatorIS1_EEE14__annotate_newEj
rMh:_TextGenerator_INTERNAL_CALL_Populate_Internal_cpp_m106350432
Xlc:__ZN8GUIState8EndOnGUIEv
JHf:_UnicodeEncoding_GetString_m542738941
VHc:_UNITY_TT_Get_VMetrics
Gse:_Path_InsecureGetFullPath_m2635272425
KMd:_DateTime_System_IConvertible_ToUInt32_m1363211018
Hlh:_Quaternion_ToString_m1042358501
gYd:_SetPropertyUtility_SetStruct_TisSingle_t2076509932_m3849235084_gshared
dia:__ZN7Texture21GetMasterTextureLimitEv
JWb:__Z12CanAddScriptR10GameObject17ScriptingClassPtrPS1_S2_
LTi:__ZN6il2cpp2vm10Reflection12HasAttributeEP12Il2CppObjectP11Il2CppClass
v2c:_X509Certificate_GetExpirationDateString_m2351894475
pZ:__ZN9ShaderLabL25StaticInitializeShaderLabEPv
U:Math_max
_ti:_il2cpp_class_get_methods
Jse:_Path_CanonicalizePath_m383914732
W3g:_Enumerator_System_Collections_IEnumerator_get_Current_m1631145297_gshared
psb:__Z18Transfer_BlittableI24GenerateTypeTreeTransferLb0EN4math12int2_storageEEvRK29SerializationCommandArgumentsR31RuntimeSerializationCommandInfo
BAd:_ArrayList_Synchronized_m2395071980
nwj:__ZN6il2cpp2os6Thread16GetCurrentThreadEv
B6b:__ZN10GameObject13ComponentPair15SetComponentPtrEPN5Unity9ComponentE
fye:_UnexceptionalStreamWriter_Write_m3206913035
k0b:__Z13RegisterClassI10MeshFilterEvv
sFa:__ZN10TagManager8TransferI19StreamedBinaryWriteILb0EEEEvRT_
$ab:__ZN11PreloadData23VirtualRedirectTransferER18StreamedBinaryReadILb0EE
Hz:__Z17dynamic_pptr_castIP10MonoScript6ObjectET_RK4PPtrIT0_E
IEf:_DESTransform_ProcessBlock_m2826669227
vne:_Int16_CompareTo_m3493496879
uLj:__ZNSt3__222__tree_node_destructorINS_9allocatorINS_11__tree_nodeINS_12__value_typeINS_12basic_stringIcNS_11char_traitsIcEENS1_IcEEEEPFvvEEEPvEEEEEclEPSD_
v$a:__ZN6Sprite17MainThreadCleanupEv
IK:__ZN10AudioMixer14UpdateMuteSoloEv
wEa:__ZN9Transform35SetLocalPositionWithoutNotificationERKN4math7_float3Ey
svg:_MaskableGraphic_UnityEngine_UI_IClippable_get_gameObject_m954171032
SPj:__ZNSt3__26__treeIPFvvENS_4lessIS2_EENS_9allocatorIS2_EEE10value_compEv
Si:_JS_Eval_ClearTimeout
Sga:__ZN7ApiGLES16SetPatchVerticesEi
Dve:_MonoIOStat_t1621921065_marshal_pinvoke
MBa:__ZN10MemoryFileC2E18MemLabelIdentifierP14MemoryFileData14FilePermission
gyf:_TrackingServices_NotifyUnmarshaledObject_m1794048369
ARh:__ZN6il2cpp2vm5Class20FromGenericParameterEPK22Il2CppGenericParameter
xU:__ZN19CloudServiceHandler11FlushEventsEv
i7:__ZN15GlobalCallbacksC2Ev
L3d:_Array_InternalArray__set_Item_TisLabelFixup_t4090909514_m565370771_gshared
lzc:_UNITY_FT_New_Memory_Face
dxc:__ZN20TextRenderingPrivate21TextMeshGeneratorImpl5FlushEv
V3c:__Z15CastclassSealedP12Il2CppObjectP11Il2CppClass
$Lj:__ZNSt3__25tupleIJONS_12basic_stringIcNS_11char_traitsIcEENS_9allocatorIcEEEEEEC2IJS6_ELb0EEEDpOT_
Owj:__ZNSt3__26vectorIjNS_9allocatorIjEEE26__swap_out_circular_bufferERNS_14__split_bufferIjRS2_EE
BVb:__ZN16ReflectionProbes40UpdateRealtimeReflectionProbesTimeslicedEv
Xfj:__ZNSt3__26__treeINS_12__value_typeIP24Il2CppReflectionAssemblyPvEENS_19__map_value_compareIS3_S5_NS_4lessIS3_EELb1EEENS_9allocatorIS5_EEE16__insert_node_atEPNS_16__tree_node_baseIS4_EERSF_SF_
c8a:__ZNK30RuntimeInitializeOnLoadManager22GetTypeVirtualInternalEv
l2h:__ZN15dense_hashtableINSt3__24pairIK10KeyWrapperIN6il2cpp5utils13dynamic_arrayIPK10Il2CppTypeLj4EEEEPFvvEEESA_NS3_8metadata19Il2CppSignatureHashEN14dense_hash_mapISA_SD_SG_NSA_14EqualsComparerINSF_22Il2CppSignatureCompareEEENS0_9allocatorISE_EEE9SelectKeyESK_SM_E12resize_deltaEjj
A3b:__ZN16ReflectionProbes15InitializeClassEv
PJj:__ZN6il2cpp5utils5MatchENSt3__212basic_stringIcNS1_11char_traitsIcEENS1_9allocatorIcEEEEjRKS7_j
iAc:_UNITY_FT_Destroy_Class_psnames_module_class
s5h:__ZNK15dense_hashtableINSt3__24pairIK10KeyWrapperIPK11Il2CppClassEPKcEES6_N6il2cpp5utils11PointerHashIS3_EEN14dense_hash_mapIS6_S9_SE_NS6_14EqualsComparerINS0_8equal_toIS5_EEEENS0_9allocatorISA_EEE9SelectKeyESJ_SL_E12test_deletedEj
ybh:_MRUList_Evict_m2430323183
C1e:_ReadOnlyCollection_1_System_Collections_Generic_ICollectionU3CTU3E_Remove_m1060547576_gshared
Hig:__Z68RuntimeInvoker_Boolean_t3825574718_Rect_t3681755626_SByte_t454417549PFvvEPK10MethodInfoPvPS4_
h8d:_Array_InternalArray__get_Item_TisRuntimeObject_m371871810_gshared
Nz:__ZN8Animator13BatchedFKPassERK13dynamic_arrayIP14PlayableOutputLj4EE
Ygf:_RecordProtocol_ProcessChangeCipherSpec_m3233959862
a6d:_Array_Sort_TisVector4_t2243707581_m474199742_gshared
Y3:__ZN13RuntimeStaticINSt3__23mapIN4core12basic_stringIcNS2_20StringStorageDefaultIcEEEES6_NS0_4lessIS6_EE13stl_allocatorINS0_4pairIKS6_S6_EEL18MemLabelIdentifier13ELi16EEEELb0EE13StaticDestroyEPv
DRj:__ZNSt3__216allocator_traitsINS_9allocatorINS_12basic_stringIDsNS_11char_traitsIDsEENS1_IDsEEEEEEE11__constructIS6_JS6_EEEvNS_17integral_constantIbLb1EEERS7_PT_DpOT0_
Pxe:_TextWriter_Write_m576684782
Qj:_glIsVertexArray
_Ba:__ZN25SingleBlockMemoryFileDataC2E18MemLabelIdentifierPvjb
cNj:__ZNSt3__210unique_ptrINS_11__tree_nodeINS_12__value_typeIPvxEES3_EENS_22__tree_node_destructorINS_9allocatorIS5_EEEEE7releaseEv
ea:invoke_fff
tCg:_Text_get_fontSize_m3105730761
ISk:b14
ngf:_TlsServerHello_Update_m1740270635
XKc:__ZN2UI6Canvas17MainThreadCleanupEv
oka:__ZN6prcoreL12RemapGenericI17TexFormatARGB155517TexFormatRGBA8888EEvPKNS_9InnerInfoE
$yg:_ScrollRect_Rebuild_m3423824761
xmj:__ZNSt3__26__treeINS_12__value_typeIjN6il2cpp2os17SocketHandleEntryEEENS_19__map_value_compareIjS5_NS_4lessIjEELb1EEENS_9allocatorIS5_EEE12__node_allocEv
HOe:_List_1_Find_m3862454845_gshared
nbh:_MatchCollection_get_Item_m2609281578
msa:__ZN7ApiGLES13CreateProgramEv
aLa:__ZN11HaloManager7AddHaloEv
DIf:_UTF8Encoding__ctor_m100325490
sia:__ZN4crnd12crn_unpackerD2Ev
YBg:_StencilMaterial_ClearAll_m1372779118
ak:_emscripten_glTexImage2D
Lwf:_ObjRefSurrogate_SetObjectData_m1873902916
GHc:_tt_driver_class_pic_init
i_:__ZN18ScriptingArguments9AddStringEPKc
oGj:_setup_header
yPk:runPostSets
wja:__ZL23stbir__resize_arbitraryPvPKviiiS_iiiffffPfiij14stbir_datatype12stbir_filterS4_10stbir_edgeS5_16stbir_colorspace
zKe:_List_1_System_Collections_IList_Insert_m848656350_gshared
Jsb:__Z18Transfer_BlittableI24GenerateTypeTreeTransferLb1E8Vector4fEvRK29SerializationCommandArgumentsR31RuntimeSerializationCommandInfo
ape:_Int16_ToString_m3971652088_AdjustorThunk
lk:_pthread_detach
Iai:__ZN6il2cpp2vm19SocketPollingThread7RunLoopEv
dsf:_X509ExtensionEnumerator_Reset_m3200687545
dwf:_MethodDictionary_AllocInternalProperties_m3261295876
Y6b:__ZN15DirectorManager20ScheduleGraphDestroyERK14HPlayableGraph
BBb:__ZNSt3__213__stable_sortIRN10vector_mapI17ScriptingClassPtrPKN5Unity4TypeENS_4lessIS2_EENS_9allocatorINS_4pairIS2_S6_EEEEE13value_compareENS_11__wrap_iterIPSB_EEEEvT0_SJ_T_NS_15iterator_traitsISJ_E15difference_typeEPNSM_10value_typeEi
v_h:__ZN15dense_hashtableINSt3__24pairIK10KeyWrapperIPK19Il2CppGenericMethodEPK26Il2CppGenericMethodIndicesEES6_N6il2cpp8metadata23Il2CppGenericMethodHashEN14dense_hash_mapIS6_SA_SE_NS6_14EqualsComparerINSD_26Il2CppGenericMethodCompareEEENS0_9allocatorISB_EEE9SelectKeyESI_SK_E21fill_range_with_emptyEPSB_SO_
ofb:__ZN9ShaderLab25SerializedTextureProperty8TransferI24GenerateTypeTreeTransferEEvRT_
V5e:_Comparison_1_Invoke_m2645957248_gshared
i_k:_emscripten_glIsShader__wrapper
xTi:__ZN6il2cpp2gc19AppendOnlyGCHashMapINSt3__24pairIPK14Il2CppAssemblyP11Il2CppClassEEP24Il2CppReflectionAssembly17ReflectionMapHashIS9_ENS2_8equal_toIS9_EEEC2Ev
eDc:_tt_cmap14_char_next
JBf:_DelegatePInvokeWrapper_CallbackHandler_t362827733
EFj:_GC_block_was_dirty
Z9i:__ZNK15dense_hashtableINSt3__24pairIK10KeyWrapperIP14Il2CppIUnknownEjEES5_N6il2cpp5utils11PointerHashIS3_EEN14dense_hash_mapIS5_jSB_NS5_14EqualsComparerINS0_8equal_toIS4_EEEENS0_9allocatorIS7_EEE9SelectKeyESG_SI_E12test_deletedEj
Zsc:__Z18Transfer_BlittableI8JSONReadLb1EyEvRK29SerializationCommandArgumentsR31RuntimeSerializationCommandInfo
Ik:_emscripten_glMatrixMode
fs:__ZN8Animator23VirtualRedirectTransferER18StreamedBinaryReadILb0EE
Tte:_NotSupportedException__ctor_m836173213
vwf:_MethodReturnDictionary__ctor_m756139344
tR:__ZN11UnityEngine15CloudWebService14DataDispatcher16PrepareDataBlockERNS0_16SessionContainerE
Psa:__ZN18GfxFramebufferGLES5ClearE13GfxClearFlagsRK10ColorRGBAffib
rcg:__Z52RuntimeInvoker_Single_t2076509932_Double_t4078015681PFvvEPK10MethodInfoPvPS4_
eAb:__ZL26Transfer_SimpleNativeClassI18StreamedBinaryReadILb0EE10RectOffsetLb0EEvRK29SerializationCommandArgumentsR31RuntimeSerializationCommandInfo
fAc:_UNITY_ft_destroy_default_module_classes
y3h:__ZNSt3__24pairIK10KeyWrapperIN6il2cpp5utils13dynamic_arrayIPK10Il2CppTypeLj4EEEEPFvvEEC2IRSD_vEEOT_
bIe:_List_1_CheckMatch_m1772343151_gshared
DMb:__ZL12DepthPassJobPN21GfxDeviceAsyncCommand10ArgScratchEPKNS_3ArgE
Pdb:__ZNSt3__26vectorIN9ShaderLab20SerializedSubProgram16TextureParameterENS_9allocatorIS3_EEE6assignINS_11__wrap_iterIPS3_EEEENS_9enable_ifIXaasr21__is_forward_iteratorIT_EE5valuesr16is_constructibleIS3_NS_15iterator_traitsISC_E9referenceEEE5valueEvE4typeESC_SC_
uoc:__ZN5Unity9rapidjson6WriterI16TempBufferWriterNS0_4UTF8IcEES4_13JSONAllocatorE11WriteDoubleEd
rre:_IntPtr_Equals_m1214967011_AdjustorThunk
d2i:__ZNSt3__216allocator_traitsINS_9allocatorIN6il2cpp2vm22EmbeddedResourceRecordEEEE8allocateERS5_j
zNe:_List_1_Add_m3591975577_gshared
Wna:__ZN14GfxDeviceStats16CopyAllDrawStatsERKS_
L0b:__Z13RegisterClassI19LowerResBlitTextureEvv
Lm:FUNCTION_TABLE_iiiiiiiiiiii
Iuh:_GUIUtility_Internal_GetPixelsPerPoint_m1075452981
lKa:__ZN16GraphicsSettingsD0Ev
rXk:_pthread_mutex_init__wrapper
t7i:__ZN6il2cpp6icalls8mscorlib6SystemL52FormatExceptionMessageForNonConstructableGenericTypeEPK10Il2CppTypeRKNSt3__26vectorIS5_NS6_9allocatorIS5_EEEE
n:cttz_i8
Pzc:_UNITY_FT_GlyphLoader_Add
bVg:_InternalEnumerator_1_System_Collections_IEnumerator_get_Current_m1004764375_AdjustorThunk
fDk:_Display_FireDisplaysUpdated_m2197288612
wId:_DateTimeFormatInfo_get_FullDateTimePattern_m2607507656
Ngf:_HttpsClientStream_RaiseServerCertificateValidation_m3356770426
Gnh:_RectTransform_INTERNAL_set_anchorMin_m3893342226
s6d:_Array_swap_TisUIVertex_t1204258818_TisUIVertex_t1204258818_m1163375424_gshared
Fl:_emscripten_glViewport
dAj:__ZN6il2cpp6icalls8mscorlib6System15MonoCustomAttrs17IsDefinedInternalEP12Il2CppObjectP20Il2CppReflectionType
YMa:__ZN4Mesh21UnswizzleVertexColorsEb
MNd:_DateTime_ToString_m2276663647_AdjustorThunk
DHc:_cff_parse_font_bbox
WP:__Z41Register_UnityEngine_AudioSource_set_mutev
w6a:__ZN14PlayerSettings23VirtualRedirectTransferER18StreamedBinaryReadILb0EE
eLj:__ZNKSt3__215__tree_iteratorINS_12__value_typeINS_12basic_stringIcNS_11char_traitsIcEENS_9allocatorIcEEEEPFvvEEEPNS_11__tree_nodeISA_PvEEiEptEv
zVd:_Array_get_swapper_TisCustomAttributeTypedArgument_t1498197914_m2780757375_gshared
rUj:__ZN6il2cpp2os5Event5ResetEv
Z_e:_ReadOnlyCollection_1_System_Collections_IList_Insert_m1130110335_gshared
DNk:__ZNSt3__212basic_stringIcNS_11char_traitsIcEENS_9allocatorIcEEEC2EPKcj
xBh:_AesManaged__ctor_m2322442838
sjj:__ZN6il2cpp8metadata15GenericMetadata17InflateParametersEPK13ParameterInfohPK20Il2CppGenericContextb
Gqe:_Int64_System_IConvertible_ToUInt32_m850395426_AdjustorThunk
gIa:__ZN6Camera13AwakeFromLoadE17AwakeFromLoadMode
xZc:_HMACSHA512__ctor_m2390736870
_x:__ZNK17AnimationPlayable27GetNextCompatibleDescendantEi
sWf:_TypeBuilder_GetInterfaces_m1818658502
voe:_NumberFormatter_AppendIntegerString_m868842252
v7h:__ZNSt3__216allocator_traitsINS_9allocatorINS_11__tree_nodeINS_12__value_typeIP11Il2CppClassS5_EEPvEEEEE9constructINS_4pairIKS5_S5_EEJNSC_IS5_S5_EEEEEvRS9_PT_DpOT0_
ZEb:__Z25SetNeedToPerformRenderingb
zNi:__ZN14dense_hash_mapI10KeyWrapperINSt3__24pairIPK9EventInfoP11Il2CppClassEEEj17ReflectionMapHashIS8_ENS9_14EqualsComparerINS1_8equal_toIS8_EEEENS1_9allocatorINS2_IKS9_jEEEEE3endEv
P0f:_MonoMethod_GetPseudoCustomAttributes_m466965107
EDa:__ZN10GameObjectD2Ev
SMb:__ZN14qsort_internal30FindAndMovePivotToLastPositionIP15RODataDepthPassi17ROSorterDepthPassEEvT_S4_T0_T1_
XEg:_Enumerator_System_Collections_IDictionaryEnumerator_get_Value_m3005608231_gshared
Jug:_MaskUtilities_NotifyStencilStateChanged_m1527407683
o8f:__Z94RuntimeInvoker_Void_t1841601450_RuntimeObject_Int32_t2071877448_RuntimeObject_SByte_t454417549PFvvEPK10MethodInfoPvPS4_
IUb:__ZN12CullingGroup10SendEventsEPK17CullingGroupEventj
mee:_DSAManaged_GenerateKeyPair_m2711647034
uSj:__ZNSt3__217__compressed_pairIjNS_19__map_value_compareIPFvvENS_12__value_typeIS3_PK10MethodInfoEENS_4lessIS3_EELb1EEEEC2EjSB_
bZa:__ZThn32_NK8Renderer8GetLayerEv
E0d:_Array_InternalArray__ICollection_Add_TisResourceCacheItem_t333236149_m1151081240_gshared
cdj:__ZN30dense_hashtable_const_iteratorINSt3__24pairIK10KeyWrapperINS1_IPKcS4_EEEiEES6_24NamespaceAndNamePairHashN14dense_hash_mapIS6_iS9_NS6_14EqualsComparerI26NamespaceAndNamePairEqualsEENS0_9allocatorIS8_EEE9SelectKeyESD_SF_E30advance_past_empty_and_deletedEv
tzf:_SoapServices_GetXmlTypeForInteropType_m3821579913
iYk:_emscripten_glTexParameterfv__wrapper
Tmb:__Z18Transfer_BlittableI14SafeBinaryReadLb1E9BoundsIntEvRK29SerializationCommandArgumentsR31RuntimeSerializationCommandInfo
Vui:_il2cpp_method_get_param_count
vac:__ZN10systeminfo19ISOToSystemLanguageERN4core12basic_stringIcNS0_20StringStorageDefaultIcEEEE
XMi:__ZNK15dense_hashtableINSt3__24pairIK10KeyWrapperINS1_IPK12PropertyInfoP11Il2CppClassEEEjEES9_17ReflectionMapHashIS8_EN14dense_hash_mapIS9_jSD_NS9_14EqualsComparerINS0_8equal_toIS8_EEEENS0_9allocatorISB_EEE9SelectKeyESI_SK_E3endEv
cEc:_ps_dimension_done
xfd:_LayoutRebuilder_MarkLayoutForRebuild_m640589351
LKc:__Z46Register_UnityEngine_TextGenerator_Dispose_cppv
ddd:_PointerEventData_get_pressEventCamera_m724559964
puj:__ZNSt3__26__treeINS_12basic_stringIcNS_11char_traitsIcEENS_9allocatorIcEEEENS_4lessIS6_EENS4_IS6_EEE10value_compEv
l3c:_String_IndexOfUnchecked_m3356721554
TXa:__ZN16LightmapSettings8TransferI14SafeBinaryReadEEvRT_
K9:__ZN17BufferManagerGLES13ReleaseBufferEP14DataBufferGLES
hoi:__ZNSt3__214__split_bufferIPK10MethodInfoRNS_9allocatorIS3_EEE17__destruct_at_endEPS3_
Wsc:__Z18Transfer_BlittableI8JSONReadLb1EjEvRK29SerializationCommandArgumentsR31RuntimeSerializationCommandInfo
Jmi:__ZNSt3__210unique_ptrINS_11__tree_nodeIP11Il2CppClassPvEENS_22__tree_node_destructorINS_9allocatorIS5_EEEEE5resetEPS5_
Ihh:_PKCS12_Decrypt_m1557069392
LCg:_VertexHelper_AddUIVertexQuad_m280792808
Nnf:_WebHeaderCollection_ToString_m1246460752
BWg:_InternalEnumerator_1_System_Collections_IEnumerator_get_Current_m2842514953_AdjustorThunk
Zo:stackSave
xTc:__ZN5Unity9rapidjson15GenericDocumentINS0_4UTF8IcEE13JSONAllocatorNS0_12CrtAllocatorEE6StringEPKcjb
vEc:_ps_dimension_end
Kgc:__Z41Register_UnityEngine_Mesh_Internal_Createv
wVh:__ZN6il2cpp2vm5Class14GetNestedTypesEP11Il2CppClassPPv
NZc:_MACTripleDES_Initialize_m1318099802
R9e:_MD5SHA1_VerifySignature_m507888141
rxd:_Byte_System_IConvertible_ToChar_m4188836679
Xoe:_NumberFormatter_InitDecHexDigits_m2036076025
AFg:_Enumerator_get_CurrentKey_m3839846791_AdjustorThunk
iWb:__ZN6Camera9SetAspectEf
va:invoke_viiffiii
wyj:__ZN15dense_hashtableINSt3__24pairIK10KeyWrapperIPK19Il2CppGenericMethodEP10MethodInfoEES6_N6il2cpp8metadata23Il2CppGenericMethodHashEN14dense_hash_mapIS6_S9_SD_NS6_14EqualsComparerINSC_26Il2CppGenericMethodCompareEEENS0_9allocatorISA_EEE9SelectKeyESH_SJ_E12resize_deltaEjj
jtk:__ZL79TouchInputModule_t2561058385_CustomAttributesCacheGenerator_m_ForceModuleActiveP21CustomAttributesCache
zZk:_emscripten_glBindVertexArray__wrapper
QBj:__ZNSt3__26vectorIPK14Il2CppAssemblyNS_9allocatorIS3_EEE9push_backERKS3_
AMg:_Dictionary_2_InitArrays_m435313205_gshared
EEa:__ZN9Transform37InitializeTransformHierarchyRecursiveER18TransformHierarchyRii
$1b:__Z34DefaultPrepareDispatchBoundsUpdateR13RendererScene18MemLabelIdentifier
old:_Graphic_get_useLegacyMeshGeneration_m1366444625
Gsa:__ZN26SinglePassStereoSupportExt23SetupStereoMatrixParamsE21MonoOrStereoscopicEye24BuiltinShaderMatrixParamRK10Matrix4x4f
gvk:__ZL65InputField_t1631627530_CustomAttributesCacheGenerator_m_InputTypeP21CustomAttributesCache
crj:__ZNSt3__213__vector_baseIN6il2cpp2os10ThreadImpl10APCRequestENS_9allocatorIS4_EEE17__destruct_at_endEPS4_
Bce:_ModulusRing_Pow_m1137250399
sP:__Z46AudioListener_CUSTOM_GetNumExtensionPropertiesP12Il2CppObject
Spf:_X509Chain_Build_m2341271288
bMa:__ZN17MeshRenderingData4InitEP4MeshS1_iP15SharedGfxBufferS3_
lOk:__ZNSt3__212basic_stringIcNS_11char_traitsIcEENS_9allocatorIcEEEpLEPKc
Ywj:__ZNSt3__214__split_bufferIjRNS_9allocatorIjEEE17__destruct_at_endEPj
YDd:_Hashtable__cctor_m2952659675
Glj:__ZN6il2cpp2gc16GarbageCollector12RunFinalizerEPvS2_
bqb:__ZN15SerializeTraitsI13dynamic_arrayIN4math12int3_storageELj4EEE19ResizeSTLStyleArrayERS3_i
C3c:_Evidence_get_HostEvidenceList_m2095478124
yhj:__ZNSt3__214__split_bufferIN6il2cpp2vm5Image20EmbeddedResourceDataERNS_9allocatorIS4_EEE17__destruct_at_endEPS4_
njc:__Z57Register_UnityEngine_Transform_INTERNAL_set_localPositionv
Wcf:_Context_Clear_m4000337070
Fda:__ZN13GfxDeviceGLES26SetRandomWriteTargetBufferEi15ComputeBufferID
Duf:_IntervalCollection_Normalize_m538796191
pIb:__ZZ23InitPlayerLoopCallbacksvEN49EarlyUpdateResetFrameStatsAfterPresentRegistrator7ForwardEv
wGd:_Console_SetEncodings_m342145566
fld:_FontUpdateTracker_UntrackText_m3827316510
fsh:_Vector2_get_sqrMagnitude_m593717298_AdjustorThunk
v8d:_Array_InternalArray__get_Item_TisSingle_t2076509932_m1495809753_gshared
XLh:_Font_get_fontSize_m3125470578
fac:__ZNK11ICallString6ToUTF8Ev
Aeh:_CaptureAssertion_get_Alternate_m2729005740
Rtj:__ZNSt3__210unique_ptrINS_11__tree_nodeINS_12basic_stringIcNS_11char_traitsIcEENS_9allocatorIcEEEEPvEENS_22__tree_node_destructorINS5_IS9_EEEEED2Ev
aaj:__ZN24dense_hashtable_iteratorINSt3__24pairIK10KeyWrapperIP14Il2CppIUnknownEjEES5_N6il2cpp5utils11PointerHashIS3_EEN14dense_hash_mapIS5_jSB_NS5_14EqualsComparerINS0_8equal_toIS4_EEEENS0_9allocatorIS7_EEE9SelectKeyESG_SI_E30advance_past_empty_and_deletedEv
TMb:__ZNSt3__211__sift_downIR17ROSorterDepthPassP15RODataDepthPassEEvT0_S5_T_NS_15iterator_traitsIS5_E15difference_typeES5_
gTf:_Default_SelectMethod_m3081239996
PSa:__ZN18UnityPropertySheet11UnityTexEnvC2Ev
fA:__ZN8Animator17ApplyOnAnimatorIKEiRNS_11AnimatorJobE
I2:__ZN12FileAccessor4ReadEyyPvPy
XRa:__ZN13dynamic_arrayI16ShaderKeywordSetLj4EE6insertEPS0_PKS0_S4_
ewf:_MethodDictionary_IsOverridenKey_m3922224650
jFd:_SyncHashtable_Contains_m3042906549
U1i:__ZNSt3__214__split_bufferIN6il2cpp2vm22EmbeddedResourceRecordERNS_9allocatorIS3_EEE9__end_capEv
pQe:_List_1_System_Collections_IList_set_Item_m4016273526_gshared
isf:_X509KeyUsageExtension_CopyFrom_m931530012
KVb:__ZN13RenderTexture9SetHeightEi
Gt:__ZN7mecanim9animation17ClearMotionOutputEPNS0_18AnimationNodeStateE
xug:_LayoutUtility_U3CGetMinHeightU3Em__4_m1769295917
Bjf:_SslStreamBase_Read_m1036897444
xwg:_RectMask2D_PerformClipping_m1232012832
_3i:__ZN6il2cpp6icalls8mscorlib6System2IO6MonoIO17GetFileAttributesEP12Il2CppStringPi
oGg:_Transform_1_Invoke_m4020530914_gshared
LCc:_tt_cmap8_char_index
I_:__Z24scripting_class_get_name17ScriptingClassPtr
q4:__ZN13RuntimeStaticI15GUIEventManagerLb0EE13StaticDestroyEPv
ywj:__ZN6il2cpp2os6Thread15CurrentThreadIdEv
Kob:__Z29Transfer_Blittable_ArrayFieldI14SafeBinaryReadjEvRT_R9ArrayInfoRK23StaticTransferFieldInfo
j9h:__ZNSt3__213__vector_baseIN6il2cpp2os19SocketHandleWrapperENS_9allocatorIS3_EEE7__allocEv
ee:_emscripten_set_keydown_callback
HEd:_Enumerator_get_Value_m3684748062
tFa:__ZN19StreamedBinaryWriteILb0EE21TransferSTLStyleArrayINSt3__26vectorI17SortingLayerEntryNS2_9allocatorIS4_EEEEEEvRT_17TransferMetaFlags
POf:_UInt32_Parse_m3371984903
Q2:__ZN12FileAccessorC2Ev
Gej:__ZNSt3__214__split_bufferIPK11Il2CppClassRNS_9allocatorIS3_EEE17__destruct_at_endEPS3_
qch:_PatternLinkStack_GetCurrent_m2994645935
lmi:__ZNSt3__26__treeIP11Il2CppClassNS_4lessIS2_EENS_9allocatorIS2_EEE3endEv
Wsi:__ZN6il2cpp2vm7Runtime12GetConfigDirEv
gwf:_MethodDictionary_set_Item_m3475146889
$Cg:_Toggle_PlayEffect_m3950629415
x_d:_Array_IndexOf_TisRuntimeObject_m214763038_gshared
lDb:__Z39WriteQueueForTransferSignatureIntoCacheRK31TransferFunctionScriptingTraitsRK24TransferRequestSignature17ScriptingClassPtrR23CachedSerializationDataRb
Z9a:__ZN13RenderManager18UpdateAllRenderersEv
EHk:_Mesh_Clear_m239607636
UQc:__ZN22BaseUnityConnectClient30OnEnteringStatePausedOrStoppedEv
XLi:__ZN15dense_hashtableINSt3__24pairIK10KeyWrapperINS1_IPK12PropertyInfoP11Il2CppClassEEEjEES9_17ReflectionMapHashIS8_EN14dense_hash_mapIS9_jSD_NS9_14EqualsComparerINS0_8equal_toIS8_EEEENS0_9allocatorISB_EEE9SelectKeyESI_SK_E12resize_deltaEjj
Tt:__ZN7mecanim5human12HumanPoseAddERNS0_9HumanPoseERKS1_S4_
dXe:_Collection_1_IsFixedSize_m218241296_gshared
iEa:__Z24MergeTransformComponentsR9TransformS0_b
EFh:_DelegatePInvokeWrapper_AudioConfigurationChangeHandler_t3743753033
Bve:_MonoIO_get_PathSeparator_m2635828107
Q0g:_InternalEnumerator_1_get_Current_m889125315_gshared
KAe:_MonoType_get_Name_m865859211
NUd:_CultureInfo__cctor_m2290268677
Y6c:_String_Trim_m3982520224
Gyf:_RemotingConfiguration__cctor_m2129988840
uVe:_Collection_1_Insert_m44548038_gshared
nWi:__ZNK6il2cpp8metadata19SZArrayClassCompareclEPK11Il2CppClassS4_
kWh:__ZNKSt3__26vectorIN6il2cpp2vm17TypeNameParseInfoENS_9allocatorIS3_EEE5beginEv
gAj:__ZN6il2cpp2vm13ComObjectBase19GetRuntimeClassNameEPP15Il2CppHString__
Oj:_emscripten_glVertexAttribPointer
_La:__ZNK20IntermediateRenderer12GetSceneMaskEv
_8a:__ZN14PreloadManager26UpdatePreloadingSingleStepENS_21UpdatePreloadingFlagsEi
h1c:_SHA512Managed_Initialize_m891287980
W3c:_SecurityException__ctor_m1484114982
Rjh:_X509Crl_GetHashName_m183504634
eud:_Array_GetValue_m1507415734
ohc:__Z57Register_UnityEngine_RectTransform_INTERNAL_set_anchorMinv
fle:_Object_MemberwiseClone_m2655589444
vFj:_GC_cond_register_dynamic_libraries
Xja:__ZN6prcoreL25inner_stretch_i8_bilinearEPKNS_9InnerInfoE
qbb:__ZL30RegisterFilteredObjectCallbackPP12Il2CppObjectiPv
X0f:_MonoMethod_get_IsGenericMethod_m4276550811
NGg:_Transform_1_BeginInvoke_m3826027984_gshared
PR:__ZN11UnityEngine15CloudWebService16SessionContainer24GetSessionHeaderJsonDataERKN4core12basic_stringIcNS2_20StringStorageDefaultIcEEEERNS2_13StringBuilderE
bJd:_Decimal_op_Implicit_m2149927308
d4:__ZN13RuntimeStaticI21AssetReferenceStorageLb0EE13StaticDestroyEPv
wqj:__ZN6il2cpp6icalls8mscorlib6System9AppDomain22InternalGetProcessGuidEP12Il2CppString
pFc:_cf2_builder_moveTo
Kee:_KeyPairPersistence_get_UseMachineKeyStore_m560802076
c4g:_Enumerator_System_Collections_IDictionaryEnumerator_get_Entry_m345330700_AdjustorThunk
nAa:__ZNK17FileSystemHandler10IsReadOnlyERK13FileEntryData
Rki:__ZNSt3__214__split_bufferIP9FieldInfoRNS_9allocatorIS2_EEEC2EjjS5_
etb:__Z18Transfer_BlittableI24GenerateTypeTreeTransferLb1EjEvRK29SerializationCommandArgumentsR31RuntimeSerializationCommandInfo
o9e:_MD2Managed_Padding_m410163267
TLa:__ZN11ColorRGBA328TransferI14SafeBinaryReadEEvRT_
aBi:__ZNSt3__216allocator_traitsINS_9allocatorINS_12basic_stringIcNS_11char_traitsIcEENS1_IcEEEEEEE8max_sizeERKS7_
fTj:__ZNSt3__26__treeINS_12__value_typeIPFvvEPK10MethodInfoEENS_19__map_value_compareIS3_S7_NS_4lessIS3_EELb1EEENS_9allocatorIS7_EEE28__emplace_unique_extract_keyINS_4pairIS3_S6_EEEENSG_INS_15__tree_iteratorIS7_PNS_11__tree_nodeIS7_PvEEiEEbEEOT_NS_23__extract_key_first_tagE
Jf:_emscripten_glClearDepth
I5b:__ZNK8GUILayer22GetTypeVirtualInternalEv
wQh:__ZNSt3__24swapIbEENS_9enable_ifIXaasr21is_move_constructibleIT_EE5valuesr18is_move_assignableIS2_EE5valueEvE4typeERS2_S5_
o_a:__ZN14SafeBinaryRead21TransferSTLStyleArrayINSt3__26vectorIN15QualitySettings14QualitySettingENS1_9allocatorIS4_EEEEEEvRT_17TransferMetaFlags
tte:_File_OpenText_m4058508963
FOh:__ZL6sub128yyyyPyS_
X5a:__ZNSt3__26vectorINS_4pairIPKN5Unity4TypeE7Hash128EENS_9allocatorIS7_EEE8__appendEj
Fzf:_WellKnownClientTypeEntry__ctor_m670594074
tMd:_DateTime_System_IConvertible_ToSingle_m3927769066_AdjustorThunk
RGc:_cff_font_load
Vgf:_RecordProtocol_SendRecord_m2977889250
abc:__Z13IsPathCreatedRKN4core12basic_stringIcNS_20StringStorageDefaultIcEEEE
Cja:__ZL22stbir__encode_scanlineP11stbir__infoiPvPfiii
mag:__Z136RuntimeInvoker_Void_t1841601450_Byte_t3683104436_RuntimeObject_Int64U26_t763825331_ObjectU26_t597476745_SerializationInfoU26_t4051840202PFvvEPK10MethodInfoPvPS4_
Uvc:__ZN20QuadTreeNodeRenderer13StaticDestroyEPv
LS:__ZN11UnityEngine15CloudWebService20WebRequestRestClient5AbortEv
zXd:_Array_InternalArray__ICollection_Remove_TisUInt32_t2149682021_m4198326168_gshared
P1b:__ZN9Transform12CleanupClassEv
T4f:__Z50RuntimeInvoker_Void_t1841601450_Double_t4078015681PFvvEPK10MethodInfoPvPS4_
zvh:_GUILayoutGroup_CalcWidth_m877887811
Ucf:_ClientContext_set_ClientHelloProtocol_m2246603449
$ph:_Texture_Internal_GetHeight_m3235768354
aha:__ZNSt3__26vectorIN9GfxDevice14SubPassActionsENS_9allocatorIS2_EEE26__swap_out_circular_bufferERNS_14__split_bufferIS2_RS4_EE
Ard:_U3CMouseDragOutsideRectU3Ec__Iterator1_MoveNext_m2845491958
Eeb:__ZNSt3__26vectorIN9ShaderLab19SerializedSubShaderENS_9allocatorIS2_EEE26__swap_out_circular_bufferERNS_14__split_bufferIS2_RS4_EE
Mz:__ZN11UnityEngine9Animation33SetGenericTransformPropertyValuesERKNS0_30AnimatorGenericBindingConstantERKN7mecanim10ValueArrayEP9Transformy
ubi:__ZNSt3__213__vector_baseI6pollfdNS_9allocatorIS1_EEE17__destruct_at_endEPS1_
v6f:__Z116RuntimeInvoker_RuntimeObject_RuntimeObject_Int32_t2071877448_RuntimeObject_RuntimeObject_RuntimeObject_RuntimeObjectPFvvEPK10MethodInfoPvPS4_
oed:_StandaloneInputModule_IsModuleSupported_m623598506
JZi:__ZN6il2cpp2vmL24thread_cleanup_on_cancelEPv
g7h:__ZNSt3__210unique_ptrINS_11__tree_nodeINS_12__value_typeIP11Il2CppClassS4_EEPvEENS_22__tree_node_destructorINS_9allocatorIS7_EEEEE5resetEPS7_
zDf:_SByte_ToString_m4105923225_AdjustorThunk
RUd:_CultureInfo_ConstructCurrentUICulture_m3363349599
BQf:_UInt64_CompareTo_m2422461804_AdjustorThunk
hAe:_MonoType_GetEvent_m4160342003
hwg:_RawImage_set_texture_m2400157626
SDh:_PrimeHelper_ToPrime_m1606935350_gshared
oMa:__Z30ProcessDynamicBatchGeometryJobP25DynamicVBOGeometryJobDataj
nNb:__ZNSt3__27__sort4IRNS_6__lessI11CulledLightS2_EEPS2_EEjT0_S6_S6_S6_T_
Ewi:__ZN6il2cpp2vm14TypeNameParser26ParseArrayModifierOptionalEv
X9d:_MSCompatUnicodeTable_Level3_m260824928
Z$:__Z26scripting_object_get_class18ScriptingObjectPtr
E8a:__ZNSt3__26vectorIN4core12basic_stringIcNS1_20StringStorageDefaultIcEEEE13stl_allocatorIS5_L18MemLabelIdentifier13ELi16EEE7reserveEj
kOh:_RectTransformUtility_GetTransposed_m1233793627
n1b:__ZNK28MonoBehaviourPropertyBinding15GenerateBindingERKN4core12basic_stringIcNS0_20StringStorageDefaultIcEEEEbRN11UnityEngine9Animation14GenericBindingE
Pne:_Int32_FindExponent_m3187554672
Wee:_KeyPairPersistence_Load_m1355205585
Zpe:_Int32_ToString_m2960866144_AdjustorThunk
cLh:_Predicate_1_Invoke_m3539717340_gshared
R5c:_Single_CompareTo_m2081476257_AdjustorThunk
bFh:_AudioExtensionManager_AddSpatializerExtension_m1881494443
lvj:__ZN6il2cpp6icalls8mscorlib6System11Environment15internalGetHomeEv
gnj:__ZNSt3__23mapIjN6il2cpp2os17SocketHandleEntryENS_4lessIjEENS_9allocatorINS_4pairIKjS3_EEEEE3endEv
Lua:__ZNK5Unity9Component7GetNameEv
Rpi:__ZNSt3__214__split_bufferIN6il2cpp6icalls8mscorlib6System12PropertyPairERNS_9allocatorIS5_EEEC2EjjS8_
sBf:__ZN21InterfaceFuncInvoker4IP12Il2CppObjectS1_P28SerializationInfo_t22898743028StreamingContext_t1417235061S1_E6InvokeEjP11Il2CppClassS1_S1_S3_S4_S1_
PAh:_ObjectPool_1_Get_m3724675538_gshared
EXi:__ZNSt3__214__split_bufferIN6il2cpp8metadata18GenericArrayMethodERNS_9allocatorIS3_EEE9__end_capEv
lDj:__ZN6il2cpp6icalls8mscorlib6System11DiagnosticsL39IsCalledFromSystemDiagnosticsStackTraceERKNSt3__26vectorI20Il2CppStackFrameInfoNS4_9allocatorIS6_EEEE
_A:__ZN7mecanim8skeleton26SkeletonPoseComputeGlobalQEPKNS0_8SkeletonEPKNS0_13SkeletonPoseTIN4math4trsXEEEPS7_ii
TTc:__ZN18UnityConnectClient19RegisterVRCallbacksEv
WKe:_List_1_GetEnumerator_m2672519407_gshared
S_b:__ZN10BootConfig4Data3SetEPKcjS2_j
AA:__ZN9BlobWrite8TransferI22OffsetPtrArrayTransferIiEEEvRT_PKc17TransferMetaFlags
Bag:__Z82RuntimeInvoker_Boolean_t3825574718_SByte_t454417549_RuntimeObject_SByte_t454417549PFvvEPK10MethodInfoPvPS4_
H9d:_ContractionComparer_Compare_m314873025
pqe:_Int64_System_IConvertible_ToDouble_m638786774
EJ:__ZN4FMOD6System7releaseEv
IJi:__ZN15dense_hashtableINSt3__24pairIK10KeyWrapperINS1_IPK10MethodInfoP11Il2CppClassEEEjEES9_17ReflectionMapHashIS8_EN14dense_hash_mapIS9_jSD_NS9_14EqualsComparerINS0_8equal_toIS8_EEEENS0_9allocatorISB_EEE9SelectKeyESI_SK_E21fill_range_with_emptyEPSB_SO_
l2:__Z18PathToAbsolutePathRKN4core12basic_stringIcNS_20StringStorageDefaultIcEEEE
qDe:_Enumerator_MoveNext_m3078170540_AdjustorThunk
XHj:__ZN6il2cpp6icalls8mscorlib6System10Reflection16MonoPropertyInfo16GetTypeModifiersEPvb
pBh:_Action_Invoke_m3801112262
d5f:__Z79RuntimeInvoker_Decimal_t724701077_RuntimeObject_Int32_t2071877448_RuntimeObjectPFvvEPK10MethodInfoPvPS4_
eja:__ZL13BlitImageImplR14ImageReferenceiiRKS_NS_10ColorSpaceENS_8BlitModeEb
_6b:__ZN15DirectorManager17AcquireOutputNodeEv
t4f:__Z64RuntimeInvoker_RuntimeObject_Int16_t4041245914_Int16_t4041245914PFvvEPK10MethodInfoPvPS4_
Fra:__ZN16GeometryJobTasks20ScheduleGeometryJobsER9GfxDevicePFvP15GeometryJobDataEPK22GeometryJobInstructionjb
KH:__ZN12AudioManager29ShutdownReinitializeAndReloadEv
shh:_NetscapeCertTypeExtension_Decode_m2210025005
Ozf:_BaseFixupRecord_DoFixup_m1821597450
LRh:__ZN15dense_hashtableINSt3__24pairIK10KeyWrapperIPK22Il2CppGenericParameterEP11Il2CppClassEES6_N6il2cpp5utils11PointerHashIS4_EEN14dense_hash_mapIS6_S9_SE_NS6_14EqualsComparerINS0_8equal_toIS5_EEEENS0_9allocatorISA_EEE9SelectKeyESJ_SL_E6insertERKSA_
xte:_FileLoadException__ctor_m1356374414
zxh:_InvokableCall_4_Invoke_m1140294390_gshared
hNj:__ZNSt3__210unique_ptrINS_11__tree_nodeINS_12__value_typeIPvxEES3_EENS_22__tree_node_destructorINS_9allocatorIS5_EEEEE5resetEPS5_
xga:__ZN14DataBufferGLES16RecreateWithDataEjPKv
gva:__Z29GetGlobalAllowNameConversionsv
vWk:_emscripten_glBlendFunc__wrapper
rXb:__ZN8Material8SetColorEN9ShaderLab16FastPropertyNameERK10ColorRGBAf
k$f:_Module_GetCustomAttributes_m3581287913
tL:__ZN11AudioSource23VirtualRedirectTransferER18StreamedBinaryReadILb0EE
g4:__ZN21AssetReferenceStorageC2Ev
M_:__ZL41AssemblyNameMatchesWithOrWithoutExtensionPKcS0_
dUh:__ZNSt3__213__vector_baseIPK10Il2CppTypeNS_9allocatorIS3_EEE17__destruct_at_endEPS3_
Boa:__ZN14GfxContextGLES43AddRenderSurfaceToDeferredFBOInvalidateListEPK17RenderSurfaceGLES
D3i:__ZN6il2cpp6icalls8mscorlib6System9Threading6Thread15Thread_internalEP12Il2CppThreadP14Il2CppDelegate
hxa:__ZN11NamedObject23VirtualRedirectTransferER14SafeBinaryRead
hFh:_AudioListener_GetNumExtensionProperties_m2652400521
dzc:__ZNSt3__26vectorIN20TextRenderingPrivate8FontImpl13CharacterInfoE13stl_allocatorIS3_L18MemLabelIdentifier1ELi16EEE6insertENS_11__wrap_iterIPKS3_EERS9_
bya:__ZN23PreloadManagerOperation6IsDoneEv
Bie:_X509Certificate_get_RawData_m3000055075
oUh:__ZNSt3__26vectorIPK10Il2CppTypeNS_9allocatorIS3_EEE21__push_back_slow_pathIRKS3_EEvOT_
P7b:__Z33GetHasChangedDeprecatedSystemMaskv
uzj:__ZN6il2cpp5utils11StringUtils11Utf16ToUtf8ERKNSt3__212basic_stringIDsNS2_11char_traitsIDsEENS2_9allocatorIDsEEEE
HEg:_Enumerator_VerifyState_m1165543189_AdjustorThunk
fNd:_DateTime_AddSeconds_m722082155_AdjustorThunk
_Bd:_SynchronizedArrayListWrapper_CopyTo_m956887031
xab:__ZN21LightProbeProxyVolume18HasHardwareSupportEv
vni:__ZNSt3__26vectorIPK10MethodInfoNS_9allocatorIS3_EEEC2Ev
INh:_CanvasRenderer_set_materialCount_m1703953120
mQb:__ZN26LightProbeProxyVolumeCacheC2ER13BatchRendererR15RenderLoopStats
Sja:__ZN6prcoreL31inner_stretch_argb8888_bilinearEPKNS_9InnerInfoE
exb:__Z18Transfer_BlittableI18StreamedBinaryReadILb1EELb1E8BitFieldEvRK29SerializationCommandArgumentsR31RuntimeSerializationCommandInfo
z1i:__ZNSt3__216allocator_traitsINS_9allocatorIN6il2cpp2vm22EmbeddedResourceRecordEEEE9constructIS4_JS4_EEEvRS5_PT_DpOT0_
_Ac:_UNITY_FT_Outline_Decompose
eff:_TlsClientCertificate_get_ClientCertificate_m3062440489
s3c:_StrongNamePublicKeyBlob_ToString_m3721281223
v2h:__ZNSt3__24pairIK10KeyWrapperIN6il2cpp5utils13dynamic_arrayIPK10Il2CppTypeLj4EEEEPFvvEEC2ERKSD_
TVg:_InternalEnumerator_1_get_Current_m198513457_AdjustorThunk
oJa:__Z20scripting_object_new17ScriptingClassPtr
Mle:_TextInfo__ctor_m2782608694
xUh:__ZNKSt3__214__split_bufferIPK10Il2CppTypeRNS_9allocatorIS3_EEE9__end_capEv
rRe:_Queue_1_System_Collections_ICollection_CopyTo_m772787461_gshared
LFi:__ZN24dense_hashtable_iteratorINSt3__24pairIK10KeyWrapperINS1_IPK9FieldInfoP11Il2CppClassEEEjEES9_17ReflectionMapHashIS8_EN14dense_hash_mapIS9_jSD_NS9_14EqualsComparerINS0_8equal_toIS8_EEEENS0_9allocatorISB_EEE9SelectKeyESI_SK_E30advance_past_empty_and_deletedEv
Vle:_TextInfo_ToUpper_m299550697
grc:__ZN9JSONWrite8TransferI13dynamic_arrayI8BitFieldLj4EEEEvRT_PKc17TransferMetaFlags
uld:_Graphic_OnRectTransformDimensionsChange_m1610753363
_Kd:_Convert_ToUInt16_m3265369225
P:Math_exp
Oze:_MonoEnumInfo_get_Cache_m3551569711
Ao:FUNCTION_TABLE_iiifi
$pj:__ZN6il2cpp2os5posix13PosixAutoLockD2Ev
LWd:_Array_InternalArray__ICollection_Contains_TisVector3_t2243707580_m3625701788_gshared
dpa:__ZNSt3__26vectorINS_4pairIyP17VertexDeclarationEENS_9allocatorIS4_EEE6insertENS_11__wrap_iterIPKS4_EERS9_
cvc:__GLOBAL__sub_I_modules_physics2d_public_0_cpp
dFc:_cff_get_advances
ICb:__ZN13MonoBehaviour9SetScriptERK4PPtrI10MonoScriptE18ScriptingObjectPtr
BWd:_Array_InternalArray__ICollection_Contains_TisPlayableBinding_t2498078091_m4267109606_gshared
GAc:_UNITY_FT_Create_Class_sfnt_module_class
B9i:__ZNSt3__218uninitialized_copyIPNS_4pairIK10KeyWrapperIP14Il2CppIUnknownEjEES8_EET0_T_SA_S9_
OPd:_Decimal_IsZero_m3557909184_AdjustorThunk
Fzd:_Char_ToString_m1401375624
VZc:_MD5CryptoServiceProvider__cctor_m3309191799
PCa:__ZNK10FileSystem16LastErrorMessageEv
ADj:__ZNK6il2cpp8metadata14Il2CppTypeLessclEPK10Il2CppTypeS4_
Lig:__Z74RuntimeInvoker_Vector2_t2243707579_Vector2_t2243707579_Vector2_t2243707579PFvvEPK10MethodInfoPvPS4_
SEe:_Enumerator_System_Collections_IEnumerator_Reset_m3052395060_gshared
x7e:_Kernel_DwordDivMod_m3728402123
ZBb:__ZN13MonoBehaviour13AwakeFromLoadE17AwakeFromLoadMode
zDj:__ZN6il2cpp8metadataL7CompareIhEEiRKT_S4_
lrb:__ZL26Transfer_SimpleNativeClassI17RemapPPtrTransfer8GradientLb1EEvRK29SerializationCommandArgumentsR31RuntimeSerializationCommandInfo
b8b:__ZN12CachedWriter9InitWriteER15CacheWriterBase
U6b:__Z21UnsignedInt64ToStringy
wIf:_UTF7Decoder__ctor_m549434986
r0g:_InternalEnumerator_1_get_Current_m1025321669_AdjustorThunk
ATh:__ZNSt3__217__compressed_pairIPjNS_9allocatorIjEEEC2ES1_
zjc:__Z66Register_UnityEngine_Transform_INTERNAL_CALL_InverseTransformPointv
D6:__ZZN15DirectorManager15InitializeClassEvEN41FixedUpdateDirectorFixedUpdateRegistrator7ForwardEv
GFj:_GC_clear_fl_links
_jh:_X509Crl_VerifySignature_m1390212587
Vsf:_Group__ctor_m4103922028
Sgi:__ZNSt3__214__split_bufferI6pollfdRNS_9allocatorIS1_EEEC2EjjS4_
iZk:_glLinkProgram__wrapper
hjb:__ZN18ScriptingArguments8AddInt64Ex
Aka:__ZN6prcoreL12RemapGenericI17TexFormatARGB888815TexFormatBGR888EEvPKNS_9InnerInfoE
yFi:__ZN15dense_hashtableINSt3__24pairIK10KeyWrapperINS1_IPK9FieldInfoP11Il2CppClassEEEjEES9_17ReflectionMapHashIS8_EN14dense_hash_mapIS9_jSD_NS9_14EqualsComparerINS0_8equal_toIS8_EEEENS0_9allocatorISB_EEE9SelectKeyESI_SK_E13clear_deletedER30dense_hashtable_const_iteratorISB_S9_SD_SM_SI_SK_E
Ojb:__ZN12HandlerChain4LockER13FileEntryData12FileLockMode
$Zc:_MD5CryptoServiceProvider_ProcessFinalBlock_m1052610785
oCd:_BitArray_Set_m2878881714
WUc:__ZN28UnityConnectScriptingClasses23CallSessionStateChangedEixxbP21ScriptingExceptionPtr
xme:_Guid_CompareTo_m2203922782_AdjustorThunk
cAg:_Selectable_get_colors_m3501193396
Saj:__ZN6il2cpp6icalls8mscorlib6System13Globalization11CultureInfo35construct_internal_locale_from_nameEP17Il2CppCultureInfoP12Il2CppString
zOh:__ZL18incMultConstant128PyS_ii
ttb:__ZL22Transfer_ManagedObjectI24GenerateTypeTreeTransferLb1EEvRK29SerializationCommandArgumentsR31RuntimeSerializationCommandInfo
Ftj:__ZNSt3__26__treeINS_12basic_stringIcNS_11char_traitsIcEENS_9allocatorIcEEEENS_4lessIS6_EENS4_IS6_EEE15__insert_uniqueERKS6_
F9g:_ContextAttribute_Equals_m53324298
Wj:_emscripten_set_main_loop_timing
YAk:_Camera_ScreenToViewportPoint_m3458250415
LRf:_WeakReference_AllocateHandle_m1783929473
sga:__ZN14DataBufferGLES12RecordRenderEv
t5d:_Array_Sort_TisRuntimeObject_m3674422195_gshared
YWb:__ZN14ImageReference10FlipImageYEv
cBi:__ZNSt3__217__compressed_pairIPNS_12basic_stringIcNS_11char_traitsIcEENS_9allocatorIcEEEENS4_IS6_EEEC2ES7_S8_
$lc:__Z14GetDefaultSkini
wbi:__ZNSt3__216allocator_traitsINS_9allocatorI6pollfdEEE7destroyIS2_EEvRS3_PT_
YE:__ZN4FMOD3DSP9setBypassEb
u_b:__Z19NormalizeWheelInputf
TWd:_Array_InternalArray__ICollection_Remove_TisLink_t865133271_m1984184141_gshared
Xuc:__Z29Transfer_Blittable_ArrayFieldI8JSONReadhEvRT_R9ArrayInfoRK23StaticTransferFieldInfo
Ksd:_LayoutRebuilder_IsDestroyed_m3442208294
iEg:_Enumerator_VerifyState_m1547102902_AdjustorThunk
$Tj:__ZN6il2cpp2os20ThreadLocalValueImpl8SetValueEPv
RJa:__ZN22RenderingCommandBuffer20CleanupCommandBufferEv
Oag:__Z165RuntimeInvoker_Void_t1841601450_UInt32U26_t2197289955_Int32_t2071877448_UInt32U26_t2197289955_Int32_t2071877448_Int32_t2071877448_Int32_t2071877448_Int32_t2071877448PFvvEPK10MethodInfoPvPS4_
Mpc:__Z18Transfer_BlittableI9JSONWriteLb1EtEvRK29SerializationCommandArgumentsR31RuntimeSerializationCommandInfo
yte:_FileLoadException__ctor_m918124939
nk:___syscall85
d5i:__ZN6il2cpp5utils10StringViewIDsE5EmptyEv
d9:__ZN15dense_hashtableINSt3__24pairIKN4core12basic_stringIcNS2_20StringStorageDefaultIcEEEE13dynamic_arrayI4PPtrI6SpriteELj4EEEES6_20StringHash32FunctionIS6_EN14dense_hash_mapIS6_SC_SF_NS0_8equal_toIS6_EE13stl_allocatorISD_L18MemLabelIdentifier81ELi16EEE9SelectKeyESI_SL_E5clearEv
YKb:__ZNSt3__26__sortIRPFbP10GUIElementS2_EPS2_EEvT0_S7_T_
e8e:_SequentialSearchPrimeGeneratorBase_GenerateSearchBase_m2930465198
O5b:__ZN16GraphicsSettings12CleanupClassEv
zwj:__ZN6il2cpp2os6Thread19DetachCurrentThreadEv
uSh:__ZN6il2cpp2vmL21SetupInterfacesLockedEP11Il2CppClassRKNS_2os12FastAutoLockE
Zlb:__ZN11MonoManager23VirtualRedirectTransferER24GenerateTypeTreeTransfer
VOa:__ZN19StreamedBinaryWriteILb0EE8TransferI13dynamic_arrayI8Vector3fLj4EEEEvRT_PKc17TransferMetaFlags
Jy:__ZN23AnimationPlayableOutput17SetSourcePlayableEP8Playable
vsf:_Capture__ctor_m885749277
Bod:_SubmitEvent__ctor_m222860306
LR:__ZN11UnityEngine15CloudWebService14DataDispatcher15SetupWebRequestEv
Gxe:_TextWriter__cctor_m4047845042
Okj:__ZNSt3__24pairIK10KeyWrapperIP12Il2CppObjectEN6il2cpp2gc9CachedCCWEEC2ILb1EvEEv
$Rc:__ZN11UnityEngine15PlatformWrapper13GetShaderCapsEv
pIk:_Object_ToString_m2938729670
FSb:__ZNSt3__211__sift_downIR26RenderDeferredObjectSorterP16RenderObjectDataEEvT0_S5_T_NS_15iterator_traitsIS5_E15difference_typeES5_
Vod:_InputField_CaretBlink_m3960486606
Zj:_emscripten_glGetProgramiv
ufe:_SmallXmlParser_ReadCharacters_m1966365555
$if:_InternalAsyncResult_get_CompletedWithError_m3993955322
w6b:__ZN21FixedBehaviourManager6UpdateEv
Qac:__ZN9Transform9SetParentEPS_NS_15SetParentOptionE
Hmd:_GridLayoutGroup_set_startCorner_m1660251450
DHa:__ZN19ShaderPropertySheet8SetFloatEN9ShaderLab16FastPropertyNameEfNS_8SetFlagsE
hvk:__ZL68InputField_t1631627530_CustomAttributesCacheGenerator_m_AsteriskCharP21CustomAttributesCache
m9a:__ZN19RuntimeSceneManager24BeginIntegrateMainThreadEP10UnityScene
ptj:__ZNSt3__2plIcNS_11char_traitsIcEENS_9allocatorIcEEEENS_12basic_stringIT_T0_T1_EERKS9_S6_
xye:_LocalDataStoreSlot__cctor_m1192669356
heb:__ZN9ShaderLab20SerializedSubProgramaSERKS0_
RPk:_roundf
p8c:_String_CreateString_m2556700934
rFa:__ZN18StreamedBinaryReadILb0EE21TransferSTLStyleArrayINSt3__26vectorI17SortingLayerEntryNS2_9allocatorIS4_EEEEEEvRT_17TransferMetaFlags
AJj:__ZNSt3__217__compressed_pairIPNS_11__list_nodeIPN6il2cpp5utils10MemoryPool6RegionEPvEENS_22__allocator_destructorINS_9allocatorIS8_EEEEEC2ES9_SD_
ns:__ZN8Animator15SetPrepareStageEv
xBg:_Slider_get_axis_m162140813
vSh:__ZN6il2cpp2vmL24SetupTypeHierarchyLockedEP11Il2CppClassRKNS_2os12FastAutoLockE
Fni:__ZNKSt3__213__vector_baseIPK10MethodInfoNS_9allocatorIS3_EEE9__end_capEv
C_b:__ZL11TextHandleriPK23EmscriptenKeyboardEventPv
Vsd:_LayoutRebuilder_U3Cs_RebuildersU3Em__0_m3768099182
Vzg:_ScrollRect_SetLayoutHorizontal_m3486408020
Dyc:_destroy_face
rzj:__ZNSt3__220back_insert_iteratorINS_12basic_stringIcNS_11char_traitsIcEENS_9allocatorIcEEEEEaSEOc
cGk:_Material_SetIntImpl_m1039479734
RDg:_Enumerator_VerifyState_m1547102902_gshared
oIj:__ZN6il2cpp6icalls8mscorlib6System8Security12Cryptography24RNGCryptoServiceProvider13RngInitializeEP11Il2CppArray
Fmf:_IPAddress__cctor_m3624830012
CL:__ZN20SoundChannelInstance7setMuteEb
pof:_AsnEncodedData_EnhancedKeyUsageExtension_m1452131166
Xki:__ZNKSt3__214__split_bufferIP9FieldInfoRNS_9allocatorIS2_EEE8capacityEv
aGj:_set_bits
dyb:__Z19TransferField_ArrayI18StreamedBinaryReadILb1EE27Converter_SimpleNativeClassI17AnimationCurveTplIfEEEvRK23StaticTransferFieldInfoR31RuntimeSerializationCommandInfoRT0_
lph:_SendMouseEvents__cctor_m1448404407
gha:__ZN18GfxFramebufferGLES22MakeCurrentFramebufferENS_7BuiltinE
Btf:_Interpreter_Close_m1500459069
rk:_JS_SystemInfo_GetWidth
iDa:__ZN12CachedReader4ReadEPvj
yFc:_cf2_blues_init
XVg:_InternalEnumerator_1_System_Collections_IEnumerator_get_Current_m3600601141_gshared
x0c:_SHA1Internal_HashFinal_m3188468925
kzd:_Char_GetHashCode_m2343577184
nPb:__Z24CalculateLightShadowFadeRK6CamerafffR8Vector4f
S_:__ZN19RuntimeSceneManagerD2Ev
q7g:_ChannelData_get_CustomProperties_m1470957369
F6d:_Dictionary_2_Do_ICollectionCopyTo_TisRuntimeObject_m545661084_gshared
Loj:__ZNSt3__213__vector_baseI20Il2CppStackFrameInfoNS_9allocatorIS1_EEE7__allocEv
$S:__ZN11UnityEngine15CloudWebService25WebRequestDownloadHandler17OnCompleteContentEv
Rja:__ZN6prcore17GetIntegerBlitterE13TextureFormatS0_N14ImageReference8BlitModeE
$Ji:__ZN6il2cpp2gc19AppendOnlyGCHashMapINSt3__24pairIPK11Il2CppImageP11Il2CppClassEEP22Il2CppReflectionModule17ReflectionMapHashIS9_ENS2_8equal_toIS9_EEE11TryGetValueERKS9_PSB_
eFg:_Enumerator_VerifyState_m3173176371_AdjustorThunk
Nlf:_TypeConverterAttribute__cctor_m506796812
Qcc:__ZN9BlobWrite14ReduceCopyImplERK14ReduceCopyDataj
wY:__ZNSt3__26__treeI19RepeatingLogMessageNS_4lessIS1_EE13stl_allocatorIS1_L18MemLabelIdentifier73ELi16EEE12__find_equalIS1_EERPNS_16__tree_node_baseIPvEESD_RKT_
hP:__ZN11AudioSource18IsPlayingScriptingEv
Q2g:_Comparer_1_System_Collections_IComparer_Compare_m1790257529_gshared
nUk:_glShaderSource__wrapper
qBa:__ZN25MultiBlocksMemoryFileData17AdjustBlocksCountEj
G1i:__ZNSt3__214__split_bufferIN6il2cpp2vm22EmbeddedResourceRecordERNS_9allocatorIS3_EEED2Ev
$cf:_TlsClientHello__ctor_m1699671541
Jwc:__ZN13TextRendering4Font8TransferI24GenerateTypeTreeTransferEEvRT_
_8g:_Context_NotifyGlobalDynamicSinks_m2916447645
hec:__Z27CullingGroup_CUSTOM_DisposeP12Il2CppObject
tVc:__ZNSt3__26vectorIP19BaseConnectSettings13stl_allocatorIS2_L18MemLabelIdentifier6ELi16EEE21__push_back_slow_pathIKS2_EEvRT_
gKb:__ZN13ComputeShader15SetTextureParamEjRKN9ShaderLab16FastPropertyNameE9TextureID16TextureDimension
OAg:_Shadow_set_effectDistance_m1951993364
IMg:_Dictionary_2_ContainsKey_m416495915_gshared
xm:_glStencilMask
Qsj:__ZN6il2cpp2os10ThreadImpl16GetCurrentThreadEv
UDd:_Hashtable__ctor_m2337481811
LEg:_Enumerator_System_Collections_IEnumerator_get_Current_m2010873149_gshared
hxk:__ZL74SpriteState_t1353336012_CustomAttributesCacheGenerator_m_HighlightedSpriteP21CustomAttributesCache
nyf:_RealProxy__ctor_m2505535530
zPf:_UInt32_System_IConvertible_ToUInt16_m2798641702_AdjustorThunk
lAf:_BinaryFormatter_get_DefaultSurrogateSelector_m219714691
zB:__ZN12_GLOBAL__N_121ProcessAnimationBeginER35AnimationPlayableEvaluationConstantR32AnimationPlayableEvaluationInputR33AnimationPlayableEvaluationOutput
k7f:__Z136RuntimeInvoker_Void_t1841601450_Int32_t2071877448_RuntimeObject_RuntimeObject_RuntimeObject_RuntimeObject_RuntimeObject_SByte_t454417549PFvvEPK10MethodInfoPvPS4_
C9e:_MD4Managed_Encode_m2097839378
A1f:_MonoProperty_GetOptionalCustomModifiers_m3827844355
hMk:_strrchr
H2i:__ZNKSt3__26vectorIcNS_9allocatorIcEEE8max_sizeEv
IWh:__ZNSt3__2plIcNS_11char_traitsIcEENS_9allocatorIcEEEENS_12basic_stringIT_T0_T1_EEPKS6_OS9_
Dae:_SimpleCollator_GetSortKey_m2188419329
$xk:__ZL56LayoutElement_t2808691390_CustomAttributesCacheGeneratorP21CustomAttributesCache
SPa:__ZN14RenderSettings27UpdateIndirectSpecularColorEv
V6a:__ZN14PlayerSettings8TransferI18StreamedBinaryReadILb0EEEEvRT_
rni:__ZN6il2cpp6icalls8mscorlib6System8MonoType16GetMethodsByNameEP20Il2CppReflectionTypeP12Il2CppStringibS5_
RFk:_Logger_Log_m302200299
a6g:_GCHandle__ctor_m2952050298
Nug:_Mask_IsRaycastLocationValid_m62488857
JGb:__ZNSt3__27__sort3IRNS_4lessIN22BuiltinResourceManager8ResourceEEEPS3_EEjT0_S7_S7_T_
e2g:_DefaultComparer_Compare_m3472472212_gshared
Wte:_MonoIO_GetLength_m2812344043
kEc:_ps_hints_t2mask
ZTi:__ZN14dense_hash_mapI10KeyWrapperINSt3__24pairIP11Il2CppClassjEEES4_N6il2cpp8metadata14ArrayClassHashENS6_14EqualsComparerINS8_17ArrayClassCompareEEENS1_9allocatorINS2_IKS6_S4_EEEEEC2EjRKS9_RKSC_
x3a:__ZN10BlendShape8TransferI19StreamedBinaryWriteILb0EEEEvRT_
pre:__Z21il2cpp_codegen_sizeofP11Il2CppClass
Zna:__Z19GetTimeSinceStartupv
Z4c:_SecurityFrame_get_Assembly_m2816566490
GNh:_CanvasRenderer_set_hasPopInstruction_m3302400555
oJc:_TT_Load_Composite_Glyph
Fud:_Array_Sort_m2994254654
$Pe:_List_1__ctor_m593058937_gshared
GNb:__ZN29RenderNodeQueuePrepareContextC2Ev
eO:__ZN10SampleClipC2E18MemLabelIdentifier18ObjectCreationMode
jfb:__ZN9ShaderLab20SerializedSubProgram16TextureParameter8TransferI24GenerateTypeTreeTransferEEvRT_
yaa:__ZN9GfxDevice19SaveStereoConstantsEv
ZJj:__ZN6il2cpp2os11MutexHandle4WaitEj
Fbc:__ZL34GetComponentsImplementationRecurseILb1ELi1ELi1EEbR10GameObjectbRK17CompareParametersRK39GetComponentsImplementation_ReturnValue
YJj:__ZN6il2cpp2os11MutexHandle4WaitEv
_zd:_ArrayList_set_Capacity_m592558035
Kla:__ZN6prcoreL17RemapGenericFloatI15TexFormatRGHalf18TexFormatARGBFloatEEvPKNS_9InnerInfoE
p0i:__ZN6il2cpp6icalls8mscorlib6SystemL10AssignRealIfEEvNS2_17WidenedValueUnionEPv14Il2CppTypeEnumjj
mFb:__Z18SimulateMouseInputi
AJb:__ZN13RenderManager23AddRemoveCamerasDelayedEv
Rqc:__ZN9JSONWrite8TransferI13dynamic_arrayIdLj8EEEEvRT_PKc17TransferMetaFlags
ABk:_Color_op_Multiply_m2110750533
mXd:_Array_InternalArray__ICollection_Remove_TisILTokenInfo_t149559338_m1523907845_gshared
lEd:_Hashtable_Rehash_m2877670513
Ltg:__Z98RuntimeInvoker_RuntimeObject_UIVertex_t1204258818_UIVertex_t1204258818_RuntimeObject_RuntimeObjectPFvvEPK10MethodInfoPvPS4_
JVb:__ZN13RenderTexture8SetWidthEi
Tqd:_InputField_Insert_m1593238693
Ozc:_UNITY_FT_GlyphLoader_CheckSubGlyphs
Rci:__ZN6il2cpp2vm21ThreadPoolCompartment20SpawnNewWorkerThreadEv
x0d:_Array_InternalArray__ICollection_Add_TisCustomAttributeTypedArgument_t1498197914_m3260005285_gshared
SPb:__Z25SetupObjectBakedOcclusionbRK15SharedLightDataRK26SharedLightmapSettingsDataRK15LightmapIndicesR17ShaderPassContext
Ame:_Guid_GetHashCode_m1401300871
Iyi:__ZNKSt3__211__wrap_iterIPKcEplEi
HY:__ZN9ShaderLab16FastPropertyName4InitEPKc
H0b:__Z13RegisterClassIN2UI13RectTransformEEvv
$9d:_MSCompatUnicodeTable_ToWidthCompat_m2299599532
wBe:_NumberFormatter_get_IsFloatingSource_m2830957202
w4b:__ZL31MeshRendererTransformChangedJobP13BoundsJobDatajPK23TransformAccessReadOnlyPKyj
HRc:__ZN11UnityEngine15PlatformWrapper19GetPhysicalMemoryMBEv
GZi:___cxx_global_var_init_1_13740
CQa:__ZN13RenderTexture9SetMipMapEb
kYh:__ZN15dense_hashtableINSt3__24pairIK10KeyWrapperIPK11Il2CppClassEPKcEES6_N6il2cpp5utils11PointerHashIS3_EEN14dense_hash_mapIS6_S9_SE_NS6_14EqualsComparerINS0_8equal_toIS5_EEEENS0_9allocatorISA_EEE9SelectKeyESJ_SL_E13set_empty_keyERKSA_
Vyg:_ScrollRect_set_verticalScrollbarSpacing_m2356851539
l6:__Z18GetDirectorManagerv
eXh:__ZN14dense_hash_mapI10KeyWrapperIPK11Il2CppClassEPKcN6il2cpp5utils11PointerHashIS1_EENS4_14EqualsComparerINSt3__28equal_toIS3_EEEENSC_9allocatorINSC_4pairIKS4_S6_EEEEEC2EjRKSA_RKSF_
Wic:__Z38Transform_CUSTOM_INTERNAL_get_rotationP12Il2CppObjectP11Quaternionf
lBi:__ZNSt3__26vectorIN6il2cpp2vm17TypeNameParseInfoENS_9allocatorIS3_EEE8allocateEj
bZj:__ZL70InternalsVisibleToAttribute_t1037732567_CustomAttributesCacheGeneratorP21CustomAttributesCache
CJi:__ZNK15dense_hashtableINSt3__24pairIK10KeyWrapperINS1_IPK10MethodInfoP11Il2CppClassEEEjEES9_17ReflectionMapHashIS8_EN14dense_hash_mapIS9_jSD_NS9_14EqualsComparerINS0_8equal_toIS8_EEEENS0_9allocatorISB_EEE9SelectKeyESI_SK_E5beginEv
Pma:__ZN7ApiGLES19UploadBufferSubDataEjN2gl12BufferTargetEllPKv
R8:__ZNSt3__216__rotate_forwardINS_11__wrap_iterIPN4core12basic_stringIcNS2_20StringStorageDefaultIcEEEEEEEET_S9_S9_S9_
w6c:_String_System_IConvertible_ToInt32_m1927223638
JXd:_Array_InternalArray__ICollection_Remove_TisContentType_t1028629049_m3085152315_gshared
D8c:_ASCIIEncoding__ctor_m4127831672
RBk:_GameObject_GetComponent_m724360550
oob:__Z19TransferField_ArrayI14SafeBinaryRead27Converter_SimpleNativeClassI8GUIStyleEEvRK23StaticTransferFieldInfoR31RuntimeSerializationCommandInfoRT0_
Bdg:__Z63RuntimeInvoker_Void_t1841601450_RuntimeObject_Int16_t4041245914PFvvEPK10MethodInfoPvPS4_
wGf:_UTF8Encoding__ctor_m3336862259
G8i:__ZN15dense_hashtableINSt3__24pairIK10KeyWrapperIP14Il2CppIUnknownEjEES5_N6il2cpp5utils11PointerHashIS3_EEN14dense_hash_mapIS5_jSB_NS5_14EqualsComparerINS0_8equal_toIS4_EEEENS0_9allocatorIS7_EEE9SelectKeyESG_SI_ED2Ev
LJj:__ZN6il2cpp5utils10MemoryPoolC2Ej
Kqf:_X509Chain_GetAuthorityKeyIdentifier_m2607407678
DIj:__ZN6il2cpp5utils10MemoryPoolC2Ev
oPa:__ZN14RenderSettings5ResetEv
x$b:__ZN6Sprite9BindAtlasERK4PPtrI11SpriteAtlasE
Cnc:__ZN5Unity9rapidjson12GenericValueINS0_4UTF8IcEE13JSONAllocatorE10FindMemberIS4_EENS0_21GenericMemberIteratorILb0ES3_S4_EERKNS1_IS3_T_EE
kyi:__ZNKSt3__213__vector_baseIiNS_9allocatorIiEEE7__allocEv
F6i:__ZNSt3__212basic_stringIDsNS_11char_traitsIDsEENS_9allocatorIDsEEE6appendEPKDsj
boc:__ZN5Unity9rapidjson13GenericReaderINS0_4UTF8IcEES3_13JSONAllocatorE11ParseNumberILj1ENS0_25GenericInsituStringStreamIS3_EENS0_15GenericDocumentIS3_S4_S4_EEEEvRT0_RT1_
Y6d:_Dictionary_2_Do_ICollectionCopyTo_TisKeyValuePair_2_t3716250094_m1740410536_gshared
mrj:__ZN6il2cpp2os10ThreadImplD2Ev
Age:_RSAManaged_Dispose_m3018788098
Uoc:__ZN8Gradient8TransferI9JSONWriteEEvRT_
FJf:_Monitor_Monitor_pulse_m2135582245
iId:_DateTime_ToUniversalTime_m1815024752
Ixa:__ZNK12TLSAllocatorI14StackAllocatorE22GetAllocatedMemorySizeEv
Ydi:__ZNSt3__210__list_impIP17Il2CppAsyncResultN6il2cpp2gc9AllocatorIS2_EEE4__szEv
K0j:__ZL54AssemblyName_t894705941_CustomAttributesCacheGeneratorP21CustomAttributesCache
lLd:_Convert_ToUInt32_m3394039268
Zqh:_Transform_get_forward_m2144220796
Ava:__ZN17RemapPPtrTransfer12PushMetaFlagE17TransferMetaFlags
zjb:__ZN12HandlerChain4NameEv
$pb:__Z29Transfer_Blittable_ArrayFieldI14SafeBinaryReadN4math12int3_storageEEvRT_R9ArrayInfoRK23StaticTransferFieldInfo
h5a:__ZNSt3__26vectorI9InputAxisNS_9allocatorIS1_EEE10deallocateEv
yne:_Int16_Equals_m3925135434_AdjustorThunk
hvj:__ZN6il2cpp5utils10StringViewIDsEC2ILj2EEERAT__KDs
JPc:__Z44Register_UnityEngine_CanvasRenderer_get_cullv
p_j:__ZL60IHashCodeProvider_t1980576455_CustomAttributesCacheGeneratorP21CustomAttributesCache
c1b:__ZN13ProduceHelperI13MonoBehaviourLb0EE7ProduceE18MemLabelIdentifier18ObjectCreationMode
gEe:_Enumerator_VerifyState_m1677639504_AdjustorThunk
jcf:_CipherSuiteCollection_get_Item_m280627160
rmb:__Z44InitializeTransferFunctionScriptingTraitsForI17RemapPPtrTransferEvR31TransferFunctionScriptingTraits
tvf:_SerializationInfoEnumerator_MoveNext_m1876990879
XLf:_TimeSpan_Duration_m4205681645
FXb:__ZN14UnityWebStream24UpdateAllUnityWebStreamsEv
r1b:__ZNSt3__26vectorI16MessageForwarder13stl_allocatorIS1_L18MemLabelIdentifier7ELi8EEE6resizeEj
RYj:__ZL60ObsoleteAttribute_t3878847927_CustomAttributesCacheGeneratorP21CustomAttributesCache
_fh:_Uri_ParseAsWindowsAbsoluteFilePath_m1108586962
YR:__ZN11UnityEngine15CloudWebService14DataErrorEventD2Ev
Z1d:_Array_InternalArray__ICollection_CopyTo_TisRaycastHit2D_t4063908774_m3837098618_gshared
k9a:__ZN18LoadSceneOperation21MustCompleteNextFrameEv
Iph:_DataUtility_GetInnerUV_m593541260
DL:__ZNK12AudioManager16GetAudioListenerEv
Tsj:__ZN6il2cpp2osL23CleanupThreadIfCanceledEPv
Wek:__ZL48Camera_t189460977_CustomAttributesCacheGeneratorP21CustomAttributesCache
pVb:__ZNSt3__26vectorI11CameraStackNS_9allocatorIS1_EEE8__appendEj
u2i:__ZNSt3__212basic_stringIcNS_11char_traitsIcEENS_9allocatorIcEEE6__initINS_11__wrap_iterIPcEEEENS_9enable_ifIXsr21__is_forward_iteratorIT_EE5valueEvE4typeESB_SB_
aqd:_InputField_OnDisable_m1865339380
wPf:_UInt32_System_IConvertible_ToType_m747769316
Mt:__ZN7mecanim9animation12GetHumanPoseERKNS0_18ClipMuscleConstantEPKNS0_10ValueDeltaERNS_5human9HumanPoseE
Bv:__ZN22AnimationMixerPlayable17ProcessRootMotionEP35AnimationPlayableEvaluationConstantP32AnimationPlayableEvaluationInputP33AnimationPlayableEvaluationOutput
r2:__Z13GetFileSystemv
q5b:__ZZL23RegisterLightPropertiesR22GenericPropertyBindingEN29Wrapper_LightColorTemperature13SetFloatValueEPvf
K3:__ZNK5Unity4Type21FindAllDerivedClassesER13dynamic_arrayIPKS0_Lj4EENS0_17TypeFilterOptionsE
p4:__ZN13RuntimeStaticI15GUIEventManagerLb0EE16StaticInitializeEPv
LSh:__ZNKSt3__213__vector_baseIjNS_9allocatorIjEEE9__end_capEv
vKg:_Dictionary_2_ToTKey_m2900575080_gshared
oke:_DaylightTime_get_Delta_m2316831491
HWd:_Array_InternalArray__ICollection_Contains_TisUILineInfo_t3621277874_m1175659630_gshared
mLf:_WaitHandle_WaitOne_m370363697
Qsf:_FactoryCache_Lookup_m1681894361
INd:_DateTime_Subtract_m698282245_AdjustorThunk
Wcc:__Z7OpenURLRKN4core12basic_stringIcNS_20StringStorageDefaultIcEEEE
o$d:_Array_InternalArray__IndexOf_TisResourceCacheItem_t333236149_m761772858_gshared
Qpi:__ZNKSt3__26vectorIN6il2cpp6icalls8mscorlib6System12PropertyPairENS_9allocatorIS5_EEE11__recommendEj
tKb:__ZN19ShaderPropertySheet9SetMatrixEN9ShaderLab16FastPropertyNameERK10Matrix4x4fNS_8SetFlagsE
Y_c:_RIPEMD160Managed_Initialize_m3365407578
XWa:__Z29GetTextureSizeAllowedMultiple13TextureFormat
Emf:_IPAddress_HostToNetworkOrder_m1092199707
vYd:_SetPropertyUtility_SetStruct_TisSpriteState_t1353336012_m2898060836_gshared
cAi:__ZNSt3__214__split_bufferIN6il2cpp2vm17TypeNameParseInfoERNS_9allocatorIS3_EEE17__destruct_at_endEPS3_
e3c:_SecurityAttribute__ctor_m3425755778
M6b:__ZN21IntermediateRenderers3AddEP20IntermediateRenderer
Oti:_il2cpp_array_element_size
Wf:_glCheckFramebufferStatus
MZd:_Array_compare_TisInt32_t2071877448_m840310202_gshared
Vcj:__ZN15dense_hashtableINSt3__24pairIK10KeyWrapperINS1_IPKcS4_EEEiEES6_24NamespaceAndNamePairHashN14dense_hash_mapIS6_iS9_NS6_14EqualsComparerI26NamespaceAndNamePairEqualsEENS0_9allocatorIS8_EEE9SelectKeyESD_SF_E12resize_deltaEjj
D1g:_InternalEnumerator_1_System_Collections_IEnumerator_get_Current_m442726479_AdjustorThunk
jU:__ZN19CloudServiceHandler20StartEventDispatcherERKN11UnityEngine15CloudWebService18CloudServiceConfigERNS1_23WebRequestRestHeaderMapE
uFi:__ZN24dense_hashtable_iteratorINSt3__24pairIK10KeyWrapperINS1_IPK9FieldInfoP11Il2CppClassEEEjEES9_17ReflectionMapHashIS8_EN14dense_hash_mapIS9_jSD_NS9_14EqualsComparerINS0_8equal_toIS8_EEEENS0_9allocatorISB_EEE9SelectKeyESI_SK_EC2EPK15dense_hashtableISB_S9_SD_SM_SI_SK_EPSB_SS_b
L$g:_InternalEnumerator_1_System_Collections_IEnumerator_get_Current_m790514740_AdjustorThunk
P9d:__Z37il2cpp_codegen_get_executing_assemblyPK10MethodInfo
lih:_PKCS12_get_Keys_m1312614820
O_d:_Array_InternalArray__IndexOf_TisByte_t3683104436_m3605266236_gshared
b5b:__ZZL23RegisterLightPropertiesR22GenericPropertyBindingEN22Wrapper_LightIntensity13GetFloatValueEPv
Ywg:_RaycastAllCallback_Invoke_m981876639
iGf:_UnicodeEncoding__ctor_m72484327
eqh:_Texture_INTERNAL_get_texelSize_m3335010007
apj:__ZNSt3__216allocator_traitsINS_9allocatorI20Il2CppStackFrameInfoEEE7destroyIS2_EEvRS3_PT_
N8i:__ZN14dense_hash_mapI10KeyWrapperIP14Il2CppIUnknownEjN6il2cpp5utils11PointerHashIS1_EENS3_14EqualsComparerINSt3__28equal_toIS2_EEEENS9_9allocatorINS9_4pairIKS3_jEEEEE15set_deleted_keyERSF_
Z3:__ZN22BuiltinResourceManager16StaticInitializeEPv
Joe:_NumberFormatter_ScaleOrder_m1915154678
tTh:__ZNKSt3__213__vector_baseIjNS_9allocatorIjEEE7__allocEv
eef:_ClientSessionInfo_SetContext_m2649357891
wpe:_Int32_System_IConvertible_ToInt64_m3790029067_AdjustorThunk
Pad:_RaycasterManager_GetRaycasters_m1154876874
rjf:_SslStreamBase_InternalReadCallback_m2524917586
w1:__ZN8Remapper6RemoveEi
fJe:_List_1_CheckCollection_m2608305187_gshared
dcc:__ZN9Scripting27CreateArgumentNullExceptionEPKc
kzc:__ZL36CleanupTextRenderingScriptingClassesv
y1e:_ReadOnlyCollection_1__ctor_m3532148437_gshared
lud:_Array_BinarySearch_m3270245097
Egc:__Z34Mesh_CUSTOM_SetArrayForChannelImplP12Il2CppObject30InternalScriptingShaderChannel34InternalScriptingVertexChannelTypeiP11Il2CppArrayi
kte:_MonoIO_DeleteFile_m3273821223
Lbe:_BigInteger_GenerateRandom_m2507308768
jMd:_DateTime_System_IConvertible_ToDouble_m1431748426_AdjustorThunk
_Ph:__ZN14dense_hash_mapI10KeyWrapperIPK22Il2CppGenericParameterEP11Il2CppClassN6il2cpp5utils11PointerHashIS2_EENS4_14EqualsComparerINSt3__28equal_toIS3_EEEENSC_9allocatorINSC_4pairIKS4_S6_EEEEED2Ev
uWd:_Array_InternalArray__ICollection_Contains_TisUInt16_t986882611_m510319131_gshared
b3d:_Array_InternalArray__Insert_TisRaycastHit2D_t4063908774_m3174907903_gshared
cQd:_Decimal_ToString_m541380585
eui:_il2cpp_class_is_valuetype
JD:__ZN11UnityEngine9Animation28GenericAnimationBindingCache25RegisterIAnimationBindingEPKN5Unity4TypeEiP17IAnimationBinding
NPc:__Z70RectTransformUtility_CUSTOM_INTERNAL_CALL_RectangleContainsScreenPointP12Il2CppObjectRK13Vector2fIcallS0_
SSd:_Enum_ToObject_m2601523252
kSh:__ZN6il2cpp2vm5Class15GetElementClassEP11Il2CppClass
ISj:__ZNKSt3__215__tree_iteratorINS_12__value_typeIPFvvEPK10MethodInfoEEPNS_11__tree_nodeIS7_PvEEiEptEv
gUb:__Z40ProcessCameraIndexListIsNodeVisibleInOutRK22SceneCullingParametersPK9SceneNodePK4AABBR9IndexList
CLa:__ZN16GraphicsSettings8TransferI17RemapPPtrTransferEEvRT_
pwe:_StreamReader__ctor_m2654332332
pNc:__ZN2UI6Canvas13UpdateBatchesEb
HIk:_Playable__cctor_m3745623656
Gy:__ZNK23AnimationPlayableOutput11DerivesFromE17ScriptingClassPtr
wBk:_Color_op_Implicit_m3487763211
lHe:_List_1_CheckCollection_m3968030679_gshared
cHf:_StringBuilder_ToString_m617673931
hCi:__ZNSt3__214__split_bufferINS_12basic_stringIcNS_11char_traitsIcEENS_9allocatorIcEEEERNS4_IS6_EEE7__allocEv
BSc:__ZN11UnityEngine7Connect13ConfigHandler12GetListenersERKN4core12basic_stringIcNS2_20StringStorageDefaultIcEEEE
Qba:__ZN9GfxDevice18AllocRenderSurfaceEb
Nwg:_GetRayIntersectionAllNonAllocCallback_BeginInvoke_m273046189
r$b:__ZN10TagManager32GetSortingLayerUniqueIDFromValueEi
kdi:__ZNKSt3__26vectorIP12Il2CppThreadNS_9allocatorIS2_EEE8capacityEv
$dh:_AnchorInfo_get_IsComplete_m1247624133
Xjd:_Dropdown_Show_m324374589
u_:__ZL27CleanupCoreScriptingClassesv
B7f:__Z68RuntimeInvoker_RuntimeObject_RuntimeObject_DSAParameters_t1872138834PFvvEPK10MethodInfoPvPS4_
_lg:__Z101RuntimeInvoker_Void_t1841601450_RuntimeObject_Int32_t2071877448_Single_t2076509932_Single_t2076509932PFvvEPK10MethodInfoPvPS4_
Wqi:__ZN6il2cpp6icalls8mscorlib6SystemL16CheckMemberMatchI12PropertyInfoNS_5utils10functional6FilterINSt3__212basic_stringIcNS8_11char_traitsIcEENS8_9allocatorIcEEEENS5_13VmStringUtils23CaseInsensitiveComparerEEEEEbPKT_PK11Il2CppClassSN_iRKT0_
idd:_RaycastResult_get_isValid_m2482925612
ygc:__Z26AnimationCurve_CUSTOM_InitP12Il2CppObjectP11Il2CppArray
QXk:_glUniform1uiv__wrapper
rPi:__ZN6il2cpp2vm10Reflection7IsEventEP12Il2CppObject
kTj:__ZNSt3__26__treeINS_12__value_typeIPFvvEPK10MethodInfoEENS_19__map_value_compareIS3_S7_NS_4lessIS3_EELb1EEENS_9allocatorIS7_EEE16__insert_node_atEPNS_16__tree_node_baseIPvEERSI_SI_
D$:__ZN17PersistentManager26GetStreamNameSpaceInternalEi
mmh:_Rect_set_y_m3273335367
LF:__ZN4FMOD6System11createSoundEPKcjP22FMOD_CREATESOUNDEXINFOPPNS_5SoundE
lUk:_glRenderbufferStorage__wrapper
Vn:FUNCTION_TABLE_iiifiiii
Coi:__ZNKSt3__26vectorIPK10MethodInfoNS_9allocatorIS3_EEE8max_sizeEv
ZCi:__ZN6il2cpp2vm4Type14IsSystemDBNullEPK10Il2CppType
C6i:__ZN6il2cpp2vm9Exception11FromNameMsgEPK11Il2CppImagePKcS6_RKNS_5utils10StringViewIDsEEi
BZ:__ZN9ShaderLab19CommonPropertyNames13StaticCleanupEPv
O0:__Z31scripting_method_get_returntype18ScriptingMethodPtr
bzg:_ScrollRect_UpdateBounds_m3266596336
kYa:__ZN15SerializeTraitsI12LightmapDataE8TransferI24GenerateTypeTreeTransferEEvRS0_RT_
krh:_Transform_INTERNAL_set_localScale_m1610244689
Ahd:_ColorBlock_GetHashCode_m649325222
pUk:_glStencilOpSeparate__wrapper
_8b:__ZN4Mesh5SetUvEiPKfjj
H_a:__ZN7Texture13SetAnisoLimitENS_20AnisotropicFilteringE
iab:__ZN28LightProbeProxyVolumeManager25UpdateSHCoeffsTextureDataER21LightProbeProxyVolume
mCa:__Z18CreateDecompressor15CompressionType18MemLabelIdentifier
vN:__ZN11AudioModule16SetListenerPauseEb
NJk:_Level2Start_Update_m2576990518
Ph:_emscripten_glCompressedTexSubImage2D
qoa:__ZN13GfxDeviceGLES22MemoryBarrierImmediateEyN2gl17MemoryBarrierTypeE
C8:__ZZN18SpriteAtlasManagerC1EvEN46EarlyUpdateSpriteAtlasManagerUpdateRegistrator7ForwardEv
Yla:__ZN6prcoreL26RemapGenericFloatToIntegerI18TexFormatARGBFloat17TexFormatARGB8888EEvPKNS_9InnerInfoE
zbc:__Z46GetShaderModelNumericValueFromRequirementsMask18ShaderRequirements
BHc:_cff_ps_has_glyph_names
Pbh:_PatternCompiler_EmitPosition_m3013268572
msf:_X509SubjectKeyIdentifierExtension__ctor_m1109455121
hmd:_Graphic_CreateColorFromAlpha_m2614574534
onc:__Z44Register_UnityEngine_GUIStyle_SetDefaultFontv
mwb:__Z18Transfer_BlittableI18StreamedBinaryReadILb1EELb1EiEvRK29SerializationCommandArgumentsR31RuntimeSerializationCommandInfo
yA:__ZN9BlobWrite8TransferI22OffsetPtrArrayTransferIKN4math7_float3EEEEvRT_PKc17TransferMetaFlags
a2c:_TripleDES_IsWeakKey_m483013953
Bpf:_X509Certificate2_get_PrivateKey_m2662162956
wrj:__ZNSt3__26vectorIN6il2cpp2os10ThreadImpl10APCRequestENS_9allocatorIS4_EEE9push_backEOS4_
yMi:__ZN15dense_hashtableINSt3__24pairIK10KeyWrapperINS1_IPK12PropertyInfoP11Il2CppClassEEEjEES9_17ReflectionMapHashIS8_EN14dense_hash_mapIS9_jSD_NS9_14EqualsComparerINS0_8equal_toIS8_EEEENS0_9allocatorISB_EEE9SelectKeyESI_SK_E12maybe_shrinkEv
Rdg:__Z75RuntimeInvoker_RuntimeObject_RuntimeObject_Single_t2076509932_RuntimeObjectPFvvEPK10MethodInfoPvPS4_
Nwb:__Z18Transfer_BlittableI18StreamedBinaryReadILb1EELb1EsEvRK29SerializationCommandArgumentsR31RuntimeSerializationCommandInfo
xlg:__Z54RuntimeInvoker_Void_t1841601450_ColorBlock_t2652774230PFvvEPK10MethodInfoPvPS4_
B5c:_Single_System_IConvertible_ToSByte_m3757385387
$qh:_Vector3_get_forward_m1316319684
iue:_StreamAsyncResult_SetComplete_m2141125667
L_a:__ZL21SetAnisoLimitEnumImplN7Texture20AnisotropicFilteringEb
RQc:__ZN22BaseUnityConnectClient17OnEnterStateReadyEv
PJa:__ZN14GrowableBufferD2Ev
ovh:_GUIStyle_get_stretchWidth_m813991504
Pfc:__Z29Input_CUSTOM_GetMouseButtonUpi
_qi:__ZN6il2cpp6icalls8mscorlib6System8MonoType16InternalGetEventEP20Il2CppReflectionTypeP12Il2CppStringi
CJf:_Interlocked_CompareExchange_m3339239614
tBc:_UNITY_tt_face_load_maxp
bgc:__Z46Input_CUSTOM_INTERNAL_set_compositionCursorPosRK13Vector2fIcall
Ps:__ZN7mecanim5human12FullBodyMaskEv
coi:__ZNKSt3__214__split_bufferIPK10MethodInfoRNS_9allocatorIS3_EEE9__end_capEv
Tqh:_Transform_set_position_m2942701431
C4a:__ZN19ShaderPropertySheet11ComputeHashEv
W0h:__ZN30dense_hashtable_const_iteratorI10KeyWrapperIPK19Il2CppGenericMethodES4_N6il2cpp8metadata23Il2CppGenericMethodHashEN14dense_hash_setIS4_S7_NS4_14EqualsComparerINS6_26Il2CppGenericMethodCompareEEENSt3__29allocatorIS4_EEE8IdentityESB_SE_EppEv
wti:__ZL18UnityPalExchange64PVxx
KS:__ZN11UnityEngine15CloudWebService20WebRequestRestClient6IsDoneEv
Tnk:__ZL93AudioSource_t1135106623_CustomAttributesCacheGenerator_AudioSource_Play_m1385529671____delay0P21CustomAttributesCache
Li:_llvm_fabs_f32
Egd:_CanvasScaler_HandleScaleWithScreenSize_m80056230
nS:__ZN11UnityEngine15CloudWebService16SessionContainer16GetJsonDataBlockEjRKN4core12basic_stringIcNS2_20StringStorageDefaultIcEEEERS6_PjSA_
kDf:_SByte_System_IConvertible_ToUInt64_m2174352876_AdjustorThunk
_Qi:__ZN15dense_hashtableINSt3__24pairIK10KeyWrapperIPK14Il2CppAssemblyEPK22Il2CppMonoAssemblyNameEES6_N6il2cpp5utils11PointerHashIS4_EEN14dense_hash_mapIS6_SA_SF_NS6_14EqualsComparerINS0_8equal_toIS5_EEEENS0_9allocatorISB_EEE9SelectKeyESK_SM_E13set_empty_keyERKSB_
nIf:_UTF7Encoding_InternalGetBytes_m2772055844
I9f:__Z76RuntimeInvoker_Void_t1841601450_Int64_t909078037_ResourceInfoU26_t3126209420PFvvEPK10MethodInfoPvPS4_
lae:_SimpleCollator__cctor_m2693747668
XPd:_Decimal_CompareTo_m2454501434_AdjustorThunk
T$:__ZN14SafeBinaryReadD2Ev
hOf:_UInt16_System_IConvertible_ToChar_m4055364664
A0b:__Z13RegisterClassI7TextureEvv
byb:__ZN8Gradient8TransferI18StreamedBinaryReadILb1EEEEvRT_
AHg:_Enumerator_Dispose_m2369319718_AdjustorThunk
voc:__ZN5Unity9rapidjson8internal6Grisu2EdPcPiS3_
OPf:_UInt32_ToString_m554020223_AdjustorThunk
VEk:_GameObject_SendMessage_m3423113156
kj:_SDL_PauseAudio
jui:_il2cpp_class_from_type
Tud:_Array_Sort_m2323017822
Fxg:_Scrollbar_UpdateDrag_m3839695926
AZ:__ZN9ShaderLab19CommonPropertyNames16StaticInitializeEPv
Vye:_MissingMemberException__ctor_m3710131950
AC:__ZN7mecanim9animation18CreateAvatarOutputEPKNS0_14AvatarConstantEbbRNS_6memory9AllocatorE
uIi:__ZN14dense_hash_mapI10KeyWrapperINSt3__24pairIPK10MethodInfoP11Il2CppClassEEEj17ReflectionMapHashIS8_ENS9_14EqualsComparerINS1_8equal_toIS8_EEEENS1_9allocatorINS2_IKS9_jEEEEE4findERSH_
Heg:__Z91RuntimeInvoker_Void_t1841601450_RuntimeObject_Int32_t2071877448_RuntimeObject_RuntimeObjectPFvvEPK10MethodInfoPvPS4_
jEf:_CspParameters__ctor_m2546931874
Cfj:__ZN6il2cpp2vmL14FindNestedTypeEP11Il2CppClassPKc
vL:__ZN11AudioSource23VirtualRedirectTransferER24GenerateTypeTreeTransfer
M8b:__ZN7Texture11SetWrapModeE15TextureWrapMode
f1a:__ZN14Texture2DArray23VirtualRedirectTransferER14SafeBinaryRead
iPb:__ZNK6Camera21CalculateCanDoShadowsEv
t1i:__ZNSt3__216allocator_traitsINS_9allocatorIcEEE7destroyIcEEvRS2_PT_
lmd:_Graphic__cctor_m1643894470
rwj:__ZN6il2cpp2os6Thread12SetStackSizeEj
Xpf:_X509ChainElementEnumerator_get_Current_m2232618221
TCk:_DebugLogHandler_LogFormat_m2866699703
agd:_U3COnFinishSubmitU3Ec__Iterator0_Reset_m2080388334
F8b:__ZNK8Renderer16IsVisibleInSceneEv
Xyg:_ScrollRect_set_onValueChanged_m3957749575
EX:__Z13VFormatBufferPciPKcz
izb:__Z18Transfer_BlittableI18StreamedBinaryReadILb0EELb1EhEvRK29SerializationCommandArgumentsR31RuntimeSerializationCommandInfo
oKh:_U3CCreateWhereIteratorU3Ec__Iterator1D_1_Dispose_m1879652802_gshared
eod:_Image_GenerateSimpleSprite_m4275440988
nqj:__ZNSt3__26vectorIPK14Il2CppAssemblyNS_9allocatorIS3_EEE3endEv
YOf:_UInt16_ToString_m3280699191
ama:__ZN6prcoreL27StretchGenericFloatBilinearI15TexFormatRFloatEEvPKNS_9InnerInfoE
V2j:__ZL56_PropertyInfo_t1567586598_CustomAttributesCacheGeneratorP21CustomAttributesCache
Ev:__Z24ProcessAnimationMixBeginP35AnimationPlayableEvaluationConstantP32AnimationPlayableEvaluationInputP33AnimationPlayableEvaluationOutput
z_d:_Array_IndexOf_TisCustomAttributeNamedArgument_t94157543_m745056346_gshared
dja:__Z14PadImageBorderR14ImageReferenceii
VJi:__ZN15dense_hashtableINSt3__24pairIK10KeyWrapperINS1_IPK10MethodInfoP11Il2CppClassEEEjEES9_17ReflectionMapHashIS8_EN14dense_hash_mapIS9_jSD_NS9_14EqualsComparerINS0_8equal_toIS8_EEEENS0_9allocatorISB_EEE9SelectKeyESI_SK_E4findERSA_
o8h:__ZN6il2cpp2vm13MetadataCache28GetFieldDefaultValueForFieldEPK9FieldInfo
JSg:_ArrayReadOnlyList_1_ReadOnlyError_m2289309720_gshared
gw:__ZN27AnimationLayerMixerPlayableD2Ev
Dsi:__ZN6il2cpp2vm8basepathEPKc
QH:__ZN12AudioManager39HandlePendingAudioConfigurationCallbackEv
a7f:__Z119RuntimeInvoker_Int32_t2071877448_RuntimeObject_RuntimeObject_Int32_t2071877448_Int32_t2071877448_BooleanU26_t3168250738PFvvEPK10MethodInfoPvPS4_
gk:_emscripten_glIsFramebuffer
tGa:__ZN12_GLOBAL__N_16qAtan2Eff
vKd:_Convert_ToInt64_m954367741
kk:_JS_Sound_SetLoopPoints
lsj:__ZNSt3__216allocator_traitsINS_9allocatorIN6il2cpp2os10ThreadImpl10APCRequestEEEE8max_sizeERKS6_
Szd:_ArrayList__ctor_m1467563650
HM:__ZN12AudioManager17ShouldSourcePauseEb
eKj:__ZN6il2cpp2vm26MetadataAllocGenericMethodEv
Gra:__ZN19ConstantBuffersGLES12RecordRenderEv
Kqc:__ZN9JSONWrite8TransferI10RectOffsetEEvRT_PKc17TransferMetaFlags
Kia:__ZN4crnd12symbol_codec11decode_bitsEj
ZFc:_cf2_doFlex
G5d:_Array_Sort_TisRaycastResult_t21186376_TisRaycastResult_t21186376_m38820193_gshared
Wrh:_Vector2__ctor_m847450945_AdjustorThunk
DOa:__ZN10Matrix3x4f8TransferI24GenerateTypeTreeTransferEEvRT_
ute:_StreamReader__ctor_m3454466728
UH:__ZN4FMOD6System12createReverbEPPNS_6ReverbE
Ufi:__ZNKSt3__26vectorIP17Il2CppAsyncResultN6il2cpp2gc9AllocatorIS2_EEE11__recommendEj
Dnh:_RectTransform_get_anchorMin_m3466802567
Zv:__ZN7mecanim19ValueArrayBlendNodeILb1EEEvRKNS_10ValueArrayERKNS_14ValueArrayMaskERS1_RS4_RNS_16ValueArrayWeightEf
wbb:__Z16MarkDependenciesR27GarbageCollectorThreadStatej
Prf:_X509ChainElementEnumerator_Reset_m3832280427
$Ae:_MulticastDelegate_RemoveImpl_m2024746777
Ogd:_CanvasUpdateRegistry_ParentCount_m2367607495
VAe:_MulticastDelegate_Equals_m3064081489
uje:_Activator_CreateInstance_m1465989661
y9:__ZNK9Transform11GetPositionEv
Afh:_PositionAssertion_GetWidth_m2294218483
EMa:__ZN23SharedMeshRenderingData18UnloadVertexStreamEi
L6b:__ZN31CanvasBatchIntermediateRenderer11AddSubBatchERK16DrawBuffersRangePK19ShaderPropertySheet
t5b:__ZN19RenderEventsContextC2Ei
BQ:__Z6simd4fRKf
U1d:_Array_InternalArray__ICollection_CopyTo_TisColor32_t874517518_m379086718_gshared
vBg:_Slider_ClampValue_m2851810895
Ok:_emscripten_glEnable
Hlj:__ZN6il2cpp2gc16GarbageCollector29RegisterFinalizerForNewObjectEP12Il2CppObject
WEa:__ZN10TagManager23VirtualRedirectTransferER14SafeBinaryRead
PAc:_UNITY_FT_Init_Class_ft_grays_raster
n6:__ZN14PlayableOutput26ClearInvalidSourcePlayableEv
XRb:__Z15InitLightMeshesv
q8j:__ZL97WaitHandle_t677569169_CustomAttributesCacheGenerator_WaitHandle_t677569169____Handle_PropertyInfoP21CustomAttributesCache
tCe:_KeyValuePair_2_ToString_m1391611625_AdjustorThunk
yn:FUNCTION_TABLE_iifiii
mr:__ZN7mecanim9animation14HasHumanCurvesERKNS0_18ClipMuscleConstantE
zJd:_Double_Parse_m1617409931
C_a:__ZN15QualitySettings8TransferI19StreamedBinaryWriteILb0EEEEvRT_
FFc:_cf2_arrstack_init
Vki:__ZNSt3__214__split_bufferIP9FieldInfoRNS_9allocatorIS2_EEE5clearEv
$1j:__ZL65ClassInterfaceAttribute_t910653559_CustomAttributesCacheGeneratorP21CustomAttributesCache
GDi:__ZN15dense_hashtableINSt3__24pairIK10KeyWrapperINS1_IPK14Il2CppAssemblyP11Il2CppClassEEEjEES9_17ReflectionMapHashIS8_EN14dense_hash_mapIS9_jSD_NS9_14EqualsComparerINS0_8equal_toIS8_EEEENS0_9allocatorISB_EEE9SelectKeyESI_SK_E15insert_noresizeERKSB_
vW:__Z15CleanLogHandler7LogTypePKcz
Nfb:__ZN9ShaderLab19SerializedSubShader8TransferI19StreamedBinaryWriteILb0EEEEvRT_
UHf:_UTF32Encoding_GetBytes_m2290150495
tCb:__ZN6Camera17RemoveImageFilterERK11ImageFilter
Ena:__ZNSt3__218__insertion_sort_3IR25ValueParameterArraySorterPN20GpuProgramParameters14ValueParameterEEEvT0_S6_T_
HCd:_CaseInsensitiveHashCodeProvider_AreEqual_m2456617355
kug:_LayoutUtility_GetLayoutProperty_m4052007472
yqa:__ZNSt3__214__split_bufferI20ComputeShaderVariantRNS_9allocatorIS1_EEED2Ev
Ezb:__Z18Transfer_BlittableI18StreamedBinaryReadILb0EELb1E9BoundsIntEvRK29SerializationCommandArgumentsR31RuntimeSerializationCommandInfo
Cef:_Context_set_WriteSequenceNumber_m3356252710
WNc:__ZN2UI26InitializeDeviceForOverlayEi
yme:_Guid_Equals_m2389236871
uY:__Z27LogRepeatingStringWithFlagsRKN4core12basic_stringIcNS_20StringStorageDefaultIcEEEE15LogMessageFlagsi
iFe:_Enumerator_MoveNext_m3483405135_gshared
pt:__ZN17AnimationPlayable28ComputeNeedsBindingRebuildedEv
vs:__ZN17AnimationPlayable23RequestAllocateBindingsEv
B0d:_Array_InternalArray__ICollection_Add_TisMonoResource_t3127387157_m2070096275_gshared
nGe:_List_1_CheckIndex_m3609163576_gshared
Umi:__ZNSt3__216allocator_traitsINS_9allocatorINS_11__tree_nodeIP11Il2CppClassPvEEEEE8allocateERS7_j
egc:__Z41Register_UnityEngine_Input_GetMouseButtonv
LTc:__ZN18UnityConnectClient33OnPlayerSessionStateChangedStaticEPS_jyy
VZj:__ZL74CaseInsensitiveHashCodeProvider_t2307530285_CustomAttributesCacheGeneratorP21CustomAttributesCache
sT:__ZNK11UnityEngine15CloudWebService23WebRequestUploadHandler11GetProgressEv
MQi:__ZN15dense_hashtableINSt3__24pairIK10KeyWrapperIPK14Il2CppAssemblyEPK22Il2CppMonoAssemblyNameEES6_N6il2cpp5utils11PointerHashIS4_EEN14dense_hash_mapIS6_SA_SF_NS6_14EqualsComparerINS0_8equal_toIS5_EEEENS0_9allocatorISB_EEE9SelectKeyESK_SM_E21fill_range_with_emptyEPSB_SQ_
Ifa:__ZN7ApiGLES4LoadE16GfxDeviceLevelGL
yYa:__ZN18StreamedBinaryReadILb0EE21TransferSTLStyleArrayI13dynamic_arrayI31EnlightenSystemAtlasInformationLj8EEEEvRT_17TransferMetaFlags
Dia:__ZN4crnd12crn_unpacker22decode_color_endpointsEv
Gjj:__ZN15dense_hashtableI10KeyWrapperIP18Il2CppGenericClassES3_N6il2cpp8metadata22Il2CppGenericClassHashEN14dense_hash_setIS3_S6_NS3_14EqualsComparerINS5_25Il2CppGenericClassCompareEEENSt3__29allocatorIS3_EEE8IdentityESA_SD_E15insert_noresizeERKS3_
E0e:_ReadOnlyCollection_1_System_Collections_IList_Clear_m3006875897_gshared
R3b:__ZZL31RegisterOtherRendererPropertiesR22GenericPropertyBindingEN30Wrapper_RendererReceiveShadows13GetFloatValueEPv
AFe:_Enumerator_System_Collections_IEnumerator_get_Current_m3866069145_gshared
FFb:__ZN8Material11SetPassFastEPN9ShaderLab4PassER17ShaderPassContextP6Shaderib
JTc:__ZN11UnityEngine7Connect20BasePersistentValues10SaveValuesER9JSONWrite
cFh:_AudioListener_AddExtension_m2954727157
Pbd:_ExecuteEvents_get_pointerDownHandler_m1172742772
L9b:__Z14ScaleCurveTimeR17AnimationCurveTplIfEf
v4:__ZN22VirtualJoystickManagerC2Ev
eMb:__Z12SetupLODFadeR9GfxDeviceR17ShaderPassContextf
MUa:__ZNK14PlayableOutput7GetTypeEv
g7f:__Z203RuntimeInvoker_Boolean_t3825574718_RuntimeObject_Int32U26_t455636984_Int32_t2071877448_Int32_t2071877448_RuntimeObject_SByte_t454417549_Int32_t2071877448_ContractionU26_t2019974048_ContextU26_t3131521781PFvvEPK10MethodInfoPvPS4_
Eih:_X501_ToString_m3328169518
KRb:__ZL24CollectForwardObjectsJobP27CollectForwardObjectsHeader
b4g:_Enumerator_System_Collections_IDictionaryEnumerator_get_Entry_m345330700_gshared
hVb:__ZNK25CameraStackRenderingState24ResolveTempToEyeTexturesEv
HTb:__Z13IsNodeVisibleRK9SceneNodeRK4AABBRK22SceneCullingParameters
J5h:__ZN15dense_hashtableINSt3__24pairIK10KeyWrapperIPKcEP11Il2CppClassEES5_N6il2cpp5utils11StringUtils12StringHasherIS4_EEN14dense_hash_mapIS5_S8_SE_NS5_14EqualsComparerINSB_13VmStringUtils21CaseSensitiveComparerEEENS0_9allocatorIS9_EEE9SelectKeyESJ_SL_E13clear_deletedER30dense_hashtable_const_iteratorIS9_S5_SE_SN_SJ_SL_E
PPc:__Z57RectTransformUtility_CUSTOM_INTERNAL_CALL_PixelAdjustRectP12Il2CppObjectS0_R5RectTIfE
Poi:__ZNSt3__213__vector_baseIPK10MethodInfoNS_9allocatorIS3_EEEC2Ev
xzi:__ZNSt3__216allocator_traitsINS_9allocatorINS_12basic_stringIcNS_11char_traitsIcEENS1_IcEEEEEEE7destroyIS6_EEvRS7_PT_
FUb:__Z24ScheduleCullingAllGroupsR8JobFenceRK22SceneCullingParametersiRK13CullingOutputRK13dynamic_arrayIP12CullingGroupLj4EERKS_
Tzf:_DelayedFixupRecord_FixupImpl_m4249966635
MZk:_emscripten_glStencilMask__wrapper
D0h:__ZN15dense_hashtableI10KeyWrapperIPK19Il2CppGenericMethodES4_N6il2cpp8metadata23Il2CppGenericMethodHashEN14dense_hash_setIS4_S7_NS4_14EqualsComparerINS6_26Il2CppGenericMethodCompareEEENSt3__29allocatorIS4_EEE8IdentityESB_SE_EC2ERKSH_j
Xbe:_BigInteger_ToString_m3837784224
VPd:_Decimal_decimalCompare_m26009298
pvc:__ZN16NovodexAllocator8allocateEjPKcS1_i
jRb:__Z17PrepareShadowMapsRK11CullResultsRK11ActiveLightRK10MinMaxAABB
pJf:_NativeEventCalls_CreateEvent_internal_m1605829321
pkk:__ZL73RuntimePlatform_t1869584967_CustomAttributesCacheGenerator_MetroPlayerX64P21CustomAttributesCache
tYg:_InternalEnumerator_1_System_Collections_IEnumerator_get_Current_m3239681450_AdjustorThunk
HRb:__ZN9ShaderLab10GrabPassesD2Ev
q1a:__ZN14Texture2DArray13UploadTextureEv
cDc:_tt_cmap14_done
n9a:__ZN18AwakeFromLoadQueue25RegisterObjectInstanceIDsEv
jxd:_Buffer_BlockCopy_m1586717258
b5j:__ZL93X509Certificate_t283079845_CustomAttributesCacheGenerator_X509Certificate_GetName_m2354987368P21CustomAttributesCache
lw:__ZNK27AnimationLayerMixerPlayable11DerivesFromE17ScriptingClassPtr
txc:__ZN20TextRenderingPrivate19NativeTextGenerator15InsertCharacterEiPj
yUd:_CompareInfo_GetSortKey_m3691382873
ROd:_DBNull_ToString_m3228904745
amc:__ZN5IMGUI20MoveWindowFromLayoutER8GUIStateiRK5RectTIfE
chi:__ZNSt3__214__split_bufferI6pollfdRNS_9allocatorIS1_EEE17__destruct_at_endEPS1_
raf:_RC4_get_IV_m506011366
Mjh:_X509Crl__ctor_m2469408229
o4g:_Enumerator_get_CurrentValue_m3562053380_AdjustorThunk
ssf:_X509SubjectKeyIdentifierExtension_CopyFrom_m136762226
IDe:_Enumerator_System_Collections_IEnumerator_Reset_m610822832_AdjustorThunk
nzc:__ZN20TextRenderingPrivate15DynamicFontData21GetFontMetricsForFaceERK13dynamic_arrayIN4core17string_with_labelILi35EEELj4EEiRKS1_I4PPtrIN13TextRendering4FontEELj4EEPfSF_
nyc:_UNITY_FT_Open_Face
EVk:_glGenRenderbuffers__wrapper
Sce:_BigInteger_op_Division_m1581119694
fBf:_CallbackHandler_Invoke_m1498072969
_Xc:_DSACryptoServiceProvider__ctor_m701823690
DTf:_CustomAttributeData_GetCustomAttributes_m2421330738
vMh:_TextGenerator_GetVerticesInternal_m514005870
cuj:__ZNSt3__210unique_ptrINS_11__tree_nodeINS_12basic_stringIcNS_11char_traitsIcEENS_9allocatorIcEEEEPvEENS_22__tree_node_destructorINS5_IS9_EEEEEC2EPS9_OSC_
Edj:__ZN30dense_hashtable_const_iteratorINSt3__24pairIK10KeyWrapperINS1_IPKcS4_EEEiEES6_24NamespaceAndNamePairHashN14dense_hash_mapIS6_iS9_NS6_14EqualsComparerI26NamespaceAndNamePairEqualsEENS0_9allocatorIS8_EEE9SelectKeyESD_SF_EppEv
TMf:_Type_get_IsEnum_m313908919
eec:__Z44Register_UnityEngine_Component_get_transformv
_Ue:_Collection_1_System_Collections_ICollection_CopyTo_m1335644572_gshared
CB:__ZN12_GLOBAL__N_120ProcessPlayableGraphERN8Animator11AnimatorJobER35AnimationPlayableEvaluationConstantR32AnimationPlayableEvaluationInputR33AnimationPlayableEvaluationOutputPFvS4_R17AnimationPlayableEPFvS4_S6_S8_EPFvS8_S4_S6_S8_fESE_MS9_FvPS3_PS5_PS7_E
RLe:_List_1_CheckMatch_m2830747427_gshared
RHb:__ZN17ArchiveFileSystem12MountArchiveEPKcS1_
Ppc:__Z18Transfer_BlittableI9JSONWriteLb1E8Vector4fEvRK29SerializationCommandArgumentsR31RuntimeSerializationCommandInfo
un:FUNCTION_TABLE_viififiii
NFa:__Z30GetScriptableCullingParametersR6CameraR27ScriptableCullingParameters
qEg:_Enumerator_System_Collections_IEnumerator_Reset_m70453843_gshared
eZa:__ZThn32_NK8Renderer14GetSubsetIndexEi
Q6d:_Dictionary_2_Do_CopyTo_TisKeyValuePair_2_t1174980068_TisRuntimeObject_m3279061992_gshared
oFj:_GC_find_header
C2b:__ZN13ProduceHelperI15ResourceManagerLb0EE7ProduceE18MemLabelIdentifier18ObjectCreationMode
Jca:__ZN9GfxDevice15ImmediateVertexEfff
i0b:__Z13RegisterClassI8MaterialEvv
NXa:__ZNK16LightmapSettings22GetTypeVirtualInternalEv
Quh:_WindowFunction_BeginInvoke_m87819360
FTd:_FieldAccessException__ctor_m3893881490
ouc:__ZN8JSONRead21TransferSTLStyleArrayI13dynamic_arrayItLj2EEEEvRT_17TransferMetaFlags
eaa:__ZN13GfxDeviceGLES15SetStencilStateEPK18DeviceStencilStatei
jhg:__Z107RuntimeInvoker_Void_t1841601450_Single_t2076509932_Single_t2076509932_Single_t2076509932_Single_t2076509932PFvvEPK10MethodInfoPvPS4_
kLk:_cycle
c1h:__ZNSt3__218uninitialized_fillIP10KeyWrapperIPK19Il2CppGenericMethodES5_EEvT_S7_RKT0_
Ed:_emscripten_glUniform1iv
SCg:_Text_get_preferredHeight_m452532789
tPh:_AnimationOffsetPlayable_Equals_m1510591175
u6c:_String_System_IConvertible_ToDouble_m3860911722
Vkb:__ZN16MemoryFileSystemD2Ev
L0g:_InternalEnumerator_1_get_Current_m3732458101_AdjustorThunk
L8e:_ARC4Managed__ctor_m2922048522
Exc:__Z17dynamic_pptr_castIP9Texture2D7TextureET_RK4PPtrIT0_E
r1e:_ReadOnlyCollection_1_System_Collections_IList_set_Item_m1272038804_gshared
NTg:_InternalEnumerator_1_System_Collections_IEnumerator_get_Current_m1931522460_AdjustorThunk
a3c:_SecurityPermission_IsEmpty_m1869313067
drf:_X509CertificateCollection__ctor_m3709509050
Pdc:__Z37Register_UnityEngine_Camera_get_depthv
dge:_EncryptedPrivateKeyInfo_get_Salt_m2734354394
n3e:_ReadOnlyCollection_1_System_Collections_Generic_IListU3CTU3E_set_Item_m1918537449_gshared
nUe:_Collection_1_System_Collections_ICollection_CopyTo_m3896480607_gshared
vcd:_PointerEventData_set_position_m794507622
ROj:__ZNSt3__26__treeIPFvvENS_4lessIS2_EENS_9allocatorIS2_EEE15__insert_uniqueERKS2_
lEk:_UnityEvent_GetDelegate_m1261032859
_Zb:__Z23ConvertIntegerToTypePtrItEbPvR14SafeBinaryRead
gJj:__ZNSt3__210unique_ptrINS_11__list_nodeIPN6il2cpp5utils10MemoryPool6RegionEPvEENS_22__allocator_destructorINS_9allocatorIS8_EEEEEC2EPS8_OSC_
eC:__ZN7mecanim5human29HumanGetGoalOrientationOffsetENS0_4GoalE
Vd:_emscripten_glStencilFunc
U0f:_MonoMethod_MakeGenericMethod_impl_m2063853616
Q4c:__Z46il2cpp_codegen_get_marshal_directive_exceptionPKc
Ygb:__ZN9ShaderLab20SerializedSubProgram14AddMatrixParamEPKcii15ShaderParamTypei
COa:__ZN24GenerateTypeTreeTransfer8TransferI13dynamic_arrayI8Vector3fLj4EEEEvRT_PKc17TransferMetaFlags
$d:_glGetActiveUniformBlockName
Kf:_emscripten_glUniform1fv
Gme:_Guid_AppendByte_m2890893073
m3i:__ZNSt3__2eqINS_9allocatorIcEEEEbRKNS_12basic_stringIcNS_11char_traitsIcEET_EES9_
vyd:_Char_System_IConvertible_ToType_m3106771703_AdjustorThunk
vuf:_Interval_Intersects_m3480157390_AdjustorThunk
sgc:__Z39Quaternion_CUSTOM_INTERNAL_CALL_InverseRK11QuaternionfRS_
h6g:_GCHandle_Alloc_m1063472408
OI:__ZN4FMOD7Channel20set3DConeOrientationEP11FMOD_VECTOR
ln:FUNCTION_TABLE_iiifii
YDf:_CryptoConfig_CreateFromName_m391442950
eOh:_RectTransformUtility_INTERNAL_CALL_PixelAdjustRect_m3338747528
uoj:__ZN6il2cpp2vm12GenericClass11SetupEventsEP11Il2CppClass
ZIc:_tt_delta_interpolate
XCc:_tt_cmap12_get_info
kaj:__ZN6il2cpp2vm15ReboxIReferenceEP14Il2CppIUnknownP11Il2CppClass
Uwe:_StreamWriter_LowLevelWrite_m4205372900
BOh:__ZN6il2cpp6icalls8mscorlib6System7Decimal14decimalCompareEP19il2cpp_decimal_reprS5_
WCj:__ZThn4_N6il2cpp2vm13CachedCCWBaseINS0_13ManagedObjectEE7ReleaseEv
_Cd:_CollectionBase_System_Collections_IList_get_Item_m2370387510
S4h:__ZL29ConvertPackingSizeEnumToValue11PackingSize
y5d:_Array_Sort_TisCustomAttributeNamedArgument_t94157543_m3436077809_gshared
QWk:_glCopyTexImage2D__wrapper
Jrd:_LayoutElement__ctor_m789941073
XW:__GLOBAL__sub_I_runtime_graphics_billboard_0_cpp
MFb:__Z18ClearByDrawingQuad13GfxClearFlagsRK10ColorRGBAffjR17ShaderPassContext
U8g:_DynamicPropertyCollection_FindProperty_m1233265924
zla:__ZN6prcoreL17RemapGenericFloatI14TexFormatRHalf15TexFormatRFloatEEvPKNS_9InnerInfoE
VLb:__Z16ShouldUseShadowsb
g6:__ZN15DirectorManager21RebuildStageCallbacksEv
ZFb:__ZN19RuntimeSceneManager9LoadSceneERKN4core12basic_stringIcNS0_20StringStorageDefaultIcEEEES6_S6_RK9UnityGUIDiNS_11LoadingModeE
Jma:__ZN7ApiGLES10DrawArraysE16GfxPrimitiveTypejjj
V4i:__ZNKSt3__26vectorI20Il2CppStackFrameInfoNS_9allocatorIS1_EEE3endEv
mG:__ZN10SampleClip13LoadBaseSoundEv
pnh:_RectOffset_get_left_m1496351507
HP:__Z57AudioSource_CUSTOM_INTERNAL_CALL_ClearExtensionPropertiesP12Il2CppObjectRK12PropertyName
fmj:__ZN15dense_hashtableINSt3__24pairIK10KeyWrapperIP12Il2CppObjectEN6il2cpp2gc9CachedCCWEEES5_NS7_5utils11PointerHashIS3_EEN14dense_hash_mapIS5_S9_SD_NS5_14EqualsComparerINS0_8equal_toIS4_EEEENS0_9allocatorISA_EEE9SelectKeyESI_SK_E15insert_noresizeERKSA_
iYe:_Collection_1_Contains_m643401393_gshared
hUa:__ZN22DeviceMVPMatricesStateC2ER9GfxDevice
m6c:_String__ctor_m372528291
Xm:FUNCTION_TABLE_iifii
xfi:__ZNSt3__210unique_ptrINS_11__list_nodeIP17Il2CppAsyncResultPvEENS_22__allocator_destructorIN6il2cpp2gc9AllocatorIS5_EEEEE5resetEPS5_
hFi:__ZN14dense_hash_mapI10KeyWrapperINSt3__24pairIPK9FieldInfoP11Il2CppClassEEEj17ReflectionMapHashIS8_ENS9_14EqualsComparerINS1_8equal_toIS8_EEEENS1_9allocatorINS2_IKS9_jEEEEE4findERSH_
Kki:__ZNSt3__26vectorIP9FieldInfoNS_9allocatorIS2_EEE9push_backERKS2_
K$a:__ZNSt3__26vectorI13dynamic_arrayI8Vector2fLj4EENS_9allocatorIS3_EEE6assignINS_11__wrap_iterIPS3_EEEENS_9enable_ifIXaasr21__is_forward_iteratorIT_EE5valuesr16is_constructibleIS3_NS_15iterator_traitsISC_E9referenceEEE5valueEvE4typeESC_SC_
SG:__GLOBAL__sub_I_runtime_video_0_cpp
JFf:_Encoding_SetFallbackInternal_m1682842442
MTi:__ZN6il2cpp2vm10Reflection12HasAttributeEP9FieldInfoP11Il2CppClass
Lya:__ZNSt3__26__treeIiNS_4lessIiEE13stl_allocatorIiL18MemLabelIdentifier1ELi16EEE7destroyEPNS_11__tree_nodeIiPvEE
gc:invoke_viiifi
Sze:_LongComparer_Compare_m3981323622
Hri:__ZNSt3__214__split_bufferIP11Il2CppClassRNS_9allocatorIS2_EEEC2EjjS5_
HBg:_Slider_FindSelectableOnUp_m15474611
Mya:__ZNK11AssetBundle14GetPreloadDataEiR13dynamic_arrayIiLj4EE
lhe:_EncryptedData_get_EncryptedContent_m2732115576
qsh:_Vector3__ctor_m2761639014
jf:_JS_Sound_SetPosition
ddh:_Assertion_set_FalseExpression_m1781616372
osf:_X509SubjectKeyIdentifierExtension_FromHexChars_m2515150420
qQa:__ZN19RenderBufferManager13GetTempBufferEii17DepthBufferFormat19RenderTextureFormatj22RenderTextureReadWrite14VRTextureUsagei23RenderTextureMemoryless
N7h:__ZL13GetSharedInstPK17Il2CppGenericInst
HYj:__ZL51IReflect_t3412036974_CustomAttributesCacheGeneratorP21CustomAttributesCache
ved:_StandaloneInputModule_SendSubmitEventToSelectedObject_m3421155293
Glh:_Quaternion_Equals_m798965363_AdjustorThunk
eTb:__Z17PrepareSceneNodesP11CullResults
fNh:_Canvas_get_sortingLayerID_m137448982
Gah:_CallContextRemotingData_Clone_m2226242476
q$:__Z63ThreadAndSerializationSafeCheckSetMonoBehaviourBeingTransferredP13MonoBehaviour
NRb:__Z24SetupActiveLightsContextR21ActiveLightingContextRK12ActiveLightsRK11CullResultsP14ShadowMapCacheRK10MinMaxAABB
aic:__Z38Sprite_CUSTOM_INTERNAL_get_textureRectP12Il2CppObjectP5RectTIfE
OOd:_DBNull_System_IConvertible_ToUInt32_m2681284284
DRi:__ZNK15dense_hashtableINSt3__24pairIK10KeyWrapperIPK22Il2CppGenericParameterEPK24MonoGenericParameterInfoEES6_N6il2cpp5utils11PointerHashIS4_EEN14dense_hash_mapIS6_SA_SF_NS6_14EqualsComparerINS0_8equal_toIS5_EEEENS0_9allocatorISB_EEE9SelectKeyESK_SM_E3endEv
wbc:__ZN9TextAsset7SetTextERKN4core12basic_stringIcNS0_20StringStorageDefaultIcEEEE
DIa:__ZN6Camera8TransferI24GenerateTypeTreeTransferEEvRT_
VQg:_EqualityComparer_1__cctor_m416314417_gshared
Ha:invoke_iiiiiiif
Ea:invoke_iiiiiiii
Hqf:_X509ChainElementCollection_Contains_m3599995067
eVb:__ZN8Renderer17PendingAddToSceneEv
K_k:b123
J_k:b122
M_k:b125
L_k:b124
SIk:_BreakPoint_share_m806091185
O_k:b126
Y_k:b129
mhc:__Z52Register_UnityEngine_RectTransform_INTERNAL_get_rectv
h_:__Z21PostprocessStacktracePKcRN4core12basic_stringIcNS1_20StringStorageDefaultIcEEEE
$6a:__ZN18StreamedBinaryReadILb0EE21TransferSTLStyleArrayI13dynamic_arrayI16SplashScreenLogoLj4EEEEvRT_17TransferMetaFlags
uXd:_Array_InternalArray__ICollection_Remove_TisX509ChainStatus_t4278378721_m4127982424_gshared
Zdc:__Z47Register_UnityEngine_Camera_get_allCamerasCountv
Coj:___cxx_global_var_init_14828
YXc:___clang_call_terminate
Kx:__ZThn148_NK26AnimatorControllerPlayable24HasStateMachineBehaviourEv
aRc:__ZN22BaseUnityConnectClient20StartEventDispatcherEv
c9b:__ZNSt3__26vectorIj13stl_allocatorIjL18MemLabelIdentifier1ELi16EEE6assignIPKtEENS_9enable_ifIXaasr21__is_forward_iteratorIT_EE5valuesr16is_constructibleIjNS_15iterator_traitsIS9_E9referenceEEE5valueEvE4typeES9_S9_
UA:__ZN7mecanim9animation16EvaluateAvatarIKEPKNS0_14AvatarConstantEPKNS0_11AvatarInputEPNS0_12AvatarOutputEPNS0_12AvatarMemoryEPNS0_15AvatarWorkspaceEb
hna:__ZL25ProgramUniformMatrix4x3fvPK7ApiGLESjiihPKv
cJb:__ZN12InputManager13InputEndFrameEv
ZEd:_SyncHashtable__ctor_m2029869827
Ami:__ZNSt3__26__treeIP11Il2CppClassNS_4lessIS2_EENS_9allocatorIS2_EEE25__emplace_unique_key_argsIS2_JRKS2_EEENS_4pairINS_15__tree_iteratorIS2_PNS_11__tree_nodeIS2_PvEEiEEbEERKT_DpOT0_
y_i:__ZN6il2cpp2vm6Thread5SetupEP12Il2CppThread
C4e:_ReadOnlyCollection_1_System_Collections_IList_Remove_m2200089035_gshared
iUe:_Collection_1_CheckWritable_m2756357359_gshared
pMk:___munmap
cpd:_InputField_get_characterLimit_m2386380888
Ptk:__ZL68ColorBlock_t2652774230_CustomAttributesCacheGenerator_m_PressedColorP21CustomAttributesCache
hKd:_Convert_ToInt64_m1722087499
ag:_localtime_r
dg:_strftime
zpa:__ZN7Texture33SetStoredColorSpaceNoDirtyNoApplyE17TextureColorSpace
R2:__ZN12FileAccessorD2Ev
SMa:__ZN14VertexDataInfoC2Ev
yvj:__ZN6il2cpp2gc16GarbageCollector14CollectALittleEv
cXg:_InternalEnumerator_1_get_Current_m2415979394_gshared
Axb:__ZL17Transfer_GUIStyleI18StreamedBinaryReadILb1EELb1EEvRK29SerializationCommandArgumentsR31RuntimeSerializationCommandInfo
Hyg:_ScrollRect_SetDirtyCaching_m1491302821
Nqi:__ZN6il2cpp6icalls8mscorlib6SystemL9IsPrivateEPK12PropertyInfo
Vcg:__Z72RuntimeInvoker_DateTime_t693205669_DateTime_t693205669_Int32_t2071877448PFvvEPK10MethodInfoPvPS4_
FTf:_CustomAttributeData_GetCustomAttributes_m3258419955
KGk:_Matrix4x4_GetColumn_m83396621
xZ:__ZN9shadertag10InitializeEv
gMb:__ZN13BatchRenderer20RenderSingleWithPassER17ShaderPassContextPK18SharedMaterialDataP6ShaderPN9ShaderLab4PassEiPKNS7_10GrabPassesEjib15BatchBreakCause
z_a:__ZN15QualitySettings14QualitySetting8TransferI24GenerateTypeTreeTransferEEvRT_
H1d:_Array_InternalArray__ICollection_CopyTo_TisParameterModifier_t1820634920_m4127516211_gshared
OEf:_DecoderReplacementFallback__ctor_m2344783488
iCe:_OutOfMemoryException__ctor_m239206850
yph:_Sprite_get_rect_m3985037234
xld:_GraphicRegistry_UnregisterGraphicForCanvas_m820096873
tKc:__Z28Font_Get_Custom_PropMaterialP12Il2CppObject
Feg:__Z88RuntimeInvoker_RuntimeObject_RuntimeObject_RuntimeObject_RuntimeObject_Int32_t2071877448PFvvEPK10MethodInfoPvPS4_
xVe:_Collection_1_Remove_m4136193368_gshared
hbd:_EventTrigger_OnPointerUp_m2791622548
QAg:_Shadow_set_useGraphicAlpha_m141905402
j8b:__ZN22BlockMemoryCacheWriter14LockCacheBlockEjPPhS1_
swj:__ZN6il2cpp2os6Thread10RunWrapperEPv
_Nk:__ZNKSt3__212basic_stringIcNS_11char_traitsIcEENS_9allocatorIcEEE8capacityEv
ztc:__Z22TransferField_NonArrayI8JSONRead27Converter_SimpleNativeClassI8GUIStyleEEvRK23StaticTransferFieldInfoR31RuntimeSerializationCommandInfoRT0_
Jg:_llvm_eh_typeid_for
Z$b:__Z13RegisterClassI10GameObjectEvv
p3h:__ZNK15dense_hashtableINSt3__24pairIK10KeyWrapperIN6il2cpp5utils13dynamic_arrayIPK10Il2CppTypeLj4EEEEPFvvEEESA_NS3_8metadata19Il2CppSignatureHashEN14dense_hash_mapISA_SD_SG_NSA_14EqualsComparerINSF_22Il2CppSignatureCompareEEENS0_9allocatorISE_EEE9SelectKeyESK_SM_E5beginEv
rpf:_X509BasicConstraintsExtension_get_PathLengthConstraint_m3004531343
Fy:__ZNK23AnimationPlayableOutput7GetTypeEv
qwh:_GUIUtility_BeginGUI_m2381890998
$ye:_MissingMemberException__ctor_m4277447068
dHe:_List_1_Find_m1881447651_gshared
nac:__Z26scripting_class_has_parent17ScriptingClassPtrS_
Pzb:__Z18Transfer_BlittableI18StreamedBinaryReadILb0EELb1E8Vector4fEvRK29SerializationCommandArgumentsR31RuntimeSerializationCommandInfo
atj:__ZN6il2cpp2vm6Method8GetParamEPK10MethodInfoj
Jqe:_Int64_CompareTo_m1953686218
mZk:_glBindVertexArray__wrapper
NXc:_DSA_Create_m3450041777
vSa:__ZN8Material8TransferI14SafeBinaryReadEEvRT_
uVa:__ZN12CubemapArray17UploadToGfxDeviceEv
hzg:_ScrollRect_AdjustBounds_m1033723448
WXb:__ZN18ScreenManagerWebGL13SetShowCursorEb
bZi:__ZN24dense_hashtable_iteratorINSt3__24pairIK10KeyWrapperIP11Il2CppClassES4_EES5_N6il2cpp8metadata16SZArrayClassHashEN14dense_hash_mapIS5_S4_SA_NS5_14EqualsComparerINS9_19SZArrayClassCompareEEENS0_9allocatorIS7_EEE9SelectKeyESE_SG_E30advance_past_empty_and_deletedEv
c4:__ZN13RuntimeStaticI21AssetReferenceStorageLb0EE16StaticInitializeEPv
dqf:_X509Chain_CheckRevocationOnChain_m2441901351
PCj:__ZN6il2cpp2vm13ManagedObject14QueryInterfaceERK10Il2CppGuidPPv
vNf:_Type_GetMethod_m3650909507
KG:__ZN11AudioSource4StopEb
RKk:_frexp
upb:__ZN14SafeBinaryRead21TransferSTLStyleArrayI13dynamic_arrayI10Matrix4x4fLj4EEEEvRT_17TransferMetaFlags
jZe:_Collection_1_CheckWritable_m732350052_gshared
sJa:__ZN15LODGroupManager26CollectAllLODGroupManagersERK16CoreCameraValuesR13dynamic_arrayIPS_Lj4EEb
wxd:_Byte_System_IConvertible_ToDecimal_m1036493607
uFb:__Z25GetSplashScreenBackgroundRK5RectTIfE
jVg:_InternalEnumerator_1_System_Collections_IEnumerator_get_Current_m1679297177_gshared
v2g:_DefaultComparer_Compare_m1247109616_gshared
A4g:_ResourceManager__ctor_m498829021
nsa:__ZN18GlslGpuProgramGLESD2Ev
uXb:__ZN13RenderTexture14SetVolumeDepthEi
sog:__Z88RuntimeInvoker_Int32_t2071877448_UIVertex_t1204258818_UIVertex_t1204258818_RuntimeObjectPFvvEPK10MethodInfoPvPS4_
gBf:_SerializationCallbacks__ctor_m722356782
duc:__ZN10Matrix4x4f8TransferI8JSONReadEEvRT_
rwc:__ZN14SafeBinaryRead21TransferSTLStyleArrayI13dynamic_arrayIN4core17string_with_labelILi35EEELj4EEEEvRT_17TransferMetaFlags
e$:__ZN17PersistentManager18ReadObjectThreadedEi
Vbi:__ZNSt3__26__moveIPN6il2cpp2os19SocketHandleWrapperES4_EET0_T_S6_S5_
zea:__ZN25TransformFeedbackSkinning31CleanupTransformFeedbackShadersEv
hJa:__Z22scripting_object_unbox18ScriptingObjectPtr
vxc:__ZNK20TextRenderingPrivate8FontImpl19GetCharacterAdvanceEjijfPj
tOj:__ZN6il2cpp6icalls8mscorlib4Mono8Security12Cryptography18KeyPairPersistence16_IsUserProtectedEP12Il2CppString
Rlf:_DefaultUriParser__ctor_m4218024811
cVf:_DerivedType_GetField_m3960169619
oPd:_Decimal_System_IConvertible_ToInt16_m3159038792_AdjustorThunk
n0a:__ZN10VertexData8TransferI18StreamedBinaryReadILb0EEEEvRT_
Qhe:_PKCS12_GetExistingParameters_m2413397265
uKh:_Nullable_1_get_Value_m1743067844_gshared
Z8a:__ZN14PreloadManager16UpdatePreloadingEv
jOa:__ZN14SafeBinaryRead21TransferSTLStyleArrayI19StaticArrayTransferIiLi4EEEEvRT_17TransferMetaFlags
sxj:__ZN14dense_hash_mapI10KeyWrapperIPK19Il2CppGenericMethodEP10MethodInfoN6il2cpp8metadata23Il2CppGenericMethodHashENS4_14EqualsComparerINS8_26Il2CppGenericMethodCompareEEENSt3__29allocatorINSD_4pairIKS4_S6_EEEEEC2EjRKS9_RKSC_
KBk:_Color32_op_Implicit_m3337994915
iV:__ZNK21UnityDefaultAllocatorI17LowLevelAllocatorE8ContainsEPKv
jbi:__ZNSt3__213__vector_baseI6pollfdNS_9allocatorIS1_EEED2Ev
Th:_emscripten_get_main_loop_timing
ate:_DirectoryInfo__ctor_m3750996792
Mfd:_BaseMeshEffect_ModifyMesh_m2134816219
y_a:__ZN24GenerateTypeTreeTransfer21TransferSTLStyleArrayINSt3__26vectorIN15QualitySettings14QualitySettingENS1_9allocatorIS4_EEEEEEvRT_17TransferMetaFlags
zhj:__ZNSt3__214__split_bufferIN6il2cpp2vm5Image20EmbeddedResourceDataERNS_9allocatorIS4_EEE17__destruct_at_endEPS4_NS_17integral_constantIbLb0EEE
d5a:__ZNSt3__26vectorI9InputAxisNS_9allocatorIS1_EEE6resizeEj
nMb:__ZN13BatchRendererC2ER15RenderLoopStatsRK15RenderNodeQueuebbb
h3c:_SecurityElement_IsValidAttributeValue_m483287146
mib:__ZNK2UI13RectTransform22GetTypeVirtualInternalEv
cp:getTempRet0
sHk:_Mesh_get_uv_m1990385212
vEj:_GC_min
mod:_Image_AddQuad_m1603575622
Eyj:__ZN24dense_hashtable_iteratorINSt3__24pairIK10KeyWrapperIPK19Il2CppGenericMethodEP10MethodInfoEES6_N6il2cpp8metadata23Il2CppGenericMethodHashEN14dense_hash_mapIS6_S9_SD_NS6_14EqualsComparerINSC_26Il2CppGenericMethodCompareEEENS0_9allocatorISA_EEE9SelectKeyESH_SJ_E30advance_past_empty_and_deletedEv
maf:_PrivateKeyInfo_RemoveLeadingZero_m3396807048
I3i:__ZN6il2cpp6icalls8mscorlib6System9ThreadingL21lookup_cached_cultureEP12Il2CppThreadi
GSb:__ZN18DeferredRenderLoopD2Ev
cva:__ZNK16TypeTreeIterator4NameEv
wEh:_PCMReaderCallback_Invoke_m877950113
p2:__ZN15FileSystemEntry3SetEPKc
HZc:_MACTripleDES__ctor_m884945242
zoh:_RenderTexture_get_height_m428170183
Dvh:_GUILayoutGroup_SetHorizontal_m4089360220
xI:__ZN20SoundChannelInstance15ParameterBuffer5ApplyEPN4FMOD7ChannelE
sxc:__ZN20TextRenderingPrivate19NativeTextGenerator9InsertTabEv
WNj:__ZNSt3__2neERKNS_14__map_iteratorINS_15__tree_iteratorINS_12__value_typeIPvxEEPNS_11__tree_nodeIS4_S3_EEiEEEESB_
F2a:__ZN14SafeBinaryRead21TransferSTLStyleArrayI13dynamic_arrayI16BlendShapeVertexLj4EEEEvRT_17TransferMetaFlags
ksj:__ZNKSt3__213__vector_baseIN6il2cpp2os10ThreadImpl10APCRequestENS_9allocatorIS4_EEE7__allocEv
BRc:__ZN11UnityEngine15PlatformWrapper24GetRuntimePlatformStringEv
Ci:_glIsEnabled
kob:__Z25scripting_class_get_image17ScriptingClassPtr
wkh:_PlayableAsset_Internal_CreatePlayable_m2166162235
H8a:__ZNSt3__26vectorIN4core12basic_stringIcNS1_20StringStorageDefaultIcEEEE13stl_allocatorIS5_L18MemLabelIdentifier13ELi16EEEC2INS_11__wrap_iterIPS5_EEEET_SE_RKS8_PNS_9enable_ifIXaasr21__is_forward_iteratorISE_EE5valuesr16is_constructibleIS5_NS_15iterator_traitsISE_E9referenceEEE5valueEvE4typeE
Gi:_emscripten_glDrawElementsInstanced
vx:__ZN26AnimatorControllerPlayable27SetupStateMachineBehavioursEv
O8e:_ARC4Managed_Dispose_m4102232694
g9e:_HMAC_Initialize_m3052649104
Eof:_OidCollection_get_Item_m1091387424
hib:__ZN9Transform17MainThreadCleanupEv
jGj:_GC_clear_hdr_marks
mUk:_glScissor__wrapper
h_k:_emscripten_glCreateShader__wrapper
jFc:_cff_fd_select_get
P1j:__ZL73CompilationRelaxationsAttribute_t238494011_CustomAttributesCacheGeneratorP21CustomAttributesCache
R9d:_MSCompatUnicodeTable_GetTailoringInfo_m2792223347
qei:__ZNSt3__26vectorIP12Il2CppThreadNS_9allocatorIS2_EEE9push_backERKS2_
flf:_NameObjectCollectionBase_get_Keys_m446053925
Ri:_emscripten_glGetShaderiv
xJ:__ZN4FMOD6System10getVersionEPj
r$d:_Array_InternalArray__IndexOf_TisSByte_t454417549_m1427585061_gshared
cLc:__ZN2UI6Canvas23VirtualRedirectTransferER24GenerateTypeTreeTransfer
cHd:_Decimal_u64_m3991988111
XKh:_Predicate_1_BeginInvoke_m2959352225_gshared
Vhh:_X509Certificate_Parse_m1764345628
Hrc:__ZN9JSONWrite8TransferIN4math12int2_storageEEEvRT_PKc17TransferMetaFlags
dwc:__ZN13TextRendering4Font13AwakeFromLoadE17AwakeFromLoadMode
sGk:_Mathf_Pow_m1117712374
_ig:__Z70RuntimeInvoker_Void_t1841601450_Guid_t_RuntimeObject_Int32_t2071877448PFvvEPK10MethodInfoPvPS4_
rrh:_Transform_Rotate_m474267874
oba:__ZN9GfxDevice21ReleaseSharedMeshDataEP14SharedMeshData
U5a:__ZNSt3__27__sort5IRNS_6__lessINS_4pairIPKN5Unity4TypeE7Hash128EES8_EEPS8_EEjT0_SC_SC_SC_SC_T_
qWe:_Collection_1_ConvertItem_m3168406667_gshared
vth:_WaitForSecondsRealtime_get_keepWaiting_m4138104467
Xlg:__Z70RuntimeInvoker_Single_t2076509932_Int32_t2071877448_Single_t2076509932PFvvEPK10MethodInfoPvPS4_
ehc:__Z43RectTransform_CUSTOM_INTERNAL_get_anchorMaxP12Il2CppObjectP13Vector2fIcall
S4f:__Z50RuntimeInvoker_Void_t1841601450_Single_t2076509932PFvvEPK10MethodInfoPvPS4_
nOd:_DateTimeOffset_get_DateTime_m229084964_AdjustorThunk
_Xi:__ZNKSt3__26vectorIN6il2cpp8metadata18GenericArrayMethodENS_9allocatorIS3_EEE8max_sizeEv
FXa:__ZN8Material28UpdateHashesOnPropertyChangeEN9ShaderLab16FastPropertyNameE
Uhc:__Z53Register_UnityEngine_SortingLayer_GetLayerValueFromIDv
wse:_DirectoryInfo_get_Parent_m1198766078
ECd:_CaseInsensitiveComparer_Compare_m1192858479
cnb:__Z18Transfer_BlittableI14SafeBinaryReadLb1E8Vector4fEvRK29SerializationCommandArgumentsR31RuntimeSerializationCommandInfo
Hsd:_LayoutRebuilder_Clear_m2390054824
Ada:__ZN13GfxDeviceGLES20SetComputeBufferDataE15ComputeBufferIDPKvjj
pTf:_Default_SelectMethod_m622251293
zL:__ZN11AudioSource12AddToManagerEv
ybd:_ExecuteEvents_Execute_m1429058057
tni:__ZN6il2cpp6icalls8mscorlib6SystemL20GetMethodsByNameImplINS_5utils10functional6FilterINSt3__212basic_stringIcNS7_11char_traitsIcEENS7_9allocatorIcEEEENS4_13VmStringUtils21CaseSensitiveComparerEEEEEP11Il2CppArrayPK10Il2CppTypejRKT_
az:__ZN11UnityEngine9Animation32CreateAnimatorGenericBindingsOptERKNS0_20AnimationSetBindingsER9TransformPKN7mecanim9animation14AvatarConstantEPKNS0_21AvatarBindingConstantEbRNS6_6memory9AllocatorER8Animator
lcj:__ZN6il2cpp2vm5Image13ClassFromNameEPK11Il2CppImagePKcS6_
wQk:dynCall_vdddddd
Zeb:__ZN24GenerateTypeTreeTransfer21TransferSTLStyleArrayINSt3__26vectorIN9ShaderLab14SerializedPassENS1_9allocatorIS4_EEEEEEvRT_17TransferMetaFlags
XZ:__ZL32MarkLevelGameManagerDependenciesR27GarbageCollectorThreadState
Hda:__ZNK13GfxDeviceGLES26HasActiveRandomWriteTargetEv
dVk:_glGetActiveUniformsiv__wrapper
zii:__ZNSt3__26vectorINS_4pairIPK10MethodInfoP11Il2CppClassEENS_9allocatorIS7_EEEC2Ev
Rhc:__Z43Register_UnityEngine_Material_EnableKeywordv
m0:__ZN13MonoBehaviour19SetupScriptingCacheE17ScriptingClassPtrP10MonoScript
Aei:__ZNSt3__214__split_bufferIP12Il2CppThreadRNS_9allocatorIS2_EEED2Ev
hr:__Z20AnimationEventToMonoRK14AnimationEventR18MonoAnimationEvent
C$:__ZN17PersistentManager29ReadAndActivateObjectThreadedEiRK26SerializedObjectIdentifierP14SerializedFilebb
SFg:_ShimEnumerator_get_Current_m3610131784_gshared
slk:__ZL74UnityEventBase_t828812576_CustomAttributesCacheGenerator_m_PersistentCallsP21CustomAttributesCache
J6:__ZZN15DirectorManager15InitializeClassEvEN52PreLateUpdateDirectorUpdateAnimationBeginRegistrator7ForwardEv
e8i:__ZN6il2cpp2vm13LivenessState18ShouldProcessValueEP12Il2CppObjectP11Il2CppClass
xtg:__Z49RuntimeInvoker_UIVertex_t1204258818_RuntimeObjectPFvvEPK10MethodInfoPvPS4_
ehi:__ZNKSt3__26vectorI6pollfdNS_9allocatorIS1_EEE17__annotate_deleteEv
JGk:_Matrix4x4_GetHashCode_m375571566
Ewh:_InvokableCall_1__ctor_m1584932671_gshared
ueb:__ZNSt3__26vectorIN9ShaderLab14SerializedPassENS_9allocatorIS2_EEE8__appendEj
Ldb:__ZNSt3__26vectorIN9ShaderLab20SerializedSubProgram13BufferBindingENS_9allocatorIS3_EEEC2INS_11__wrap_iterIPS3_EEEET_SB_RKS5_PNS_9enable_ifIXaasr21__is_forward_iteratorISB_EE5valuesr16is_constructibleIS3_NS_15iterator_traitsISB_E9referenceEEE5valueEvE4typeE
V4b:__ZZL23RegisterLightPropertiesR22GenericPropertyBindingEN20Wrapper_LightColorb213GetFloatValueEPv
VJk:_Shake_Start_m225329643
fmg:__Z133RuntimeInvoker_RuntimeObject_Vector2_t2243707579_Vector2_t2243707579_Single_t2076509932_Int32_t2071877448_RuntimeObject_RuntimeObjectPFvvEPK10MethodInfoPvPS4_
mXa:__ZN9Texture2D23VirtualRedirectTransferER18StreamedBinaryReadILb0EE
IPh:_Animator_get_hasBoundPlayables_m2257984562
Ggj:__ZNSt3__26__treeINS_12__value_typeIP24Il2CppReflectionAssemblyPvEENS_19__map_value_compareIS3_S5_NS_4lessIS3_EELb1EEENS_9allocatorIS5_EEE10value_compEv
HRd:_Double_System_IConvertible_ToUInt16_m286326038_AdjustorThunk
sOi:__ZNSt3__24pairIK10KeyWrapperINS0_IPK9EventInfoP11Il2CppClassEEEjEC2ILb1EvEEv
ozf:_TypeInfo__ctor_m1475908211
eZh:__ZN30dense_hashtable_const_iteratorINSt3__24pairIK10KeyWrapperIPKcEP11Il2CppClassEES5_N6il2cpp5utils11StringUtils12StringHasherIS4_EEN14dense_hash_mapIS5_S8_SE_NS5_14EqualsComparerINSB_13VmStringUtils21CaseSensitiveComparerEEENS0_9allocatorIS9_EEE9SelectKeyESJ_SL_E30advance_past_empty_and_deletedEv
Hmk:__ZL73g_UnityEngine_TextRenderingModule_Assembly_CustomAttributesCacheGeneratorP21CustomAttributesCache
V0:__ZN16ScriptingManager27NativeTypeForScriptingClassE17ScriptingClassPtr
eqf:_X509Chain_WrapUp_m1072032285
ojh:_X509CertificateEnumerator_System_Collections_IEnumerator_MoveNext_m1448966539
pCc:_get_sfnt_table
Ndf:_TlsServerHelloDone__ctor_m2125611008
m1i:__ZNKSt3__213__vector_baseIcNS_9allocatorIcEEE9__end_capEv
BIj:__ZN6il2cpp5utilsL9ReadFloatEPKc
f0b:__Z13RegisterClassI5LightEvv
xcd:_PointerEventData_set_pressPosition_m2094137883
uEf:_DES_get_Key_m2584608215
$Tb:__ZL22ScheduleSceneNodesJobsP25ScheduleSceneNodesJobDataj
Fk:_emscripten_set_canvas_size
A7e:_BigInteger_op_Subtraction_m972393015
beb:__ZNSt3__26vectorIN9ShaderLab20SerializedSubProgramENS_9allocatorIS2_EEE8__appendEj
SV:__ZN20DynamicHeapAllocatorI17LowLevelAllocatorE8AllocateEji
OMb:__ZN20DynamicPropertySheet15SetVectorQueuedERKN9ShaderLab16FastPropertyNameERK8Vector4fN19ShaderPropertySheet8SetFlagsE
U7c:_String_Format_m1263743648
yuj:__ZNSt3__217__compressed_pairINS_15__tree_end_nodeIPNS_16__tree_node_baseIPvEEEENS_9allocatorINS_11__tree_nodeINS_12basic_stringIcNS_11char_traitsIcEENS7_IcEEEES3_EEEEEC2Ev
k2e:_ReadOnlyCollection_1_System_Collections_IEnumerable_GetEnumerator_m4248982967_gshared
cA:__ZN7mecanim9animation22EvaluateAvatarRetargetEPKNS0_14AvatarConstantEPKNS0_11AvatarInputEPNS0_12AvatarOutputEPNS0_12AvatarMemoryEPNS0_15AvatarWorkspaceEb
qPa:__ZN14RenderSettings23VirtualRedirectTransferER19StreamedBinaryWriteILb0EE
eqc:__ZL26Transfer_SimpleNativeClassI9JSONWrite10RectOffsetLb0EEvRK29SerializationCommandArgumentsR31RuntimeSerializationCommandInfo
r2a:__ZN14SafeBinaryRead21TransferSTLStyleArrayI13dynamic_arrayI12BoneWeights4Lj16EEEEvRT_17TransferMetaFlags
BFj:_GC_push_conditional
Iha:__ZN17GenericDynamicVBO10AllocateVBEjR21DynamicVBOChunkHandle
uIe:_List_1_get_Item_m1547593893_gshared
G2j:__ZL66_CustomAttributeBuilder_t3917123293_CustomAttributesCacheGeneratorP21CustomAttributesCache
Nse:_Path_GetPathRoot_m1269357080
ejj:__ZN30dense_hashtable_const_iteratorI10KeyWrapperIP18Il2CppGenericClassES3_N6il2cpp8metadata22Il2CppGenericClassHashEN14dense_hash_setIS3_S6_NS3_14EqualsComparerINS5_25Il2CppGenericClassCompareEEENSt3__29allocatorIS3_EEE8IdentityESA_SD_EppEv
Mad:_EventSystem_SetSelectedGameObject_m2211816110
dl:_glMapBufferRange
eXa:__ZN9Texture2D8TransferI18StreamedBinaryReadILb0EEEEvRT_
Ofc:__Z31Input_CUSTOM_GetMouseButtonDowni
Zgc:__Z75Register_UnityEngine_Playables_PlayableHandle_INTERNAL_CALL_IsValidInternalv
e7b:__ZN13PlayableGraph4PlayEv
nEa:__ZNK9Transform16GetLocalPositionEv
gya:__ZN13LoadOperation19IntegrateTimeSlicedEi
wSg:_ArrayReadOnlyList_1_get_Item_m176001975_gshared
vie:_X501__cctor_m3795360380
Sda:__ZN13GfxDeviceGLES22DispatchComputeProgramE12ObjectHandleI18ComputeProgram_TagPvE15ComputeBufferIDj
aKd:_Convert_ToInt32_m2297793940
wab:__Z17TransformAABBSlowRK4AABBRK10Matrix4x4fRS_
lTi:__ZN13Il2CppHashMapINSt3__24pairIPK9FieldInfoP11Il2CppClassEEj17ReflectionMapHashIS7_ENS0_8equal_toIS7_EENS0_9allocatorINS1_IK10KeyWrapperIS7_EjEEEEEC2EjRKS9_RKSB_
Mcb:__ZN9ShaderLab21SerializedShaderState8TransferI14SafeBinaryReadEEvRT_
XMk:_ftruncate
k0c:_RSAPKCS1SignatureFormatter_SetKey_m2365816458
eGc:_cf2_stack_pushInt
elh:_PropertyName__ctor_m4147171238_AdjustorThunk
eJf:_CompressedStack__ctor_m276924800
$bd:_ExecuteEvents_get_cancelHandler_m1964324668
iTa:__ZN15SerializeTraitsINSt3__24pairIN4core12basic_stringIcNS2_20StringStorageDefaultIcEEEES6_EEE8TransferI24GenerateTypeTreeTransferEEvRS7_RT_
DXk:b89
CXk:b88
kGk:_Mathf_Sin_m712860563
Dsh:_Vector3_Dot_m827632793
cXk:b81
ZOh:__ZL6add192yyyyyyPyS_S_
Ppa:__ZN7ApiGLES19CreateSparseTextureEjj14GraphicsFormatiiiiRiS1_S1_
F1:__ZN18ResourceImageGroup7CleanupEv
o0i:__ZN6il2cpp6icalls8mscorlib6SystemL12AssignSignedIxEEvNS2_17WidenedValueUnionEPv14Il2CppTypeEnumjj
uXk:b84
xXk:b87
wXk:b86
jqg:__Z68RuntimeInvoker_Void_t1841601450_Int32_t2071877448_Double_t4078015681PFvvEPK10MethodInfoPvPS4_
B4b:__ZN13ProduceHelperI4MeshLb0EE7ProduceE18MemLabelIdentifier18ObjectCreationMode
kaf:_PrivateKeyInfo_Decode_m1053025782
yhe:_PKCS12_Decrypt_m2457743414
AUa:__ZN8Playable19SetOutputConnectionEPS_i
qXh:__ZN15dense_hashtableINSt3__24pairIK10KeyWrapperIPK11Il2CppClassEPKcEES6_N6il2cpp5utils11PointerHashIS3_EEN14dense_hash_mapIS6_S9_SE_NS6_14EqualsComparerINS0_8equal_toIS5_EEEENS0_9allocatorISA_EEE9SelectKeyESJ_SL_EC2ERKSO_j
Sl:_glDeleteShader
xTd:_Exception_GetType_m3898489832
Hla:__ZN6prcoreL17RemapGenericFloatI15TexFormatRGHalf16TexFormatRGFloatEEvPKNS_9InnerInfoE
$Re:_Stack_1_Peek_m1548778538_gshared
Bvh:_GUILayoutUtility_get_spaceStyle_m4248899869
NAg:_Shadow_set_effectColor_m3110056844
Cbc:__Z27scripting_add_internal_callPKcPKv
X2d:_Array_InternalArray__Insert_TisUriScheme_t1876590943_m2728325409_gshared
NSi:__ZN13Il2CppHashMapINSt3__24pairIPK9EventInfoP11Il2CppClassEEj17ReflectionMapHashIS7_ENS0_8equal_toIS7_EENS0_9allocatorINS1_IK10KeyWrapperIS7_EjEEEEEC2EjRKS9_RKSB_
okj:__GLOBAL__sub_I_GarbageCollector_cpp
Bjh:_X509Store_CheckStore_m1027496478
ys:__ZN26AnimatorControllerPlayable18SetLayerAutoWeightEv
uQc:__Z44Register_UnityEngine_Canvas_get_pixelPerfectv
D7c:_String_Contains_m4017059963
b2g:_DefaultComparer_Compare_m1606207039_gshared
HNc:__ZN2UI14CanvasRenderer12SyncMaterialENS0_8SyncFlagE
lOj:__ZN6il2cpp2vm9Parameter30GetDefaultParameterValueObjectEPK10MethodInfoPK13ParameterInfoPb
K3d:_Array_InternalArray__set_Item_TisLabelData_t3712112744_m2253365137_gshared
bhf:_RecordProtocol_InternalReceiveRecordCallback_m2228921492
$we:_StringReader__ctor_m643998729
vGi:__ZN15dense_hashtableINSt3__24pairIK10KeyWrapperINS1_IPK9FieldInfoP11Il2CppClassEEEjEES9_17ReflectionMapHashIS8_EN14dense_hash_mapIS9_jSD_NS9_14EqualsComparerINS0_8equal_toIS8_EEEENS0_9allocatorISB_EEE9SelectKeyESI_SK_E21fill_range_with_emptyEPSB_SO_
Imf:_IPv6Address_TryParse_m2220524278
fCc:_UNITY_tt_face_done_kern
L8g:_Context_get_DefaultContext_m2211922324
V2a:__ZN12BoneWeights48TransferI24GenerateTypeTreeTransferEEvRT_
Baf:_RSAManaged_GetPaddedValue_m2972141669
wzg:_ScrollRect_OnDrag_m1424848249
PEb:__Z19scripting_gc_enablev
jIb:__ZZ23InitPlayerLoopCallbacksvEN41InitializationPlayerUpdateTimeRegistrator7ForwardEv
Wdh:_AnchorInfo__ctor_m617409099
wmi:__ZNSt3__26__treeIP11Il2CppClassNS_4lessIS2_EENS_9allocatorIS2_EEE15__insert_uniqueERKS2_
vPc:__Z55Register_UnityEngine_CanvasRenderer_DisableRectClippingv
zuf:_Interval_CompareTo_m2909556284_AdjustorThunk
s2a:__ZN14SafeBinaryRead21TransferSTLStyleArrayI13dynamic_arrayI11ColorRGBA32Lj4EEEEvRT_17TransferMetaFlags
qtf:_Interpreter_GetLastDefined_m2450713313
ndh:_Parser_ParseAssertionType_m3316669790
Hgb:__ZN9ShaderLab7Program27CreateFromSerializedProgramERKNS_17SerializedProgramE10ShaderTypeiP16PropertyNamesSetPK6Shader
Ibj:__ZNKSt3__213__vector_baseIN6il2cpp2vm5Image20EmbeddedResourceDataENS_9allocatorIS4_EEE9__end_capEv
oAg:_Selectable_get_isPointerDown_m774209881
bib:__ZNSt3__27__sort4IRNS_6__lessIN4core12basic_stringIcNS2_20StringStorageDefaultIcEEEES6_EEPS6_EEjT0_SA_SA_SA_T_
aRk:dynCall_viiiifii
ySi:__ZN6il2cpp2gc19AppendOnlyGCHashMapINSt3__24pairIPK11Il2CppImageP11Il2CppClassEEP22Il2CppReflectionModule17ReflectionMapHashIS9_ENS2_8equal_toIS9_EEEC2Ev
b$:__Z20GetPersistentManagerv
jJc:_UNITY_TT_Set_Var_Design
IX:__ZN21SystemInfoStringCache16StaticInitializeEPv
Ybf:_TlsStream__ctor_m4117943603
uHi:__ZN15dense_hashtableINSt3__24pairIK10KeyWrapperIPK10Il2CppTypeEjEES6_N6il2cpp8metadata14Il2CppTypeHashEN14dense_hash_mapIS6_jSB_NS6_14EqualsComparerINSA_26Il2CppTypeEqualityComparerEEENS0_9allocatorIS8_EEE9SelectKeyESF_SH_E12maybe_shrinkEv
dCg:_Text_FontTextureChanged_m4236993972
Ivj:__ZN6il2cpp2gc16GarbageCollector23MakeDescriptorForObjectEPji
Z1f:_ParameterModifier_t1820634920_marshal_pinvoke
bCb:__ZNK13MonoBehaviour7GetNameEv
Cbb:__ZN19ScriptingInvocation28AdjustArgumentsToMatchMethodEv
Bjj:__ZN15dense_hashtableI10KeyWrapperIP18Il2CppGenericClassES3_N6il2cpp8metadata22Il2CppGenericClassHashEN14dense_hash_setIS3_S6_NS3_14EqualsComparerINS5_25Il2CppGenericClassCompareEEENSt3__29allocatorIS3_EEE8IdentityESA_SD_E6insertERKS3_
lG:__Z15_CheckFMODError11FMOD_RESULTPKciS1_
cMa:__Z20RenderMultipleMeshesRK15RenderNodeQueueRK18RenderMultipleData17ShaderChannelMask
GCi:__ZN6il2cpp2vm4Type19GetGenericParameterEPK10Il2CppType
XOc:__Z51Register_UnityEngine_CanvasGroup_get_blocksRaycastsv
w0g:_InternalEnumerator_1_get_Current_m2826780083_gshared
iXd:_Array_InternalArray__ICollection_Remove_TisCustomAttributeNamedArgument_t94157543_m2838387005_gshared
f0h:__ZNSt3__217__compressed_pairIjNS_19__map_value_compareIP11Il2CppClassNS_12__value_typeIS3_S3_EENS_4lessIS3_EELb1EEEEC2EjS8_
sd:_glBeginQuery
jSf:_Assembly_GetCustomAttributes_m95309865
HJb:__ZN6Camera12RenderStereoENS_10RenderFlagE8CullFlagPNS_24PerformEyeRenderFunctionE
Ici:__ZNKSt3__26vectorI6pollfdNS_9allocatorIS1_EEE5beginEv
qkb:__ZN20LocalFileSystemPosix10ToAbsoluteEPKc
Emd:_GridLayoutGroup__ctor_m1099847132
bX:__GLOBAL__sub_I_runtime_input_0_cpp
QSd:_Enum_ToObject_m275924358
zm:f0
KAd:_ArrayListWrapper_set_Capacity_m2792463350
NLk:_getcwd
iHf:_StringBuilder_Append_m1128243247
qxa:__ZN25ThreadsafeLinearAllocatorD2Ev
QLd:_DateTime_get_Year_m1985210972
R9a:__Z21SendMessageToEveryoneRK17MessageIdentifier11MessageData
M4:__ZN21BillboardBatchManager16StaticInitializeEPv
$Y:__ZN12_GLOBAL__N_138ArchiveRedirectFileSystemStaticDestroyEPv
oTd:_EventHandler_Invoke_m1137722757
zfg:__Z70RuntimeInvoker_Boolean_t3825574718_Int32_t2071877448_Int16_t4041245914PFvvEPK10MethodInfoPvPS4_
rVa:__ZN12CubemapArray34UpdateFileTextureUploadInstructionEP26FileAssetUploadInstructionj
wAe:_MonoType_IsSubclassOf_m2211166238
LVe:_Collection_1_System_Collections_ICollection_CopyTo_m2859266050_gshared
Opa:__Z23CreateSparseTextureGLES9TextureIDii14GraphicsFormati
qWh:__ZN6il2cpp2vmL33resolve_generic_instance_internalERKNS0_17TypeNameParseInfoEP11Il2CppClassRNSt3__26vectorIPK10Il2CppTypeNS6_9allocatorISA_EEEEb
uGj:_GC_continue_reclaim
Jre:_InvalidCastException__ctor_m2730571470
Lrf:_X509ChainElementCollection_System_Collections_IEnumerable_GetEnumerator_m2559704689
$of:_PublicKey_get_Key_m126090744
lyc:__ZNSt3__23mapIN20TextRenderingPrivate7FontRefEP11FT_FaceRec_NS_4lessIS2_EENS_9allocatorINS_4pairIKS2_S4_EEEEEixERS9_
Fza:__ZN17ArchiveFileSystem10AddStorageEP20ArchiveStorageReader
LKd:_Convert_ToSingle_m690748777
VPg:_EqualityComparer_1_System_Collections_IEqualityComparer_GetHashCode_m1203798961_gshared
lSh:__ZN6il2cpp2vm5Class15GetEnumBaseTypeEP11Il2CppClass
UUj:___cxx_global_var_init_17176
Ngj:__ZNSt3__25tupleIJRKP24Il2CppReflectionAssemblyEEC2ILb1ELb0EEES4_
uWa:__ZNK9Texture2D16GetNpotTexelSizeEv
Cug:_Mask_get_rectTransform_m3304369086
$ig:__Z78RuntimeInvoker_Void_t1841601450_ScriptableRenderContext_t4271526_RuntimeObjectPFvvEPK10MethodInfoPvPS4_
Nha:__ZN9GfxDevice22GetDefaultVertexBufferE26GfxDefaultVertexBufferTypej
H1e:_ReadOnlyCollection_1_System_Collections_ICollection_CopyTo_m1129689124_gshared
Whi:__ZNSt3__24listIP17Il2CppAsyncResultN6il2cpp2gc9AllocatorIS2_EEEC2Ev
YWk:_glGetActiveUniform__wrapper
XLk:_sscanf
H2a:__ZN14SafeBinaryRead21TransferSTLStyleArrayINSt3__26vectorI17BlendShapeChannelNS1_9allocatorIS3_EEEEEEvRT_17TransferMetaFlags
PFb:__Z17BeginSplashScreenv
Lfb:__ZN9ShaderLab16SerializedShader8TransferI19StreamedBinaryWriteILb0EEEEvRT_
QOf:_UInt32_Parse_m2400360707
xC:__ZN7mecanim9animation18CreateAvatarMemoryEPKNS0_14AvatarConstantERNS_6memory9AllocatorE
pGd:_Stack_Pop_m3788808882
r4g:_Enumerator_VerifyCurrent_m4246196125_AdjustorThunk
PNd:_DateTime_op_Equality_m1867073872
mB:__ZN7mecanim8skeleton16SkeletonPoseCopyIN4math4trsXENS2_7affineXEEEvPKNS0_13SkeletonPoseTIT_EEPNS5_IT0_EE
sha:__ZN18GfxFramebufferGLES18GetFramebufferNameERK20GfxRenderTargetSetup
vmc:__Z30Event_Get_Custom_PropCharacterP12Il2CppObject
c6:__ZN13PlayableGraph27SchedulePlayableDestructionERK9HPlayable
gUk:_glGetFramebufferAttachmentParameteriv__wrapper
zVc:__Z13RegisterClassI20UnityConnectSettingsEvv
hob:__Z22scripting_array_length17ScriptingArrayPtr
d3c:_SecurityElement_GetAttribute_m4288291176
Fzh:_IndexedSet_1_get_Count_m2839545138_gshared
FVa:__ZN14SafeBinaryRead20TransferTypelessDataEjPvi
S1j:__ZL66StringFreezingAttribute_t2691375565_CustomAttributesCacheGeneratorP21CustomAttributesCache
MBi:__ZNSt3__213__vector_baseINS_12basic_stringIcNS_11char_traitsIcEENS_9allocatorIcEEEENS4_IS6_EEEC2Ev
QM:__ZN13dynamic_arrayI12SoundChannelLj4EE9push_backERKS0_
npa:__Z19GetActiveColorSpacev
mQg:_EqualityComparer_1__cctor_m1672307556_gshared
Mxf:_SoapTypeAttribute_get_IsInteropXmlElement_m2941294827
yBc:_UNITY_tt_face_load_kern
eFe:_Enumerator_System_Collections_IEnumerator_get_Current_m3542273247_gshared
$yd:_Char_System_IConvertible_ToUInt32_m1557991717_AdjustorThunk
nGf:_Encoding_get_UTF8Unmarked_m628720656
Boe:_NumberFormatter_RoundBits_m1545255255
tY:__Z6StrCmpPKcS0_
phb:__Z21CheckGpuProgramUsable20ShaderGpuProgramType
_Sf:_Binder__cctor_m3736115807
jtj:__ZN6il2cpp2os9Directory20GetFileSystemEntriesERKNSt3__212basic_stringIcNS2_11char_traitsIcEENS2_9allocatorIcEEEESA_iiPi
oog:__Z84RuntimeInvoker_Int32_t2071877448_Color32_t874517518_Color32_t874517518_RuntimeObjectPFvvEPK10MethodInfoPvPS4_
yNg:_Dictionary_2_OnDeserialization_m2160537783_gshared
kxc:__ZN20TextRenderingPrivate19NativeTextGenerator5SetupEv
_ji:__ZN6il2cpp6icalls8mscorlib6SystemL12GetFieldImplINS_5utils10functional6FilterINSt3__212basic_stringIcNS7_11char_traitsIcEENS7_9allocatorIcEEEENS4_13VmStringUtils23CaseInsensitiveComparerEEEEEP21Il2CppReflectionFieldP11Il2CppClassiRKT_
mRb:__ZNK15SharedLightData24GetFinalShadowResolutionEv
Y6a:__ZN12AspectRatios8TransferI18StreamedBinaryReadILb0EEEEvRT_
Zwj:__ZNSt3__214__split_bufferIjRNS_9allocatorIjEEE17__destruct_at_endEPjNS_17integral_constantIbLb0EEE
F6b:__ZN10GameObject14CopyPropertiesERS_
jnc:__Z44Register_UnityEngine_GUIStyle_get_fixedWidthv
K$c:_RSACryptoServiceProvider_Common_m2581564813
bih:_X509CertificateEnumerator_MoveNext_m4060814498
foh:_Vector2_Scale_m2260641886
$ue:_MemoryStream_CheckIfClosedThrowDisposed_m2253054610
USg:_ArrayReadOnlyList_1_GetEnumerator_m634288642_gshared
l$a:__ZNK13ScreenManager12IsFullScreenEv
yMk:_rand
JUk:_emscripten_glFramebufferRenderbuffer__wrapper
wig:__Z72RuntimeInvoker_Boolean_t3825574718_Ray_t2469606224_SingleU26_t4173844468PFvvEPK10MethodInfoPvPS4_
qvj:__ZN6il2cpp5utils9PathUtils7CombineIcEENSt3__212basic_stringIT_NS3_11char_traitsIS5_EENS3_9allocatorIS5_EEEERKNS0_10StringViewIS5_EERKSA_
dpb:__ZN14SafeBinaryRead21TransferSTLStyleArrayINSt3__26vectorI17AnimationCurveTplIfE13stl_allocatorIS4_L18MemLabelIdentifier1ELi16EEEEEEvRT_17TransferMetaFlags
nXh:__ZN15dense_hashtableINSt3__24pairIK10KeyWrapperIPK11Il2CppClassEPKcEES6_N6il2cpp5utils11PointerHashIS3_EEN14dense_hash_mapIS6_S9_SE_NS6_14EqualsComparerINS0_8equal_toIS5_EEEENS0_9allocatorISA_EEE9SelectKeyESJ_SL_E9set_valueEPSA_RKSA_
FSj:__ZNSt3__23mapIPFvvEPK10MethodInfoNS_4lessIS2_EENS_9allocatorINS_4pairIKS2_S5_EEEEE3endEv
jLi:__ZN15dense_hashtableINSt3__24pairIK10KeyWrapperINS1_IPK11Il2CppImageP11Il2CppClassEEEjEES9_17ReflectionMapHashIS8_EN14dense_hash_mapIS9_jSD_NS9_14EqualsComparerINS0_8equal_toIS8_EEEENS0_9allocatorISB_EEE9SelectKeyESI_SK_E12expand_arrayEjN21dense_hash_map_traits17integral_constantIbLb0EEE
CAf:_ObjectManager_RegisterObject_m872610295
KTb:__Z22PrepareOptimizedPlanesPK5PlaneiPKN4math7_float4E
Yoi:__ZN6il2cpp6icalls8mscorlib6SystemL23GetPropertiesByNameImplINS_5utils10functional6FilterINSt3__212basic_stringIcNS7_11char_traitsIcEENS7_9allocatorIcEEEENS4_13VmStringUtils23CaseInsensitiveComparerEEEEEP11Il2CppArrayPK10Il2CppTypejRKT_
inh:_RectOffset_t3387826427_marshal_pinvoke
sld:_Graphic_SetVerticesDirty_m1607014370
GU:__ZN11UnityEngine15CloudWebService17WebFileDownloaderINS0_20WebRequestRestClientENS0_23WebRequestRestHeaderMapEE10InitializeERKN4core12basic_stringIcNS5_20StringStorageDefaultIcEEEE
K4:__ZN17UniqueIDGenerator15CreatePureIndexEv
Rr:__ZN11UnityEngine9Animation28GenericAnimationBindingCache15DidReloadDomainEv
Ije:_AppDomain_InternalGetProcessGuid_m1278588156
Hqd:_InputField_MoveRight_m386206014
N7a:__ZNSt3__26vectorIN15ResourceManager10DependencyE13stl_allocatorIS2_L18MemLabelIdentifier52ELi16EEE6assignINS_11__wrap_iterIPS2_EEEENS_9enable_ifIXaasr21__is_forward_iteratorIT_EE5valuesr16is_constructibleIS2_NS_15iterator_traitsISC_E9referenceEEE5valueEvE4typeESC_SC_
R5f:__Z116RuntimeInvoker_Boolean_t3825574718_RuntimeObject_Int32_t2071877448_RuntimeObject_Int32_t2071877448_Int32_t2071877448PFvvEPK10MethodInfoPvPS4_
dse:_BinaryReader_ReadBoolean_m2892291883
mQh:__ZN15dense_hashtableINSt3__24pairIK10KeyWrapperIPK22Il2CppGenericParameterEP11Il2CppClassEES6_N6il2cpp5utils11PointerHashIS4_EEN14dense_hash_mapIS6_S9_SE_NS6_14EqualsComparerINS0_8equal_toIS5_EEEENS0_9allocatorISA_EEE9SelectKeyESJ_SL_E14squash_deletedEv
e5b:__ZZL23RegisterLightPropertiesR22GenericPropertyBindingEN18Wrapper_LightRange13SetFloatValueEPvf
Wff:_TlsServerCertificate_validateCertificates_m1988583701
IXi:__ZNKSt3__26vectorIN6il2cpp8metadata18GenericArrayMethodENS_9allocatorIS3_EEE8capacityEv
bGa:__ZNK9Transform18TransformDirectionERK8Vector3f
KZk:_emscripten_glClearStencil__wrapper
n5h:__ZN15dense_hashtableINSt3__24pairIK10KeyWrapperIPK11Il2CppClassEPKcEES6_N6il2cpp5utils11PointerHashIS3_EEN14dense_hash_mapIS6_S9_SE_NS6_14EqualsComparerINS0_8equal_toIS5_EEEENS0_9allocatorISA_EEE9SelectKeyESJ_SL_E12resize_deltaEjj
Rgj:__ZNSt3__23mapIP24Il2CppReflectionAssemblyPvNS_4lessIS2_EENS_9allocatorINS_4pairIKS2_S3_EEEEE4findERS8_
wSk:_glTexSubImage3D__wrapper
Nsf:_FactoryCache_Add_m2602974721
Mha:__Z30AddDefaultStreamsToMeshBuffersR9GfxDeviceR11MeshBuffersj17ShaderChannelMaskS3_
DY:__ZL16GetInterfaceImpl18UnityInterfaceGUID
kle:_RegionInfo_construct_internal_region_from_name_m3316088619
LTh:__ZN6il2cpp2vmL17SetupFieldOffsetsENS0_15FieldLayoutKindEP11Il2CppClassjRKNSt3__26vectorIjNS4_9allocatorIjEEEE
d1i:__ZNSt3__212basic_stringIcNS_11char_traitsIcEENS_9allocatorIcEEEC2INS_11__wrap_iterIPcEEEET_SA_
TGe:_List_1_System_Collections_IList_get_Item_m936612973_gshared
cAj:__ZN6il2cpp6icalls8mscorlib6System15MonoCustomAttrs27GetCustomAttributesInternalEP12Il2CppObjectP20Il2CppReflectionTypeb
qJc:_UNITY_TT_Set_MM_Blend
rfa:__Z24PluginsSetGraphicsDevicePvi18GfxDeviceEventType
eX:__GLOBAL__sub_I_runtime_math_random_0_cpp
g_i:__ZNKSt3__213__vector_baseIP12Il2CppThreadN6il2cpp2gc9AllocatorIS2_EEE8capacityEv
MAf:_ObjectReader_ReadAssembly_m869834280
Eph:_Sprite_INTERNAL_get_textureRect_m127050026
_Fb:__ZN14PreloadManager35WaitForAllAsyncOperationsToCompleteEv
XZe:_Collection_1_IsSynchronized_m971497175_gshared
Lbd:_ExecuteEvents_Execute_m1617536317
aCg:_Text_get_cachedTextGeneratorForLayout_m1357670532
SH:__ZL31InitializeAudioScriptingClassesv
XKb:__Z14SortGUIByDepthP10GUIElementS0_
dpe:_NumberFormatter_NumberToString_m126384393
kWk:_emscripten_glVertexAttrib4fv__wrapper
pvf:_LogicalCallContext__ctor_m3173272863
WB:__ZN12_GLOBAL__N_120ProcessRootMotionMixER33AnimationPlayableEvaluationOutputR35AnimationPlayableEvaluationConstantR32AnimationPlayableEvaluationInputS1_f
hze:_MonoCustomAttrs__cctor_m2608447972
Lne:_Int32_FindSign_m3803672540
Skb:__ZNK20LocalFileSystemPosix21GetAvailableDiskSpaceEPKcRy
MX:__ZNSt3__26__treeIiNS_4lessIiEENS_9allocatorIiEEE7destroyEPNS_11__tree_nodeIiPvEE
Obf:_CipherSuite_InitializeCipher_m229247572
upf:_X509Certificate2__ctor_m1095336775
juj:__ZNSt3__217__compressed_pairIPNS_11__tree_nodeINS_12basic_stringIcNS_11char_traitsIcEENS_9allocatorIcEEEEPvEENS_22__tree_node_destructorINS5_IS9_EEEEEC2ESA_SD_
Baa:__ZNK9GfxDevice14GetWorldMatrixEv
o1f:_MonoProperty_GetGetMethod_m1100580870
gjb:__Z19scripting_array_new17ScriptingClassPtrjj
EM:__ZN11SoundHandle13CreateChannelEb
WXa:__ZN14SafeBinaryRead21TransferSTLStyleArrayI13dynamic_arrayI12LightmapDataLj4EEEEvRT_17TransferMetaFlags
$je:_ArgumentException__ctor_m3312963299
ieb:__ZNSt3__26vectorIN9ShaderLab20SerializedSubProgram16TextureParameterENS_9allocatorIS3_EEE6assignIPS3_EENS_9enable_ifIXaasr21__is_forward_iteratorIT_EE5valuesr16is_constructibleIS3_NS_15iterator_traitsISA_E9referenceEEE5valueEvE4typeESA_SA_
T1h:__ZN13Il2CppHashMapIN6il2cpp5utils13dynamic_arrayIPK10Il2CppTypeLj4EEEPFvvENS0_8metadata19Il2CppSignatureHashENS9_22Il2CppSignatureCompareENSt3__29allocatorINSC_4pairIK10KeyWrapperIS6_ES8_EEEEEC2EjRKSA_RKSB_
nKh:_U3CCreateWhereIteratorU3Ec__Iterator1D_1_MoveNext_m3533253043_gshared
iRi:__ZN15dense_hashtableINSt3__24pairIK10KeyWrapperIPK22Il2CppGenericParameterEPK24MonoGenericParameterInfoEES6_N6il2cpp5utils11PointerHashIS4_EEN14dense_hash_mapIS6_SA_SF_NS6_14EqualsComparerINS0_8equal_toIS5_EEEENS0_9allocatorISB_EEE9SelectKeyESK_SM_E15set_deleted_keyERKSB_
d$b:__ZN6prcoreL11inner_clearILj2EEEvPhjjj
q1h:__ZNSt3__24swapI17Il2CppInteropDataEENS_9enable_ifIXaasr21is_move_constructibleIT_EE5valuesr18is_move_assignableIS3_EE5valueEvE4typeERS3_S6_
fq:__Z14resize_trimmedINSt3__26vectorIN4core12basic_stringIcNS2_20StringStorageDefaultIcEEEENS0_9allocatorIS6_EEEEEvRT_j
xDe:_Enumerator_System_Collections_IEnumerator_get_Current_m2853089017_AdjustorThunk
Hg:_emscripten_exit_fullscreen
Fod:_InputField_get_mesh_m3276583786
k6g:_GCHandle_Free_m1639542352_AdjustorThunk
Jqj:__ZN6il2cpp6icalls8mscorlib6System6String19InternalAllocateStrEi
ZZi:__ZNKSt3__26vectorIP12Il2CppThreadN6il2cpp2gc9AllocatorIS2_EEE6cbeginEv
Fuc:__Z29Transfer_Blittable_ArrayFieldI8JSONRead11QuaternionfEvRT_R9ArrayInfoRK23StaticTransferFieldInfo
Vdc:__Z45Register_UnityEngine_Camera_get_targetDisplayv
h4b:__ZNK24RendererAnimationBinding15GenerateBindingERKN4core12basic_stringIcNS0_20StringStorageDefaultIcEEEEbRN11UnityEngine9Animation14GenericBindingE
HKa:__Z15GetFlareManagerv
_y:__ZN8Animator13GetAvatarRootEv
S$e:_ReadOnlyCollection_1_System_Collections_Generic_ICollectionU3CTU3E_Clear_m388357963_gshared
wKk:___toread
gEb:__ZNSt3__26vectorI10vector_mapIiiNS_4lessIiEE13stl_allocatorINS_4pairIiiEEL18MemLabelIdentifier38ELi16EEES4_IS9_LS7_38ELi16EEE26__swap_out_circular_bufferERNS_14__split_bufferIS9_RSA_EE
xPk:___cxa_is_pointer_type
V7c:_String_Concat_m56707527
YB:__ZN7mecanim9animation16EvaluateAvatarDXEPKNS0_14AvatarConstantEPKNS0_11AvatarInputEPNS0_12AvatarMemoryEPNS0_15AvatarWorkspaceEPNS0_12AvatarOutputE
Doa:__ZN4gles20DestroyRenderSurfaceEP7ApiGLESP17RenderSurfaceGLES
wDe:_Enumerator_System_Collections_IEnumerator_get_Current_m2853089017_gshared
hjc:__Z34Transform_CUSTOM_SetAsFirstSiblingP12Il2CppObject
fEi:__ZNK15dense_hashtableINSt3__24pairIK10KeyWrapperINS1_IPK14Il2CppAssemblyP11Il2CppClassEEEjEES9_17ReflectionMapHashIS8_EN14dense_hash_mapIS9_jSD_NS9_14EqualsComparerINS0_8equal_toIS8_EEEENS0_9allocatorISB_EEE9SelectKeyESI_SK_E10test_emptyEj
nfi:__ZNSt3__216allocator_traitsIN6il2cpp2gc9AllocatorINS_11__list_nodeIP17Il2CppAsyncResultPvEEEEE8allocateERS9_j
Sva:__ZN17PersistentManager40GlobalToLocalSerializedFileIndexInternalERK26SerializedObjectIdentifier
HR:__ZN11UnityEngine15CloudWebService17SessionEventQueue14ParseEventDataERKN4core12basic_stringIcNS2_20StringStorageDefaultIcEEEE
v9c:_BaseEventData_get_selectedObject_m3551206992
Pae:_SimpleCollator_CompareOrdinal_m2176988387
_Td:_CCGregorianCalendar_GetYear_m1289900195
bpe:_Int16_ToString_m2592645088
Kfa:__ZN13TranslateGLES4InitERK12GraphicsCaps16GfxDeviceLevelGL
fCf:_SerializationInfoEnumerator_Reset_m2206466680
HUk:_emscripten_glGetShaderPrecisionFormat__wrapper
BDh:_GenericEqualityComparer_1_Equals_m1934771410_gshared
mOj:__ZN6il2cpp5utils9Exception26FormatInvalidCastExceptionEPK11Il2CppClassS4_
p2b:__ZN13ProduceHelperI10TagManagerLb0EE7ProduceE18MemLabelIdentifier18ObjectCreationMode
nQj:__ZN6il2cpp2os6Memory12AlignedAllocEjj
zUf:_TypeBuilder_get_is_created_m736553860
taf:_RSAManaged__ctor_m1370411656
Azb:__Z18Transfer_BlittableI18StreamedBinaryReadILb0EELb1E10ColorRGBAfEvRK29SerializationCommandArgumentsR31RuntimeSerializationCommandInfo
hlh:_PropertyName_op_Equality_m112228798
Ibc:__ZL27GetComponentsImplementationILb0ELi0EEbR10GameObjectbRK17CompareParametersRK39GetComponentsImplementation_ReturnValue
OCb:__ZN9Scripting36IsSystemCollectionsGenericDictionaryE17ScriptingClassPtr
Wwg:_Raycast3DCallback_EndInvoke_m3234280377
gid:_ColorTweenCallback__ctor_m3619686788
j2:__ZL16ReadTypeTreeImplILb0EEbR8TypeTreeRK16TypeTreeIteratorRPKhS6_i
Yx:__ZN27AnimationLayerMixerPlayable16SetLayerMaskCopyEjRKN7mecanim6bitsetILj70EEEPKNS0_8skeleton12SkeletonMaskE
HPa:__ZNK22BuiltinResourceManager21GetResourceInstanceIDEPKN5Unity4TypeERKN4core12basic_stringIcNS4_20StringStorageDefaultIcEEEE
Hfc:__Z42Register_UnityEngine_RectOffset_set_bottomv
UAd:_ArrayListWrapper_IndexOf_m3574835167
aNb:__ZN28LightProbeProxyVolumeContext8CopyFromERKS_
FEa:__ZN23TransformChangeDispatch32QueueTransformChangeIfHasChangedER18TransformHierarchy
Eoa:__ZN7ApiGLES18DeleteRenderbufferERj
ina:__ZL23ProgramUniformMatrix4fvPK7ApiGLESjiihPKv
Qoa:__ZN7ApiGLES13CreateTextureEjj14GraphicsFormatiiiii
K4b:__ZN13ProduceHelperI11LightProbesLb0EE7ProduceE18MemLabelIdentifier18ObjectCreationMode
Sdb:__ZN9ShaderLab20SerializedSubProgram15MatrixParameter8TransferI14SafeBinaryReadEEvRT_
Kbc:__ZL27GetComponentsImplementationILb0ELi1EEbR10GameObjectbRK17CompareParametersRK39GetComponentsImplementation_ReturnValue
xIc:_Round_Down_To_Grid
YIf:_UTF8Decoder__ctor_m1460357288
Qea:__ZN13RenderTexture7ReleaseEv
csc:__Z18Transfer_BlittableI8JSONReadLb1EN4math12int3_storageEEvRK29SerializationCommandArgumentsR31RuntimeSerializationCommandInfo
Q3a:__ZN10MeshFilter23VirtualRedirectTransferER14SafeBinaryRead
iHd:_Convert_ToByte_m1201588964
_3a:__ZN12MeshRenderer17MainThreadCleanupEv
$ra:__ZN22CreateGpuProgramOutput12CreateParamsEv
aJ:__ZN10ObjectPoolIN4FMOD7ChannelENS0_8ChannelIEE7GetFreeEi
R$j:__ZL55EventBuilder_t2927243889_CustomAttributesCacheGeneratorP21CustomAttributesCache
sxi:__ZNSt3__26vectorIiNS_9allocatorIiEEE21__push_back_slow_pathIiEEvOT_
Afa:__ZNK14GfxContextGLES13GetDefaultFBOEv
tXd:_Array_InternalArray__ICollection_Remove_TisSByte_t454417549_m2474211570_gshared
TDj:_GC_unix_get_mem
Jnh:_RectTransform_set_anchorMax_m1168582032
x8b:__Z13GetImagePixelI10ColorRGBAfET_PKhii13TextureFormat15TextureWrapModeS5_ii
mui:_il2cpp_class_is_enum
E_i:__ZN6il2cpp2vm6Thread49CheckCurrentThreadForInterruptAndThrowIfNecessaryEv
NHa:__ZNSt3__23mapIN9ShaderLab16FastPropertyNameEN18UnityPropertySheet11UnityTexEnvENS_4lessIS2_EENS_9allocatorINS_4pairIKS2_S4_EEEEEixERS9_
Una:__ZNK13TranslateGLES25GetTextureTargetDimensionEj
o3d:_Array_InternalArray__set_Item_TisByte_t3683104436_m1694926640_gshared
gch:_PatternCompiler_EmitInfo_m597931026
K7e:_ModulusRing_Multiply_m3113924743
xic:__Z47Texture2D_CUSTOM_INTERNAL_CALL_GetPixelBilinearP12Il2CppObjectffR10ColorRGBAf
c_:__ZN9Scripting12LogExceptionE21ScriptingExceptionPtriPKcb
Hi:_emscripten_glVertexAttrib4f
w$e:_ReadOnlyCollection_1_System_Collections_IEnumerable_GetEnumerator_m531171980_gshared
m3a:__ZN10Matrix4x4f8TransferI19StreamedBinaryWriteILb0EEEEvRT_
nnh:_RectOffset__ctor_m976836251
Q5d:_Array_Sort_TisUILineInfo_t3621277874_m3105833015_gshared
RAe:_MonoType_GetGenericArguments_m2708198481
ZGe:_List_1_AddEnumerable_m2489692396_gshared
Zw:__ZN7mecanim12statemachine24CreateStateMachineMemoryEPKNS0_20StateMachineConstantERNS_6memory9AllocatorE
PHg:_Enumerator_get_Current_m419581838_AdjustorThunk
cda:__ZN9GfxDevice18SetGlobalDepthBiasEff
oii:__ZN6il2cpp6icalls8mscorlib6System8MonoType12get_AssemblyEP20Il2CppReflectionType
Slh:_Vector3_get_normalized_m1057036856
Vi:_emscripten_glGetPointerv
MB:__ZN8Animator22ApplyBuiltinRootMotionEv
GFb:__Z26ApplyMaterialPassWithCacheRK18SharedMaterialDataR17ShaderPassContextP6ShaderPN9ShaderLab4PassEibPKNS6_10GrabPassesEPNS6_11SubProgramsEPK22DeviceRenderStateBlock
XWd:_Array_InternalArray__ICollection_Remove_TisKeyValuePair_2_t3716250094_m2566517826_gshared
v9i:__ZN30dense_hashtable_const_iteratorINSt3__24pairIK10KeyWrapperIP14Il2CppIUnknownEjEES5_N6il2cpp5utils11PointerHashIS3_EEN14dense_hash_mapIS5_jSB_NS5_14EqualsComparerINS0_8equal_toIS4_EEEENS0_9allocatorIS7_EEE9SelectKeyESG_SI_EppEv
_Za:__ZN8Renderer23VirtualRedirectTransferER14SafeBinaryRead
DVf:_DerivedType_get_UnderlyingSystemType_m3904230233
DMa:__Z27ConvertSubMeshesToTrianglesR13dynamic_arrayI7SubMeshLj4EERS_ItLj2EE
ESh:__ZN6il2cpp2vmL15GetBitmapNoInitEP11Il2CppClassPjRjj
v6h:__ZNSt3__26__treeINS_12__value_typeIP11Il2CppClassS3_EENS_19__map_value_compareIS3_S4_NS_4lessIS3_EELb1EEENS_9allocatorIS4_EEE10value_compEv
Iej:__ZNSt3__216allocator_traitsINS_9allocatorIPK11Il2CppClassEEE7destroyIS4_EEvRS5_PT_
Uqf:_X509Certificate2Collection__ctor_m819526826
yH:__ZN12AudioManager5ResetEv
$tg:__Z75RuntimeInvoker_RuntimeObject_Single_t2076509932_RuntimeObject_RuntimeObjectPFvvEPK10MethodInfoPvPS4_
X8e:_KeyBuilder_Key_m3814433741
ake:_ArgumentException__ctor_m158205422
UBi:__ZNSt3__213__vector_baseIiNS_9allocatorIiEEEC2Ev
j_d:_Array_compare_TisVector3_t2243707580_m3709184876_gshared
ind:_HorizontalLayoutGroup_SetLayoutHorizontal_m3237355818
wB:__ZN7mecanim5human14RetargetToTDoFEPKNS0_5HumanEPNS0_9HumanPoseEPNS_8skeleton13SkeletonPoseTIN4math4trsXEEESB_
Sii:__ZNSt3__216allocator_traitsINS_9allocatorINS_4pairIPK10MethodInfoP11Il2CppClassEEEEE7destroyIS8_EEvRS9_PT_
EQi:__ZNK15dense_hashtableINSt3__24pairIK10KeyWrapperIPK14Il2CppAssemblyEPK22Il2CppMonoAssemblyNameEES6_N6il2cpp5utils11PointerHashIS4_EEN14dense_hash_mapIS6_SA_SF_NS6_14EqualsComparerINS0_8equal_toIS5_EEEENS0_9allocatorISB_EEE9SelectKeyESK_SM_E10test_emptyEj
kvj:__ZN6il2cpp6icalls8mscorlib6System11Environment20GetWindowsFolderPathEi
Nv:__ZN7mecanim5human18HumanPoseBlendNodeERNS0_9HumanPoseEPS1_f
Bzc:_UNITY_FT_RoundFix
Zgb:__ZN9ShaderLab20SerializedSubProgram15AddTextureParamEPKcii16TextureDimension
fgh:_Uri_get_Parser_m2250631932
a4a:__ZNK12MeshRenderer22GetTypeVirtualInternalEv
lld:_Graphic_set_color_m646149893
wSa:__ZN14SafeBinaryRead19TransferSTLStyleMapINSt3__23mapIN4core12basic_stringIcNS3_20StringStorageDefaultIcEEEES7_NS1_4lessIS7_EE13stl_allocatorINS1_4pairIKS7_S7_EEL18MemLabelIdentifier1ELi16EEEEEEvRT_17TransferMetaFlags
jNc:__ZN2UI6Canvas27UpdateEventIndexesRecursiveERi
NR:__ZN11UnityEngine15CloudWebService16SessionContainer21PrepareDataErrorEventERN4core12basic_stringIcNS2_20StringStorageDefaultIcEEEE
bAc:_UNITY_FT_Outline_New
$xj:__ZNSt3__218uninitialized_copyIPNS_4pairIK10KeyWrapperIPK19Il2CppGenericMethodEP10MethodInfoEESB_EET0_T_SD_SC_
Hvb:__Z19TransferField_ArrayI19StreamedBinaryWriteILb0EE27Converter_SimpleNativeClassI8GUIStyleEEvRK23StaticTransferFieldInfoR31RuntimeSerializationCommandInfoRT0_
gyg:_Scrollbar_SetDirection_m3264558284
UWk:_emscripten_glCopyTexSubImage2D__wrapper
VGj:_maybe_finalize
Gkh:_PlayableHandle_IsValidInternal_m3315870994
dzf:_RemotingServices_RegisterInternalChannels_m1827304423
Src:__Z35Transfer_Blittable_FixedBufferFieldI8JSONReadiEvRK29SerializationCommandArgumentsR31RuntimeSerializationCommandInfo
h9h:__ZNSt3__213__vector_baseIN6il2cpp2os19SocketHandleWrapperENS_9allocatorIS3_EEED2Ev
ifg:__Z77RuntimeInvoker_RuntimeObject_Int32_t2071877448_RuntimeObject_SByte_t454417549PFvvEPK10MethodInfoPvPS4_
cc:invoke_viiffi
Kv:__ZN7mecanim18ValueArrayBlendEndILb0EEEvPKNS_10ValueArrayERKNS_14ValueArrayMaskERKNS_16ValueArrayWeightERS1_
jYb:__ZN13sorted_vectorINSt3__24pairIN4core12basic_stringIcNS2_20StringStorageDefaultIcEEEEPK17MessageIdentifierEEN10vector_mapIS6_S9_NS0_4lessIS6_EENS0_9allocatorISA_EEE13value_compareESF_E10insert_oneERKSA_
q6i:__ZNSt3__216allocator_traitsINS_9allocatorIDsEEE10__max_sizeENS_17integral_constantIbLb1EEERKS2_
iKf:_Thread_GetCachedCurrentUICulture_m5590127
gVa:__ZNK12CubemapArray20GetRuntimeMemorySizeEv
evh:_GUILayoutEntry_get_margin_m3913640621
Keb:__Z14resize_trimmedINSt3__26vectorIN9ShaderLab18SerializedPropertyENS0_9allocatorIS3_EEEEEvRT_j
FPe:_List_1_CheckMatch_m4018158235_gshared
qbe:_Context_t2636657155_marshal_pinvoke_back
r4h:__ZN6il2cpp2vm13MetadataCache38GetMethodInfoFromMethodDefinitionIndexEi
uxd:_Byte_System_IConvertible_ToDateTime_m1583041031
cHh:__ZL24UnresolvedVirtualCall_68P12Il2CppObjectS0_iS0_S0_S0_S0_S0_S0_PK10MethodInfo
e0a:__ZN10VertexData8TransferI24GenerateTypeTreeTransferEEvRT_
nxj:__ZN13Il2CppHashMapIPK19Il2CppGenericMethodP10MethodInfoN6il2cpp8metadata23Il2CppGenericMethodHashENS6_26Il2CppGenericMethodCompareENSt3__29allocatorINS9_4pairIK10KeyWrapperIS2_ES4_EEEEEC2EjRKS7_RKS8_
fTb:__ZL10CullLightsRK22SceneCullingParametersR11CullResults
rkd:_Dropdown__cctor_m264401557
vud:_Array_IndexOf_m2819632474
bmh:_Ray_GetPoint_m2427899009_AdjustorThunk
B3g:_Comparer_1__cctor_m3996541505_gshared
Uw:__ZN7mecanim12statemachine20GetBlendTreeConstantERKNS0_13StateConstantEi
TSj:__ZNSt3__26__treeINS_12__value_typeIPFvvEPK10MethodInfoEENS_19__map_value_compareIS3_S7_NS_4lessIS3_EELb1EEENS_9allocatorIS7_EEE10value_compEv
Z_b:__Z40GetTemporaryCachePathApplicationSpecificv
jba:__ZN9GfxDevice16EndAsyncJobFrameEv
rBc:_UNITY_tt_face_load_hhea
IGd:_Convert_ToBase64String_m1936815455
Pk:___syscall3
Sk:___syscall6
Uk:___syscall4
eQd:_Decimal_ToString_m759431975
Nlb:__ZNSt3__26__treeINS_12__value_typeIN4core12basic_stringIcNS2_20StringStorageDefaultIcEEEEPN16MemoryFileSystem4NodeEEENS_19__map_value_compareIS6_SA_NS_4lessIS6_EELb1EEE13stl_allocatorISA_L18MemLabelIdentifier55ELi16EEE7destroyEPNS_11__tree_nodeISA_PvEE
Yfd:_ColorBlock_get_fadeDuration_m987725262
PDf:_CryptographicException__ctor_m2415891459
Pmi:__ZNSt3__26__treeIP11Il2CppClassNS_4lessIS2_EENS_9allocatorIS2_EEE4sizeEv
bqi:__ZNSt3__214__split_bufferIN6il2cpp6icalls8mscorlib6System12PropertyPairERNS_9allocatorIS5_EEE17__destruct_at_endEPS5_
wba:__ZN9GfxDevice27UpdateComputeSkinPoseBufferE15ComputeBufferIDP12SkinMeshInfo
il:_emscripten_glShaderBinary
Kkb:__ZNK20LocalFileSystemPosix6ExistsERK13FileEntryData
tuh:_GUI_CallWindowDelegate_m2603162942
Ykf:_DictionaryNodeEnumerator_get_DictionaryNode_m3521889822
Ut:__ZN7mecanim5human19MaskHasLeftFootGoalERKNS_6bitsetILj70EEE
Aog:__Z101RuntimeInvoker_Int32_t2071877448_RuntimeObject_Color32_t874517518_Int32_t2071877448_Int32_t2071877448PFvvEPK10MethodInfoPvPS4_
FQc:__Z58Register_UnityEngine_Canvas_GetETC1SupportedCanvasMaterialv
eyb:__ZN17AnimationCurveTplIfE8TransferI18StreamedBinaryReadILb1EEEEvRT_
gOd:_DateTimeOffset_GetHashCode_m3312197462_AdjustorThunk
WSc:__ZN18UnityConnectClientD2Ev
Dti:_il2cpp_set_data_dir
agh:_Uri_get_IsUnc_m2111738174
a_f:_TypeBuilder_IsValueTypeImpl_m1499671481
_Rc:__ZN11UnityEngine15PlatformWrapper30GetGraphicsDriverLibraryStringEv
DFg:_Enumerator_VerifyState_m262343092_AdjustorThunk
uPi:__ZN6il2cpp2vm10Reflection27GetCustomAttributesCacheForEPK12PropertyInfo
daf:_EncryptedPrivateKeyInfo_Decode_m1706190306
Bzb:__Z18Transfer_BlittableI18StreamedBinaryReadILb0EELb0E4AABBEvRK29SerializationCommandArgumentsR31RuntimeSerializationCommandInfo
nFh:_AudioListener_ClearExtensionProperties_m2267088681
ED:__ZN16MecanimAnimation24DeleteAnimatedPropertiesERP26IAnimatedPropertyEvaluator
aLd:_Convert_ToUInt16_m1665900934
hle:_RegionInfo__ctor_m2058831971
oJb:__Z14DrawGUITextureRK5RectTIfEP7Texture11ColorRGBA32P8Materiali
hCg:_Text_get_supportRichText_m3291105891
zA:__ZN9BlobWrite8TransferI22OffsetPtrArrayTransferIKN4math7_float4EEEEvRT_PKc17TransferMetaFlags
kwh:_GUIUtility_set_systemCopyBuffer_m3458871692
nRa:__ZN15TextureSettings8TransferI24GenerateTypeTreeTransferEEvRT_
qbh:_MatchCollection_GetEnumerator_m3516985966
Brc:__ZN9JSONWrite8TransferI4AABBEEvRT_PKc17TransferMetaFlags
lGf:_UTF7Encoding__ctor_m2365939916
nBa:__ZN25MultiBlocksMemoryFileData9SetLengthEy
EPh:_Animator_SetTrigger_m2003713590
sCk:_DelegatePInvokeWrapper_StateChanged_t2480912210
Tug:_MatEntry__ctor_m3650167335
kWa:__ZNK9Texture2D20GetRuntimeMemorySizeEv
$Nf:_TypeInitializationException__ctor_m2993591639
Lnc:__ZN5Unity9rapidjson13GenericReaderINS0_4UTF8IcEES3_13JSONAllocatorE9ParseTrueILj0ENS0_19GenericStringStreamIS3_EENS0_15GenericDocumentIS3_S4_S4_EEEEvRT0_RT1_
qm:_emscripten_glUniform2iv
hne:_Int16_System_IConvertible_ToInt64_m733340257
Yxc:_UNITY_FT_Outline_Transform
ric:__Z60Register_UnityEngine_Sprites_DataUtility_Internal_GetMinSizev
qVh:__ZN6il2cpp2vm5Class10GetMethodsEP11Il2CppClassPPv
WOb:__Z30AddDefaultStreamsToMeshBuffersR9GfxDeviceR11MeshBuffersRK16DrawBuffersRange17ShaderChannelMaskS6_
hoa:__ZN7ApiGLES17DeleteFramebufferERN2gl6HandleILNS0_10ObjectTypeE9EEES3_
cra:__ZN15UniformTFMethod13MapBoneBufferEj
qdf:_RecordProtocol_SendAlert_m2816808523
aMc:__ZN2UI14CanvasRendererD2Ev
Epj:__ZNSt3__213__vector_baseI20Il2CppStackFrameInfoNS_9allocatorIS1_EEEC2Ev
Zoi:__ZN6il2cpp6icalls8mscorlib6SystemL23GetPropertiesByNameImplINS_5utils10functional6FilterINSt3__212basic_stringIcNS7_11char_traitsIcEENS7_9allocatorIcEEEENS4_13VmStringUtils21CaseSensitiveComparerEEEEEP11Il2CppArrayPK10Il2CppTypejRKT_
Svf:_MethodCall_get_LogicalCallContext_m3769562079
a0i:__ZN6il2cpp6icalls8mscorlib6System5Array8SetValueEP11Il2CppArrayP12Il2CppObjectS5_
mxe:_SynchronizedReader_Read_m1399666181
T$f:_MonoEvent_get_Name_m2796714646
AEb:__Z9SetupArgviPPKc
qPh:_AnimationOffsetPlayable__ctor_m1644499845
Vcd:_PointerEventData_set_worldNormal_m2025727441
qrh:_Transform_INTERNAL_get_worldToLocalMatrix_m2822011810
xef:_Context_get_SentConnectionEnd_m3114190867
kVa:__ZN12CubemapArray23VirtualRedirectTransferER24GenerateTypeTreeTransfer
P2:__ZN12FileAccessor4OpenER15FileSystemEntry14FilePermission16FileAutoBehavior
KEh:_AudioSource_get_spatializeInternal_m4243931620
pZa:__ZN23TransformChangeDispatch32QueueTransformChangeIfHasChangedERK15TransformAccess
ycd:_PointerEventData_set_clickTime_m3931922487
U1:__ZN15dense_hashtableINSt3__24pairIKiP4RTTIEEiN11TypeManager27HashFunctorPersistentTypeIDEN14dense_hash_mapIiS4_S7_NS0_8equal_toIiEE13stl_allocatorIS5_L18MemLabelIdentifier7ELi16EEE9SelectKeyESA_SD_E12maybe_shrinkEv
toe:_NumberFormatter_AppendNonNegativeNumber_m629862866
RTa:__ZNSt3__26vectorINS_4pairIN9ShaderLab16FastPropertyNameEN18UnityPropertySheet11UnityTexEnvEEENS_9allocatorIS6_EEE21__push_back_slow_pathIKS6_EEvRT_
TTk:_glTexImage3D__wrapper
e5g:_ResourceInfo__ctor_m2401359321_AdjustorThunk
Suj:__ZN6il2cpp2os26LibraryNamePrefixAndSuffixC2EPKcS3_
N3d:_Array_InternalArray__set_Item_TisMonoResource_t3127387157_m732733855_gshared
Pyh:_UnityEvent_1_Invoke_m1599856953_gshared
QDd:_Hashtable__ctor_m392789568
iIf:_UTF7Encoding__cctor_m4192443836
B:tempValue
rAi:__ZNKSt3__29allocatorIN6il2cpp2vm17TypeNameParseInfoEE8max_sizeEv
lne:_Int16_System_IConvertible_ToSingle_m3277935657
G_:__Z29scripting_class_from_fullnamePKcS0_S0_
Hsh:_Vector3_get_sqrMagnitude_m1445517847_AdjustorThunk
Uwg:_Raycast3DCallback_Invoke_m2271859924
tx:__ZN26AnimatorControllerPlayable18DeallocateBindingsEv
YUj:__ZL50g_mscorlib_Assembly_CustomAttributesCacheGeneratorP21CustomAttributesCache
tbj:__ZNSt3__217__compressed_pairINS_15__tree_end_nodeIPNS_16__tree_node_baseIPvEEEENS_9allocatorINS_11__tree_nodeINS_12__value_typeIP24Il2CppReflectionAssemblyS3_EES3_EEEEEC2Ev
VM:__ZN11AudioSource19CreateOpenALRolloffEfff
eCc:_UNITY_FT_Stream_ReadAt
fEg:_Enumerator_get_CurrentKey_m2387752419_AdjustorThunk
u2h:__ZN15dense_hashtableINSt3__24pairIK10KeyWrapperIN6il2cpp5utils13dynamic_arrayIPK10Il2CppTypeLj4EEEEPFvvEEESA_NS3_8metadata19Il2CppSignatureHashEN14dense_hash_mapISA_SD_SG_NSA_14EqualsComparerINSF_22Il2CppSignatureCompareEEENS0_9allocatorISE_EEE9SelectKeyESK_SM_E9set_valueEPSE_RKSE_
_Dk:_UnityEventBase_FindMethod_m2780816114
dOf:_UInt16_System_IConvertible_ToBoolean_m887616848
HN:__ZN11AudioModule22CreateAudioClipFromWWWEP10IWWWStreamPKcbbi
ZGf:_StringBuilder_set_Length_m3039225444
VXe:_Collection_1_System_Collections_IList_Contains_m3870109702_gshared
zWd:_Array_InternalArray__ICollection_Contains_TisRaycastResult_t21186376_m3188614988_gshared
$Xi:__ZNKSt3__213__vector_baseIN6il2cpp8metadata18GenericArrayMethodENS_9allocatorIS3_EEE7__allocEv
LLd:_CultureAwareComparer_GetHashCode_m3681260951
jOc:__Z13RegisterClassIN2UI11CanvasGroupEEvv
f$b:__ZN6prcoreL11inner_clearILj4EEEvPhjjj
bxg:_Selectable__ctor_m1440593935
mIh:__ZL25UnresolvedVirtualCall_132P12Il2CppObject17Color_t2020392075faaaPK10MethodInfo
b6:__ZNK8Playable6HandleEv
R0:__ZN14MessageHandler28MessageIDToMessageIdentifierEi
mmf:_HttpRequestCreator_Create_m3607509610
A0a:__ZNK11SpriteAtlas20GetRuntimeRenderDataEPK6Sprite
sRj:__ZNKSt3__26vectorINS_12basic_stringIDsNS_11char_traitsIDsEENS_9allocatorIDsEEEENS4_IS6_EEE17__annotate_deleteEv
uIj:__ZN6il2cpp2vm10WaitHandle19NewManualResetEventEb
L1e:_ReadOnlyCollection_1_System_Collections_IList_Contains_m3707723158_gshared
H1i:__ZNSt3__214__split_bufferIN6il2cpp2vm22EmbeddedResourceRecordERNS_9allocatorIS3_EEE5clearEv
Qqi:__ZNSt3__217__compressed_pairIPN6il2cpp6icalls8mscorlib6System12PropertyPairENS_9allocatorIS5_EEEC2ES6_
eyc:__ZN20TextRenderingPrivate15DynamicFontData36GetFaceForCharacterIfAvailableInFontERKNS_7FontRefERK13dynamic_arrayI4PPtrIN13TextRendering4FontEELj4EEj
vFh:_AudioExtensionManager_GetReadyToPlay_m3272224102
pv:__ZN7mecanim14ValueArrayCopyILb0EEEvPKNS_10ValueArrayEPS1_
VE:__Z51Register_UnityEngine_Animator_get_hasBoundPlayablesv
EKh:_Nullable_1_ToString_m1238126148_AdjustorThunk
Fd:emscriptenWebGLGetUniform
ro:FUNCTION_TABLE_iiiiiiiiiii
MUb:__ZL10CleanUpJobP20CullingGroupsJobData
ezd:_Char_CompareTo_m3044885427_AdjustorThunk
qte:_FileStream_GetSecureFileName_m508045384
l_g:_InternalEnumerator_1_System_Collections_IEnumerator_get_Current_m2035754659_AdjustorThunk
fJb:__ZN13RenderManager15BatchModeUpdateEv
I$a:__ZN14SafeBinaryRead21TransferSTLStyleArrayI13dynamic_arrayI8Vector2fLj4EEEEvRT_17TransferMetaFlags
Rva:__ZN17PersistentManager51InstanceIDToLocalSerializedObjectIdentifierInternalEiR31LocalSerializedObjectIdentifier
$Gc:_UNITY_FT_Create_Class_cff_services
hd:_glVertexAttribIPointer
VYc:_HMAC_set_HashName_m457235014
J8b:__ZNK6Sprite10GetPaddingE20SpriteRenderDataMode
JVd:_Array_InternalArray__ICollection_Contains_TisTableRange_t2011406615_m605506746_gshared
nKg:_Dictionary_2_Add_m1296007576_gshared
KKd:_Decimal_op_Explicit_m729046406
ZDf:_CryptoConfig_CreateFromName_m2169102076
Lld:_Graphic_OnEnable_m2900261811
aEf:_CryptographicUnexpectedOperationException__ctor_m3552441227
RMb:__ZN14qsort_internal5QSortIP15RODataDepthPassi17ROSorterDepthPassEEvT_S4_T0_T1_
QAd:_ArrayListWrapper_Clear_m321161741
Lqd:_InputField_LineDownCharacterPosition_m2690468785
dCc:_UNITY_ft_glyphslot_alloc_bitmap
U5d:_Array_Sort_TisVector2_t2243707579_TisVector2_t2243707579_m2582252549_gshared
dQf:_UInt64_System_IConvertible_ToDouble_m2828923873
g6i:__ZNSt3__212basic_stringIDsNS_11char_traitsIDsEENS_9allocatorIDsEEE16__set_short_sizeEj
ELe:_List_1_System_Collections_IList_set_Item_m1129584681_gshared
ADc:_ft_raster1_render
ckc:__Z47Register_UnityEngine_Mesh_RecalculateBoundsImplv
vHe:_List_1_set_Capacity_m491101164_gshared
tNk:__ZNKSt3__221__basic_string_commonILb1EE20__throw_length_errorEv
wHf:_StringBuilder_Insert_m1733097906
ejf:_SslStreamBase_get_HashStrength_m480059173
noc:__ZN5Unity9rapidjson6WriterI16TempBufferWriterNS0_4UTF8IcEES4_13JSONAllocatorE11WriteStringEPKcj
xIg:_ValueCollection_System_Collections_Generic_ICollectionU3CTValueU3E_Clear_m3271993638_gshared
tGd:_Enumerator_MoveNext_m1419609883
KI:__ZN4FMOD7Channel19setReverbPropertiesEPK29FMOD_REVERB_CHANNELPROPERTIES
p0:__ZN13MonoBehaviour22GetScriptFullClassNameEv
Plh:_RangeInt_get_end_m480861812
vmf:_ServicePointManager_FindServicePoint_m3137356168
xCb:__ZN13MonoBehaviour9CallAwakeEv
$Pa:__ZN20SphericalHarmonicsL211AddWeightedERKS_f
ldd:_PointerInputModule_GetPointerData_m1695674453
Lag:__Z90RuntimeInvoker_Void_t1841601450_RuntimeObject_RuntimeObject_RuntimeObject_SByte_t454417549PFvvEPK10MethodInfoPvPS4_
Mrb:__Z19TransferField_ArrayI17RemapPPtrTransfer27Converter_SimpleNativeClassI8GUIStyleEEvRK23StaticTransferFieldInfoR31RuntimeSerializationCommandInfoRT0_
GLd:_Convert_ToUInt64_m345450801
HKh:_Predicate_1_BeginInvoke_m2559992383_gshared
Voc:__ZN9JSONWrite8TransferI10ColorRGBAfEEvRT_PKc17TransferMetaFlags
KNe:_List_1_Find_m1270109362_gshared
L0:__Z25scripting_method_get_name18ScriptingMethodPtr
dqb:__Z19TransferField_ArrayI14SafeBinaryRead16Converter_StringEvRK23StaticTransferFieldInfoR31RuntimeSerializationCommandInfoRT0_
OMk:_rename
MGj:_GC_exit_check
gBe:_NotSupportedException__ctor_m3232764727
ewj:__GLOBAL__sub_I_Thread_cpp_15466
Olf:_TypeConverterAttribute_Equals_m2330345916
Kfg:__Z90RuntimeInvoker_Boolean_t3825574718_Int32_t2071877448_Int32U26_t455636984_Int32_t2071877448PFvvEPK10MethodInfoPvPS4_
LYg:_InternalEnumerator_1_System_Collections_IEnumerator_get_Current_m1038263751_gshared
Sse:_MonoIO_CreateDirectory_m379525469
yYb:__ZNSt3__26vectorINS_4pairIN4core12basic_stringIcNS2_20StringStorageDefaultIcEEEES6_EE13stl_allocatorIS7_L18MemLabelIdentifier38ELi16EEE6insertENS_11__wrap_iterIPKS7_EERSD_
qA:__ZN9BlobWrite8TransferI22OffsetPtrArrayTransferI9OffsetPtrIN7mecanim12statemachine18StateMachineMemoryEEEEEvRT_PKc17TransferMetaFlags
nAc:_UNITY_ft_smooth_renderer_class_pic_free
oOe:_List_1_System_Collections_IList_Remove_m3763718607_gshared
aif:_SslClientStream_remove_PrivateKeySelection_m427666577
Q6c:_String_Concat_m2000667605
VRh:__ZN24dense_hashtable_iteratorINSt3__24pairIK10KeyWrapperIPK22Il2CppGenericParameterEP11Il2CppClassEES6_N6il2cpp5utils11PointerHashIS4_EEN14dense_hash_mapIS6_S9_SE_NS6_14EqualsComparerINS0_8equal_toIS5_EEEENS0_9allocatorISA_EEE9SelectKeyESJ_SL_E30advance_past_empty_and_deletedEv
Xyj:__ZN6il2cpp2vm6String8NewUtf16EPKDsi
urj:__ZN6il2cpp2os10ThreadImpl12QueueUserAPCEPFvPvES2_
MSc:__ZN22BaseUnityConnectClient10QueueEventERN11UnityEngine15CloudWebService17CloudServiceEventEPKcjb
tlg:__Z71RuntimeInvoker_Bounds_t3033363703_RuntimeObject_Matrix4x4U26_t266301477PFvvEPK10MethodInfoPvPS4_
u9d:_ExecuteEvents_GetEventHandler_TisRuntimeObject_m3333041576_gshared
Fmi:__ZNSt3__26__treeIP11Il2CppClassNS_4lessIS2_EENS_9allocatorIS2_EEE16__insert_node_atEPNS_16__tree_node_baseIPvEERSB_SB_
Dzc:_UNITY_FT_Hypot
Kvd:_BitConverter_ToInt64_m1329623425
b2b:__ZN8RendererC2E12RendererType18MemLabelIdentifier18ObjectCreationMode
Dfi:__ZNKSt3__210__list_impIP17Il2CppAsyncResultN6il2cpp2gc9AllocatorIS2_EEE13__end_as_linkEv
gui:_il2cpp_class_is_abstract
yf:_emscripten_glGetError
aQi:__ZN15dense_hashtableINSt3__24pairIK10KeyWrapperIPK14Il2CppAssemblyEPK22Il2CppMonoAssemblyNameEES6_N6il2cpp5utils11PointerHashIS4_EEN14dense_hash_mapIS6_SA_SF_NS6_14EqualsComparerINS0_8equal_toIS5_EEEENS0_9allocatorISB_EEE9SelectKeyESK_SM_E14squash_deletedEv
vJ:__Z14FMOD_FILE_SeekPvjS_
Vvf:_MethodCall_get_Properties_m1893707917
IFg:_ShimEnumerator_get_Entry_m2387156530_gshared
M3h:__ZN14dense_hash_mapI10KeyWrapperIN6il2cpp5utils13dynamic_arrayIPK10Il2CppTypeLj4EEEEPFvvENS1_8metadata19Il2CppSignatureHashENS8_14EqualsComparerINSB_22Il2CppSignatureCompareEEENSt3__29allocatorINSG_4pairIKS8_SA_EEEEEC2EjRKSC_RKSF_
PVb:__ZNK13RenderTexture32CalculateNeedsInvertedProjectionEv
H_b:__ZN10systeminfo18GetOperatingSystemEv
Gf:emscriptenWebGLGet
$dj:__ZN14dense_hash_mapI10KeyWrapperINSt3__24pairIPKcS4_EEEi24NamespaceAndNamePairHashNS6_14EqualsComparerI26NamespaceAndNamePairEqualsEENS1_9allocatorINS2_IKS6_iEEEEED2Ev
c3:__Z19CanReplaceComponentRN5Unity9ComponentEPKNS_4TypeEPN4core12basic_stringIcNS5_20StringStorageDefaultIcEEEE
nei:__ZNKSt3__210__list_impIP17Il2CppAsyncResultN6il2cpp2gc9AllocatorIS2_EEE4__szEv
l3b:__ZN12CubemapArray11InitTextureEiii13TextureFormatb
Dac:__Z17GetSceneBuildInfoRKN4core12basic_stringIcNS_20StringStorageDefaultIcEEEEiR14SceneBuildInfo
nHi:__ZN24dense_hashtable_iteratorINSt3__24pairIK10KeyWrapperIPK10Il2CppTypeEjEES6_N6il2cpp8metadata14Il2CppTypeHashEN14dense_hash_mapIS6_jSB_NS6_14EqualsComparerINSA_26Il2CppTypeEqualityComparerEEENS0_9allocatorIS8_EEE9SelectKeyESF_SH_E30advance_past_empty_and_deletedEv
Epf:_X509Certificate2_get_SignatureAlgorithm_m3069898012
zqe:_Int64_System_IConvertible_ToSingle_m1678482180
ZA:__ZN7mecanim5human13HumanFixTwistEPKNS0_5HumanEPNS_8skeleton13SkeletonPoseTIN4math4trsXEEES9_iiRKf
GPb:__ZL24AssignProjectorQueuesJobP30AssignProjectorQueuesJobHeader
CCi:__ZNSt3__29allocatorINS_12basic_stringIcNS_11char_traitsIcEENS0_IcEEEEE9constructIS5_JS5_EEEvPT_DpOT0_
ALf:_TimeSpan_get_Hours_m3804628138
xkj:__ZN14dense_hash_mapI10KeyWrapperIP12Il2CppObjectEN6il2cpp2gc9CachedCCWENS4_5utils11PointerHashIS1_EENS3_14EqualsComparerINSt3__28equal_toIS2_EEEENSB_9allocatorINSB_4pairIKS3_S6_EEEEEC2EjRKS9_RKSE_
X2h:__ZN15dense_hashtableINSt3__24pairIK10KeyWrapperIN6il2cpp5utils13dynamic_arrayIPK10Il2CppTypeLj4EEEEPFvvEEESA_NS3_8metadata19Il2CppSignatureHashEN14dense_hash_mapISA_SD_SG_NSA_14EqualsComparerINSF_22Il2CppSignatureCompareEEENS0_9allocatorISE_EEE9SelectKeyESK_SM_E4swapERSP_
Wgb:__ZN9ShaderLab20SerializedSubProgram14SetConstBufferEPKci
dke:_ArgumentNullException__ctor_m911049464
N5e:_Comparison_1_Invoke_m345024424_gshared
vFc:_cf2_getStdVW
T2e:_ReadOnlyCollection_1_System_Collections_IList_Insert_m3936197025_gshared
tW:__Z40DebugStringToFilePostprocessedStacktraceRK21DebugStringToFileData
BBj:__ZNKSt3__213__vector_baseIPK14Il2CppAssemblyNS_9allocatorIS3_EEE9__end_capEv
Htc:__Z29Transfer_Blittable_ArrayFieldI8JSONReadjEvRT_R9ArrayInfoRK23StaticTransferFieldInfo
NZg:_InternalEnumerator_1_get_Current_m314017974_AdjustorThunk
mg:__setLetterbox
wue:_MemoryStream__ctor_m1043059966
Rwf:__ZN21InterfaceFuncInvoker3IP12Il2CppObjectP6Type_t28StreamingContext_t1417235061PS1_E6InvokeEjP11Il2CppClassS1_S3_S4_S5_
M2a:__ZNSt3__26vectorI17BlendShapeChannelNS_9allocatorIS1_EEE6assignINS_11__wrap_iterIPS1_EEEENS_9enable_ifIXaasr21__is_forward_iteratorIT_EE5valuesr16is_constructibleIS1_NS_15iterator_traitsISA_E9referenceEEE5valueEvE4typeESA_SA_
Urd:_LayoutElement_set_preferredWidth_m3072758716
XGb:__Z12SetGfxDeviceP9GfxDevice
nof:_AsnEncodedData_ToString_m724151831
EDk:_Object_CompareBaseObjects_m1461253683
A_b:__ZN11TimeManager11GetRealtimeEv
PJ:__ZN29AudioEffectInternalDefinitionC2EP26UnityAudioEffectDefinitionb
G$f:_MonoMethodInfo_GetDeclaringType_m4186531677
Oxf:_SoapTypeAttribute_SetReflectionObject_m1566293812
HDh:_Enumerator_System_Collections_IEnumerator_Reset_m2573763156_AdjustorThunk
hzf:_RemotingServices_CreateClientProxy_m1631035355
JQf:_UInt64_ToString_m2892887310
c$i:__ZNSt3__214__split_bufferIP12Il2CppThreadRN6il2cpp2gc9AllocatorIS2_EEE9__end_capEv
vja:_stbir_resize
Bxj:__ZN15dense_hashtableINSt3__24pairIK10KeyWrapperIPK19Il2CppGenericMethodEP10MethodInfoEES6_N6il2cpp8metadata23Il2CppGenericMethodHashEN14dense_hash_mapIS6_S9_SD_NS6_14EqualsComparerINSC_26Il2CppGenericMethodCompareEEENS0_9allocatorISA_EEE9SelectKeyESH_SJ_EC2ERKSM_j
y6i:__ZN6il2cpp2vmL33GetMessageFromRestrictedErrorInfoEP26Il2CppIRestrictedErrorInfo
ZNk:__ZNKSt3__212basic_stringIcNS_11char_traitsIcEENS_9allocatorIcEEE8max_sizeEv
tBa:__Z37ReadDirectoryInfo_UnityWebAndUnityRawR12FileAccessorRKN20ArchiveStorageHeader6HeaderERNS1_13DirectoryInfoE
vZ:__ZNSt3__26__treeINS_12__value_typeIPKciEENS_19__map_value_compareIS3_S4_15compare_tstringIS3_ELb1EEENS_9allocatorIS4_EEE7destroyEPNS_11__tree_nodeIS4_PvEE
boi:__ZNKSt3__214__split_bufferIPK10MethodInfoRNS_9allocatorIS3_EEE8capacityEv
DNg:_Dictionary_2_ToTValue_m1381983709_gshared
_Ae:_MulticastDelegate_KPM_m1592985119
qTc:__ZN13dynamic_arrayIN4core12basic_stringIcNS0_20StringStorageDefaultIcEEEELj4EE6assignEPKS4_S7_
G_e:_Collection_1_ConvertItem_m3941916604_gshared
Oza:__ZN15dense_hashtableINSt3__24pairIKN4core12basic_stringIcNS2_20StringStorageDefaultIcEEEEP20ArchiveStorageReaderEES6_20StringHash32FunctionIS6_EN14dense_hash_mapIS6_S9_SC_NS0_8equal_toIS6_EE13stl_allocatorISA_L18MemLabelIdentifier55ELi16EEE9SelectKeyESF_SI_E5clearEv
VMc:__ZN2UI6Canvas26MarkAllNestedCanvasesDirtyEv
jaj:__ZN6il2cpp2vm12ReboxIfBoxedEP14Il2CppIUnknownP11Il2CppClass
_Db:__ZN25PathNamePersistentManagerD2Ev
d$:__ZN17PersistentManager48IntegrateObjectAndUnlockIntegrationMutexInternalEi
w9:__ZZ29InitializeSortingGroupManagerPvEN44PostLateUpdateSortingGroupsUpdateRegistrator7ForwardEv
kp:__ZN6Object12SetHideFlagsENS_9HideFlagsE
KUk:_emscripten_glGetFramebufferAttachmentParameteriv__wrapper
FJb:__ZN13RendererScene15InitializeUmbraEv
VNa:__Z28CalculateGlobalMatrixInverse23TransformAccessReadOnly
XYj:__ZL60SecurityAttribute_t2016950496_CustomAttributesCacheGeneratorP21CustomAttributesCache
gdd:_PointerEventData_ToString_m1218584363
qIf:_UTF7Encoding_GetCharCount_m2589913583
Xvi:_AnalyticsSessionInfo_CallSessionStateChanged_m2293069762
mve:_MemoryStream_CalculateNewCapacity_m3533542025
YTj:__ZN6il2cpp6icalls8mscorlib6System6Object7GetTypeEP12Il2CppObject
dgh:_Uri_Reduce_m2577728307
_Lf:_TimeSpan_Equals_m4102942751_AdjustorThunk
wIg:_ValueCollection_System_Collections_Generic_ICollectionU3CTValueU3E_Add_m1903672223_gshared
Ofj:__ZNKSt3__215__tree_iteratorINS_12__value_typeIP24Il2CppReflectionAssemblyPvEEPNS_11__tree_nodeIS5_S4_EEiEptEv
gWc:__ZN12HeaderHelper14SetUnvalidatedERKN4core12basic_stringIcNS0_20StringStorageDefaultIcEEEES6_b
QF:__ZN4FMOD6SoundI7releaseEv
ZGj:_GC_get_oom_fn
XBa:__ZN10MemoryFile9SetLengthEy
VOf:_UInt16_ToString_m2038947049_AdjustorThunk
Rtb:__ZN5RectTIiE8TransferI24GenerateTypeTreeTransferEEvRT_
aYa:__ZN14SafeBinaryRead21TransferSTLStyleArrayI13dynamic_arrayI7Hash128Lj8EEEEvRT_17TransferMetaFlags
ZCb:__Z28scripting_class_is_interface17ScriptingClassPtr
Ch:_glTexStorage2D
_Ra:__ZNK9ShaderLab10SubProgram14EnsureCompiledEv
B2f:__Z79RuntimeInvoker_Boolean_t3825574718_RuntimeObject_RuntimeObject_SByte_t454417549PFvvEPK10MethodInfoPvPS4_
FBf:_ObjectManager_RecordFixup_m3572285566
qFd:_SortedList_InitTable_m460350503
B0:__Z18BuildScriptClassId17ScriptingClassPtr
lWg:_InternalEnumerator_1_get_Current_m4279678504_AdjustorThunk
wqi:__ZNKSt3__26vectorIN6il2cpp6icalls8mscorlib6System12PropertyPairENS_9allocatorIS5_EEE8max_sizeEv
PAa:__ZL31DeleteLastPathNameComponentImplRKN4core12basic_stringIcNS_20StringStorageDefaultIcEEEEPKc
W$b:__Z13RegisterClassI18DelayedCallManagerEvv
_Sc:__ZN18UnityConnectClient15GetCloudServiceEv
_rb:__Z18Transfer_BlittableI24GenerateTypeTreeTransferLb0EiEvRK29SerializationCommandArgumentsR31RuntimeSerializationCommandInfo
Y8h:__ZN6il2cpp2os19SocketHandleWrapperD2Ev
TCb:__ZL28SerializationCommandGroupForRK31TransferFunctionScriptingTraits17ScriptingClassPtr17ScriptingFieldPtrRK20CoreScriptingClasses
YEa:__ZN10TagManager32RegisterDefaultTagsAndLayerMasksEv
xRh:__ZN6il2cpp2vm5Class20GetBoundedArrayClassEP11Il2CppClassjb
XJf:_SynchronizationLockException__ctor_m549086841
mAd:_ArrayList_InsertRange_m1478230997
Jfa:__ZN4gles8InitCapsEP7ApiGLESP12GraphicsCapsR16GfxDeviceLevelGL
Pja:__ZN6prcore14BlitImageFloatERK14ImageReferenceRS0_NS0_8BlitModeE
fLa:__Z24CalculateVertexLightDataRK15SharedLightDataR14GfxVertexLight
FBk:_Color_get_black_m455352838
ki:_glEnable
mbb:__ZN15dense_hashtableINSt3__24pairIKiiEEi21InstanceIDHashFunctorN14dense_hash_mapIiiS4_NS0_8equal_toIiEE13stl_allocatorIS3_L18MemLabelIdentifier1ELi16EEE9SelectKeyES7_SA_E12maybe_shrinkEv
WRa:__ZNK9ShaderLab7Program28BeginReadUnsupportedVariantsEv
oLb:__ZNK25CameraStackRenderingState21GetImageEffectTextureEb
FZi:___cxx_global_var_init_13739
yCf:_RuntimeMethodHandle__ctor_m2437574937_AdjustorThunk
z8a:__ZNSt3__26vectorIN30RuntimeInitializeOnLoadManager9ClassInfoE13stl_allocatorIS2_L18MemLabelIdentifier13ELi16EEE7reserveEj
gpc:__Z35Transfer_Blittable_FixedBufferFieldI9JSONWriteiEvRK29SerializationCommandArgumentsR31RuntimeSerializationCommandInfo
oxj:__ZN14dense_hash_mapI10KeyWrapperIPK19Il2CppGenericMethodEP10MethodInfoN6il2cpp8metadata23Il2CppGenericMethodHashENS4_14EqualsComparerINS8_26Il2CppGenericMethodCompareEEENSt3__29allocatorINSD_4pairIKS4_S6_EEEEED2Ev
uOf:_UInt16_System_IConvertible_ToInt64_m2835280558_AdjustorThunk
irk:__ZL53g_UnityEngine_Assembly_CustomAttributesCacheGeneratorP21CustomAttributesCache
lLh:_Predicate_1_BeginInvoke_m3926587117_gshared
YD:__ZZN8Animator15InitializeClassEvEN31FunctorImpl_427kDidModifyAvatar4CallEPviR11MessageData
k1e:_ReadOnlyCollection_1_System_Collections_IList_Remove_m2779327941_gshared
lx:__ZN26AnimatorControllerPlayable17ProcessRootMotionEP35AnimationPlayableEvaluationConstantP32AnimationPlayableEvaluationInputP33AnimationPlayableEvaluationOutput
T2f:__Z94RuntimeInvoker_Boolean_t3825574718_Int32_t2071877448_SByte_t454417549_ExceptionU26_t1467204777PFvvEPK10MethodInfoPvPS4_
Wid:_DefaultControls_CreateToggle_m1568873127
oNg:_Dictionary_2_InitArrays_m2270022740_gshared
ARc:__ZN11UnityEngine7Connect15DeviceInfoEvent16CollectExtraInfoEv
HHf:_UnicodeEncoding_GetChars_m3765282346
mre:_IntPtr__ctor_m4104029105
Z_g:_InternalEnumerator_1_System_Collections_IEnumerator_get_Current_m771161214_AdjustorThunk
_ze:_MonoType_get_attributes_m1493788675
SCa:__ZN20ArchiveStorageReader10InitializeER15FileSystemEntryyb
RMk:_atol
YCj:__ZThn8_N6il2cpp2vm13CachedCCWBaseINS0_13ManagedObjectEE6AddRefEv
DJd:_Convert_ToDouble_m4236754739
xZh:__ZN15dense_hashtableINSt3__24pairIK10KeyWrapperIPKcEP11Il2CppClassEES5_N6il2cpp5utils11StringUtils12StringHasherIS4_EEN14dense_hash_mapIS5_S8_SE_NS5_14EqualsComparerINSB_13VmStringUtils21CaseSensitiveComparerEEENS0_9allocatorIS9_EEE9SelectKeyESJ_SL_EC2EjRKSE_RKSJ_RKSN_
kkd:_Dropdown_CreateItem_m2702141380
r_j:__ZL48Stack_t1043988394_CustomAttributesCacheGeneratorP21CustomAttributesCache
wo:FUNCTION_TABLE_viifi
Q$f:_MonoEvent_GetAddMethod_m4289563120
xYj:__ZL37Type_t_CustomAttributesCacheGeneratorP21CustomAttributesCache
aJc:_UNITY_tt_face_free_hdmx
zUi:__ZN15dense_hashtableINSt3__24pairIK10KeyWrapperINS1_IP11Il2CppClassjEEES4_EES6_N6il2cpp8metadata14ArrayClassHashEN14dense_hash_mapIS6_S4_SB_NS6_14EqualsComparerINSA_17ArrayClassCompareEEENS0_9allocatorIS8_EEE9SelectKeyESF_SH_E5clearEv
XXh:__ZNSt3__218uninitialized_copyIPNS_4pairIK10KeyWrapperIPK11Il2CppClassEPKcEESB_EET0_T_SD_SC_
xwi:__ZN6il2cpp2vm14TypeNameParser5ParseEb
Awg:_ReflectionMethodsCache__ctor_m1835220
xVc:__ZN23UnityPurchasingSettingsC2Ev
WRd:_Double_ToString_m1864290157
QVb:__ZL10RenderFaceR9GfxDeviceR18MaterialStateCacheP13RenderTextureiif
Hrh:_SpriteAtlasManager__cctor_m453260161
Bja:__ZL37stbir__resample_horizontal_downsampleP11stbir__infoiPf
Hbb:__ZNK5Unity9Component38MarkGameObjectAndComponentDependenciesER27GarbageCollectorThreadState
DX:__ZL16OutOfMemoryErrorjj18MemLabelIdentifieriPKc
AWc:__ZN20UnityWebRequestProtoI24UnityWebRequestTransport16AtomicRefCounter14RedirectHelper14ResponseHelper15DownloadHandler13UploadHandler12HeaderHelper14AsyncOperationED0Ev
rdf:_RecordProtocol_SendRecord_m132002114
a1:__ZNK11TypeManager15ClassNameToRTTIEPKcb
qAb:__Z18Transfer_BlittableI18StreamedBinaryReadILb0EELb1EdEvRK29SerializationCommandArgumentsR31RuntimeSerializationCommandInfo
f6h:__ZNSt3__23mapIP11Il2CppClassS2_NS_4lessIS2_EENS_9allocatorINS_4pairIKS2_S2_EEEEE3endEv
iWk:_emscripten_glVertexAttrib2fv__wrapper
bme:_Guid__ctor_m2599802704
Ote:_FileStream_get_CanRead_m4148920720
Hia:__ZN4crnd12symbol_codec32decode_receive_static_data_modelERNS_25static_huffman_data_modelE
Y_b:__ZN18ScriptingArguments8AddFloatEf
ske:_GregorianCalendar_set_CalendarType_m2438362222
Tvj:__ZN6il2cpp2vmL24HexValueToLowercaseAsciiEh
KWd:_Array_InternalArray__ICollection_Contains_TisVector2_t2243707579_m3625698589_gshared
qRc:__ZN11UnityEngine15PlatformWrapper16GetVRRenderScaleEv
gqc:__Z18Transfer_BlittableI9JSONWriteLb0EaEvRK29SerializationCommandArgumentsR31RuntimeSerializationCommandInfo
hR:__ZN11UnityEngine15CloudWebService14DataDispatcher34OnSessionContainerArchivedAndReadyERNS0_16SessionContainerE
bOh:_RectTransformUtility_PixelAdjustPoint_m1375786599
dle:_NumberFormatInfo_GetFormat_m3247563525
Kcb:__ZN14SafeBinaryRead19TransferSTLStyleMapINSt3__23mapIN4core12basic_stringIcNS3_20StringStorageDefaultIcEEEEiNS1_4lessIS7_EENS1_9allocatorINS1_4pairIKS7_iEEEEEEEEvRT_17TransferMetaFlags
SKi:__ZN15dense_hashtableINSt3__24pairIK10KeyWrapperINS1_IPK11Il2CppImageP11Il2CppClassEEEjEES9_17ReflectionMapHashIS8_EN14dense_hash_mapIS9_jSD_NS9_14EqualsComparerINS0_8equal_toIS8_EEEENS0_9allocatorISB_EEE9SelectKeyESI_SK_ED2Ev
WAc:_gray_move_to
nYc:_DSAParameters_t1872138834_marshal_pinvoke
Iah:_ConstructionCall_InitDictionary_m4046452035
tNi:__ZN6il2cpp2vm10Reflection14GetEventObjectEP11Il2CppClassPK9EventInfo
Adf:_TlsStream_Write_m2271546135
zcc:__Z30RegisterValidateMethodCallbackiPF18ScriptingMethodPtrS_17ScriptingClassPtrP6ObjectEPKc
QUd:_CultureInfo_ConstructInternalLocaleFromCurrentLocale_m1342751405
BDi:__ZNSt3__29make_pairIRKNS_4pairIPK14Il2CppAssemblyP11Il2CppClassEERjEENS1_INS_18__make_pair_returnIT_E4typeENSB_IT0_E4typeEEEOSC_OSF_
NGf:_Latin1Encoding_GetString_m3553289597
Mwg:_GetRayIntersectionAllNonAllocCallback_Invoke_m1247446986
tCc:_tt_cmap_init
yuc:__ZN8JSONRead8TransferI9BoundsIntEEvRT_PKc17TransferMetaFlagsb
Ia:invoke_viidi
Rjj:__ZN15dense_hashtableI10KeyWrapperIP18Il2CppGenericClassES3_N6il2cpp8metadata22Il2CppGenericClassHashEN14dense_hash_setIS3_S6_NS3_14EqualsComparerINS5_25Il2CppGenericClassCompareEEENSt3__29allocatorIS3_EEE8IdentityESA_SD_E12maybe_shrinkEv
Uxb:__Z29Transfer_Blittable_ArrayFieldI18StreamedBinaryReadILb1EEdEvRT_R9ArrayInfoRK23StaticTransferFieldInfo
oI:__ZN9AudioClip7CleanupEv
$sh:_Vector4_set_Item_m1525226067_AdjustorThunk
l_k:_emscripten_glCheckFramebufferStatus__wrapper
_Yi:__ZNK15dense_hashtableINSt3__24pairIK10KeyWrapperIP11Il2CppClassES4_EES5_N6il2cpp8metadata16SZArrayClassHashEN14dense_hash_mapIS5_S4_SA_NS5_14EqualsComparerINS9_19SZArrayClassCompareEEENS0_9allocatorIS7_EEE9SelectKeyESE_SG_E12test_deletedEj
zPj:__ZNSt3__26__treeIPFvvENS_4lessIS2_EENS_9allocatorIS2_EEE12__node_allocEv
$sc:__Z18Transfer_BlittableI8JSONReadLb0EdEvRK29SerializationCommandArgumentsR31RuntimeSerializationCommandInfo
KCi:__ZNSt3__28distanceIPKcEENS_15iterator_traitsIT_E15difference_typeES4_S4_
png:__Z83RuntimeInvoker_Boolean_t3825574718_NavigationU26_t3929175072_Navigation_t1571958496PFvvEPK10MethodInfoPvPS4_
pKf:_Thread_ClrState_m822263449
bbe:_SimpleCollator_LastIndexOfOrdinalIgnoreCase_m550798345
Caa:__ZNK9GfxDevice13GetViewMatrixEv
JAk:_Bounds_Encapsulate_m17114941
Fab:__ZN17RemapPPtrTransferC2E24TransferInstructionFlagsb
c2:__ZN8TypeTree8BlobReadERPKhS1_ib
lqj:__ZNSt3__26vectorIPK14Il2CppAssemblyNS_9allocatorIS3_EEE5beginEv
eIa:__ZN6CameraD0Ev
Hvh:_GUILayoutUtility_Begin_m659595645
Cce:_ModulusRing_Multiply_m386339435
A7:__ZN31CanvasBatchIntermediateRenderer16StaticInitializeEPv
Cmd:_GraphicRaycaster_U3CRaycastU3Em__0_m3971200721
l1e:_ReadOnlyCollection_1_System_Collections_IList_RemoveAt_m3004588099_gshared
Bw:__ZN7mecanim12AndValueMaskILb0EEEvPKNS_14ValueArrayMaskEPS1_
n8a:__ZN14SafeBinaryRead21TransferSTLStyleArrayINSt3__26vectorIi13stl_allocatorIiL18MemLabelIdentifier13ELi16EEEEEEvRT_17TransferMetaFlags
jJd:_Decimal_op_Implicit_m4246329390
fke:_ArgumentNullException__ctor_m2252076819
QWb:__ZN10GameObjectC2E18MemLabelIdentifier18ObjectCreationMode
EJc:_raccess_guess_apple_double
bAe:_MonoType_GetAttributeFlagsImpl_m250699879
bBf:_SerializationInfo__ctor_m4016423422
Qma:__ZL18ProgramUniform1uivPK7ApiGLESjiihPKv
v3b:__ZN14Texture2DArray13RebuildMipMapEv
K_h:__ZN13Il2CppHashSetIPK17Il2CppGenericInstN6il2cpp8metadata21Il2CppGenericInstHashENS4_24Il2CppGenericInstCompareENSt3__29allocatorI10KeyWrapperIS2_EEEEC2EjRKS5_RKS6_
Fvj:__ZN6il2cpp2gc16GarbageCollector14RemoveWeakLinkEPPv
Xgb:__ZN9ShaderLab20SerializedSubProgram14AddVectorParamEPKcii15ShaderParamTypei
uEj:_GC_max
U3e:_ReadOnlyCollection_1_System_Collections_IEnumerable_GetEnumerator_m1734360860_gshared
q5g:_ResourceSet_ReadResources_m1669023823
rie:_PKCS12_RemoveCertificate_m1590055870
I$i:__ZN6il2cpp2vm6Thread7SetNameEP12Il2CppThreadP12Il2CppString
eRj:__ZNSt3__214__split_bufferINS_12basic_stringIDsNS_11char_traitsIDsEENS_9allocatorIDsEEEERNS4_IS6_EEEC2EjjS8_
gFb:__ZN13ScreenManager18SetAllowCursorLockEb
BS:__ZN11UnityEngine15CloudWebService10RestClientINS0_23WebRequestRestHeaderMapEE16SetRequestHeaderERKN4core12basic_stringIcNS4_20StringStorageDefaultIcEEEESA_
s8a:__ZN30RuntimeInitializeOnLoadManager15ClassMethodInfo8TransferI14SafeBinaryReadEEvRT_
Fxk:__ZL73CanvasScaler_t2574720772_CustomAttributesCacheGenerator_m_ScreenMatchModeP21CustomAttributesCache
YO:__ZL22InitializeModule_Audiov
N3i:__ZN6il2cpp6icalls8mscorlib6System9Threading6Thread27GetSerializedCurrentCultureEP12Il2CppThread
rlb:__ZN16MemoryFileSystem8IsLockedERK13FileEntryData
j4i:__ZN6il2cpp6icalls8mscorlib6System2IO6MonoIO5WriteEiP11Il2CppArrayiiPi
y$f:_MonoCMethod_Invoke_m931478014
r4f:__Z86RuntimeInvoker_Int32_t2071877448_Int16_t4041245914_Int32_t2071877448_Int32_t2071877448PFvvEPK10MethodInfoPvPS4_
x5g:_SatelliteContractVersionAttribute__ctor_m2605651717
Vk:_emscripten_glBindRenderbuffer
ikk:__ZL77RuntimePlatform_t1869584967_CustomAttributesCacheGenerator_OSXDashboardPlayerP21CustomAttributesCache
VXh:__ZN30dense_hashtable_const_iteratorINSt3__24pairIK10KeyWrapperIPK11Il2CppClassEPKcEES6_N6il2cpp5utils11PointerHashIS3_EEN14dense_hash_mapIS6_S9_SE_NS6_14EqualsComparerINS0_8equal_toIS5_EEEENS0_9allocatorISA_EEE9SelectKeyESJ_SL_EC2EPK15dense_hashtableISA_S6_SE_SN_SJ_SL_EPKSA_SU_b
EGj:_GC_dirty_init
rud:_Array_Copy_m1969461849
vAf:_MessageFormatter_ReadMethodResponse_m4134629501
Pnj:__ZN6il2cpp2vm5Field14GetValueObjectEP9FieldInfoP12Il2CppObject
_Nc:__ZNK2UI6Canvas16GetTargetDisplayEv
cTd:_Environment_get_OSVersion_m1247315981
r5:__ZN6Object17FindObjectsOfTypeEPKN5Unity4TypeER13dynamic_arrayIPS_Lj4EEb
rCb:__ZN13MonoBehaviour17RemoveFromManagerEv
QIa:__ZN12ImageFilters14AddImageFilterERK11ImageFilter
Q_a:__ZL11DecodeValuePPKcS0_
hGg:_ShimEnumerator_MoveNext_m2013866013_gshared
IV:__ZN13MemoryManagerC2Ev
lqa:__ZN12SkinMeshInfo10DeallocateEPS_
Hwj:__ZN6il2cpp8metadataL7AlignToEjj
sOk:__ZNKSt3__212basic_stringIcNS_11char_traitsIcEENS_9allocatorIcEEE6substrEjj
kCa:__ZN20ArchiveStorageReader28AcquireAndPrefillUnusedBlockEjPNS_11CacheResultE
p3b:__Z12NHxRoughnessIA4_tEvP9Texture2DPT_iiii
N5:__ZN18AsyncUploadManagerD2Ev
Vib:__ZN9Transform5ResetEv
fub:__Z22TransferField_NonArrayI24GenerateTypeTreeTransfer16Converter_StringEvRK23StaticTransferFieldInfoR31RuntimeSerializationCommandInfoRT0_
jCc:_UNITY_FT_CMap_New
sBi:__ZNSt3__217__compressed_pairIPN6il2cpp2vm17TypeNameParseInfoENS_9allocatorIS3_EEEC2ES4_S6_
$Eb:__Z17MainLoopKeepalivePv
ibh:_MatchCollection__ctor_m1944681790
yZc:_HMACSHA512__ctor_m1667460019
r$h:__ZN15dense_hashtableI10KeyWrapperIPK17Il2CppGenericInstES4_N6il2cpp8metadata21Il2CppGenericInstHashEN14dense_hash_setIS4_S7_NS4_14EqualsComparerINS6_24Il2CppGenericInstCompareEEENSt3__29allocatorIS4_EEE8IdentityESB_SE_E12expand_arrayEjN21dense_hash_map_traits17integral_constantIbLb0EEE
F8i:__ZN14dense_hash_mapI10KeyWrapperIP14Il2CppIUnknownEjN6il2cpp5utils11PointerHashIS1_EENS3_14EqualsComparerINSt3__28equal_toIS2_EEEENS9_9allocatorINS9_4pairIKS3_jEEEEED2Ev
QAe:_MonoType_ToString_m473949831
YTb:__Z14CalcHullBoundsPK8Vector3fPKhhRK5PlaneRK10Matrix4x4fR10MinMaxAABB
tyf:_RealProxy__ctor_m2147093603
KMb:__Z19SetupLODFadeKeywordR17ShaderPassContexti
Qpa:__ZL25CheckCopyTextureArgumentsRK7ApiGLESP11GLESTextureS3_
J9a:__ZN13dynamic_arrayI26EnlightenSystemInformationLj8EE6insertEPS0_PKS0_S4_
PBc:_tt_name_entry_ascii_from_utf16
aBe:_MulticastNotSupportedException__ctor_m2164514827
eMd:_DateTime_System_IConvertible_ToChar_m2489529194_AdjustorThunk
Etb:__Z29Transfer_Blittable_ArrayFieldI24GenerateTypeTreeTransferyEvRT_R9ArrayInfoRK23StaticTransferFieldInfo
$I:__ZN4FMOD7SystemI9playSoundE17FMOD_CHANNELINDEXPNS_5SoundEbPPNS_7ChannelE
Bdh:_Regex_GetGroupIndex_m1686599756
Rkk:__ZL68PreferBinarySerialization_t2472773525_CustomAttributesCacheGeneratorP21CustomAttributesCache
Aw:__ZN27AnimationLayerMixerPlayable17LayerMixerProcessEP35AnimationPlayableEvaluationConstantP32AnimationPlayableEvaluationInputP33AnimationPlayableEvaluationOutputM17AnimationPlayableFvS1_S3_S5_EMS_FvS1_S3_S5_ESA_MS_FvS5_S1_S3_S5_ifE
Vvi:__ZN6il2cpp2os4File4ReadEPNS0_10FileHandleEPciPi
BH:__ZN12AudioManager23VirtualRedirectTransferER18StreamedBinaryReadILb0EE
NSj:__ZNSt3__26__treeINS_12__value_typeIPFvvEPK10MethodInfoEENS_19__map_value_compareIS3_S7_NS_4lessIS3_EELb1EEENS_9allocatorIS7_EEE3endEv
cNk:_realloc
qjc:__Z57Register_UnityEngine_Transform_INTERNAL_get_localRotationv
Wzg:_ScrollRect_SetLayoutVertical_m1225848090
BIk:_Plane_ToString_m4267831659_AdjustorThunk
QMf:_Type_get_IsInterface_m3583817465
IRk:dynCall_viif
g0f:_MonoField_get_DeclaringType_m1591666235
Tuf:_Enumerator_MoveNext_m4234629003
vGc:_cf2_hint_lock
krb:__ZL26Transfer_SimpleNativeClassI17RemapPPtrTransfer8GradientLb0EEvRK29SerializationCommandArgumentsR31RuntimeSerializationCommandInfo
ky:__ZN17AnimationPlayable26DisconnectNoTopologyChangeEPS_i
fog:__Z59RuntimeInvoker_Boolean_t3825574718_RaycastHit2D_t4063908774PFvvEPK10MethodInfoPvPS4_
$ze:_MonoType_GetDefaultConstructor_m925465120
BNf:_Type_IsArrayImpl_m3073208555
gSk:dynCall_viifffi
jT:__ZN13UploadHandlerD2Ev
eQk:dynCall_viiiiiffi
zc:_emscripten_glBlendFuncSeparate
m_:__Z20scripting_string_newPKc
Jhc:__Z43Material_CUSTOM_Internal_CreateWithMaterialP12Il2CppObjectS0_
Lse:_Directory_GetCurrentDirectory_m44486537
Lcj:__ZNK24NamespaceAndNamePairHashclERKNSt3__24pairIPKcS3_EE
gSe:_Collection_1_System_Collections_ICollection_CopyTo_m1047946700_gshared
Eoc:__ZN9JSONWrite12AppendToNodeEPN5Unity9rapidjson12GenericValueINS1_4UTF8IcEE13JSONAllocatorEEPKcRS6_
rei:__ZNSt3__213__vector_baseIP12Il2CppThreadNS_9allocatorIS2_EEE9__end_capEv
bWi:__ZNSt3__218uninitialized_copyIPNS_4pairIK10KeyWrapperIP11Il2CppClassES4_EES8_EET0_T_SA_S9_
HB:__ZNSt3__26__sortIRPFbPKN8Animator11AnimatorJobES4_EPS4_EEvT0_S9_T_
IG:__ZN17AudioCustomFilterD2Ev
Aoa:__ZN18GfxFramebufferGLES18ReleaseFramebufferEP17RenderSurfaceBaseP14GfxContextGLES
S8g:_Context_GetDynamicPropertyCollection_m1987747444
Hpf:_X509Certificate2_get_Version_m1927399907
c6b:__ZN13ProduceHelperI6CameraLb0EE7ProduceE18MemLabelIdentifier18ObjectCreationMode
iod:_Image_RadialCut_m3229543088
HU:__ZN19CloudServiceHandler34HandleSaveFileWebRequestPlayerLoopEv
Xx:__ZN7mecanim21ValueArrayReverseCopyEPKNS_18ValueArrayConstantEPKNS_10ValueArrayES2_PS3_PKi
qG:__Z31GetParentSampleClipFromInstancePN11SoundHandle8InstanceE
z1b:__ZNK28RectTransformPropertyBinding13GetFloatValueERKN11UnityEngine9Animation10BoundCurveE
lWb:__ZN6Camera22StandaloneCustomRenderENS_10RenderFlagEP6ShaderRKN4core12basic_stringIcNS3_20StringStorageDefaultIcEEEEPNS_21PerformRenderFunctionE
K7a:__ZNSt3__26vectorI4PPtrI6ObjectE13stl_allocatorIS3_L18MemLabelIdentifier52ELi16EEE6assignINS_11__wrap_iterIPS3_EEEENS_9enable_ifIXaasr21__is_forward_iteratorIT_EE5valuesr16is_constructibleIS3_NS_15iterator_traitsISD_E9referenceEEE5valueEvE4typeESD_SD_
nUj:__ZN6il2cpp2os16ThreadLocalValue8GetValueEPPv
W5h:__ZN6il2cpp2vm13MetadataCache14GetGenericInstEPKPK10Il2CppTypej
V0c:_SHA384Managed_Initialize_m712692291
$O:__ZN13AudioListener17ReadExtensionNameEi
s7g:_ChannelInfo__ctor_m2502026239
Lb:invoke_iiidii
ap:setThrew
h3b:__ZL21BuildEmptyCubeTexturePKci11ColorRGBA3217TextureColorSpace
Sth:_Event_get_modifiers_m3267430607
Ncb:__ZN14SafeBinaryRead21TransferSTLStyleArrayINSt3__26vectorIN9ShaderLab20SerializedSubProgramENS1_9allocatorIS4_EEEEEEvRT_17TransferMetaFlags
_rc:__Z15Transfer_StringI8JSONReadLb1EEvRK29SerializationCommandArgumentsR31RuntimeSerializationCommandInfo
hkf:_BasicConstraintsExtension_Encode_m3738782306
aOb:__Z25DoForwardShaderRenderLoopR17RenderLoopContextR13dynamic_arrayI16RenderObjectDataLj4EERK11CullResultsbbbN6Camera10RenderFlagE
Y8d:_GameObject_GetComponent_TisRuntimeObject_m2812611596_gshared
nBc:_sfnt_load_face
Ahe:_PKCS12_GetSymmetricAlgorithm_m1812022677
GIf:_UTF8Encoding_GetByteCount_m2372933408
P8g:_Context_get_NeedsContextSink_m1907794755
eBc:_UNITY_ft_service_list_lookup
hrh:_Transform_get_localScale_m46214814
W8e:_ARC4Managed_GenerateKey_m716135508
Jlc:__ZN5IMGUI21SelectReceivingWindowER8GUIStateb
E_g:_InternalEnumerator_1_get_Current_m3179981210_gshared
hV:__ZN13BaseAllocator13TryDeallocateEPv
wNj:__ZNSt3__216allocator_traitsINS_9allocatorINS_11__tree_nodeINS_12__value_typeIPvxEES4_EEEEE9constructINS_4pairIKS4_xEEJRKNS_21piecewise_construct_tENS_5tupleIJRSB_EEENSG_IJEEEEEEvRS7_PT_DpOT0_
bud:_Array_CreateInstance_m1054139389
Tzh:_U3CStartU3Ec__Iterator0_Reset_m2580847683_gshared
YJa:__ZNSt3__26vectorIN12FlareManager10FlareEntryENS_9allocatorIS2_EEE21__push_back_slow_pathIKS2_EEvRT_
rTf:_Default_check_arguments_with_score_m1714931543
tYc:_SHA1_Create_m4086509717
Q0f:_MonoMethodInfo_GetMethodInfo_m3298558752
iH:__ZN13AudioListener17RemoveFromManagerEv
td:_glAttachShader
okd:_Dropdown_SetAlpha_m2769981009
vGa:__ZNK6Camera19GetProjectionMatrixEv
TKh:_Predicate_1_BeginInvoke_m1856151290_gshared
VIk:_CircleRotate_Update_m2785340121
YQd:_StackTrace__ctor_m2404985356
i0:__Z38PreallocateObjectFromPersistentManagerib
sMd:_DateTime_System_IConvertible_ToSingle_m3927769066
rWa:__ZNK9Texture2D20GetUnscaledTextureIDEv
DKd:_Convert_ToSByte_m883113940
aNi:__ZN15dense_hashtableINSt3__24pairIK10KeyWrapperINS1_IPK12PropertyInfoP11Il2CppClassEEEjEES9_17ReflectionMapHashIS8_EN14dense_hash_mapIS9_jSD_NS9_14EqualsComparerINS0_8equal_toIS8_EEEENS0_9allocatorISB_EEE9SelectKeyESI_SK_E21fill_range_with_emptyEPSB_SO_
$Mh:_Canvas_get_renderOrder_m2592588836
SAe:_MonoType_get_ContainsGenericParameters_m3229732653
xRe:_Queue_1_Peek_m1463479953_gshared
HPh:_Animator_ResetTriggerString_m946167554
cvk:__ZL53InputField_t1631627530_CustomAttributesCacheGeneratorP21CustomAttributesCache
juh:_GUI_set_skin_m929513544
Pfd:_ButtonClickedEvent__ctor_m938038541
kbg:__Z119RuntimeInvoker_Int32_t2071877448_RuntimeObject_Int32_t2071877448_Int32_t2071877448_CharU26_t1894467670_SByte_t454417549PFvvEPK10MethodInfoPvPS4_
oOf:_UInt16_System_IConvertible_ToDouble_m4100549304_AdjustorThunk
W9a:__Z29ClearRepeatingLogMessageStatev
Whj:__ZNSt3__216allocator_traitsINS_9allocatorIN6il2cpp2vm5Image20EmbeddedResourceDataEEEE10__max_sizeENS_17integral_constantIbLb1EEERKS6_
v5c:_Single_System_IConvertible_ToInt16_m962677079
e5:__ZN21EnlightenSceneMappingaSERKS_
FUj:__ZNK6il2cpp8metadata21Il2CppGenericInstHashclEPK17Il2CppGenericInst
J5c:_Single_System_IConvertible_ToUInt32_m2447833283
uua:__ZN7ApiGLESD2Ev
qEa:__ZN9Transform47ClearTransformHierarchyAndApplyToSerializedDataEv
$Yg:_InternalEnumerator_1_get_Current_m4083613828_AdjustorThunk
ntc:__ZN8JSONRead21TransferSTLStyleArrayINSt3__26vectorI8MonoPPtr13stl_allocatorIS3_L18MemLabelIdentifier1ELi16EEEEEEvRT_17TransferMetaFlags
gqj:__ZN6il2cpp6icalls8mscorlib6SystemL16write_enum_valueEPcP11Il2CppClassy
kIa:__ZN6Camera23VirtualRedirectTransferER19StreamedBinaryWriteILb0EE
YRk:dynCall_fidi
qFi:__ZN15dense_hashtableINSt3__24pairIK10KeyWrapperINS1_IPK9FieldInfoP11Il2CppClassEEEjEES9_17ReflectionMapHashIS8_EN14dense_hash_mapIS9_jSD_NS9_14EqualsComparerINS0_8equal_toIS8_EEEENS0_9allocatorISB_EEE9SelectKeyESI_SK_E12resize_deltaEjj
mHa:__ZN15dense_hashtableINSt3__24pairIKN9ShaderLab7Program23ShaderKeywordSetAndHashEPKNS2_10SubProgramEEES4_NS3_24ShaderKeywordHashFunctorEN14dense_hash_mapIS4_S8_SA_NS0_8equal_toIS4_EE13stl_allocatorIS9_L18MemLabelIdentifier67ELi16EEE9SelectKeyESD_SG_E15insert_noresizeERKS9_
fsi:__ZNSt3__216allocator_traitsINS_9allocatorIP11Il2CppClassEEE8allocateERS4_j
DQa:__ZN13RenderTexture12SetDimensionE16TextureDimension
fbj:__ZNSt3__26__treeINS_12__value_typeIP24Il2CppReflectionAssemblyPvEENS_19__map_value_compareIS3_S5_NS_4lessIS3_EELb1EEENS_9allocatorIS5_EEE12__node_allocEv
je:_SDL_FreeRW
Rfe:_PKCS1_OS2IP_m1273945439
v0c:_SHA1Internal_FillBuff_m891541953
oPc:__Z34CanvasRenderer_Get_Custom_PropCullP12Il2CppObject
KM:__ZN20SoundChannelInstance8getDelayE14FMOD_DELAYTYPEPjS1_
ZMj:__ZNSt3__26__treeINS_12__value_typeIPvxEENS_19__map_value_compareIS2_S3_NS_4lessIS2_EELb1EEENS_9allocatorIS3_EEE12__find_equalIS2_EERPNS_16__tree_node_baseIS2_EESF_RKT_
npd:_InputField_set_customCaretColor_m3534590098
Gyg:_ScrollRect_set_viewport_m323693490
Poe:_NumberFormatter_FormatExponential_m3975285307
Hwc:__ZNSt3__26vectorIN20TextRenderingPrivate8FontImpl13CharacterInfoE13stl_allocatorIS3_L18MemLabelIdentifier1ELi16EEE8__appendEj
v:tempBigInt
re:_emscripten_glVertexAttrib1fv
dHk:_Mesh_CheckCanAccessSubmesh_m764012688
sdb:__ZNSt3__26vectorIN9ShaderLab20SerializedSubProgram12UAVParameterENS_9allocatorIS3_EEE7reserveEj
$Ok:__ZSt11__terminatePFvvE
j8j:__ZL99Thread_t241561612_CustomAttributesCacheGenerator_Thread_t241561612____ExecutionContext_PropertyInfoP21CustomAttributesCache
zJ:__ZN12AudioManager14systemCallbackEP11FMOD_SYSTEM24FMOD_SYSTEM_CALLBACKTYPEPvS3_
dgk:__ZL98GameObject_t1756533147_CustomAttributesCacheGenerator_GameObject_SendMessage_m3423113156____value1P21CustomAttributesCache
YIi:__ZN24dense_hashtable_iteratorINSt3__24pairIK10KeyWrapperINS1_IPK10MethodInfoP11Il2CppClassEEEjEES9_17ReflectionMapHashIS8_EN14dense_hash_mapIS9_jSD_NS9_14EqualsComparerINS0_8equal_toIS8_EEEENS0_9allocatorISB_EEE9SelectKeyESI_SK_E30advance_past_empty_and_deletedEv
Iti:_il2cpp_alloc
vJh:__ZL25UnresolvedVirtualCall_195P12Il2CppObjectfPK10MethodInfo
TPa:__ZN16ReflectionProbes16UpdateSampleDataEv
rJj:__ZNSt3__222__allocator_destructorINS_9allocatorINS_11__list_nodeIPN6il2cpp5utils10MemoryPool6RegionEPvEEEEEclEPS9_
L6g:_SafeHandle_Finalize_m1839546519
y9g:_Context_AllocateNamedDataSlot_m3200404053
JEa:__ZN14BatchAllocator6CommitE18MemLabelIdentifier
Fof:_X509EnhancedKeyUsageExtension_Decode_m3866320499
Loe:_NumberFormatter_AppendIntegerStringWithGroupSeparator_m1401773574
Oe:_JS_Sound_Play
xod:_Image_IsRaycastLocationValid_m864962354
w7f:__Z181RuntimeInvoker_Void_t1841601450_RuntimeObject_Int32_t2071877448_Int32_t2071877448_RuntimeObject_Int32_t2071877448_Int32_t2071877448_RuntimeObject_Int32_t2071877448_Int32_t2071877448PFvvEPK10MethodInfoPvPS4_
ocb:__ZN9ShaderLab16SerializedShader8TransferI14SafeBinaryReadEEvRT_
$A:__ZN7mecanim8skeleton13SkeletonAlignEPKNS0_8SkeletonERKN4math7_float4ES7_i
$3b:__ZN19ShaderPropertySheet16SetVectorIndexedEN9ShaderLab16FastPropertyNameEifRK8Vector4fNS_8SetFlagsE
Pyf:_RemotingConfiguration_RegisterWellKnownServiceType_m2491506630
X2j:__ZL55_TypeBuilder_t2783404358_CustomAttributesCacheGeneratorP21CustomAttributesCache
Gsd:_LayoutRebuilder_Initialize_m2671585490
bJk:_Cut_Update_m4276757078
yKe:_List_1_System_Collections_IList_IndexOf_m4061554721_gshared
oU:__ZN11UnityEngine15CloudWebService14DataDispatcher4StopEv
udb:__ZNSt3__26vectorIN9ShaderLab20SerializedSubProgram12UAVParameterENS_9allocatorIS3_EEE8__appendEj
C2c:_X509Certificate_ToString_m1582581274
ZHg:_Enumerator_get_Current_m2986380627_gshared
Aza:__ZN17ScriptingGCHandle7AcquireE18ScriptingObjectPtr25ScriptingGCHandleWeakness
z8g:_LifetimeServices_set_LeaseTime_m1487876644
CUf:_ConstructorBuilder_not_supported_m3687319507
kNc:__ZN2UI14CanvasRenderer14AttachToCanvasER8JobFencePNS_6CanvasENS0_15InstructionTypeE
A5c:_Single_System_IConvertible_ToInt64_m3555853323_AdjustorThunk
SUi:__ZN15dense_hashtableINSt3__24pairIK10KeyWrapperINS1_IP11Il2CppClassjEEES4_EES6_N6il2cpp8metadata14ArrayClassHashEN14dense_hash_mapIS6_S4_SB_NS6_14EqualsComparerINSA_17ArrayClassCompareEEENS0_9allocatorIS8_EEE9SelectKeyESF_SH_E21fill_range_with_emptyEPS8_SL_
VQk:dynCall_iifiii
jja:__Z21HasAlphaTextureFormat13TextureFormat
oO:__ZN12AudioManager6UpdateEv
cja:__ZN14ImageReference9BlitImageERKS_NS_8BlitModeE
ls:__ZN8Animator12AddToManagerEv
QFg:_ShimEnumerator_get_Key_m1171725158_gshared
kDb:__ZN23CachedSerializationDataD2Ev
lVb:__ZNK25CameraStackRenderingState31CalculateStereoCameraTargetTypeEv
uPa:__ZN14RenderSettings23VirtualRedirectTransferER14SafeBinaryRead
J6i:__ZNSt3__212basic_stringIDsNS_11char_traitsIDsEENS_9allocatorIDsEEE10__set_sizeEj
yWd:_Array_InternalArray__ICollection_Contains_TisColor32_t874517518_m2818328910_gshared
OEh:_AudioExtensionManager_WriteExtensionProperties_m4015275001
fJc:_UNITY_tt_face_load_fpgm
fEa:__Z17IsObjectAvailablei
L4a:__ZN12InputManagerD0Ev
kOj:__ZN6il2cpp6icalls8mscorlib6System11Diagnostics10StackTrace9get_traceEP15Il2CppExceptionib
Iid:_DefaultControls_CreateUIObject_m2810394112
$Ha:__ZNK16LightmapSettings14GetLightProbesEv
BHf:_UnicodeEncoding_GetBytes_m1337660232
hNk:_posix_memalign
p4b:__ZN13ProduceHelperI12MeshRendererLb0EE7ProduceE18MemLabelIdentifier18ObjectCreationMode
R1g:_InternalEnumerator_1_get_Current_m747506907_AdjustorThunk
Dzk:_LogCallback_Invoke_m115567905
l0:__ZNK15MonoScriptCache7ReleaseEv
GTh:__ZN6il2cpp2vm5Class13HasReferencesEP11Il2CppClass
bg:_glBindTexture
wLk:_snprintf
Wpd:_InputField_set_caretPosition_m888572237
TXf:_ILGenerator__cctor_m3943061018
cBd:_ArrayListWrapper_Clone_m1506311066
UNh:_CanvasRenderer_CreateUIVertexStream_m2882962535
tbb:__Z36scripting_liveness_calculation_begin17ScriptingClassPtriPFvPP12Il2CppObjectiPvES3_PFvvES7_
asa:__ZN16UniformCacheGLES6CreateERK20GpuProgramParameters
PIf:_UTF8Encoding_Fallback_m811555654
wQf:_UInt64_CompareTo_m3513742483
D$d:_Array_InternalArray__IndexOf_TisPlayableBinding_t2498078091_m398853908_gshared
obe:_SimpleCollator_MatchesForwardCore_m558011650
K1e:_ReadOnlyCollection_1_System_Collections_IList_Clear_m1918003010_gshared
IUk:_emscripten_glGetProgramInfoLog__wrapper
jrh:_Transform_set_localScale_m1442831667
ID:__ZN25AnimatedPropertyEvaluator29BindCurveToScriptingObjectPtrERKN13AnimationClip10FloatCurveEj18ScriptingObjectPtrb
uuj:__ZNSt3__26__treeINS_12basic_stringIcNS_11char_traitsIcEENS_9allocatorIcEEEENS_4lessIS6_EENS4_IS6_EEE3endEv
TIf:_UTF8Encoding_InternalGetChars_m373801468
v1:__ZN17PersistentManager23DestroyFromFileInternalEi
Tcj:__ZN14dense_hash_mapI10KeyWrapperINSt3__24pairIPKcS4_EEEi24NamespaceAndNamePairHashNS6_14EqualsComparerI26NamespaceAndNamePairEqualsEENS1_9allocatorINS2_IKS6_iEEEEE6insertERKSD_
hPd:_Decimal_System_IConvertible_ToChar_m2425091200_AdjustorThunk
pOb:__Z19SetupMotionMatricesR6CameraR18RPDataMotionVector
WSd:_Enum_ToString_m2112979707
ICi:__ZNSt3__212basic_stringIcNS_11char_traitsIcEENS_9allocatorIcEEEC2IPKcEET_S9_
Bwf:_MonoMethodMessage_get_MethodName_m3580519713
oC:__ZN26AnimatorControllerPlayable18PrepareForPlaybackERN7mecanim6memory9AllocatorE
AZc:_HMACSHA512__cctor_m1167457383
KIf:_UTF8Encoding_GetBytes_m4170182058
_Je:_List_1_IndexOf_m2418862432_gshared
yHa:__ZN22CreateGpuProgramOutputC2Ev
prf:_X509Chain__ctor_m2242540866
Xhi:__ZNSt3__210__list_impIP17Il2CppAsyncResultN6il2cpp2gc9AllocatorIS2_EEEC2Ev
_ue:_MemoryStream_InternalConstructor_m2423667240
wxf:_SoapMethodAttribute_SetReflectionObject_m3431595769
gBg:_Slider_set_maxValue_m2951480075
E5b:__ZN8GUILayer12CleanupClassEv
ird:_InputField_OnSubmit_m2856515494
XSh:__ZN6il2cpp2vm5Class4InitEP11Il2CppClass
ga:invoke_vidi
BNc:__ZN2UI14CanvasRenderer17SyncDirtyElementsER8JobFence
zhd:_ColorBlock_op_Inequality_m1517672458
Xzj:__ZN6il2cpp5utils11StringUtils15StringDuplicateEPKc
GWb:__Z15CanAddComponentR10GameObjectPKN5Unity4TypeE
PGa:__ZNK9ShaderLab21ShaderRasterStateDesc16ToGfxRasterStateEPK19ShaderPropertySheetS3_R14GfxRasterState
fW:_tlsf_memalign
iEf:_CspParameters__ctor_m2480441577
uUj:__ZN6il2cpp2os9EventImplC2Ebb
$8g:_DynamicPropertyCollection_NotifyMessage_m840388347
Pfh:_Uri_ParseUri_m5711497
Cgg:__Z98RuntimeInvoker_RuntimeObject_RuntimeObject_RayU26_t3651946800_Single_t2076509932_Int32_t2071877448PFvvEPK10MethodInfoPvPS4_
fwj:___cxx_global_var_init_15467
UY:__Z20IsMatrixBuiltinParamPKcPi
I3b:__ZN8Renderer19PostInitializeClassEv
RTg:_InternalEnumerator_1_get_Current_m1943362081_AdjustorThunk
YHj:__ZN6il2cpp6icalls8mscorlib6System8Delegate23CreateDelegate_internalEP20Il2CppReflectionTypeP12Il2CppObjectP22Il2CppReflectionMethodb
lTf:_Default_check_type_m2363631305
FCb:__ZN18DelayedCallManager18CancelCallDelayed2E4PPtrI6ObjectEPF15CallObjectStatePS1_PvES7_
txa:__ZN25ThreadsafeLinearAllocator10ReallocateEPvji
Nmb:__Z18Transfer_BlittableI14SafeBinaryReadLb1E11QuaternionfEvRK29SerializationCommandArgumentsR31RuntimeSerializationCommandInfo
t9:__ZN18SpriteAtlasManagerD0Ev
F$d:_Array_InternalArray__IndexOf_TisRaycastHit2D_t4063908774_m3739817942_gshared
n1f:_MonoProperty_GetAccessors_m3704698731
uHj:_GC_disable
E2a:__ZN10Matrix4x4f8TransferI14SafeBinaryReadEEvRT_
pye:_UnmanagedMemoryStream_ReadByte_m2501145010
FAf:_ObjectRecord_UnchainFixup_m3025030310
lC:__ZN14AvatarPlayback8StopTimeEv
G3:__Z6AppendRKN4core12basic_stringIcNS_20StringStorageDefaultIcEEEEPKc
cli:__ZNSt3__214__split_bufferIP9FieldInfoRNS_9allocatorIS2_EEE17__destruct_at_endEPS2_NS_17integral_constantIbLb0EEE
iCj:__ZNSt3__214__split_bufferIPK14Il2CppAssemblyRNS_9allocatorIS3_EEE17__destruct_at_endEPS3_NS_17integral_constantIbLb0EEE
Bgg:__Z81RuntimeInvoker_RuntimeObject_Ray_t2469606224_Single_t2076509932_Int32_t2071877448PFvvEPK10MethodInfoPvPS4_
uBk:_Color_ToString_m55788918_AdjustorThunk
q0i:__ZN6il2cpp6icalls8mscorlib6SystemL10AssignRealIdEEvNS2_17WidenedValueUnionEPv14Il2CppTypeEnumjj
Bga:__ZN7ApiGLES18ClearBufferSubDataEjN2gl12BufferTargetEll
Jdc:__Z37Camera_Get_Custom_PropAllCamerasCountv
t1a:__ZN14Texture2DArray8TransferI18StreamedBinaryReadILb0EEEEvRT_
X$i:__ZN6il2cpp6icalls8mscorlib6System5Array9GetLengthEP11Il2CppArrayi
wSb:__Z18ApplyOcclusionMaskR19ProbeOcclusionCacheRK17LightProbeContextRK10RenderNodeb
tue:_FileStreamAsyncResult__ctor_m1096228032
WDc:_Split_Cubic
cb:invoke_fiiii
KOd:_DBNull_System_IConvertible_ToSByte_m1228193074
lUe:_Collection_1__ctor_m2818834331_gshared
Hfg:__Z68RuntimeInvoker_UInt16_t986882611_UInt16_t986882611_UInt16_t986882611PFvvEPK10MethodInfoPvPS4_
Wxh:_UnityAction_1_Invoke_m3979091955_gshared
XUh:__ZNKSt3__26vectorIPK10Il2CppTypeNS_9allocatorIS3_EEE8max_sizeEv
Vte:_FileStream_FlushBuffer_m2594140542
RAj:__ZN6il2cpp2vm8Profiler12GCHeapResizeEx
cSk:dynCall_viiifi
coa:__ZN18GfxFramebufferGLES20ActiveContextChangedEPP17RenderSurfaceBaseS2_
Rna:__Z19PluginsRenderMarkeri
gE:__ZN10HumanTrait18InitializeBoneNameEv
$hh:_X509CertificateEnumerator_get_Current_m3129374511
mhj:__ZNSt3__214__split_bufferIN6il2cpp2vm5Image20EmbeddedResourceDataERNS_9allocatorIS4_EEEC2EjjS7_
mnd:_HorizontalOrVerticalLayoutGroup_get_spacing_m2859152439
d2j:__ZL57DispIdAttribute_t607560947_CustomAttributesCacheGeneratorP21CustomAttributesCache
QG:__ZN12AudioManager17RemoveAudioSourceEP11AudioSource
lvh:_GUILayoutEntry_SetVertical_m861127195
IBh:_AesManaged_get_KeySize_m2773901127
A8d:_Array_InternalArray__get_Item_TisUInt64_t2909196914_m2580870875_gshared
kUi:__ZN15dense_hashtableINSt3__24pairIK10KeyWrapperINS1_IP11Il2CppClassjEEES4_EES6_N6il2cpp8metadata14ArrayClassHashEN14dense_hash_mapIS6_S4_SB_NS6_14EqualsComparerINSA_17ArrayClassCompareEEENS0_9allocatorIS8_EEE9SelectKeyESF_SH_E4swapERSK_
cJf:_UTF8Decoder_GetChars_m3819660582
iQ:__ZN5physx14PxLightCpuTask12addReferenceEv
Flj:__ZN6il2cpp2gc16GarbageCollector19InitializeFinalizerEv
Zx:__ZN7mecanim8skeleton18CreateSkeletonMaskEjPKNS0_19SkeletonMaskElementERNS_6memory9AllocatorE
flc:__ZN10GUIManager10DoGUIEventER10InputEventb
Esb:__Z35Transfer_Blittable_FixedBufferFieldI24GenerateTypeTreeTransferxEvRK29SerializationCommandArgumentsR31RuntimeSerializationCommandInfo
kJc:_UNITY_TT_Init_Glyph_Loading
pNb:__Z20CalculateSqrDistanceRK8Vector3fRK4AABB
bL:__Z32AudioMixerDuckingProcessCallbackP21UnityAudioEffectStatePfS1_jii
_Tf:_CustomAttributeTypedArgument_GetHashCode_m999147081_AdjustorThunk
M2b:__ZN26CustomRenderTextureManagerD2Ev
_cj:__ZN15dense_hashtableINSt3__24pairIK10KeyWrapperINS1_IPKcS4_EEEiEES6_24NamespaceAndNamePairHashN14dense_hash_mapIS6_iS9_NS6_14EqualsComparerI26NamespaceAndNamePairEqualsEENS0_9allocatorIS8_EEE9SelectKeyESD_SF_E9set_valueEPS8_RKS8_
cue:_FileStream_Read_m3880951166
tFh:_AudioExtensionManager_Update_m3727859914
GH:__ZN12AudioManager8TransferI24GenerateTypeTreeTransferEEvRT_
lia:__Z25GetBytesFromTextureFormat13TextureFormat
F3i:__ZN6il2cpp6icalls8mscorlib6System9Threading6Thread20Thread_free_internalEP12Il2CppThreadi
gQk:dynCall_iiffi
BD:__ZN16MecanimAnimation25RegisterIAnimationBindingEPKN5Unity4TypeEiP17IAnimationBinding
k1:__Z32scripting_class_get_assemblyname17ScriptingClassPtr
sRc:__ZN11UnityEngine15PlatformWrapper15GetVRDeviceNameEv
mKg:_Dictionary_2_Resize_m2532139610_gshared
yGk:_Mathf_RoundToInt_m1833913145
WLf:_TimeSpan_Equals_m2029123271_AdjustorThunk
I7h:__ZN6il2cpp2vm13MetadataCache23GetInvokerMethodPointerEPK10MethodInfoPK20Il2CppGenericContext
vta:__ZN9GfxDevice21RegisterNativeTextureE9TextureIDi16TextureDimension
MUd:_CultureInfo__ctor_m456863818
tKj:__ZN6il2cpp6icalls8mscorlib6System10Reflection4Emit11TypeBuilder20create_generic_classEP27Il2CppReflectionTypeBuilder
Zni:__ZNSt3__26vectorIPK10MethodInfoNS_9allocatorIS3_EEE26__swap_out_circular_bufferERNS_14__split_bufferIS3_RS5_EE
OEe:_Enumerator_MoveNext_m2504790928_gshared
MP:__Z60Register_UnityEngine_AudioListener_GetNumExtensionPropertiesv
Ui:_emscripten_glUniformMatrix4fv
cVi:__ZN15dense_hashtableINSt3__24pairIK10KeyWrapperINS1_IP11Il2CppClassjEEES4_EES6_N6il2cpp8metadata14ArrayClassHashEN14dense_hash_mapIS6_S4_SB_NS6_14EqualsComparerINSA_17ArrayClassCompareEEENS0_9allocatorIS8_EEE9SelectKeyESF_SH_E13set_empty_keyERKS8_
Ghb:__ZN12ScriptMapperD2Ev
Z5i:__ZNSt3__212basic_stringIDsNS_11char_traitsIDsEENS_9allocatorIDsEEE11__recommendEj
dZc:_KeyedHashAlgorithm_Dispose_m1864300576
Uhh:_X509Certificate_PEM_m49854707
Iof:_X509BasicConstraintsExtension__ctor_m3320418592
chh:_ExtendedKeyUsageExtension_Decode_m901297139
Gic:__Z52Register_UnityEngine_RenderTexture_Internal_GetWidthv
SFj:_GC_check_leaked
Yfb:__ZN9ShaderLab20SerializedSubProgram16TextureParameter8TransferI19StreamedBinaryWriteILb0EEEEvRT_
A0i:__ZNSt3__2neIPcEEbRKNS_11__wrap_iterIT_EES6_
k3d:_Array_InternalArray__Insert_TisVector4_t2243707581_m1643342708_gshared
Cwa:__ZNK7Hash12812PackToUInt32Ev
joi:__ZNKSt3__26vectorIPK10MethodInfoNS_9allocatorIS3_EEE17__annotate_deleteEv
$2:__ZNSt3__227__insertion_sort_incompleteIRNS_6__lessI14ObjectLoadDataS2_EEPS2_EEbT0_S6_T_
wU:__ZN11UnityEngine15CloudWebService16SessionContainer8AddEventEPNS0_14CloudEventInfoE
csa:__Z4TrimRKN4core12basic_stringIcNS_20StringStorageDefaultIcEEEES5_
oCg:_Text_set_resizeTextMaxSize_m4034967714
YYj:__ZL55GuidAttribute_t222072359_CustomAttributesCacheGeneratorP21CustomAttributesCache
Tri:__ZNSt3__214__split_bufferIP11Il2CppClassRNS_9allocatorIS2_EEE17__destruct_at_endEPS2_NS_17integral_constantIbLb0EEE
LTf:_CustomAttributeNamedArgument_Equals_m2691468532
S$a:__ZN10VertexData8TransferI14SafeBinaryReadEEvRT_
VI:__ZN4FMOD8ChannelI8setDelayE14FMOD_DELAYTYPEjj
dGd:_Stack__ctor_m2410583781
_Gj:_GC_malloc_atomic
jTf:_Default_GetBetterMethod_m4255740863
NUf:_ConstructorBuilder_GetILGenerator_m1731893569
phj:__ZNSt3__214__split_bufferIN6il2cpp2vm5Image20EmbeddedResourceDataERNS_9allocatorIS4_EEED2Ev
l$:__ZL20SortItemByInstanceIDRKN18AwakeFromLoadQueue4ItemES2_
RZf:_TypeBuilder_create_runtime_class_m2719530260
z$c:_RNGCryptoServiceProvider_RngClose_m2921734810
jy:__ZNK34AnimationStateMachineMixerPlayable26GetInterruptedPosePlayableEv
oUc:__ZN20UnityConnectSettings8TransferI24GenerateTypeTreeTransferEEvRT_
CA:__ZN34BlobWriteTransferSTLStyleArrayImplI22OffsetPtrArrayTransferIbEEclERS1_17TransferMetaFlagsR9BlobWrite
pae:_SimpleCollator_IsHalfKana_m4255579023
jSe:_Collection_1_System_Collections_IList_Contains_m3365884450_gshared
KAa:__Z16FlaggedAsSkippedIN4core12basic_stringIcNS0_20StringStorageDefaultIcEEEEEbRK13FileEntryInfoRKT_19FileEnumerationFlag
V4:__ZL31InitializeRendererUpdateManagerPv
ndg:__Z106RuntimeInvoker_RuntimeObject_Int16_t4041245914_RuntimeObject_BooleanU26_t3168250738_BooleanU26_t3168250738PFvvEPK10MethodInfoPvPS4_
b_i:__ZNSt3__213__vector_baseIP12Il2CppThreadN6il2cpp2gc9AllocatorIS2_EEE17__destruct_at_endEPS2_
Udf:_ClientSessionInfo_Dispose_m2571428025
ssd:_LayoutGroup_DelayedSetDirty_m4276695617
ehf:_RecordProtocol_decryptRecordFragment_m2510859489
Zwh:_InvokableCall_1__ctor_m975753341_gshared
gwj:__ZN6il2cpp2os6ThreadC2Ev
B5a:__ZN11TimeManager8TransferI19StreamedBinaryWriteILb0EEEEvRT_
Kue:_DelegatePInvokeWrapper_ReadDelegate_t3184826381
CLj:__ZNSt3__216allocator_traitsINS_9allocatorINS_11__tree_nodeINS_12__value_typeINS_12basic_stringIcNS_11char_traitsIcEENS1_IcEEEEPFvvEEEPvEEEEE8allocateERSE_j
REc:_compare_uni_maps
dSc:__ZN11UnityEngine15PlatformWrapper27GetGraphicsCapsSupportFlagsEv
_Pd:_Decimal_Equals_m1115043331
fwb:__ZN12NativeBufferI16Converter_StringE15SetupForWritingER9ArrayInfo
MTk:___cxa_end_catch__wrapper
lJg:_ValueCollection_System_Collections_Generic_ICollectionU3CTValueU3E_Clear_m231380274_gshared
tbd:_Entry__ctor_m1176697586
fUh:__ZNSt3__216allocator_traitsINS_9allocatorIPK10Il2CppTypeEEE7destroyIS4_EEvRS5_PT_
nDb:__ZN13MonoBehaviour22DoScriptRebuildWarningEv
Ldc:__Z38Camera_CUSTOM_INTERNAL_CALL_RaycastTryP12Il2CppObjectRK3Rayfi
xCg:_Text_get_verticalOverflow_m3134063496
R$i:__ZN6il2cpp6icalls8mscorlib6System5Array13ClearInternalEP11Il2CppArrayii
n5b:__ZZL23RegisterLightPropertiesR22GenericPropertyBindingEN22Wrapper_LightSpotAngle13GetFloatValueEPv
e6g:_GCHandle_get_Target_m2327042781
Koc:__ZN8JSONRead21TransferSTLStyleArrayI13dynamic_arrayI11KeyframeTplIfELj4EEEEvRT_17TransferMetaFlags
IPk:_llvm_cttz_i32
bpf:_PublicKey_DecodeDSA_m1169363495
imc:__ZN11IMGUIModule25GetGUIStyleScriptingClassEv
JHc:_tt_get_interface
v5d:_Array_Sort_TisRuntimeObject_m143182644_gshared
W2i:__ZN6il2cpp5utils9PathUtils7CombineIcEENSt3__212basic_stringIT_NS3_11char_traitsIS5_EENS3_9allocatorIS5_EEEERKSA_SC_
olf:_NameObjectCollectionBase_BaseGet_m667273025
hag:__Z104RuntimeInvoker_RuntimeObject_Byte_t3683104436_RuntimeObject_SByte_t454417549_RuntimeObject_RuntimeObjectPFvvEPK10MethodInfoPvPS4_
Prc:__ZN9JSONWrite8TransferI13dynamic_arrayIiLj4EEEEvRT_PKc17TransferMetaFlags
g7b:__ZN13PlayableGraph21InvalidateMultithreadEv
p_:__Z18ConvertUTF16toUTF8PPKtS0_PPhS2_15ConversionFlags
ewh:_GUIStyleState__ctor_m3673085649
kNf:_TypeLoadException__ctor_m1903359728
sOh:__ZL16my_g_bit_nth_msfj
cYc:_KeySizes__ctor_m3526899007
PVi:__ZN15dense_hashtableINSt3__24pairIK10KeyWrapperIP11Il2CppClassES4_EES5_N6il2cpp8metadata16SZArrayClassHashEN14dense_hash_mapIS5_S4_SA_NS5_14EqualsComparerINS9_19SZArrayClassCompareEEENS0_9allocatorIS7_EEE9SelectKeyESE_SG_E12expand_arrayEjN21dense_hash_map_traits17integral_constantIbLb0EEE
gne:_Int16_System_IConvertible_ToInt32_m191782913_AdjustorThunk
q4i:__ZNKSt3__221__tree_const_iteratorINS_12basic_stringIcNS_11char_traitsIcEENS_9allocatorIcEEEEPNS_11__tree_nodeIS6_PvEEiEptEv
dlk:__ZL69ArgumentCache_t4810721_CustomAttributesCacheGenerator_m_FloatArgumentP21CustomAttributesCache
kFf:_EncoderReplacementFallback__ctor_m2208438262
ALb:__Z23SetupStereoFlareElementP11FlareVertexRK8Vector2fS3_S3_RK11ColorRGBA32RK10Matrix4x4fRK8Vector3fb
nVh:__ZN6il2cpp2vm5Class15GetInstanceSizeEPK11Il2CppClass
sa:invoke_iiiifiiii
Nnh:_RectTransform_set_anchoredPosition_m4223859262
rnh:_RectOffset_get_right_m494096402
Wse:_Directory_GetFiles_m4036267478
sSd:_Enum_System_IConvertible_ToType_m2669300536
Goa:__ZL19BlitFramebufferImplRN4gles23BlitFramebufferDrawQuadER9GfxDevice9TextureIDRK8Vector4f
iIi:__ZN15dense_hashtableINSt3__24pairIK10KeyWrapperIPK10Il2CppTypeEjEES6_N6il2cpp8metadata14Il2CppTypeHashEN14dense_hash_mapIS6_jSB_NS6_14EqualsComparerINSA_26Il2CppTypeEqualityComparerEEENS0_9allocatorIS8_EEE9SelectKeyESF_SH_E4findERS7_
Uph:_StackTraceUtility_ExtractStringFromExceptionInternal_m234524721
$$e:_ReadOnlyCollection_1_System_Collections_IList_Add_m2333231354_gshared
yyc:_UNITY_FT_List_Add
kZf:_OpCodes__cctor_m939885911
j3b:__ZN14Texture2DArray11InitTextureEiii13TextureFormatb
Jhf:_RSASslSignatureDeformatter_SetHashAlgorithm_m4048969080
Xgh:_UriParser_InitializeAndValidate_m251943319
M1c:_SymmetricAlgorithm_set_Padding_m3081984460
ISi:__ZN15dense_hashtableINSt3__24pairIK10KeyWrapperINS1_IPK11Il2CppImageP11Il2CppClassEEEjEES9_17ReflectionMapHashIS8_EN14dense_hash_mapIS9_jSD_NS9_14EqualsComparerINS0_8equal_toIS8_EEEENS0_9allocatorISB_EEE9SelectKeyESI_SK_E14squash_deletedEv
k5a:__ZN9InputAxis8TransferI18StreamedBinaryReadILb0EEEEvRT_
FPb:__ZNK6Camera26GetStereoSingleCullEnabledEv
gCf:_StreamingContext_t1417235061_marshal_pinvoke_back
D8a:__Z14resize_trimmedINSt3__26vectorIN4core12basic_stringIcNS2_20StringStorageDefaultIcEEEE13stl_allocatorIS6_L18MemLabelIdentifier13ELi16EEEEEvRT_j
pAd:_ArrayList_RemoveAt_m2578928333
vnb:__Z18Transfer_BlittableI14SafeBinaryReadLb0EaEvRK29SerializationCommandArgumentsR31RuntimeSerializationCommandInfo
vxh:_InvokableCall_3__ctor_m4270240248_gshared
f$e:_ReadOnlyCollection_1_System_Collections_IList_set_Item_m1233322304_gshared
jhh:_GeneralNames_get_DNSNames_m2721668874
iSd:_Enum_System_IConvertible_ToByte_m38374586
P_e:_ReadOnlyCollection_1_System_Collections_Generic_IListU3CTU3E_RemoveAt_m1592158292_gshared
YSk:_emscripten_glFrustum__wrapper
whf:_ReceiveRecordAsyncResult_get_CompletedWithError_m2670396551
LPd:_Decimal_Equals_m1798565377
efb:__ZN15SerializeTraitsINSt3__26vectorIN9ShaderLab20SerializedSubProgram15MatrixParameterENS0_9allocatorIS4_EEEEE8TransferI24GenerateTypeTreeTransferEEvRS7_RT_
ZVf:_TypeBuilder_check_created_m2929267877
_dg:__Z121RuntimeInvoker_Int64_t909078037_Int32_t2071877448_Int32_t2071877448_Int32_t2071877448_Int32_t2071877448_Int32_t2071877448PFvvEPK10MethodInfoPvPS4_
MJb:__Z20SyncFenceCullResultsR11CullResults
Sqa:__ZN15TextureTFMethod20IsBoneCountSupportedEi
tPa:__ZN14RenderSettings23VirtualRedirectTransferER24GenerateTypeTreeTransfer
rMd:_DateTime_System_IConvertible_ToSByte_m2575078084_AdjustorThunk
Prb:__Z22TransferField_NonArrayI17RemapPPtrTransfer27Converter_SimpleNativeClassI8GUIStyleEEvRK23StaticTransferFieldInfoR31RuntimeSerializationCommandInfoRT0_
T1b:__ZNK17AnimationCurveTplIfE20EvaluateWithoutCacheEfRf
wwj:__ZN6il2cpp2os6Thread12QueueUserAPCEPFvPvES2_
KPa:__ZN19ShaderPropertySheet10SetTextureERK23FastTexturePropertyNameP7Texture
TUe:_Collection_1_IsValidItem_m1304951912_gshared
Y8b:__ZN4Mesh10SetNormalsEPK8Vector3fj
FId:_Convert_ToDateTime_m4161927553
dWf:_TypeBuilder_GetConstructors_m774120094
rr:__ZN17AnimationCurveTplIfE8TransferI14SafeBinaryReadEEvRT_
s7i:__ZN6il2cpp6icalls8mscorlib6System4Type15MakeGenericTypeEP20Il2CppReflectionTypeP11Il2CppArray
GMd:_Calendar_get_EraNames_m452820602
r_a:__ZNSt3__26vectorIN15QualitySettings14QualitySettingENS_9allocatorIS2_EEE6assignIPS2_EENS_9enable_ifIXaasr21__is_forward_iteratorIT_EE5valuesr16is_constructibleIS2_NS_15iterator_traitsIS9_E9referenceEEE5valueEvE4typeES9_S9_
pKb:__ZNK19ShaderPropertySheet11HasPropertyERKN9ShaderLab16FastPropertyNameE
cMd:_DateTime_System_IConvertible_ToByte_m2670443498_AdjustorThunk
xrj:__ZNSt3__213__vector_baseIN6il2cpp2os10ThreadImpl10APCRequestENS_9allocatorIS4_EEE9__end_capEv
RRh:__ZNK15dense_hashtableINSt3__24pairIK10KeyWrapperIPK22Il2CppGenericParameterEP11Il2CppClassEES6_N6il2cpp5utils11PointerHashIS4_EEN14dense_hash_mapIS6_S9_SE_NS6_14EqualsComparerINS0_8equal_toIS5_EEEENS0_9allocatorISA_EEE9SelectKeyESJ_SL_E12test_deletedEj
O7e:_BigInteger_op_Addition_m1734797151
G0a:__ZN15dense_hashtableINSt3__24pairIKN4core12basic_stringIcNS2_20StringStorageDefaultIcEEEE13dynamic_arrayI4PPtrI6SpriteELj4EEEES6_20StringHash32FunctionIS6_EN14dense_hash_mapIS6_SC_SF_NS0_8equal_toIS6_EE13stl_allocatorISD_L18MemLabelIdentifier81ELi16EEE9SelectKeyESI_SL_E4findERS7_
yWf:_EnumBuilder_CreateNotSupportedException_m62763134
_Vc:__ZNK12HeaderHelper3GetERKN4core12basic_stringIcNS0_20StringStorageDefaultIcEEEE
lqf:_X509Chain_CheckRevocation_m2480313486
Mye:_Math_Log_m3371716878
b5a:__ZN9InputAxis8TransferI14SafeBinaryReadEEvRT_
A$:__ZNK21ExecutionOrderManager30GetCustomAwakeFromLoadQueueForEPKN5Unity4TypeE
lBj:__ZNSt3__213__vector_baseIPK11Il2CppClassNS_9allocatorIS3_EEE17__destruct_at_endEPS3_
AVc:__Z27RegisterModule_UnityConnectv
VDd:_Hashtable__ctor_m4280223555
N1f:_ParameterInfo_get_IsRetval_m1881464570
oyf:_RealProxy__ctor_m3041043303
doe:_NumberFormatter_Init_m2654758994
nZc:_HMACSHA1__ctor_m1168389339
uci:__ZNSt3__211__wrap_iterIPP17Il2CppAsyncResultEpLEi
nK:__ZN10ObjectPoolIN4FMOD12ChannelGroupENS0_13ChannelGroupIEE7SetSizeEi
ide:_PrimalityTest_BeginInvoke_m966469054
EAk:_Bounds_get_max_m1939845278_AdjustorThunk
c2e:_ReadOnlyCollection_1_System_Collections_Generic_ICollectionU3CTU3E_Clear_m1785953911_gshared
gQf:_UInt64_System_IConvertible_ToInt16_m2797150165_AdjustorThunk
k8d:_Array_InternalArray__get_Item_TisLabelData_t3712112744_m863115768_gshared
Tpe:_Int32_Parse_m753946802
AFh:_AudioConfigurationChangeHandler_Invoke_m653824108
SOe:_List_1_RemoveAt_m2331128844_gshared
SSi:__ZN14dense_hash_mapI10KeyWrapperINSt3__24pairIPK9EventInfoP11Il2CppClassEEEj17ReflectionMapHashIS8_ENS9_14EqualsComparerINS1_8equal_toIS8_EEEENS1_9allocatorINS2_IKS9_jEEEEE15set_deleted_keyERSH_
n_f:_UnmanagedMarshal_ToMarshalAsAttribute_m3695569337
fpb:__Z14resize_trimmedINSt3__26vectorI17AnimationCurveTplIfE13stl_allocatorIS3_L18MemLabelIdentifier1ELi16EEEEEvRT_j
jVb:__ZN25CameraStackRenderingState19SetupLastEyeCamerasERK11CameraStack
LCa:__Z12GUIDToStringRK9UnityGUID
nG:__ZN11SoundHandleC2ERKS_
$w:__ZN17AnimationPlayableC2E18DirectorPlayerType
U4h:__ZNK6il2cpp5utils11collections13ArrayValueMapIPK10Il2CppType17Il2CppInteropData26InteropDataToTypeConverterNS_8metadata14Il2CppTypeLessENS8_26Il2CppTypeEqualityComparerEE10find_firstERKS5_
LLa:__ZN15SerializeTraitsI12fixed_bitsetILi24EjEE8TransferI18StreamedBinaryReadILb0EEEEvRS1_RT_
Rli:__ZNSt3__23setIP11Il2CppClassNS_4lessIS2_EENS_9allocatorIS2_EEE5beginEv
Pce:_BigInteger_op_Addition_m1196561843
CNh:_CanvasRenderer_INTERNAL_CALL_GetColor_m3192682614
F8g:_FormatterData__ctor_m3974986124
L_c:_RijndaelManagedTransform_get_CanReuseTransform_m3735256596
Wfk:__ZL97GameObject_t1756533147_CustomAttributesCacheGenerator_GameObject_GetComponentInParent_m1178052983P21CustomAttributesCache
Klj:__ZN14dense_hash_mapI10KeyWrapperIP12Il2CppObjectEN6il2cpp2gc9CachedCCWENS4_5utils11PointerHashIS1_EENS3_14EqualsComparerINSt3__28equal_toIS2_EEEENSB_9allocatorINSB_4pairIKS3_S6_EEEEE3endEv
rDd:_Comparer__cctor_m1327316974
Rse:_MonoIO_ExistsFile_m1421941572
QNd:_DateTime_op_GreaterThanOrEqual_m3818963848
av:__ZN17AnimationPlayable18DeallocateBindingsEv
SWb:__ZN6Camera25StandaloneRenderToCubemapEP7TextureiPFvPK9SceneNodePK4AABBR9IndexListPvESA_j
Lid:_DefaultControls_SetDefaultTextValues_m1707718380
Med:_TouchInputModule_UseFakeInput_m2112019004
Lad:_EventSystem_get_baseEventDataCache_m4294741599
yPa:__ZN14RenderSettings18TransferDeprecatedI14SafeBinaryReadEEvRT_
CX:__ZN12TLSAllocatorI14StackAllocatorE8AllocateEji
A0:__ZN16ScriptingManager18GetMonoScriptCacheEi
W5f:__Z62RuntimeInvoker_Void_t1841601450_RuntimeObject_Int64_t909078037PFvvEPK10MethodInfoPvPS4_
jXh:__ZN15dense_hashtableINSt3__24pairIK10KeyWrapperIPK11Il2CppClassEPKcEES6_N6il2cpp5utils11PointerHashIS3_EEN14dense_hash_mapIS6_S9_SE_NS6_14EqualsComparerINS0_8equal_toIS5_EEEENS0_9allocatorISA_EEE9SelectKeyESJ_SL_E15set_deleted_keyERKSA_
Smd:_GridLayoutGroup_CalculateLayoutInputHorizontal_m2355123124
Cnb:__Z18Transfer_BlittableI14SafeBinaryReadLb1EyEvRK29SerializationCommandArgumentsR31RuntimeSerializationCommandInfo
Loc:__ZN8JSONRead8TransferIfEEvRT_PKc17TransferMetaFlagsb
hSg:_U3CGetEnumeratorU3Ec__Iterator0_Reset_m2980566576_gshared
jOk:__ZNSt3__212basic_stringIcNS_11char_traitsIcEENS_9allocatorIcEEE6appendEPKcj
n0j:__ZL54TypeBuilder_t3308873219_CustomAttributesCacheGeneratorP21CustomAttributesCache
yla:__ZN6prcoreL17RemapGenericFloatI18TexFormatARGBFloat17TexFormatRGBAHalfEEvPKNS_9InnerInfoE
GVe:_Collection_1_CheckWritable_m691269733_gshared
LL:__ZN11AudioSource21ApplyCachedParametersE12SoundChannel
aXf:_GenericTypeParameterBuilder_GetAttributeFlagsImpl_m3338182267
GQ:__ZN13Simd4iFactoryIN6detail9FourTupleEEC2Eiiii
hxe:_SynchronizedReader__ctor_m1408327515
okh:_X509Store_LoadCrl_m1146720614
W3e:_ReadOnlyCollection_1_System_Collections_IList_Clear_m1858417639_gshared
oyh:_UnityAction_3_Invoke_m1025098032_gshared
eYa:__ZN15SerializeTraitsI33EnlightenTerrainChunksInformationE8TransferI14SafeBinaryReadEEvRS0_RT_
Y3b:__ZNK32RendererMaterialAnimationBinding9BindValueER6ObjectRKN11UnityEngine9Animation14GenericBindingERNS3_10BoundCurveE
FUa:__Z13GetIAnimationv
Hja:__ZL18stbir__support_onef
GIe:_List_1_System_Collections_IList_Remove_m2040310137_gshared
IAk:_Bounds_SetMinMax_m2094075031_AdjustorThunk
wqc:__Z26Transfer_UnityEngineObjectI9JSONWriteLb0EEvRK29SerializationCommandArgumentsR31RuntimeSerializationCommandInfo
$Sa:__ZNSt3__26vectorIN4core12basic_stringIcNS1_20StringStorageDefaultIcEEEE13stl_allocatorIS5_L18MemLabelIdentifier1ELi16EEE6assignINS_11__wrap_iterIPS5_EEEENS_9enable_ifIXaasr21__is_forward_iteratorIT_EE5valuesr16is_constructibleIS5_NS_15iterator_traitsISF_E9referenceEEE5valueEvE4typeESF_SF_
nPf:_UInt32_System_IConvertible_ToInt16_m2251335934_AdjustorThunk
KMc:__ZNSt3__27__sort5IRNS_6__lessIN2UI14DepthSortEntryES3_EEPS3_EEjT0_S7_S7_S7_S7_T_
cQh:__ZNSt3__212__deallocateEPv
Qvd:_Boolean_System_IConvertible_ToType_m3990189691
pLi:__ZNSt3__218uninitialized_copyIPNS_4pairIK10KeyWrapperINS1_IPK11Il2CppImageP11Il2CppClassEEEjEESC_EET0_T_SE_SD_
xJk:_LetStart_SelectScene_m3484372922
Ba:invoke_vdd
B8:__ZN14dense_hash_mapIN4core12basic_stringIcNS0_20StringStorageDefaultIcEEEE13dynamic_arrayI4PPtrI6SpriteELj4EE20StringHash32FunctionIS4_ENSt3__28equal_toIS4_EE13stl_allocatorINSC_4pairIKS4_S9_EEL18MemLabelIdentifier81ELi16EEE15set_deleted_keyERSH_
IRd:_Double_System_IConvertible_ToUInt32_m624993430
jKc:__ZZ29InitializeTextRenderingModulevEN27cleanupAfterLoadRegistrator7ForwardEv
SKf:_Scheduler_Add_m376749205
zw:__ZN27AnimationLayerMixerPlayable24ProcessAnimationLayerMixEP33AnimationPlayableEvaluationOutputP35AnimationPlayableEvaluationConstantP32AnimationPlayableEvaluationInputS1_if
WUb:__Z29PluginsIssueRenderingExtEvent26UnityRenderingExtEventTypePv
Gai:_WebRequestUtils_RedirectTo_m675215376
Z2b:__Z14RandomRotationP9Texture2DPhiiii
yae:_SimpleCollator_IsIgnorable_m2485013022
KEj:_GC_collection_in_progress
tMe:_List_1_System_Collections_IList_Insert_m2036969360_gshared
sqd:_InputField_GetUnclampedCharacterLineFromPosition_m1912794077
GKj:__ZN6il2cpp2os12Cryptography23GetCryptographyProviderEv
f7i:__ZN6il2cpp2vm14PlatformInvoke27MarshalAllocateStringBufferIcEEPT_j
mOd:_DateTimeOffset_ToString_m2121173678_AdjustorThunk
Odg:__Z74RuntimeInvoker_RuntimeObject_RuntimeObject_Int16_t4041245914_RuntimeObjectPFvvEPK10MethodInfoPvPS4_
gj:_JS_WebRequest_SetResponseHandler
ZYk:_glDeleteProgram__wrapper
Sdc:__Z50Register_UnityEngine_Camera_INTERNAL_get_pixelRectv
Qka:__ZN6prcoreL18BlitFloatToIntegerERK14ImageReferenceRS0_
jcj:__ZNSt3__216reverse_iteratorINS_11__wrap_iterIPK20Il2CppStackFrameInfoEEEC2ES5_
Iie:_X509CertificateCollection_get_Item_m410866272
RT:__ZN11UnityEngine15CloudWebService14RestDownloader17OnCompleteContentEv
knd:_LayoutGroup_SetChildAlongAxis_m1615929339
Sdg:__Z75RuntimeInvoker_RuntimeObject_RuntimeObject_Double_t4078015681_RuntimeObjectPFvvEPK10MethodInfoPvPS4_
edg:__Z200RuntimeInvoker_Boolean_t3825574718_RuntimeObject_RuntimeObject_RuntimeObject_Int32_t2071877448_DateTimeU26_t3448131235_SByte_t454417549_BooleanU26_t3168250738_SByte_t454417549_ExceptionU26_t1467204777PFvvEPK10MethodInfoPvPS4_
Qa:invoke_viffi
vy:__ZN17AnimationPlayable28UpdateInternalStateRecursiveILi1ELb0EEEvPK35AnimationPlayableEvaluationConstant
$lj:__ZN6il2cpp2gcL10CleanupCCWEPvS1_
Ta:invoke_vifff
hgc:__Z53Register_UnityEngine_Input_INTERNAL_get_mousePositionv
LXk:_glGetVertexAttribiv__wrapper
Ne:_emscripten_request_fullscreen
jEb:__ZN20LocalFileSystemWebGL6DeleteER13FileEntryDatab
xPd:_Decimal_System_IConvertible_ToUInt16_m1621568250
Pe:_emscripten_glDisableVertexAttribArray
Sm:FUNCTION_TABLE_iiiifiiii
MLf:_TimeSpan_get_TotalMinutes_m1645177229_AdjustorThunk
Koj:__ZNKSt3__26vectorI20Il2CppStackFrameInfoNS_9allocatorIS1_EEE8capacityEv
ic:invoke_fifffi
kha:__ZN4gles23ClearCurrentFramebufferEP7ApiGLESbbbRK10ColorRGBAffi
Vw:__ZN7mecanim12statemachine20CreateStateWorkspaceEjjjRNS_6memory9AllocatorE
xUg:_InternalEnumerator_1_System_Collections_IEnumerator_get_Current_m3680087284_gshared
_e:_emscripten_glDeleteObjectARB
Vf:_IMG_Load
Zxe:_UnexceptionalStreamReader_Read_m3839775235
xFk:_Input_get_compositionCursorPos_m1028058884
Hic:__Z53Register_UnityEngine_RenderTexture_Internal_GetHeightv
c9d:_Dropdown_GetOrAddComponent_TisRuntimeObject_m2875934266_gshared
Rla:__ZN6prcoreL17RemapGenericFloatI17TexFormatRGBAHalf18TexFormatARGBFloatEEvPKNS_9InnerInfoE
oSd:_Enum_System_IConvertible_ToInt32_m2459904362
Vdg:__Z61RuntimeInvoker_RuntimeObject_Double_t4078015681_RuntimeObjectPFvvEPK10MethodInfoPvPS4_
obg:__Z211RuntimeInvoker_Int32_t2071877448_RuntimeObject_Int32_t2071877448_Int32_t2071877448_Int32_t2071877448_Int32_t2071877448_RuntimeObject_DecoderFallbackBufferU26_t3597875002_ByteU5BU5DU26_t790777611_SByte_t454417549PFvvEPK10MethodInfoPvPS4_
_lc:__Z14GetBuiltinSkini
Naf:_ContentInfo__ctor_m3871771681
VWh:___cxx_global_var_init_10
WWh:___cxx_global_var_init_11
H9c:_BaseInput_set_compositionCursorPos_m2632248731
GDh:_Enumerator_System_Collections_IEnumerator_Reset_m2573763156_gshared
qqg:__Z74RuntimeInvoker_Void_t1841601450_Int32_t2071877448_MonoResource_t3127387157PFvvEPK10MethodInfoPvPS4_
Fse:_DirectoryInfo_Initialize_m2216118894
o4c:_WindowsIdentity_Dispose_m2649088337
rib:__ZN2UI13RectTransform23VirtualRedirectTransferER14SafeBinaryRead
Deb:__ZNSt3__26vectorIN9ShaderLab20SerializedSubProgramENS_9allocatorIS2_EEE6assignIPS2_EENS_9enable_ifIXaasr21__is_forward_iteratorIT_EE5valuesr16is_constructibleIS2_NS_15iterator_traitsIS9_E9referenceEEE5valueEvE4typeES9_S9_
Isc:__Z18Transfer_BlittableI8JSONReadLb0E8BitFieldEvRK29SerializationCommandArgumentsR31RuntimeSerializationCommandInfo
wzf:_SoapServices_RegisterInteropXmlType_m2949236705
Ebi:__ZNKSt3__213__vector_baseIP17Il2CppAsyncResultN6il2cpp2gc9AllocatorIS2_EEE9__end_capEv
ylh:_Quaternion_op_Multiply_m261788240
zxb:__ZL17Transfer_GUIStyleI18StreamedBinaryReadILb1EELb0EEvRK29SerializationCommandArgumentsR31RuntimeSerializationCommandInfo
s8c:_String_CharCopy_m2550399897
Geg:__Z234RuntimeInvoker_RuntimeObject_Int16_t4041245914_RuntimeObject_Int32_t2071877448_Int32_t2071877448_Int32_t2071877448_SByte_t454417549_SByte_t454417549_SByte_t454417549_SByte_t454417549_Int16_t4041245914_SByte_t454417549_SByte_t454417549PFvvEPK10MethodInfoPvPS4_
nZi:__ZN15dense_hashtableINSt3__24pairIK10KeyWrapperINS1_IP11Il2CppClassjEEES4_EES6_N6il2cpp8metadata14ArrayClassHashEN14dense_hash_mapIS6_S4_SB_NS6_14EqualsComparerINSA_17ArrayClassCompareEEENS0_9allocatorIS8_EEE9SelectKeyESF_SH_E13clear_deletedER30dense_hashtable_const_iteratorIS8_S6_SB_SJ_SF_SH_E
Jcb:__ZN9ShaderLab14SerializedPass8TransferI14SafeBinaryReadEEvRT_
Smc:__Z71Register_UnityEngine_GUILayoutUtility_INTERNAL_CALL_Internal_MoveWindowv
sO:__ZN12AudioManager16SetListenerPauseEb
A8a:__ZNSt3__26vectorIN30RuntimeInitializeOnLoadManager9ClassInfoE13stl_allocatorIS2_L18MemLabelIdentifier13ELi16EEE6assignINS_11__wrap_iterIPS2_EEEENS_9enable_ifIXaasr21__is_forward_iteratorIT_EE5valuesr16is_constructibleIS2_NS_15iterator_traitsISC_E9referenceEEE5valueEvE4typeESC_SC_
e5i:__ZN6il2cpp2vm9Exception25RaiseOutOfMemoryExceptionERKNS_5utils10StringViewIDsEE
gUe:_Collection_1_IsValidItem_m2254106115_gshared
mWf:_TypeBuilder_GetEvent_m3876348075
EBg:_Slider_OnMove_m641164662
da:invoke_viiiiiiiiiii
gKk:___syscall_ret
VKf:_Scheduler__ctor_m3716265742
Nfe:_MACAlgorithm_Final_m4076939925
kjj:__ZNSt3__218uninitialized_copyIP10KeyWrapperIP18Il2CppGenericClassES5_EET0_T_S7_S6_
Owi:__ZNSt3__212basic_stringIcNS_11char_traitsIcEENS_9allocatorIcEEE6assignINS_11__wrap_iterIPKcEEEENS_9enable_ifIXaasr21__is_forward_iteratorIT_EE5valuesr38__libcpp_string_gets_noexcept_iteratorISC_EE5valueERS5_E4typeESC_SC_
w0a:__ZN11ChannelInfo8TransferI19StreamedBinaryWriteILb0EEEEvRT_
dUg:_InternalEnumerator_1_System_Collections_IEnumerator_get_Current_m3583252352_gshared
sIk:_Object_op_Implicit_m1757773010
PVf:_EnumBuilder_get_FullName_m2818393911
U7e:_BigInteger_op_RightShift_m852685747
$ec:__Z34Register_UnityEngine_Gradient_Initv
iad:_BaseInputModule_GetAxisEventData_m3903709281
B8d:_Array_InternalArray__get_Item_TisUriScheme_t1876590943_m1821482697_gshared
R6e:_BigInteger__ctor_m3239748086
r$a:__ZN13ScreenManager23SetIsOrientationEnabledE18EnabledOrientationb
jph:_HitInfo_SendMessage_m3395411273
Fw:__ZN7mecanim5human25HumanPoseAddOverrideLayerERNS0_9HumanPoseERKS1_fRKNS_6bitsetILj70EEE
mzi:__ZNSt3__213__vector_baseINS_12basic_stringIcNS_11char_traitsIcEENS_9allocatorIcEEEENS4_IS6_EEE7__allocEv
N1b:__ZN13ProduceHelperI9TransformLb0EE7ProduceE18MemLabelIdentifier18ObjectCreationMode
Zxj:__ZN30dense_hashtable_const_iteratorINSt3__24pairIK10KeyWrapperIPK19Il2CppGenericMethodEP10MethodInfoEES6_N6il2cpp8metadata23Il2CppGenericMethodHashEN14dense_hash_mapIS6_S9_SD_NS6_14EqualsComparerINSC_26Il2CppGenericMethodCompareEEENS0_9allocatorISA_EEE9SelectKeyESH_SJ_EC2EPK15dense_hashtableISA_S6_SD_SL_SH_SJ_EPKSA_SS_b
W0d:_Array_InternalArray__ICollection_Add_TisHitInfo_t1761367055_m2956071622_gshared
ODa:__ZN10GameObject23VirtualRedirectTransferER18StreamedBinaryReadILb0EE
qg:_glFrontFace
tBf:_ObjectRecord_get_IsUnsolvedObjectReference_m2202692850
Osf:_FactoryCache_Cleanup_m4130035987
hoh:_Vector2_op_Addition_m4229571528
M0b:__ZN13ProduceHelperI19LowerResBlitTextureLb0EE7ProduceE18MemLabelIdentifier18ObjectCreationMode
qRb:__ZNSt3__26vectorI16ShadowCasterData13stl_allocatorIS1_L18MemLabelIdentifier2ELi16EEE21__push_back_slow_pathIKS1_EEvRT_
RPf:_UInt32_ToString_m1783596809
IVk:_glUniform1i__wrapper
SKc:__Z51Register_UnityEngine_TextGenerator_GetLinesInternalv
$Dh:_HashSet_1_Init_m1258286688_gshared
Kjh:_X509ExtensionCollection_get_Item_m4212651995
f0e:_ReadOnlyCollection_1_System_Collections_IList_RemoveAt_m525136953_gshared
gla:__ZN6prcoreL17RemapGenericFloatI17TexFormatRGBFloat18TexFormatRGBAFloatEEvPKNS_9InnerInfoE
WPf:_UInt64_System_IConvertible_ToBoolean_m3012279573_AdjustorThunk
LNf:_Type_get_IsGenericTypeDefinition_m2147901038
sVc:__ZN20UnityConnectSettings10InitializeEv
pke:_GregorianCalendar__ctor_m3794576475
MPf:_UInt32_TryParse_m4283512434
Pqh:_TrackedReference_GetHashCode_m1278837032
eG:__ZN9AudioClip11CreateSoundEv
HFg:_ShimEnumerator_MoveNext_m3313047792_gshared
rMf:_TimeSpan_op_Inequality_m257547441
nTi:__ZN14dense_hash_mapI10KeyWrapperINSt3__24pairIPK9FieldInfoP11Il2CppClassEEEj17ReflectionMapHashIS8_ENS9_14EqualsComparerINS1_8equal_toIS8_EEEENS1_9allocatorINS2_IKS9_jEEEEEC2EjRKSB_RKSF_
GIi:__ZNK15dense_hashtableINSt3__24pairIK10KeyWrapperINS1_IPK10MethodInfoP11Il2CppClassEEEjEES9_17ReflectionMapHashIS8_EN14dense_hash_mapIS9_jSD_NS9_14EqualsComparerINS0_8equal_toIS8_EEEENS0_9allocatorISB_EEE9SelectKeyESI_SK_E13find_positionERSA_
Ida:__ZN13GfxDeviceGLES20CreateComputeProgramEPKhj
xId:_DateTimeFormatInfo_get_RoundtripPattern_m562440017
NUc:__ZN11UnityEngine7Connect16PersistentValues13RestoreValuesER8JSONRead
eBa:__ZN20ArchiveStorageReader31TryToReadDirectoryFromBlockDataEyPKvj
nRd:_Double_System_IConvertible_ToByte_m3004284950_AdjustorThunk
paj:__ZN6il2cpp2vmL11GetIdentityEP14Il2CppIUnknown
mfe:_SmallXmlParser_ReadCDATASection_m2558307107
xFj:_GC_push_gc_structures
Xlf:_ServicePointManager_get_ServerCertificateValidationCallback_m1409951209
dri:__ZN6il2cpp6icalls8mscorlib6SystemL8IsPublicEPK9EventInfo
fQi:__ZN15dense_hashtableINSt3__24pairIK10KeyWrapperIPK14Il2CppAssemblyEPK22Il2CppMonoAssemblyNameEES6_N6il2cpp5utils11PointerHashIS4_EEN14dense_hash_mapIS6_SA_SF_NS6_14EqualsComparerINS0_8equal_toIS5_EEEENS0_9allocatorISB_EEE9SelectKeyESK_SM_E4swapERSP_
ZFd:_Enumerator_get_Current_m1271212567
tAj:__ZThn4_N6il2cpp2vm13ComObjectBase18ReleaseMarshalDataEP13Il2CppIStream
Hmf:_IPAddress_ParseIPV6_m2209709575
iyg:_U3CClickRepeatU3Ec__Iterator0_MoveNext_m1747924386
R5e:_Comparison_1_Invoke_m1670081898_gshared
ZCg:_Toggle_set_group_m3833595685
Msd:_LayoutRebuilder_ForceRebuildLayoutImmediate_m566681977
P0a:__ZNSt3__213__stable_sortIRNS_4lessI4PPtrI11SpriteAtlasEEENS_11__wrap_iterIPS4_EEEEvT0_SA_T_NS_15iterator_traitsISA_E15difference_typeEPNSD_10value_typeEi
Yzi:__ZNKSt3__214__split_bufferIN6il2cpp2vm17TypeNameParseInfoERNS_9allocatorIS3_EEE8capacityEv
Hji:__ZNKSt3__26vectorINS_4pairIPK10MethodInfoP11Il2CppClassEENS_9allocatorIS7_EEE8max_sizeEv
c1d:_Array_InternalArray__ICollection_Add_TisVector4_t2243707581_m698578249_gshared
plh:_PropertyName_ToString_m1129982609_AdjustorThunk
sY:__ZN8keywords6CreateEPKc
S:Math_imul
F_a:__ZN11PlayerPrefs6GetIntERKN4core12basic_stringIcNS0_20StringStorageDefaultIcEEEEi
x2h:__ZN6il2cpp5utils13dynamic_arrayIPK10Il2CppTypeLj4EEC2ERKS5_
AKc:__Z45TextGenerator_CUSTOM_INTERNAL_get_rectExtentsP12Il2CppObjectP5RectTIfE
eYd:_SetPropertyUtility_SetStruct_TisChar_t3454481338_m2333420724_gshared
jUe:_Collection_1_IsSynchronized_m2601980439_gshared
uEd:_Hashtable_ContainsKey_m2716576664
gP:__ZN11AudioSource12SetAudioClipEP9AudioClip
Kbh:_PatternCompiler_EmitCategory_m1696942454
IPd:_Decimal_decimalFloorAndTrunc_m3655683429
w1d:_Array_InternalArray__ICollection_CopyTo_TisInt32_t2071877448_m984622488_gshared
e_:__ZN18ScriptingArguments9AddObjectE18ScriptingObjectPtr
ROc:__Z39CanvasGroup_Get_Custom_PropInteractableP12Il2CppObject
bR:__ZN11UnityEngine15CloudWebService16SessionContainerD2Ev
YUc:__ZL38InitializeUnityConnectScriptingClassesv
FVb:__ZN13ProbeRenderer8ConvolveEbijjb
Aha:__ZN17GenericDynamicVBOC2ER9GfxDevice13GfxBufferModejj
d9g:_Context_get_HasDynamicSinks_m1998518649
$kc:__ZZN10GUIManager14InitGUIManagerEvEN41PreUpdateIMGUISendQueuedEventsRegistrator7ForwardEv
Sxh:_UnityAction_1_Invoke_m2903588655_gshared
uS:__ZN11UnityEngine15CloudWebService17SessionEventQueue10PurgeItemsEj
kWb:__ZN6Camera16StandaloneRenderENS_10RenderFlagEP6ShaderRKN4core12basic_stringIcNS3_20StringStorageDefaultIcEEEE
etd:_Array_System_Collections_IList_get_Item_m2088124007
ytd:_Array_GetLength_m2083296647
Txh:_UnityAction_1_BeginInvoke_m53286204_gshared
eCd:_SynchronizedArrayListWrapper_ToArray_m1522185111
Twb:__Z18Transfer_BlittableI18StreamedBinaryReadILb1EELb1EtEvRK29SerializationCommandArgumentsR31RuntimeSerializationCommandInfo
Rba:__ZN9GfxDevice20DeallocRenderSurfaceEP17RenderSurfaceBase
nRf:_ValueType_ToString_m3796301715
zna:__ZN20GpuProgramParameters36UpdatePrepareValuesMaximumBufferSizeEv
zgc:__Z53Register_UnityEngine_Quaternion_INTERNAL_CALL_Inversev
Voh:_Screen_get_height_m3831644396
LJi:__ZNSt3__24pairIK10KeyWrapperINS0_IPK10MethodInfoP11Il2CppClassEEEjEC2IRSA_vEEOT_
CFa:__ZN12BaseRenderer23RendererBecameInvisibleEv
Pwc:__ZN20TextRenderingPrivate8FontImpl13CharacterInfo8TransferI18StreamedBinaryReadILb0EEEEvRT_
gub:__Z29Transfer_Blittable_ArrayFieldI24GenerateTypeTreeTransferfEvRT_R9ArrayInfoRK23StaticTransferFieldInfo
$3:__ZNSt3__26__treeINS_12__value_typeIN4core12basic_stringIcNS2_20StringStorageDefaultIcEEEES6_EENS_19__map_value_compareIS6_S7_NS_4lessIS6_EELb1EEE13stl_allocatorIS7_L18MemLabelIdentifier13ELi16EEE7destroyEPNS_11__tree_nodeIS7_PvEE
q6f:__Z76RuntimeInvoker_RuntimeObject_RuntimeObject_SByte_t454417549_SByte_t454417549PFvvEPK10MethodInfoPvPS4_
zXb:__ZN19CustomRenderTexture9AddParentE4PPtrIS_E
tZa:__ZN8Gradient8TransferI14SafeBinaryReadEEvRT_
izh:_UnityEvent_1_Invoke_m1533100983_gshared
_Sa:__ZNSt3__26vectorIN4core12basic_stringIcNS1_20StringStorageDefaultIcEEEE13stl_allocatorIS5_L18MemLabelIdentifier1ELi16EEE7reserveEj
$lf:_FileWebRequest__ctor_m4003648606
jxk:__ZL71SpriteState_t1353336012_CustomAttributesCacheGenerator_m_DisabledSpriteP21CustomAttributesCache
qSd:_Enum_System_IConvertible_ToSByte_m3488526280
N4h:__ZNK15dense_hashtableI10KeyWrapperIPK19Il2CppGenericMethodES4_N6il2cpp8metadata23Il2CppGenericMethodHashEN14dense_hash_setIS4_S7_NS4_14EqualsComparerINS6_26Il2CppGenericMethodCompareEEENSt3__29allocatorIS4_EEE8IdentityESB_SE_E4findERKS4_
LCi:__ZNSt3__210__distanceIPKcEENS_15iterator_traitsIT_E15difference_typeES4_S4_NS_26random_access_iterator_tagE
vkb:__ZNK20LocalFileSystemPosix9IsSymLinkERK13FileEntryData
fEj:_GC_new_free_list_inner
JNg:_DefaultComparer_Equals_m85211180_gshared
Qii:__ZNSt3__213__vector_baseINS_4pairIPK10MethodInfoP11Il2CppClassEENS_9allocatorIS7_EEE17__destruct_at_endEPS7_
Xxi:__ZNKSt3__213__vector_baseIiNS_9allocatorIiEEE8capacityEv
gAe:_MonoType_InternalGetEvent_m532443236
eWe:_Collection_1_IndexOf_m2700825189_gshared
Bth:_MathfInternal__cctor_m2774058555
wtc:__ZN8JSONRead8TransferI10RectOffsetEEvRT_PKc17TransferMetaFlagsb
cS:__ZN9JSONWrite8TransferIN11UnityEngine15CloudWebService14DataErrorEvent15FileErrorDetailEEEvRT_PKc17TransferMetaFlags
OUk:_emscripten_glColorPointer__wrapper
T8c:_Decoder__ctor_m2623573910
hJ:__ZN12SoundManager20RegisterModifiedClipEP10SampleClip
PCk:_Logger__ctor_m1903664092
EL:__ZN11AudioSource4PlayEd
L$h:__ZN15dense_hashtableI10KeyWrapperIPK17Il2CppGenericInstES4_N6il2cpp8metadata21Il2CppGenericInstHashEN14dense_hash_setIS4_S7_NS4_14EqualsComparerINS6_24Il2CppGenericInstCompareEEENSt3__29allocatorIS4_EEE8IdentityESB_SE_E13set_empty_keyERKS4_
DQg:_EqualityComparer_1_System_Collections_IEqualityComparer_Equals_m3589836321_gshared
yfe:_SmallXmlParser_IsNameChar_m1561000202
Dih:_X501__cctor_m2610532554
NEg:_Enumerator_VerifyState_m3173176371_gshared
POe:_List_1_CheckCollection_m2220107869_gshared
mWa:__ZN7Cubemap23VirtualRedirectTransferER18StreamedBinaryReadILb0EE
ydf:_RecordProtocol_EncodeRecord_m3884270352
vIi:__ZN14dense_hash_mapI10KeyWrapperINSt3__24pairIPK10MethodInfoP11Il2CppClassEEEj17ReflectionMapHashIS8_ENS9_14EqualsComparerINS1_8equal_toIS8_EEEENS1_9allocatorINS2_IKS9_jEEEEE3endEv
I0c:_SHA256_Create_m896954069
nIc:_Read_CVT
qLd:_Convert_ToUInt32_m776714429
rBa:__ZN12FileAccessor4SeekEx10FileOrigin
Wsb:__ZL26Transfer_SimpleNativeClassI24GenerateTypeTreeTransfer17AnimationCurveTplIfELb0EEvRK29SerializationCommandArgumentsR31RuntimeSerializationCommandInfo
wuc:__ZN8JSONRead21TransferSTLStyleArrayI13dynamic_arrayI9BoundsIntLj4EEEEvRT_17TransferMetaFlags
oYa:__ZN24GenerateTypeTreeTransfer8TransferI13dynamic_arrayI33EnlightenTerrainChunksInformationLj4EEEEvRT_PKc17TransferMetaFlags
J0i:__ZNSt3__213__vector_baseIN6il2cpp2vm22EmbeddedResourceRecordENS_9allocatorIS3_EEE7__allocEv
_td:_Array_CreateInstance_m3327690220
c5:__ZN16LightmapSettings20DidChangeActiveSceneEP10UnitySceneS1_
lzk:__ZL59g_AssemblyU2DCSharp_Assembly_CustomAttributesCacheGeneratorP21CustomAttributesCache
Ksi:__ZN6il2cpp5utils9PathUtils8BasenameIcEENSt3__212basic_stringIT_NS3_11char_traitsIS5_EENS3_9allocatorIS5_EEEERKSA_
Emc:__Z35Register_UnityEngine_Event_get_typev
lge:_PrivateKeyInfo_DecodeRSA_m1427048948
z6i:__ZN6il2cpp2vm9Exception23GetInvalidCastExceptionERKNS_5utils10StringViewIDsEE
rSf:_Assembly_FillName_m1934025015
n7c:_String_IndexOf_m2126171214
hre:_Int64_ToString_m1544341651_AdjustorThunk
wy:__ZN8Animator28BuildControllerPlayableCacheEv
_le:_Guid_CheckNull_m2903986431
p$:__Z63ThreadAndSerializationSafeCheckGetMonoBehaviourBeingTransferredv
tHj:_GC_enable
tff:_TlsClientCertificateVerify_ProcessAsSsl3_m3377063356
eQi:__ZN15dense_hashtableINSt3__24pairIK10KeyWrapperIPK14Il2CppAssemblyEPK22Il2CppMonoAssemblyNameEES6_N6il2cpp5utils11PointerHashIS4_EEN14dense_hash_mapIS6_SA_SF_NS6_14EqualsComparerINS0_8equal_toIS5_EEEENS0_9allocatorISB_EEE9SelectKeyESK_SM_EC2ERKSP_j
ded:_StandaloneInputModule_set_repeatDelay_m2820945738
WOf:_UInt16_ToString_m4213290405
cgc:__Z37Register_UnityEngine_Input_GetAxisRawv
Hii:__ZNSt3__213__vector_baseINS_4pairIPK10MethodInfoP11Il2CppClassEENS_9allocatorIS7_EEE7__allocEv
z7g:_ChannelServices_RegisterChannel_m3832858065
Nei:__ZNKSt3__26vectorIP12Il2CppThreadNS_9allocatorIS2_EEE17__annotate_deleteEv
xSd:_Enum_GetName_m1226611481
D6e:_Func_2_Invoke_m4121137703_gshared
qL:__ZN11AudioSource5ResetEv
OLb:__ZN12ImageFilters27SetSurfaceUseResolvedBufferEP13RenderTextureb
c1a:__ZN14Texture2DArray23VirtualRedirectTransferER18StreamedBinaryReadILb0EE
leh:_Literal_CompileLiteral_m276843152
iib:__ZN2UI13RectTransform13AwakeFromLoadE17AwakeFromLoadMode
PQb:__ZN14qsort_internal30FindAndMovePivotToLastPositionIP20ShadowCasterSortDatai26ShadowCasterSortDataSorterEEvT_S4_T0_T1_
S0h:__ZNK15dense_hashtableI10KeyWrapperIPK19Il2CppGenericMethodES4_N6il2cpp8metadata23Il2CppGenericMethodHashEN14dense_hash_setIS4_S7_NS4_14EqualsComparerINS6_26Il2CppGenericMethodCompareEEENSt3__29allocatorIS4_EEE8IdentityESB_SE_E3endEv
umb:__Z18Transfer_BlittableI14SafeBinaryReadLb1EiEvRK29SerializationCommandArgumentsR31RuntimeSerializationCommandInfo
Tab:__ZN17PersistentManager13GetAllFileIDsERKN4core12basic_stringIcNS0_20StringStorageDefaultIcEEEER13dynamic_arrayIxLj8EE
yud:_Array_LastIndexOf_m4096535198
fAd:_ArrayList_Add_m1719188324
DRd:_Double_System_IConvertible_ToSByte_m1653690240_AdjustorThunk
Eeg:__Z59RuntimeInvoker_RuntimeObject_Byte_t3683104436_RuntimeObjectPFvvEPK10MethodInfoPvPS4_
vAk:_Bounds_get_size_m3951110137
Ak:_glGetStringi
eVd:_CultureInfo_set_NumberFormat_m1618950525
l2i:__ZNSt3__216allocator_traitsINS_9allocatorIN6il2cpp2vm22EmbeddedResourceRecordEEEE8max_sizeERKS5_
wqf:_X509Store__ctor_m1573680316
MZi:__ZNSt3__217__compressed_pairIPP12Il2CppThreadN6il2cpp2gc9AllocatorIS2_EEEC2ES3_
Lqf:_X509Chain_get_CertificateCollection_m324631835
QQg:_EqualityComparer_1__cctor_m1011898363_gshared
cfd:_AnimationTriggers__ctor_m2623627182
M_d:_Array_InternalArray__IndexOf_TisClientCertificateType_t4001384466_m1168139450_gshared
dA:__ZN8Animator9WriteStepEy
QS:__ZN11UnityEngine15CloudWebService20WebRequestRestClient18GetResponseHeadersEv
v7b:__ZN16PropertyAccessorC2Ev
O_a:__ZNSt3__23mapIN4core12basic_stringIcNS1_20StringStorageDefaultIcEEEE9PrefValueNS_4lessIS5_EENS_9allocatorINS_4pairIKS5_S6_EEEEEixERSB_
Z6b:__ZN15DirectorManager22ConstructPlayableGraphEv
F1c:_SymmetricAlgorithm_set_IV_m4262655606
ZBg:_StencilMaterial__cctor_m2963056855
UTf:_CustomAttributeNamedArgument_GetHashCode_m3715408876_AdjustorThunk
HKc:__Z38Register_UnityEngine_Font_HasCharacterv
Qpf:_X509Certificate2_AppendBuffer_m3517242299
OUb:__Z35IntersectSpherePlaneBoundsOptimizedRKN4math7_float4EPS1_i
aVd:_CultureInfo_get_IsNeutralCulture_m3874876470
wQd:_Delegate_CreateDelegate_m3813023227
Gei:__ZNKSt3__214__split_bufferIP12Il2CppThreadRNS_9allocatorIS2_EEE9__end_capEv
wgh:_Uri_get_AbsoluteUri_m2120317928
aqj:__ZN6il2cpp2os5posix15PosixWaitObject13InterruptWaitEv
cid:_ColorTween_TweenValue_m3279916815
E$h:__ZNSt3__218uninitialized_copyIP10KeyWrapperIPK17Il2CppGenericInstES6_EET0_T_S8_S7_
D4:__Z22CleanupLODGroupManagerPv
X0d:_Array_InternalArray__ICollection_Add_TisContentType_t1028629049_m2984242302_gshared
Amc:__Z21Event_CUSTOM_PopEventP12Il2CppObject
kl:_glUniform3fv
yQj:__ZNK6il2cpp8metadata24Il2CppGenericInstCompareclERK10KeyWrapperIPK17Il2CppGenericInstES8_
E7a:__ZNSt3__218__insertion_sort_3IRN15ResourceManager10Dependency6SorterEPS2_EEvT0_S6_T_
oFe:_Enumerator_System_Collections_IEnumerator_Reset_m3796537546_AdjustorThunk
tJc:_UNITY_FT_Init_Class_tt_service_gx_multi_masters
beg:__Z53RuntimeInvoker_Int32_t2071877448_TimeSpan_t3430258949PFvvEPK10MethodInfoPvPS4_
s4f:__Z64RuntimeInvoker_RuntimeObject_Int32_t2071877448_Int16_t4041245914PFvvEPK10MethodInfoPvPS4_
Rze:_IntComparer_Compare_m3057931085
xPb:__ZNK16LightmapSettings31GetRealtimeLightmapDecodeValuesEv
yK:__ZN5audio5mixer12SetSuspendedERNS0_16AudioMixerMemoryEb
Obb:__ZN17PersistentManager21UnloadNonDirtyStreamsEv
H7i:__ZN6il2cpp2vm13LivenessStateC2EP11Il2CppClassjPFvPP12Il2CppObjectiPvES7_PFvvESB_
ZQj:__ZNKSt3__26vectorINS_12basic_stringIDsNS_11char_traitsIDsEENS_9allocatorIDsEEEENS4_IS6_EEE17__annotate_shrinkEj
s9d:_Array_ConvertAll_TisRuntimeObject_TisRuntimeObject_m2423585546_gshared
rKb:__ZN12ImageFilters4BlitER17ShaderPassContextP7TextureP13RenderTextureiPK18SharedMaterialDataPKcP6ShaderiNS_9BlitFlagsE11CubemapFaceRK8Vector2fSH_
eof:_Oid__ctor_m1936781897
ES:__ZN11UnityEngine15CloudWebService10RestClientINS0_23WebRequestRestHeaderMapEED2Ev
i5g:_ResourceSet__ctor_m1222864106
sSe:_Collection_1_System_Collections_IList_get_Item_m3376056117_gshared
Gl:_emscripten_glDepthMask
nFe:_Enumerator_VerifyState_m3639069574_gshared
Lia:__ZN4crnd25static_huffman_data_model22prepare_decoder_tablesEv
SRe:_Enumerator_MoveNext_m689054299_gshared
v7e:_ModulusRing_Difference_m662924064
Ggd:_CanvasUpdateRegistry_ObjectValidForUpdate_m855695984
vpd:_InputField_set_onValueChanged_m2406388125
zlc:__Z23GUIStatePopDisplayIndexv
vX:__ZL22CleanupUnityWebStreamsPv
Tkf:_ListDictionary_Add_m4276262662
h5:__Znaj
l$c:_RIPEMD160Managed_GGG_m1639995340
xZk:_emscripten_glEnableClientState__wrapper
mZ:__ZN17MessageIdentifierC2EPKcNS_7OptionsEPKN5Unity4TypeES1_
vHg:_Enumerator_System_Collections_IEnumerator_get_Current_m1648049763_gshared
$gj:__ZNSt3__26__treeINS_12__value_typeIP24Il2CppReflectionAssemblyPvEENS_19__map_value_compareIS3_S5_NS_4lessIS3_EELb1EEENS_9allocatorIS5_EEE13__lower_boundIS3_EENS_15__tree_iteratorIS5_PNS_11__tree_nodeIS5_S4_EEiEERKT_SH_SH_
VP:__Z55Register_UnityEngine_AudioSource_get_spatializeInternalv
L0a:__ZN15dense_hashtableINSt3__24pairIKN4core12basic_stringIcNS2_20StringStorageDefaultIcEEEE13dynamic_arrayI4PPtrI6SpriteELj4EEEES6_20StringHash32FunctionIS6_EN14dense_hash_mapIS6_SC_SF_NS0_8equal_toIS6_EE13stl_allocatorISD_L18MemLabelIdentifier81ELi16EEE9SelectKeyESI_SL_E12resize_deltaEjj
Kwe:_TextWriter__ctor_m2225796097
Qxa:__ZN14SafeBinaryRead8TransferI14ConstantStringEEvRT_PKc17TransferMetaFlags
dfa:__ZNK6Camera16GetStereoEnabledEv
Oxi:__ZNKSt3__26vectorIiNS_9allocatorIiEEE17__annotate_deleteEv
z3b:__ZN12LightManager15InitializeClassEv
YGa:__ZN9ShaderLab11shaderprops16GetComputeBufferEPK19ShaderPropertySheetS3_NS_16FastPropertyNameE
s_:__ZN18ScriptingArgumentsC2Ev
zMf:_TimeZone_IsDaylightSavingTime_m875882154
VUk:_emscripten_glBlendFuncSeparate__wrapper
kcf:_CipherSuiteCollection_System_Collections_IList_set_Item_m750275607
vQk:dynCall_iiiiiiiiii
Mfa:__Z17HasSampledTexture14GraphicsFormat13formatSupport
pLb:__ZNK25CameraStackRenderingState27GetStereoImageEffectTextureEb
n0c:_SHA1CryptoServiceProvider__ctor_m3127563759
qp:__ZN8Vector3f8TransferI14SafeBinaryReadEEvRT_
b9h:__ZN6il2cpp6icalls6System6System3Net7Sockets6Socket7ReceiveEiP11Il2CppArrayiiNS4_11SocketFlagsEPi
Y9b:__ZN13BuildSettings13GetSceneIndexERKN4core12basic_stringIcNS0_20StringStorageDefaultIcEEEE
$yk:__ZL103BaseVertexEffect_t2504093552_CustomAttributesCacheGenerator_BaseVertexEffect_ModifyVertices_m3446986347P21CustomAttributesCache
uo:FUNCTION_TABLE_ii
sIg:_Enumerator_MoveNext_m335649778_AdjustorThunk
qFa:__ZN10TagManager8TransferI18StreamedBinaryReadILb0EEEEvRT_
Ypc:__Z18Transfer_BlittableI9JSONWriteLb0E8BitFieldEvRK29SerializationCommandArgumentsR31RuntimeSerializationCommandInfo
QPf:_UInt32_ToString_m3894907091_AdjustorThunk
IGk:_Matrix4x4__ctor_m828876617_AdjustorThunk
WUd:_CultureInfo_get_TextInfo_m1582311326
_$d:_Array_ForEach_TisRuntimeObject_m1849351808_gshared
cfe:_SmallXmlParser_Error_m1832158746
zk:_glDeleteVertexArrays
QCa:__Z24CreateDirectoryRecursiveRKN4core12basic_stringIcNS_20StringStorageDefaultIcEEEE
cbj:___cxx_global_var_init_3_14580
oTk:b41
zfb:__ZN9ShaderLab20SerializedSubProgram8TransferI18StreamedBinaryReadILb0EEEEvRT_
kwe:_StreamAsyncResult_get_AsyncWaitHandle_m4218169359
nTk:b40
mLc:__ZN2UI13CanvasManager9AddCanvasEPNS_6CanvasE
W1a:__ZN9Texture3D8TransferI19StreamedBinaryWriteILb0EEEEvRT_
TLb:__ZNK6Camera22CalculateRenderingPathEv
qrc:__ZN9JSONWrite8TransferI5RectTIfEEEvRT_PKc17TransferMetaFlags
NB:__ZN11UnityEngine9Animation37SetGenericRootTransformPropertyValuesERKNS0_30AnimatorGenericBindingConstantERKN7mecanim10ValueArrayER9Transformbb
$oa:__Z13ConvertMipmap14GraphicsFormatPKvS_Pviiii
Crb:__ZL12InvokeMethodI17RemapPPtrTransferEvRK29SerializationCommandArgumentsR31RuntimeSerializationCommandInfo
Aie:_X509Certificate_get_PublicKey_m714501701
Yzk:_AsyncOperation_InternalDestroy_m2067452588
_Bc:_tt_sbit_decoder_load_image
C7c:_String_LastIndexOf_m290475879
q_i:__ZNKSt3__26vectorIP12Il2CppThreadN6il2cpp2gc9AllocatorIS2_EEE5beginEv
pWi:__ZN15dense_hashtableINSt3__24pairIK10KeyWrapperIP11Il2CppClassES4_EES5_N6il2cpp8metadata16SZArrayClassHashEN14dense_hash_mapIS5_S4_SA_NS5_14EqualsComparerINS9_19SZArrayClassCompareEEENS0_9allocatorIS7_EEE9SelectKeyESE_SG_EC2EjRKSA_RKSE_RKSI_
m5d:_Array_Sort_TisInt32_t2071877448_m1860415737_gshared
tlc:__ZNSt3__24listIN10GUIManager12SortedScriptE11memory_poolIS2_EE6__sortI13OldSortScriptEENS_15__list_iteratorIS2_PvEESA_SA_jRT_
_Pf:_UInt64_System_IConvertible_ToChar_m1930853313_AdjustorThunk
off:_TlsClientCertificate_SendCertificates_m1096074091
eFd:_SyncHashtable_get_Item_m408601391
YRe:_Stack_1_System_Collections_ICollection_CopyTo_m2104527616_gshared
tHf:_StringBuilder_AppendFormat_m1666670800
BGj:_GC_setpagesize
kjg:__Z97RuntimeInvoker_Boolean_t3825574718_RuntimeObject_TextGenerationSettings_t2543476768_RuntimeObjectPFvvEPK10MethodInfoPvPS4_
YSc:__ZN18UnityConnectClient12CloseServiceEv
E3i:__ZN6il2cpp6icalls8mscorlib6System9ThreadingL11ThreadStartEPv
a7:__ZN15DirectorManager12OnSampleTimeEv
U2e:_ReadOnlyCollection_1_System_Collections_IList_Remove_m3878418841_gshared
Apd:_InputField_EnforceContentType_m1902926812
nZa:__ZN15dense_hashtableINSt3__24pairIKiiEEi21InstanceIDHashFunctorN14dense_hash_mapIiiS4_NS0_8equal_toIiEE13stl_allocatorIS3_L18MemLabelIdentifier67ELi16EEE9SelectKeyES7_SA_E12resize_deltaEjj
Fva:__ZN12CachedReader10Align4ReadEv
qwa:__ZNK9Behaviour22GetTypeVirtualInternalEv
Eqg:__Z74RuntimeInvoker_Void_t1841601450_Int32_t2071877448_RaycastHit2D_t4063908774PFvvEPK10MethodInfoPvPS4_
zVb:__Z21GetScriptingArraySize17ScriptingArrayPtr
mwc:__ZN20TextRenderingPrivate8FontImpl8TransferI14SafeBinaryReadEEvRT_
hri:__ZN6il2cpp6icalls8mscorlib6SystemL16CheckMemberMatchI9EventInfoNS_5utils10functional6FilterINSt3__212basic_stringIcNS8_11char_traitsIcEENS8_9allocatorIcEEEENS5_13VmStringUtils23CaseInsensitiveComparerEEEEEbPKT_PK11Il2CppClassSN_iRKT0_
Nca:__ZN9GfxDevice17ImmediateTexCoordEifff
Hch:_Parser_ParseRegularExpression_m2390577313
Xud:_Array_double_swapper_m1175307080
lrf:_X509CertificateEnumerator_System_Collections_IEnumerator_Reset_m327358896
N3c:_Hash__ctor_m2554411450
Aoe:_NumberFormatter_AppendDigits_m1308372770
q5c:_Single_System_IConvertible_ToDateTime_m2510003459_AdjustorThunk
FQd:_Delegate_RemoveImpl_m3666700529
QSk:_emscripten_glUniform4f__wrapper
klf:_NameObjectCollectionBase_OnDeserialization_m3478980442
mpd:_InputField_set_caretColor_m2252440840
gxj:__ZNSt3__217__compressed_pairIPjRNS_9allocatorIjEEEC2ES1_S4_
gD:__ZN8Animator8TransferI19StreamedBinaryWriteILb0EEEEvRT_
XFa:__ZNK6Camera16GetProjectionFarEv
Uye:_MissingFieldException__ctor_m1161042282
Z_d:_Array_InternalArray__IndexOf_TisSlot_t2267560602_m1912863273_gshared
uHk:_Mesh_get_uv3_m1531319041
NUa:__ZNK14PlayableOutput11DerivesFromE17ScriptingClassPtr
$Va:__ZN7Texture34CreateFileTextureUploadInstructionE18TextureUploadFlagsj
pqa:__ZN13ComputeShader14SetBufferParamEjRKN9ShaderLab16FastPropertyNameE15ComputeBufferID
HZi:___cxx_global_var_init_2_13741
H2e:_ReadOnlyCollection_1_System_Collections_Generic_IListU3CTU3E_Insert_m3054305464_gshared
ZC:__ZN8Animator8TransferI14SafeBinaryReadEEvRT_
xVi:__ZN15dense_hashtableINSt3__24pairIK10KeyWrapperIP11Il2CppClassES4_EES5_N6il2cpp8metadata16SZArrayClassHashEN14dense_hash_mapIS5_S4_SA_NS5_14EqualsComparerINS9_19SZArrayClassCompareEEENS0_9allocatorIS7_EEE9SelectKeyESE_SG_E4swapERSJ_
q$d:_Array_InternalArray__IndexOf_TisTypeTag_t141209596_m2882894956_gshared
jBg:_Slider_get_value_m4182660424
U2:__Z23AsyncReadForceCloseFileRKN4core12basic_stringIcNS_20StringStorageDefaultIcEEEE
kt:__ZN17AnimationPlayable34CollectAnimatorControllerPlayablesER13dynamic_arrayIP26AnimatorControllerPlayableLj4EE
kO:__ZN16BaseVideoTexture19UpdateVideoTexturesEv
nMa:__Z28BuildSingleStreamChannelInfo17ShaderChannelMaskRK20VertexChannelsLayoutS_S2_P11ChannelInfo
cIa:__ZNK16LightmapSettings23HasLightProbeTetrahedraEv
Bef:_Context_get_WriteSequenceNumber_m243492531
y$a:__ZN6Sprite23VirtualRedirectTransferER19StreamedBinaryWriteILb0EE
u7c:_String_LastIndexOfAny_m1473637802
Tic:__Z38Transform_CUSTOM_INTERNAL_set_positionP12Il2CppObjectRK8Vector3f
YHk:_PlayerEditorConnectionEvents_InvokeMessageIdSubscribers_m795891627
pGi:__ZNK15dense_hashtableINSt3__24pairIK10KeyWrapperINS1_IPK9FieldInfoP11Il2CppClassEEEjEES9_17ReflectionMapHashIS8_EN14dense_hash_mapIS9_jSD_NS9_14EqualsComparerINS0_8equal_toIS8_EEEENS0_9allocatorISB_EEE9SelectKeyESI_SK_E5beginEv
cSa:__ZNK9ShaderLab7Program19HasMatchingVariantsERK13dynamic_arrayI16ShaderKeywordSetLj4EE
TA:__ZN15SerializeTraitsIN4math4trsXEE8TransferI8BlobSizeEEvRS1_RT_
vga:__ZN14DataBufferGLES11CopySubDataEPKS_jjj
fe:_emscripten_glVertexPointer
zua:__ZNSt3__26__treeI20DeviceDepthStateGLES11memcmp_lessIS1_S1_ENS_9allocatorIS1_EEE7destroyEPNS_11__tree_nodeIS1_PvEE
hld:_Graphic__ctor_m821539719
bti:__ZN6il2cpp2vm7Runtime47RaiseExecutionEngineExceptionIfMethodIsNotFoundEPK10MethodInfo
tRb:__Z17GetFrustumPortionPK8Vector3fffPS_
S8i:__ZN15dense_hashtableINSt3__24pairIK10KeyWrapperIP14Il2CppIUnknownEjEES5_N6il2cpp5utils11PointerHashIS3_EEN14dense_hash_mapIS5_jSB_NS5_14EqualsComparerINS0_8equal_toIS4_EEEENS0_9allocatorIS7_EEE9SelectKeyESG_SI_E14squash_deletedEv
lNa:__ZN5Light13AwakeFromLoadE17AwakeFromLoadMode
djd:_DefaultControls_CreateDropdown_m1384069408
Xcd:_PointerEventData_get_clickCount_m4064532478
mTd:_EventArgs__cctor_m1350395667
Jaa:__ZNK9GfxDevice27GetPlatformAdjustedViewportEv
PTd:_CCGregorianCalendar_is_leap_year_m567513478
wvd:_Attribute_IsDefined_m2118467641
Grh:_SpriteAtlasManager_Register_m447878083
kge:_PrivateKeyInfo_Normalize_m3959595934
nUg:_InternalEnumerator_1_System_Collections_IEnumerator_get_Current_m3125080595_gshared
UXe:_Collection_1_System_Collections_IList_Add_m2091889616_gshared
z7b:__ZN16StreamedResource8TransferI24GenerateTypeTreeTransferEEvRT_
zkd:_DropdownItem_OnPointerEnter_m761897861
nra:__ZN10Matrix3x3f15InvertTransposeEv
WWd:_Array_InternalArray__ICollection_Remove_TisKeyValuePair_2_t1174980068_m2768765894_gshared
dJb:__Z11IsBatchmodev
CVe:_Collection_1_set_Item_m2199807215_gshared
cqb:__Z29Transfer_Blittable_ArrayFieldI14SafeBinaryRead8Vector3fEvRT_R9ArrayInfoRK23StaticTransferFieldInfo
aPf:_UInt32_System_IConvertible_ToBoolean_m91295134
GJf:_Monitor_Monitor_test_synchronised_m1542589500
bxc:__ZN20TextRenderingPrivate8FontImpl18ResetCachedTextureEv
Zge:_SymmetricTransform_TransformFinalBlock_m4192185386
Nle:_TextInfo__ctor_m1263401274
YEj:_GC_print_finalization_stats
jJg:_ValueCollection__ctor_m927733289_gshared
vdc:__Z53Register_UnityEngine_Behaviour_get_isActiveAndEnabledv
Ymf:_IPAddress_ToString_m267966740
eq:__ZNSt3__26vectorIN4core12basic_stringIcNS1_20StringStorageDefaultIcEEEENS_9allocatorIS5_EEE8__appendEj
U6a:__ZN26PlayerSettingsSplashScreen8TransferI17RemapPPtrTransferEEvRT_
_Xg:_InternalEnumerator_1_get_Current_m3922357178_gshared
qki:__ZN6il2cpp6icalls8mscorlib6SystemL17CollectTypeFieldsINS_5utils10functional10TrueFilterEEEvP11Il2CppClassPKS7_iRNSt3__26vectorIP9FieldInfoNSB_9allocatorISE_EEEERKT_
RMf:_Type_get_IsValueType_m1733572463
o$b:__Z13GetTagManagerv
yXd:_Array_InternalArray__ICollection_Remove_TisUInt16_t986882611_m65494986_gshared
v1e:_ReadOnlyCollection_1_IndexOf_m3054637117_gshared
xOh:__ZL10roundUp128PyS_
NQ:__ZN11UnityEngine15CloudWebService17CloudJobSchedulerD0Ev
p6c:_String_System_IConvertible_ToBoolean_m2696751322
h9a:__ZN18LoadSceneOperation7PerformEv
MLc:__ZNK2UI11CanvasGroup22GetTypeVirtualInternalEv
PGk:_Matrix4x4_MultiplyPoint3x4_m1436516889
x7c:_String_LastIndexOfAny_m4281325295
Wlg:__Z163RuntimeInvoker_Void_t1841601450_RuntimeObject_Int32_t2071877448_SByte_t454417549_SByte_t454417549_SingleU26_t4173844468_SingleU26_t4173844468_SingleU26_t4173844468PFvvEPK10MethodInfoPvPS4_
xej:__ZNSt3__214__split_bufferIPK11Il2CppClassRNS_9allocatorIS3_EEE7__allocEv
Nlc:__Z21CleanupGlobalGUIStatev
uLf:_TimeSpan__ctor_m1888018443_AdjustorThunk
xsg:__Z74RuntimeInvoker_Int32_t2071877448_UIVertex_t1204258818_UIVertex_t1204258818PFvvEPK10MethodInfoPvPS4_
$Ed:_SyncHashtable_get_Count_m3694444082
szb:__Z18Transfer_BlittableI18StreamedBinaryReadILb0EELb1EN4math12int3_storageEEvRK29SerializationCommandArgumentsR31RuntimeSerializationCommandInfo
VTh:__ZNSt3__213__vector_baseIPK10Il2CppTypeNS_9allocatorIS3_EEE5clearEv
Xsa:__ZN22VertexDeclarationCache5ClearEv
_bb:__ZN15CacheWriterBase18GetAddressOfMemoryEv
Qv:__Z27ProcessRootMotionEmptyMixerP35AnimationPlayableEvaluationConstantP32AnimationPlayableEvaluationInputP33AnimationPlayableEvaluationOutput
ZSb:__ZN6Camera24PrepareCullingParametersERK23CameraCullingParameters13RenderingPathR11CullResults
K9b:__Z12SetIUISystemP9IUISystem
u9a:__ZN19RuntimeSceneManager22EndIntegrateMainThreadEP10UnitySceneNS_11LoadingModeE
Erb:__Z26Transfer_UnityEngineObjectI17RemapPPtrTransferLb0EEvRK29SerializationCommandArgumentsR31RuntimeSerializationCommandInfo
E7c:_String_IsNullOrEmpty_m2802126737
hyd:_Byte_Parse_m1442736478
Rqe:_Int64_Parse_m3258022240
o7c:_String_IndexOfOrdinal_m3591623977
bEf:_CryptoConfig_EncodeLongNumber_m2352037787
tNf:_Type_GetMethod_m475234662
X6g:_ActivationServices_get_ConstructionActivator_m1726426854
Ztb:__Z29Transfer_Blittable_ArrayFieldI24GenerateTypeTreeTransfer4AABBEvRT_R9ArrayInfoRK23StaticTransferFieldInfo
t8j:__ZL52Activator_t1850728717_CustomAttributesCacheGeneratorP21CustomAttributesCache
kGj:_GC_adj_bytes_allocd
S0d:_Array_InternalArray__ICollection_Add_TisKeyframe_t1449471340_m887263954_gshared
w2d:_Array_InternalArray__Insert_TisDateTime_t693205669_m1484996356_gshared
DJe:_List_1_System_Collections_IList_Remove_m3933652540_gshared
wve:_MonoIO_get_ConsoleInput_m2976499023
hgi:__ZNSt3__216allocator_traitsIN6il2cpp2gc9AllocatorIP17Il2CppAsyncResultEEE20__construct_backwardIPS5_EEvRS6_T_SB_RSB_
gZf:_OpCode_get_Size_m481593949_AdjustorThunk
yCd:_BitArrayEnumerator_checkVersion_m3839504595
Mtd:_Array_GetUpperBound_m1352329707
tXi:__ZNKSt3__214__split_bufferIN6il2cpp8metadata18GenericArrayMethodERNS_9allocatorIS3_EEE8capacityEv
jPi:__ZN6il2cpp2vmL26GetReflectionMissingObjectEv
r8i:__ZN6il2cpp6icalls8mscorlib6System10Reflection10MonoMethod19get_base_definitionEP22Il2CppReflectionMethod
Ca:invoke_fiiifii
$6c:_String_TrimEnd_m3153143011
cOd:_DateTimeOffset_Equals_m3728302791_AdjustorThunk
bQa:__ZN20SphericalHarmonicsL219AddDirectionalLightERKN4math7_float3ERKNS0_7_float4E
fkh:_X509Extension_Equals_m1304125015
qMf:_TimeSpan_op_GreaterThanOrEqual_m3997050520
T6:__Z26ScheduleJobForEachInternalR8JobFencePFvPvjES1_iPFvS1_E11JobPriority
Wof:_OidEnumerator_MoveNext_m1889267785
QIb:__ZZ23InitPlayerLoopCallbacksvEN41PostLateUpdateProfilerEndFrameRegistrator7ForwardEv
gac:__ZN9Scripting18RaiseMonoExceptionEPKcz
gXa:__ZN9Texture2D8TransferI19StreamedBinaryWriteILb0EEEEvRT_
gAh:_TweenRunner_1_StartTween_m3792842064_gshared
Z3b:__ZN9ShaderLab16FastPropertyName15InitBy28BitHashEj
y5c:_Single_System_IConvertible_ToInt32_m3269519527_AdjustorThunk
hMh:_TextGenerationSettings_Equals_m1603221718
t0c:_SHA1Internal_ProcessBlock_m4070037334
LEa:__ZN17PersistentManager17IsObjectAvailableEi
s6g:_Marshal_copy_from_unmanaged_m98320635
C3d:_Array_InternalArray__set_Item_TisDouble_t4078015681_m24756265_gshared
dDk:_Display_RelativeMouseAtImpl_m700362000
nsh:_Vector2_get_right_m4262310679
u1b:__ZN13ProduceHelperIN2UI13RectTransformELb0EE7ProduceE18MemLabelIdentifier18ObjectCreationMode
A2a:__ZN17PackedFloatVector12UnpackFloatsEPfiiii
m$e:_ReadOnlyCollection_1__ctor_m3671019970_gshared
Uy:__ZN17AnimationPlayable28UpdateInternalStateRecursiveILi3ELb0EEEvPK35AnimationPlayableEvaluationConstant
Jda:__ZN13GfxDeviceGLES21DestroyComputeProgramER12ObjectHandleI18ComputeProgram_TagPvE
XId:_Convert_ToDecimal_m2007036836
H4:__ZN17UniqueIDGenerator16DestroyPureIndexEj
l1:__ZL21AppendNestedClassName17ScriptingClassPtrRN4core17string_with_labelILi1EEE
jdb:__ZN14SafeBinaryRead21TransferSTLStyleArrayINSt3__26vectorIN9ShaderLab20SerializedSubProgram12UAVParameterENS1_9allocatorIS5_EEEEEEvRT_17TransferMetaFlags
c9g:_Context_NotifyDynamicSinks_m1367144344
WR:__ZN24TextDOMTransferWriteBaseI9JSONWriteE12PushMetaFlagEi
ksc:__Z18Transfer_BlittableI8JSONReadLb1E10ColorRGBAfEvRK29SerializationCommandArgumentsR31RuntimeSerializationCommandInfo
cdf:_TlsClientCertificateVerify__ctor_m110646389
ima:__ZN6prcoreL26RemapGenericIntegerToFloatI17TexFormatARGB888815TexFormatRFloatEEvPKNS_9InnerInfoE
jUh:__ZNSt3__26vectorIjNS_9allocatorIjEEEC2Ev
l9g:_Context_GetServerContextSinkChain_m390126977
Oyi:__ZN6il2cpp2vm17TypeNameParseInfoD2Ev
HI:__ZN4FMOD7Channel7setModeEj
dxe:_StringReader_Read_m513112775
VYa:__ZNK8Renderer8GetLayerEv
IKa:__ZN12FlareManager11DeleteFlareEi
BNb:__ZNK6Camera20GetReplacementShaderEv
wUk:_glProgramBinary__wrapper
WOd:_Decimal__ctor_m569480123_AdjustorThunk
rmf:_HttpWebRequest__cctor_m3013631978
mMj:__ZNSt3__26__treeINS_12__value_typeINS_12basic_stringIcNS_11char_traitsIcEENS_9allocatorIcEEEEPFvvEEENS_19__map_value_compareIS7_SA_NS_4lessIS7_EELb1EEENS5_ISA_EEE4findIS7_EENS_15__tree_iteratorISA_PNS_11__tree_nodeISA_PvEEiEERKT_
xdb:__ZNSt3__26vectorIN9ShaderLab20SerializedSubProgram14ConstantBufferENS_9allocatorIS3_EEE7reserveEj
xja:__ZL23stbir__calculate_memoryP11stbir__info
yag:__Z83RuntimeInvoker_Void_t1841601450_Int64_t909078037_Int32_t2071877448_Int64_t909078037PFvvEPK10MethodInfoPvPS4_
$xg:_Scrollbar_FindSelectableOnRight_m3219495255
PFk:_Logger_IsLogTypeAllowed_m243840823
EKb:__ZNK6Camera18GetRenderRectangleEv
D2h:__ZN6il2cpp5utils13dynamic_arrayIPK10Il2CppTypeLj4EE7reserveEj
sti:__ZN6il2cpp2os6Atomic8ExchangeEPVjj
J0a:__ZN13sorted_vectorIN4core12basic_stringIcNS0_20StringStorageDefaultIcEEEENSt3__24lessIS4_EE13stl_allocatorIS4_L18MemLabelIdentifier81ELi16EEE4findIS4_EENS5_11__wrap_iterIPS4_EERKT_
f2d:_Array_InternalArray__ICollection_CopyTo_TisVector3_t2243707580_m509487340_gshared
Rsc:__ZL26Transfer_SimpleNativeClassI8JSONRead10RectOffsetLb1EEvRK29SerializationCommandArgumentsR31RuntimeSerializationCommandInfo
mzj:__ZN4utf88internal6mask16IDsEEtT_
ZOc:__Z44CanvasRenderer_CUSTOM_INTERNAL_CALL_SetColorP12Il2CppObjectRK10ColorRGBAf
mbi:__ZNKSt3__213__vector_baseI6pollfdNS_9allocatorIS1_EEE8capacityEv
vgi:__ZNSt3__217__compressed_pairIPP17Il2CppAsyncResultRN6il2cpp2gc9AllocatorIS2_EEEC2ES3_S8_
Qni:__ZNSt3__26vectorIPK10MethodInfoNS_9allocatorIS3_EEE9push_backERKS3_
qEj:_GC_should_collect
j7g:_UrlAttribute_Equals_m1587451932
Ltj:__ZNSt3__26__treeINS_12basic_stringIcNS_11char_traitsIcEENS_9allocatorIcEEEENS_4lessIS6_EENS4_IS6_EEE12__find_equalIS6_EERPNS_16__tree_node_baseIPvEESG_RKT_
Gpc:__Z18Transfer_BlittableI9JSONWriteLb1EsEvRK29SerializationCommandArgumentsR31RuntimeSerializationCommandInfo
fpe:_Int16_ToString_m4099416068_AdjustorThunk
pYc:_DSAParameters_t1872138834_marshal_pinvoke_cleanup
Sac:__ZN9Transform16SetLocalRotationERK11Quaternionf
yJb:__ZN13RenderManager37RenderCamerasWithScriptableRenderLoopEi
Bsi:___cxx_global_var_init_1_13083
Ade:_ASN1_Element_m2600236165
IY:__ZN23InstancedPropInfoStaticL16RegisterCallbackEPv
aB:__ZN7mecanim8skeleton25SkeletonPoseComputeLocalQEPKNS0_8SkeletonEPKNS0_13SkeletonPoseTIN4math4trsXEEEPS7_ii
tnj:__ZN6il2cpp2os19ReleaseSocketHandleEj
AN:__ZN11AudioModule16GetDSPSampleRateEv
Lxj:__ZN15dense_hashtableINSt3__24pairIK10KeyWrapperIPK19Il2CppGenericMethodEP10MethodInfoEES6_N6il2cpp8metadata23Il2CppGenericMethodHashEN14dense_hash_mapIS6_S9_SD_NS6_14EqualsComparerINSC_26Il2CppGenericMethodCompareEEENS0_9allocatorISA_EEE9SelectKeyESH_SJ_E5clearEv
YUf:_TypeBuilder_get_next_table_index_m1415870184
wPk:___cxa_can_catch
g8e:_SequentialSearchPrimeGeneratorBase_GenerateNewPrime_m296245934
mzd:_Char_GetUnicodeCategory_m4273361321
Iye:_Math_Round_m565516458
V8g:_Identity_get_ClientDynamicProperties_m767245959
Qpj:__ZN6il2cpp2os5posix15PosixWaitObjectC2ENS2_4TypeE
NLb:__ZN6Camera21PostMultiCustomRenderENS_10RenderFlagEb
NZf:_TypeBuilder_create_generic_class_m986834171
Xpa:__ZN12_GLOBAL__N_112UploadImagesEP7ApiGLESjji14GraphicsFormatPKhjS2_iiii16TextureUsageModePh
CGb:__ZN23ShaderVariantCollection13WarmupShadersEv
brh:_Transform_set_rotation_m2824446320
oef:_Context_set_ProtocolNegotiated_m1177527245
ePf:_UInt32_System_IConvertible_ToChar_m1056040486
S0:__Z25GetCommonScriptingClassesv
Xjf:_TlsStream_get_Length_m1562309511
Y9a:__Z27scripting_gc_collect_unsafei
FN:__ZN11AudioModule20SuspendVideoTexturesEv
KP:__Z59Register_UnityEngine_AudioExtensionManager_GetAudioListenerv
u3b:__ZN12CubemapArrayC2E18MemLabelIdentifier18ObjectCreationMode
ZOj:__ZNSt3__26__treeIPFvvENS_4lessIS2_EENS_9allocatorIS2_EEE16__construct_nodeIJRKS2_EEENS_10unique_ptrINS_11__tree_nodeIS2_PvEENS_22__tree_node_destructorINS5_ISE_EEEEEEDpOT_
jHd:_Convert_ToByte_m395020137
qtb:__Z26Transfer_UnityEngineObjectI24GenerateTypeTreeTransferLb0EEvRK29SerializationCommandArgumentsR31RuntimeSerializationCommandInfo
Nzc:_UNITY_FT_GlyphLoader_CheckPoints
GOk:___cxa_get_globals_fast
Sxe:_TextWriter_WriteLine_m1754475888
EKa:__ZN15SharedLightData7PrecalcEv
QFa:__ZN10Matrix4x4fmLERKS_
Ioi:__ZNSt3__216allocator_traitsINS_9allocatorIPK10MethodInfoEEE11__constructIS4_JRKS4_EEEvNS_17integral_constantIbLb1EEERS5_PT_DpOT0_
c8d:_Array_InternalArray__get_Item_TisDouble_t4078015681_m2215331088_gshared
Owb:__Z35Transfer_Blittable_FixedBufferFieldI18StreamedBinaryReadILb1EEsEvRK29SerializationCommandArgumentsR31RuntimeSerializationCommandInfo
gKg:_Dictionary_2_Init_m3666073812_gshared
xnj:__ZN6il2cpp2os6Socket5CloseEv
SAa:__ZN15ArchiveReadFileD0Ev
Sge:_SymmetricTransform_TransformBlock_m1524716432
nwh:_GUIUtility_TakeCapture_m1786193394
VZd:_Array_compare_TisColor32_t874517518_m3842009370_gshared
jSc:__ZN11UnityEngine15PlatformWrapper18GetOperatingSystemEv
O3e:_ReadOnlyCollection_1_System_Collections_Generic_ICollectionU3CTU3E_Remove_m974176789_gshared
tQd:_Delegate_return_type_match_m4278947849
ard:_InputField_GenerateHightlight_m1346735465
wEk:_UnityEventBase_ToString_m2323130098
Xfh:_Uri_ParseNoExceptions_m1151989845
CGd:_GC_SuppressFinalize_m953228702
Czc:_FT_MSB
vzf:_SoapServices_PreLoad_m490411755
j5b:__ZZL23RegisterLightPropertiesR22GenericPropertyBindingEN29Wrapper_LightShadowNormalBias13GetFloatValueEPv
lnh:_RectOffset__ctor_m2517237351
Q7f:__Z63RuntimeInvoker_RuntimeObject_Int32_t2071877448_SByte_t454417549PFvvEPK10MethodInfoPvPS4_
qOj:__ZN6il2cpp6icalls8mscorlib4Mono8Security12Cryptography18KeyPairPersistence10_CanSecureEP12Il2CppString
$Rg:_Action_1_Invoke_m4180501989_gshared
TAg:_Slider__ctor_m3124136916
caa:__ZN13GfxDeviceGLES14SetRasterStateEPK17DeviceRasterState
Spd:_InputField_set_caretPositionInternal_m231166704
Kdf:_TlsServerHello__ctor_m3032108168
Vua:__ZN14SafeBinaryRead11EndTransferEv
a0j:__ZL98ILGenerator_t99948092_CustomAttributesCacheGenerator_ILGenerator_Mono_GetCurrentOffset_m3553856682P21CustomAttributesCache
dob:__ZN14SafeBinaryRead8TransferI8MonoPPtrEEvRT_PKc17TransferMetaFlags
l0g:_InternalEnumerator_1_System_Collections_IEnumerator_get_Current_m1533037706_gshared
Xqa:__ZN21UniformBufferTFMethod13MapBoneBufferEj
Ahf:_RecordProtocol_SendChangeCipherSpec_m3542001341
n4d:_Array_InternalArray__set_Item_TisVector3_t2243707580_m1390667454_gshared
Wkc:__ZN12GUIClipState10BeginOnGUIER10InputEvent
$0i:__ZNSt3__26vectorIcNS_9allocatorIcEEEC2Ej
Pee:_KeyPairPersistence_CanSecure_m2251009700
Gw:__ZN7mecanim5human14HumanPoseClearERNS0_9HumanPoseERKNS_6bitsetILj70EEE
axf:_ReturnMessage_get_Properties_m531965085
ZWf:_GenericTypeParameterBuilder_IsSubclassOf_m563999142
BTd:_Exception_ToString_m627574695
t_f:_AddEventAdapter_Invoke_m3970567975
umc:__Z30Event_Get_Custom_PropModifiersP12Il2CppObject
IFi:__ZN30dense_hashtable_const_iteratorINSt3__24pairIK10KeyWrapperINS1_IPK9FieldInfoP11Il2CppClassEEEjEES9_17ReflectionMapHashIS8_EN14dense_hash_mapIS9_jSD_NS9_14EqualsComparerINS0_8equal_toIS8_EEEENS0_9allocatorISB_EEE9SelectKeyESI_SK_E30advance_past_empty_and_deletedEv
Bt:__ZN7mecanim9animation16CreateClipOutputEPKNS0_4ClipERNS_6memory9AllocatorE
x2d:_Array_InternalArray__Insert_TisDecimal_t724701077_m1429254816_gshared
ibg:__Z191RuntimeInvoker_Int32_t2071877448_RuntimeObject_Int32_t2071877448_Int32_t2071877448_RuntimeObject_Int32_t2071877448_SByte_t454417549_Int32U26_t455636984_BooleanU26_t3168250738_SByte_t454417549PFvvEPK10MethodInfoPvPS4_
yLf:_TimeSpan_get_Days_m1002111510
CBb:__ZNSt3__218__stable_sort_moveIRN10vector_mapI17ScriptingClassPtrPKN5Unity4TypeENS_4lessIS2_EENS_9allocatorINS_4pairIS2_S6_EEEEE13value_compareENS_11__wrap_iterIPSB_EEEEvT0_SJ_T_NS_15iterator_traitsISJ_E15difference_typeEPNSM_10value_typeE
dcb:__ZN6Shader21AwakeFromLoadThreadedEv
kla:__ZN6prcoreL17RemapGenericFloatI17TexFormatRGBFloat17TexFormatRGBAHalfEEvPKNS_9InnerInfoE
mvk:__ZL70InputField_t1631627530_CustomAttributesCacheGenerator_m_CharacterLimitP21CustomAttributesCache
STj:__ZN6il2cpp2os9SemaphoreC2Eii
jUg:_InternalEnumerator_1_get_Current_m2960188445_AdjustorThunk
fob:__ZNSt3__26vectorI8MonoPPtr13stl_allocatorIS1_L18MemLabelIdentifier1ELi16EEE8__appendEj
sCg:_Text_set_alignByGeometry_m1514652028
rMb:__ZN14qsort_internal30FindAndMovePivotToLastPositionIP17RODataReplacementi19ROSorterReplacementEEvT_S4_T0_T1_
gra:__ZN15UniformTFMethod20IsBoneCountSupportedEi
SFk:_Logger_Log_m3493909485
Xte:_FileStream_get_Position_m465478322
v0h:__ZN14dense_hash_setI10KeyWrapperIPK19Il2CppGenericMethodEN6il2cpp8metadata23Il2CppGenericMethodHashENS4_14EqualsComparerINS6_26Il2CppGenericMethodCompareEEENSt3__29allocatorIS4_EEEC2EjRKS7_RKSA_
EQk:dynCall_viidi
B2d:_Array_InternalArray__Insert_TisInt64_t909078037_m3039874636_gshared
cDg:_ToggleGroup_NotifyToggleOn_m997426227
Khf:_RSASslSignatureDeformatter_SetKey_m1150106904
E_:__ZN24ScriptingMethodFiltering17FilterOnSignatureENS_18MethodSearchFilterE
Lxg:_Scrollbar_ClickRepeat_m3403943364
DO:__ZN13ProduceHelperI9AudioClipLb0EE7ProduceE18MemLabelIdentifier18ObjectCreationMode
YXb:__ZN18ScreenManagerWebGL13SetLockCursorE14CursorLockMode
hGc:_cf2_arrstack_finalize
mAe:_MonoType_GetMethodsByName_m1854415088
aEg:_Enumerator_get_CurrentValue_m3147984131_gshared
fVf:_DerivedType_GetMethods_m165266904
xge:_RSAManaged_EncryptValue_m4089823119
f1b:__ZN13MonoBehaviour19HandleNotificationsEPviR11MessageData
PBk:_Component_get_gameObject_m2159020946
wUj:__ZN6il2cpp2os9EventImpl5ResetEv
a6h:__ZN6il2cpp2vm13MetadataCache23GetMethodGenericContextEPK10MethodInfo
Vth:_Event_get_keyCode_m4176847855
Lue:_ReadDelegate_Invoke_m2091885836
oWf:_TypeBuilder_GetField_m2112455315
ZTk:b58
_Tk:b59
HTk:b52
STk:b53
FTk:b50
GTk:b51
XTk:b56
YTk:b57
VTk:b54
WTk:b55
YLd:_DateTime__ctor_m3604679583_AdjustorThunk
cCi:__ZNSt3__214__split_bufferINS_12basic_stringIcNS_11char_traitsIcEENS_9allocatorIcEEEERNS4_IS6_EEEC2EjjS8_
Mfe:_MACAlgorithm_Core_m2390605245
p$g:_InternalEnumerator_1_System_Collections_IEnumerator_get_Current_m30488070_gshared
_5b:__ZN10GameObject12CleanupClassEv
Saa:__ZN9GfxDevice25SetShaderPropertiesSharedERK19ShaderPropertySheet
Azh:_IndexedSet_1_GetEnumerator_m3646001838_gshared
Zha:__ZN18AsyncUploadManager19AsyncResourceUploadER9GfxDeviceii9TextureID
Yvg:_VertexHelper_AddUIVertexTriangleStream_m4009409241
H4b:__ZL25InitializeDefaultMaterialv
xPc:__Z53Register_UnityEngine_CanvasRenderer_get_materialCountv
YW:__GLOBAL__sub_I_runtime_graphics_lod_0_cpp
GDg:_VertexHelper_AddVert_m3290455716
Yya:__ZN17PersistentManager12UnloadStreamERKN4core12basic_stringIcNS0_20StringStorageDefaultIcEEEEb
v$b:__ZN14dense_hash_mapIN4core12basic_stringIcNS0_20StringStorageDefaultIcEEEE10vector_setI4PPtrI11SpriteAtlasENSt3__24lessIS8_EE13stl_allocatorIS8_L18MemLabelIdentifier81ELi16EEE20StringHash32FunctionIS4_ENS9_8equal_toIS4_EESC_INS9_4pairIKS4_SF_EELSD_81ELi16EEEixERSL_
T_a:__ZN13ScreenManager17RequestResolutionEiibi
yEf:_DESTransform__ctor_m4096028381
Pui:_il2cpp_unity_liveness_calculation_from_statics
jx:__ZNK26AnimatorControllerPlayable11DerivesFromE17ScriptingClassPtr
NKf:_Scheduler_get_Instance_m1989471839
FZa:__ZN8Renderer8TransferI17RemapPPtrTransferEEvRT_
ktg:__Z76RuntimeInvoker_Boolean_t3825574718_UIVertex_t1204258818_UIVertex_t1204258818PFvvEPK10MethodInfoPvPS4_
bWe:_Collection_1_Contains_m1299140035_gshared
qkj:___cxx_global_var_init_1_14663
UTk:_glBlitFramebuffer__wrapper
Y0d:_Array_InternalArray__ICollection_Add_TisUICharInfo_t3056636800_m968274080_gshared
KAh:_ObjectPool_1__ctor_m1532275833_gshared
fHh:__ZL24UnresolvedVirtualCall_71P12Il2CppObjectS0_S0_iS0_S0_S0_PK10MethodInfo
MNe:_List_1_GetIndex_m3262928832_gshared
cic:__Z33Sprite_CUSTOM_INTERNAL_get_borderP12Il2CppObjectP8Vector4f
XVb:__ZN16ReflectionProbes9GetCameraEv
Mgb:__ZL18IsGpuProgramUsable20ShaderGpuProgramTypePK6Shader
Zje:_ArgumentException__ctor_m2105824819
aOc:__ZN2UI6Canvas17SetSortingLayerIDEi
FXi:__ZNKSt3__26vectorIN6il2cpp8metadata18GenericArrayMethodENS_9allocatorIS3_EEE14__annotate_newEj
Ifd:_BaseMeshEffect_get_graphic_m3358796463
Jpj:__ZN6il2cpp2vm11MethodStack23CleanupForCurrentThreadEv
GKh:_Predicate_1_Invoke_m695569038_gshared
ADe:_Enumerator_VerifyState_m825848279_AdjustorThunk
ALa:__ZN20TierGraphicsSettings8TransferI24GenerateTypeTreeTransferEEvRT_
gwh:_GUIStyleState_Cleanup_m824895509
Rpb:__ZN14SafeBinaryRead21TransferSTLStyleArrayI13dynamic_arrayI4AABBLj4EEEEvRT_17TransferMetaFlags
wTa:__ZN18UnityPropertySheet8TransferI19StreamedBinaryWriteILb0EEEEvRT_
Yff:_TlsServerCertificate_checkServerIdentity_m3836435780
L7:__ZNSt3__26__treeINS_12__value_typeIiN11TypeManager18TypeCallbackStructEEENS_19__map_value_compareIiS4_NS_4lessIiEELb1EEENS_9allocatorIS4_EEE7destroyEPNS_11__tree_nodeIS4_PvEE
zhe:_PKCS12_Decrypt_m2353135969
w0j:__ZL93TypeBuilder_t3308873219_CustomAttributesCacheGenerator_TypeBuilder_IsAssignableTo_m3210661829P21CustomAttributesCache
LBk:_Color32_ToString_m685380321
U$f:_MonoEvent_ToString_m386956596
nkk:__ZL70RuntimePlatform_t1869584967_CustomAttributesCacheGenerator_FlashPlayerP21CustomAttributesCache
s5d:_Array_Sort_TisRuntimeObject_m3309514378_gshared
efa:__ZL19GetCameraTargetRectRK6Camerabb
jRc:__ZN11UnityEngine7Connect17XRDeviceInfoEventD0Ev
tGg:_Transform_1_BeginInvoke_m1786442111_gshared
Dne:_Int32_GetFormatException_m1729046182
lEa:__ZN13dynamic_arrayIN10GameObject13ComponentPairELj4EE6insertEPS1_RKS1_
gV:__ZN21UnityDefaultAllocatorI17LowLevelAllocatorE10DeallocateEPv
LNa:__ZN15SharedLightData22UpdateCookieTextureRefEv
wr:__ZN15PackedIntVector8TransferI14SafeBinaryReadEEvRT_
y_f:_FieldInfo_get_IsLiteral_m267898096
T5f:__Z45RuntimeInvoker_RuntimeObject_Int64_t909078037PFvvEPK10MethodInfoPvPS4_
Yif:_SslStreamBase_EndNegotiateHandshake_m1732321201
RGg:_Transform_1_BeginInvoke_m1167293475_gshared
kH:__ZN13AudioListener8DoUpdateEv
Ync:__ZN5Unity9rapidjson13GenericReaderINS0_4UTF8IcEES3_13JSONAllocatorE9ParseTrueILj1ENS0_25GenericInsituStringStreamIS3_EENS0_15GenericDocumentIS3_S4_S4_EEEEvRT0_RT1_
eHd:__Z13bankers_roundd
J6a:__ZN14SafeBinaryRead8TransferI5RectTIfEEEvRT_PKc17TransferMetaFlags
qi:_emscripten_glGenFramebuffers
mEd:_Hashtable_CopyTo_m2778915805
G7:__ZN17BaseObjectManager16StaticInitializeEPv
vUf:_ConstructorBuilder_get_IsCompilerContext_m2796899803
H_d:_Array_IndexOf_TisUIVertex_t1204258818_m613887160_gshared
FHd:_DateTime_CoreParse_m2014268103
mqc:__Z18Transfer_BlittableI9JSONWriteLb0EyEvRK29SerializationCommandArgumentsR31RuntimeSerializationCommandInfo
GRa:__ZN13RenderTexture15ThreadedCleanupEv
LZd:_Array_BinarySearch_TisRuntimeObject_m3361740551_gshared
lVa:__ZN12CubemapArray23VirtualRedirectTransferER14SafeBinaryRead
Ft:__ZN21AnimationClipPlayable16ProcessHumanPassEPK35AnimationPlayableEvaluationConstantPK32AnimationPlayableEvaluationInputP33AnimationPlayableEvaluationOutput
V3e:_ReadOnlyCollection_1_System_Collections_IList_Add_m616574295_gshared
Ene:_Int32_ProcessTrailingWhitespace_m2812079777
jhc:__Z43RectTransform_CUSTOM_INTERNAL_set_sizeDeltaP12Il2CppObjectRK13Vector2fIcall
Unf:_WebProxy__ctor_m3679722173
Ucj:__ZN15dense_hashtableINSt3__24pairIK10KeyWrapperINS1_IPKcS4_EEEiEES6_24NamespaceAndNamePairHashN14dense_hash_mapIS6_iS9_NS6_14EqualsComparerI26NamespaceAndNamePairEqualsEENS0_9allocatorIS8_EEE9SelectKeyESD_SF_E6insertERKS8_
Lwa:__ZN24GenerateTypeTreeTransfer18BeginArrayTransferEPKcS1_Ri17TransferMetaFlags
mia:__Z16DecompressCrunchPKhRjR13TextureFormatiiii18MemLabelIdentifier
km:___syscall51
L9h:__ZNKSt3__214__split_bufferIN6il2cpp2os19SocketHandleWrapperERNS_9allocatorIS3_EEE8capacityEv
om:___syscall54
Rfj:__ZNSt3__26__treeINS_12__value_typeIP24Il2CppReflectionAssemblyPvEENS_19__map_value_compareIS3_S5_NS_4lessIS3_EELb1EEENS_9allocatorIS5_EEE12__find_equalIS3_EERPNS_16__tree_node_baseIS4_EESH_RKT_
zhb:__ZN9ShaderLab9SubShader19CreateFromSubShaderERKS0_
XC:__ZNK8Animator20IsAnyRendererVisibleEv
OGc:_cff_builder_add_point1
cij:__ZN6il2cpp2vm5Image21GetCachedResourceDataEPK11Il2CppImageRKNSt3__212basic_stringIcNS5_11char_traitsIcEENS5_9allocatorIcEEEE
tnd:_HorizontalOrVerticalLayoutGroup_set_childControlWidth_m4209477792
N0d:_Array_InternalArray__ICollection_Add_TisUInt32_t2149682021_m2629016323_gshared
Omb:__Z18Transfer_BlittableI14SafeBinaryReadLb0E10ColorRGBAfEvRK29SerializationCommandArgumentsR31RuntimeSerializationCommandInfo
za:invoke_iiiiiiiiii
jP:__ZN11AudioSource25GetNumExtensionPropertiesEv
p2d:_Array_InternalArray__Insert_TisKeyValuePair_2_t888819835_m975554221_gshared
wag:__Z59RuntimeInvoker_RuntimeObject_Int64_t909078037_RuntimeObjectPFvvEPK10MethodInfoPvPS4_
i9a:__ZN18LoadSceneOperation19IntegrateTimeSlicedEi
YKf:_Scheduler_SchedulerThread_m2209572785
Eae:_SortKeyBuffer_GetResultAndReset_m2516956577
d_b:__ZN10FileSystem19SetCurrentDirectoryERKN4core12basic_stringIcNS0_20StringStorageDefaultIcEEEE
m1:__ZN16ScriptingManager24NotifyScriptCacheReleaseEi
sTg:_InternalEnumerator_1_get_Current_m2151132603_gshared
ndc:__Z47Register_UnityEngine_Coroutine_ReleaseCoroutinev
XH:__ZN15AudioReverbZone13SetFMODValuesEv
NZ:__ZL19StaticDestroyShaderPv
ae:_glRenderbufferStorageMultisample
$lh:_Ray_GetPoint_m2427899009
ry:__ZN23AnimationPlayableOutput17SetTargetAnimatorEP8Animator
Jrc:__ZN9JSONWrite8TransferI13dynamic_arrayIN4math12int3_storageELj4EEEEvRT_PKc17TransferMetaFlags
sjh:_X509Chain__ctor_m1113875360
g3e:_ReadOnlyCollection_1__ctor_m2387481411_gshared
rgf:_TlsServerHello_processProtocol_m1241336522
VWd:_Array_InternalArray__ICollection_Remove_TisKeyValuePair_2_t888819835_m1287715465_gshared
J9g:_ContextAttribute_IsContextOK_m3281216012
Wve:_PathTooLongException__ctor_m3212099251
xBf:_ObjectManager_RaiseDeserializationEvent_m1611173032
Fr:__ZN17PackedFloatVector8TransferI18StreamedBinaryReadILb0EEEEvRT_
nWa:__ZN7Cubemap23VirtualRedirectTransferER17RemapPPtrTransfer
kei:__ZNSt3__24listIP17Il2CppAsyncResultN6il2cpp2gc9AllocatorIS2_EEE5frontEv
ifc:__Z37Register_UnityEngine_Screen_get_widthv
m8b:__ZN22BlockMemoryCacheWriter11GetPathNameEv
Old:_Graphic_Rebuild_m2617722358
LNd:_DateTime_ToString_m3108726445_AdjustorThunk
_Q:__ZN19CloudServiceHandlerD2Ev
N7d:_Array_InternalArray__get_Item_TisTableRange_t2011406615_m602485977_gshared
TYi:__ZN14dense_hash_mapI10KeyWrapperIP11Il2CppClassES2_N6il2cpp8metadata16SZArrayClassHashENS3_14EqualsComparerINS5_19SZArrayClassCompareEEENSt3__29allocatorINSA_4pairIKS3_S2_EEEEE6insertERKSE_
Vqd:_InputField_Append_m2623574152
Tje:_ApplicationException__ctor_m1120437222
Yo:stackAlloc
Gdc:__Z44Camera_CUSTOM_INTERNAL_CALL_ScreenPointToRayP12Il2CppObjectRK8Vector3fR3Ray
bCa:__ZN25SingleBlockMemoryFileData4LockEPPv
vYf:_MethodBuilder_GetHashCode_m1713271764
OSe:_Collection_1_IsSynchronized_m1319022347_gshared
N9d:_MSCompatUnicodeTable_GetResource_m3816716847
tfc:__Z32RectOffset_Get_Custom_PropBottomP12Il2CppObject
$td:_Array_CreateInstance_m15016505
Ogj:__ZNSt3__212__tuple_implINS_15__tuple_indicesIJLj0EEEEJRKP24Il2CppReflectionAssemblyEEC2IJLj0EEJS6_EJEJEJS6_EEENS1_IJXspT_EEEENS_13__tuple_typesIJDpT0_EEENS1_IJXspT1_EEEENSA_IJDpT2_EEEDpOT3_
hpb:__ZNSt3__26vectorI17AnimationCurveTplIfE13stl_allocatorIS2_L18MemLabelIdentifier1ELi16EEE6assignINS_11__wrap_iterIPS2_EEEENS_9enable_ifIXaasr21__is_forward_iteratorIT_EE5valuesr16is_constructibleIS2_NS_15iterator_traitsISC_E9referenceEEE5valueEvE4typeESC_SC_
MLk:_stat
jHa:__ZN9ShaderLab10SubProgram7CompileEv
UMh:_Canvas_get_isRootCanvas_m3746337338
Q1d:_Array_InternalArray__ICollection_CopyTo_TisUInt16_t986882611_m3228377237_gshared
Xvk:__ZL68Navigation_t1571958496_CustomAttributesCacheGenerator_m_SelectOnDownP21CustomAttributesCache
dIa:__ZN6CameraD2Ev
l_c:_RC2_set_KeySize_m2015782960
la:invoke_iiiiiiiiiiii
nhe:_StrongName_get_PublicKey_m3777577320
dEk:_PersistentCallGroup_Initialize_m3729167844
LK:__ZN10AudioMixer12RebindOutputEv
QVi:__ZNK15dense_hashtableINSt3__24pairIK10KeyWrapperIP11Il2CppClassES4_EES5_N6il2cpp8metadata16SZArrayClassHashEN14dense_hash_mapIS5_S4_SA_NS5_14EqualsComparerINS9_19SZArrayClassCompareEEENS0_9allocatorIS7_EEE9SelectKeyESE_SG_E5beginEv
wSh:__ZN6il2cpp2vm17SetupFieldsLockedEP11Il2CppClassRKNS_2os12FastAutoLockE
mL:__ZN11AudioSourceD0Ev
klb:__ZN16MemoryFileSystem4NameEv
vad:_BaseRaycaster_OnEnable_m3641767070
b8e:_PrimeGeneratorBase_get_PrimalityTest_m308005118
Vjc:__Z13SetCopyBufferRKN4core12basic_stringIcNS_20StringStorageDefaultIcEEEE
VWi:__ZNSt3__2neIPKN6il2cpp8metadata18GenericArrayMethodEEEbRKNS_11__wrap_iterIT_EESA_
gIe:_List_1_CheckIndex_m2328469916_gshared
Tdg:__Z75RuntimeInvoker_RuntimeObject_RuntimeObject_Decimal_t724701077_RuntimeObjectPFvvEPK10MethodInfoPvPS4_
Ayc:_UNITY_FT_New_Size
vki:__ZNSt3__213__vector_baseIP9FieldInfoNS_9allocatorIS2_EEE7__allocEv
Dbc:__Z42ScriptingGetComponentsOfTypeFromGameObjectRK26ScriptingGetComponentsArgs
iuh:_GUI_set_changed_m3199207797
kai:__ZNSt3__216allocator_traitsINS_9allocatorIN6il2cpp2os19SocketHandleWrapperEEEE8allocateERS5_j
VQe:_List_1_get_Item_m3157283227_gshared
WKd:_Convert_ToString_m2915777777
TTa:__ZNSt3__27__sort4IRPFbRKNS_4pairIN9ShaderLab16FastPropertyNameEN18UnityPropertySheet11UnityTexEnvEEES8_EPS6_EEjT0_SD_SD_SD_T_
dGc:_cf2_hintmap_build
ZDc:_Line_Up
UAe:_MonoType_GetGenericTypeDefinition_m2363776160
yef:_Context_set_SentConnectionEnd_m2641458842
he:_emscripten_glBufferSubData
kxd:_Buffer_BlockCopyInternal_m2627156229
KYi:__ZN14dense_hash_mapI10KeyWrapperIP11Il2CppClassES2_N6il2cpp8metadata16SZArrayClassHashENS3_14EqualsComparerINS5_19SZArrayClassCompareEEENSt3__29allocatorINSA_4pairIKS3_S2_EEEEE3endEv
Hld:_Graphic_set_material_m329335629
ead:_ExecuteEvents_get_pointerExitHandler_m3250605428
mka:__ZN6prcoreL12RemapGenericI15TexFormatRGB88817TexFormatARGB8888EEvPKNS_9InnerInfoE
Op:__Z17CalculateGlobalRS23TransformAccessReadOnly
nce:_Kernel_multiByteDivide_m735279869
PMg:_Dictionary_2_ToTValue_m542772656_gshared
wKf:_Thread_GetNewManagedId_internal_m3211695465
KKj:__ZNKSt3__26__treeINS_12__value_typeINS_12basic_stringIcNS_11char_traitsIcEENS_9allocatorIcEEEEPFvvEEENS_19__map_value_compareIS7_SA_NS_4lessIS7_EELb1EEENS5_ISA_EEE6__rootEv
nOh:_UISystemProfilerApi_EndSample_m3264820872
Kha:__ZN17GenericDynamicVBO17DrawChunkInternalERK21DynamicVBOChunkHandle17ShaderChannelMaskS3_P17VertexDeclarationP16DrawBuffersRangeij
Npb:__ZN14SafeBinaryRead21TransferSTLStyleArrayI13dynamic_arrayI9BoundsIntLj4EEEEvRT_17TransferMetaFlags
Sbb:__ZN22MemoryCacherReadBlocks14LockCacheBlockEjPPhS1_
lwd:_Boolean_System_IConvertible_ToChar_m2637404801_AdjustorThunk
s4c:_SecurityContext_Capture_m2535194991
wOf:_UInt16_System_IConvertible_ToSByte_m3044765342_AdjustorThunk
DKb:__ZNK9GfxDevice26GetSinglePassStereoEyeMaskEv
_li:__ZNSt3__26__treeIP11Il2CppClassNS_4lessIS2_EENS_9allocatorIS2_EEE12__node_allocEv
Ocg:__Z66RuntimeInvoker_Void_t1841601450_Int64_t909078037_Int32_t2071877448PFvvEPK10MethodInfoPvPS4_
zxc:__ZN20TextRenderingPrivate8FontImpl16CacheFontForTextEPtiifjPK13dynamic_arrayINS_16TextFormatChangeELj4EE
G4d:_Array_qsort_TisUIVertex_t1204258818_TisUIVertex_t1204258818_m512606409_gshared
aYc:__Z21ArrayElementTypeCheckP11Il2CppArrayPv
iXk:_emscripten_glTexSubImage2D__wrapper
Flf:_NameValueCollection_AsSingleString_m10599052
VQb:__ZN14qsort_internal30FindAndMovePivotToLastPositionIP21ForwardRenderPassDataiN23ForwardShaderRenderLoop18RenderObjectSorterILb0EEEEEvT_S6_T0_T1_
UBe:_Object_InternalGetHashCode_m1371384246
Pvg:_Navigation_get_defaultNavigation_m2185194207
ype:_Int32_System_IConvertible_ToSByte_m1449623243_AdjustorThunk
lje:_AccessViolationException__ctor_m1270251537
DQc:__Z42Register_UnityEngine_Canvas_get_rootCanvasv
Ljh:_X509ExtensionCollection_IndexOf_m3972100651
cob:__Z14resize_trimmedINSt3__26vectorI8MonoPPtr13stl_allocatorIS2_L18MemLabelIdentifier1ELi16EEEEEvRT_j
Qe:_TTF_RenderText_Solid
W8h:__ZNK6il2cpp2os19SocketHandleWrapper7IsValidEv
qPf:_UInt32_System_IConvertible_ToInt64_m3091851828
bze:_MissingMethodException__ctor_m3898429715
Wyf:_RemotingConfiguration_RegisterClientProviderTemplate_m514821425
PEg:_Enumerator_System_Collections_IEnumerator_Reset_m3085583937_gshared
U7:__ZN15dense_hashtableINSt3__24pairIKPKcPK4RTTIEES3_N11TypeManager23ConstCharPtrHashFunctorEN14dense_hash_mapIS3_S7_SA_NS9_19ConstCharPtrEqualToE13stl_allocatorIS8_L18MemLabelIdentifier7ELi16EEE9SelectKeyESC_SF_E15insert_noresizeERKS8_
yge:_RSAManaged_ExportParameters_m2873993187
FGd:_Convert__cctor_m926133987
LRe:_Enumerator__ctor_m2816143215_AdjustorThunk
mVc:__ZN11UnityEngine7Connect16PersistentValuesC2Ev
Gqf:_X509Chain_FindParent_m404663796
Spc:__Z18Transfer_BlittableI9JSONWriteLb0E5RectTIiEEvRK29SerializationCommandArgumentsR31RuntimeSerializationCommandInfo
aze:_MissingMemberException__ctor_m2164043278
KOh:__ZL7log2_32j
poa:__Z15IsIEEE754Format14GraphicsFormat
Jrb:__Z19TransferField_ArrayI17RemapPPtrTransfer27Converter_UnityEngineObjectEvRK23StaticTransferFieldInfoR31RuntimeSerializationCommandInfoRT0_
Za:invoke_iifiii
are:_NumberFormatter_InitDecHexDigits_m1612588520
fca:__ZN13GfxDeviceGLES15UploadTexture2DE9TextureID16TextureDimensionPKhiii14GraphicsFormati18TextureUploadFlags16TextureUsageMode
dkj:___cxx_global_var_init_14646
OJ:__ZN4FMOD6System9createDSPEP20FMOD_DSP_DESCRIPTIONPPNS_3DSPE
Px:__ZN7mecanim9animation26DestroyControllerWorkspaceEPNS0_19ControllerWorkspaceERNS_6memory9AllocatorE
RF:__ZN4FMOD8ChannelI11EndCallbackEv
W1c:_ToBase64Transform_TransformBlock_m2201454137
Zlc:__ZN8GUIStyle14SetDefaultFontEPN13TextRendering4FontE
hZf:_OpCode_get_StackBehaviourPop_m3787015663_AdjustorThunk
Hbh:_PatternCompiler_EmitCount_m3609178511
l_a:__ZN15QualitySettings23VirtualRedirectTransferER24GenerateTypeTreeTransfer
QGi:__ZNK14dense_hash_mapI10KeyWrapperIPK10Il2CppTypeEjN6il2cpp8metadata14Il2CppTypeHashENS4_14EqualsComparerINS6_26Il2CppTypeEqualityComparerEEENSt3__29allocatorINSB_4pairIKS4_jEEEEE4sizeEv
Avi:__ZN6il2cpp2os10FileHandleC2Ev
o_h:__ZN30dense_hashtable_const_iteratorINSt3__24pairIK10KeyWrapperIPK19Il2CppGenericMethodEPK26Il2CppGenericMethodIndicesEES6_N6il2cpp8metadata23Il2CppGenericMethodHashEN14dense_hash_mapIS6_SA_SE_NS6_14EqualsComparerINSD_26Il2CppGenericMethodCompareEEENS0_9allocatorISB_EEE9SelectKeyESI_SK_EppEv
zkf:_HybridDictionary_Add_m1037587952
cyc:_UNITY_FT_Request_Metrics
YHa:__Z37GetBarycentricCoordinatesForOuterCellPPK8Vector3fRK13dynamic_arrayIS_Lj4EERS0_RK11TetrahedronR8Vector4fRf
x8i:__ZN6il2cpp6icalls8mscorlib6System10Reflection10MonoMethod29get_IsGenericMethodDefinitionEP22Il2CppReflectionMethod
C$i:__ZN6il2cpp2vm6Thread21AllocThreadStaticDataEi
wDi:__ZN14dense_hash_mapI10KeyWrapperINSt3__24pairIPK14Il2CppAssemblyP11Il2CppClassEEEj17ReflectionMapHashIS8_ENS9_14EqualsComparerINS1_8equal_toIS8_EEEENS1_9allocatorINS2_IKS9_jEEEEE4findERSH_
IHd:_DateTime_YearMonthDayFormats_m4204607055
nhd:_ColorBlock_set_disabledColor_m3502887543_AdjustorThunk
Vxj:__ZN30dense_hashtable_const_iteratorINSt3__24pairIK10KeyWrapperIPK19Il2CppGenericMethodEP10MethodInfoEES6_N6il2cpp8metadata23Il2CppGenericMethodHashEN14dense_hash_mapIS6_S9_SD_NS6_14EqualsComparerINSC_26Il2CppGenericMethodCompareEEENS0_9allocatorISA_EEE9SelectKeyESH_SJ_EppEv
uO:__Z13RegisterClassI13AudioListenerEvv
wBh:_Aes__ctor_m4020215067
ppc:__Z18Transfer_BlittableI9JSONWriteLb0E8Vector3fEvRK29SerializationCommandArgumentsR31RuntimeSerializationCommandInfo
Pf:_emscripten_glUniform4i
Mld:_Graphic_OnDisable_m2360886868
QAh:_ObjectPool_1_Release_m1615270002_gshared
$e:_emscripten_glUniform4f
vj:___unlock
Mza:__ZN15dense_hashtableINSt3__24pairIKN4core12basic_stringIcNS2_20StringStorageDefaultIcEEEEP20ArchiveStorageReaderEES6_20StringHash32FunctionIS6_EN14dense_hash_mapIS6_S9_SC_NS0_8equal_toIS6_EE13stl_allocatorISA_L18MemLabelIdentifier55ELi16EEE9SelectKeyESF_SI_ED2Ev
szg:_ScrollRect_InternalCalculateOffset_m3083065267
xYb:__ZN13sorted_vectorINSt3__24pairIN4core12basic_stringIcNS2_20StringStorageDefaultIcEEEES6_EEN10vector_mapIS6_S6_27compare_tstring_insensitiveIS6_E13stl_allocatorIS7_L18MemLabelIdentifier38ELi16EEE13value_compareESD_E9erase_oneIS6_EEjRKT_
FCd:_Comparer_Compare_m4132969818
XL:__ZN20SoundChannelInstance19setReverbPropertiesEP29FMOD_REVERB_CHANNELPROPERTIES
DOg:_DefaultComparer_Equals_m2171836276_gshared
U6i:__ZN6il2cpp2vm9Exception18GetFormatExceptionEPKc
Cjc:__Z40Register_UnityEngine_Transform_IsChildOfv
uGk:_Mathf_Floor_m484333823
xAd:_ArrayList_Sort_m923359189
$Ek:_Gradient_Init_m3042650694
uec:__Z45Register_UnityEngine_Display_GetSystemExtImplv
Eu:__ZN7mecanim9animation23TransformValuesFromClipEiiiRKNS_10ValueArrayERKNS0_10ClipOutputERKNS0_12ClipBindingsERS1_RNS_14ValueArrayMaskEb
GOh:__ZL17log2withScale_128yyi
LMc:__ZNSt3__218__insertion_sort_3IRNS_6__lessIN2UI14DepthSortEntryES3_EEPS3_EEvT0_S7_T_
v1b:__ZN2UI13RectTransform15InitializeClassEv
T5:__ZN13RuntimeStaticI15DirectorManagerLb0EE16StaticInitializeEPv
Lki:__ZNSt3__213__vector_baseIP9FieldInfoNS_9allocatorIS2_EEE9__end_capEv
ltc:__ZN8JSONRead8TransferI23ManagedObjectTransfererEEvRT_PKc17TransferMetaFlagsb
xKf:_Thread_get_ManagedThreadId_m1995754972
P9c:_BaseInput_get_touchCount_m998724785
y5a:__ZN11TimeManager6UpdateEv
$ii:__ZNKSt3__26vectorINS_4pairIPK10MethodInfoP11Il2CppClassEENS_9allocatorIS7_EEE11__recommendEj
nrd:_InputField_get_preferredWidth_m3185355225
oKf:_Thread_SetState_m3198426726
RAd:_ArrayListWrapper_Contains_m1158465965
TLk:_fflush
AGa:__ZN17LightProbeContext4InitERK16LightmapSettingsRK14RenderSettings
PUj:__GLOBAL__sub_I_Error_cpp
UEh:_AudioSource_INTERNAL_CALL_ReadExtensionPropertyName_m3694806886
Sdh:_Alternation_GetWidth_m4218808325
B4e:_ReadOnlyCollection_1_System_Collections_IList_Insert_m2651065875_gshared
Uzc:_ft_bitmap_glyph_bbox
Mlf:_TypeConverterAttribute__ctor_m4061167050
mRe:_Enumerator_MoveNext_m3315718998_gshared
Joj:__ZNSt3__26vectorI20Il2CppStackFrameInfoNS_9allocatorIS1_EEE7reserveEj
QFj:_GC_reclaim_uninit
kUb:__Z34ProcessIndexListIsNodeVisibleStep2RK22SceneCullingParametersPK9SceneNodePK4AABBR9IndexList
CDb:__ZN10MonoScriptD2Ev
zBg:_Slider_OnRectTransformDimensionsChange_m4109401172
Qnf:_WebHeaderCollection_Get_m3391944907
Qfc:__Z39Input_CUSTOM_INTERNAL_get_mousePositionP8Vector3f
_Cc:_tt_cmap13_char_next
whb:__ZN9ShaderLab4Pass16SetupPassOptionsEv
ch:_JS_Sound_ReleaseInstance
Iqi:__ZNSt3__2neIPKN6il2cpp6icalls8mscorlib6System12PropertyPairEEEbRKNS_11__wrap_iterIT_EESC_
bkk:__ZL72IL2CPPStructAlignmentAttribute_t130316838_CustomAttributesCacheGeneratorP21CustomAttributesCache
eba:__ZN13GfxDeviceGLES19DrawBuffersIndirectEP9GfxBufferPK18VertexStreamSourceiP17VertexDeclaration17ShaderChannelMask16GfxPrimitiveType15ComputeBufferIDj
Vid:_DefaultControls_CreateScrollbar_m770089625
VVk:_emscripten_glPixelStorei__wrapper
Ffg:__Z98RuntimeInvoker_Void_t1841601450_Int32_t2071877448_Int32_t2071877448_SByte_t454417549_RuntimeObjectPFvvEPK10MethodInfoPvPS4_
Am:FUNCTION_TABLE_diddi
Ghc:__Z26Material_CUSTOM_SetIntImplP12Il2CppObjectii
mne:_Int16_System_IConvertible_ToSingle_m3277935657_AdjustorThunk
Vni:__ZNSt3__26vectorIPK10MethodInfoNS_9allocatorIS3_EEE21__push_back_slow_pathIRKS3_EEvOT_
gjf:_SslStreamBase_get_KeyExchangeAlgorithm_m3712013038
iah:_InternalRemotingServices__cctor_m3821625125
Gfc:__Z42Register_UnityEngine_RectOffset_get_bottomv
uHf:_StringBuilder_Insert_m3322917127
iZh:__ZN30dense_hashtable_const_iteratorINSt3__24pairIK10KeyWrapperIPKcEP11Il2CppClassEES5_N6il2cpp5utils11StringUtils12StringHasherIS4_EEN14dense_hash_mapIS5_S8_SE_NS5_14EqualsComparerINSB_13VmStringUtils21CaseSensitiveComparerEEENS0_9allocatorIS9_EEE9SelectKeyESJ_SL_EC2EPK15dense_hashtableIS9_S5_SE_SN_SJ_SL_EPKS9_SU_b
MNg:_DefaultComparer_Equals_m724229128_gshared
EFg:_Enumerator_VerifyCurrent_m1702320752_AdjustorThunk
Opb:__ZN9BoundsInt8TransferI14SafeBinaryReadEEvRT_
wJd:_Convert_ToDouble_m3520060872
oVk:_emscripten_glUniform1f__wrapper
nQk:dynCall_di
ixi:__ZNSt3__24findINS_11__wrap_iterIPiEEiEET_S4_S4_RKT0_
Qhf:_SslCipherSuite_ComputeServerRecordMAC_m1876572367
jxc:__ZN20TextRenderingPrivate19NativeTextGeneratorC2ERK11UTF16StringPNS_8FontImplE11ColorRGBA32ifRK8Vector2fbifiibffbbbP13dynamic_arrayIN2UI8UIVertexELj4EE
Yoc:__Z28RegisterModule_JSONSerializev
hfj:__ZNKSt3__213__vector_baseIPK11Il2CppClassNS_9allocatorIS3_EEE7__allocEv
DJf:_Interlocked_CompareExchange_m3227034792
MYc:_HashAlgorithm_get_Hash_m931854461
D2g:_DefaultComparer_Compare_m3564013922_gshared
yib:__ZN2UI13RectTransform8TransferI14SafeBinaryReadEEvRT_
Csi:___cxx_global_var_init_95
iqc:__Z35Transfer_Blittable_FixedBufferFieldI9JSONWriteaEvRK29SerializationCommandArgumentsR31RuntimeSerializationCommandInfo
E9b:__Z20IsHumanControllingUsv
ZJb:__ZNK19RenderEventsContext21ExecuteCommandBuffersEijR17ShaderPassContextR15RenderNodeQueueP19ProfilerInformationi
XV:__ZNK20DynamicHeapAllocatorI17LowLevelAllocatorE10GetPtrSizeEPKv
gqh:_Texture2D_GetPixelBilinear_m3514551520
$u:__ZN17AnimationPlayable16AllocateBindingsEPK35AnimationPlayableEvaluationConstant
Gjd:_Dropdown_set_value_m2945561009
Xaa:__ZN13GfxDeviceGLES17DestroyGpuProgramEPK10GpuProgram
wke:_GregorianCalendar_GetMonth_m523739832
mmb:__Z44InitializeTransferFunctionScriptingTraitsForI18StreamedBinaryReadILb0EEEvR31TransferFunctionScriptingTraits
jQb:__ZNSt3__218__insertion_sort_3IR23CompareReflectionProbesP31RuntimeReflectionProbeBlendInfoEEvT0_S5_T_
Trb:__ZN12NativeBufferI27Converter_SimpleNativeClassI8GradientEE15SetupForWritingER9ArrayInfo
J8:__ZNSt3__213__stable_sortIRNS_4lessIN4core12basic_stringIcNS2_20StringStorageDefaultIcEEEEEENS_11__wrap_iterIPS6_EEEEvT0_SC_T_NS_15iterator_traitsISC_E15difference_typeEPNSF_10value_typeEi
HX:__ZN12_GLOBAL__N_113StaticDestroyEPv
Lme:_Guid_ToString_m51661589
eCg:_Text_set_font_m1095513810
Pej:__ZNKSt3__26vectorIPK11Il2CppClassNS_9allocatorIS3_EEE14__annotate_newEj
ZZk:_glUnmapBuffer__wrapper
LMd:_DateTime_System_IConvertible_ToUInt32_m1363211018_AdjustorThunk
God:_InputField_get_cachedInputTextGenerator_m881618486
Hgc:__Z32Mesh_CUSTOM_ExtractArrayFromListP12Il2CppObject
aTf:_Binder_get_DefaultBinder_m965620943
Qtc:__ZN8JSONRead21TransferSTLStyleArrayINSt3__26vectorI8Gradient13stl_allocatorIS3_L18MemLabelIdentifier1ELi16EEEEEEvRT_17TransferMetaFlags
V5a:__ZNSt3__218__insertion_sort_3IRNS_6__lessINS_4pairIPKN5Unity4TypeE7Hash128EES8_EEPS8_EEvT0_SC_T_
Btb:__ZN10RectOffset8TransferI24GenerateTypeTreeTransferEEvRT_
$ud:_SimpleEnumerator_get_Current_m482975946
Nsb:__Z18Transfer_BlittableI24GenerateTypeTreeTransferLb1E5RectTIiEEvRK29SerializationCommandArgumentsR31RuntimeSerializationCommandInfo
uIa:__ZNSt3__24listI4PPtrI6CameraENS_9allocatorIS3_EEE6removeERKS3_
uMc:__ZN2UI13CanvasManager19RemoveDirtyRendererEPNS_6CanvasEPNS_14CanvasRendererE
D1h:__ZN15dense_hashtableI10KeyWrapperIPK17Il2CppGenericInstES4_N6il2cpp8metadata21Il2CppGenericInstHashEN14dense_hash_setIS4_S7_NS4_14EqualsComparerINS6_24Il2CppGenericInstCompareEEENSt3__29allocatorIS4_EEE8IdentityESB_SE_E12resize_deltaEjj
Kac:__ZN8Material14DisableKeywordERKN4core12basic_stringIcNS0_20StringStorageDefaultIcEEEE
XRc:__ZN11UnityEngine15PlatformWrapper25GetGraphicsRendererStringEv
Bqd:_InputField_KeyPressed_m3066588581
EAg:_Selectable_DoStateTransition_m539253088
d1c:_SHA512_Create_m439875055
EU:__ZN11UnityEngine15CloudWebService17WebFileDownloaderINS0_20WebRequestRestClientENS0_23WebRequestRestHeaderMapEED2Ev
Qb:invoke_vi
X0c:_SHA384Managed_update_m2629600295
xrc:__ZN9JSONWrite8TransferI13dynamic_arrayI9BoundsIntLj4EEEEvRT_PKc17TransferMetaFlags
Ob:invoke_vd
pb:invoke_vf
d3:__ZNK10GameObject8IsActiveEv
lBe:_NumberFormatter__cctor_m1641464619
Ppk:__ZL67g_UnityEngine_PhysicsModule_Assembly_CustomAttributesCacheGeneratorP21CustomAttributesCache
hDf:_SByte_System_IConvertible_ToUInt32_m4256495110
tcd:_PointerEventData_set_eligibleForClick_m2036057844
doa:__ZN18GfxFramebufferGLES23SetupDefaultFramebufferEPP17RenderSurfaceBaseS2_N2gl6HandleILNS3_10ObjectTypeE9EEE
$Lk:_mbsinit
mrk:__ZL70EventSystem_t3466835263_CustomAttributesCacheGenerator_m_FirstSelectedP21CustomAttributesCache
o$a:__ZN13ScreenManager18RequestOrientationE17ScreenOrientation
g5h:__ZNSt3__29make_pairIRPKcP11Il2CppClassEENS_4pairINS_18__make_pair_returnIT_E4typeENS7_IT0_E4typeEEEOS8_OSB_
KIj:__ZNKSt3__210__list_impIPN6il2cpp5utils10MemoryPool6RegionENS_9allocatorIS5_EEE13__end_as_linkEv
r0h:__ZN14dense_hash_setI10KeyWrapperIPK19Il2CppGenericMethodEN6il2cpp8metadata23Il2CppGenericMethodHashENS4_14EqualsComparerINS6_26Il2CppGenericMethodCompareEEENSt3__29allocatorIS4_EEED2Ev
rVh:__ZN6il2cpp2vm5Class12SetupMethodsEP11Il2CppClass
$ac:__Z39DeleteLastPathNameComponentWithAnySlashRKN4core12basic_stringIcNS_20StringStorageDefaultIcEEEE
Zkc:__ZN10GUIManager14InitGUIManagerEv
ivk:__ZL68InputField_t1631627530_CustomAttributesCacheGenerator_m_KeyboardTypeP21CustomAttributesCache
KDg:_VerticalLayoutGroup_CalculateLayoutInputHorizontal_m497637066
wfj:__ZN6il2cpp2vmL25FindExportedClassMatchingEPK11Il2CppImagePKcS5_P11Il2CppClassb
Mvf:_MethodCall__ctor_m4106494862
o7f:__Z167RuntimeInvoker_Void_t1841601450_SByte_t454417549_SByte_t454417549_SByte_t454417549_SByte_t454417549_SByte_t454417549_SByte_t454417549_SByte_t454417549_SByte_t454417549PFvvEPK10MethodInfoPvPS4_
gnc:__Z37Register_UnityEngine_GUIStyle_Cleanupv
Ma:invoke_iiifii
Yqi:__ZN6il2cpp6icalls8mscorlib6System8MonoType13IsPointerImplEP20Il2CppReflectionType
gJd:_Convert_ToDecimal_m2284596541
Oi:_emscripten_glFramebufferRenderbuffer
$Sb:__ZN19CullingGroupManager17CullAndSendEventsERK22SceneCullingParametersiRK13CullingOutputRK8JobFence
Nqe:_Int64_GetHashCode_m4047499913
mEa:__ZN9Transform30EnsureTransformHierarchyExistsEv
zui:_il2cpp_field_get_flags
QN:__ZN11AudioModule26SetDefaultMicrophoneDriverEPv
xvd:_Attribute_IsDefined_m216577166
Bzd:_Char_ToUpper_m109978609
GXg:_InternalEnumerator_1_get_Current_m1089848479_gshared
ARd:_Double_System_IConvertible_ToInt64_m3798425616
ced:_StandaloneInputModule_get_repeatDelay_m3025279
I0a:__ZN14dense_hash_mapIN4core12basic_stringIcNS0_20StringStorageDefaultIcEEEE13dynamic_arrayI4PPtrI6SpriteELj4EE20StringHash32FunctionIS4_ENSt3__28equal_toIS4_EE13stl_allocatorINSC_4pairIKS4_S9_EEL18MemLabelIdentifier81ELi16EEEixERSH_
oYb:__ZNSt3__26vectorINS_4pairIN4core12basic_stringIcNS2_20StringStorageDefaultIcEEEEPK17MessageIdentifierEENS_9allocatorISA_EEE12__move_rangeEPSA_SE_SE_
Qoh:_SceneManager_LoadSceneAsyncNameIndexInternal_m1250496078
sMb:__ZN14qsort_internal17MedianOfThreeSwapIP17RODataReplacement19ROSorterReplacementEEvT_S4_S4_T0_
CIj:__ZN6il2cpp5utilsL10ReadDoubleEPKc
PQh:__ZNK15dense_hashtableINSt3__24pairIK10KeyWrapperIPK22Il2CppGenericParameterEP11Il2CppClassEES6_N6il2cpp5utils11PointerHashIS4_EEN14dense_hash_mapIS6_S9_SE_NS6_14EqualsComparerINS0_8equal_toIS5_EEEENS0_9allocatorISA_EEE9SelectKeyESJ_SL_E3endEv
Xac:__ZN17TransformInternal36OnScaleChangedCalculateTransformTypeE15TransformAccess
VBd:_SynchronizedArrayListWrapper_InsertRange_m709359548
dAa:__ZN17ArchiveFileSystem10ToAbsoluteEPKc
R7e:_BigInteger_op_Modulus_m13450242
gId:_DateTime__ctor_m3604679583
KSc:__ZN19UnityConnectService15GetPlayerUserIdEv
YJd:_Convert_ToInt32_m2988544165
X4d:_Array_Resize_TisColor32_t874517518_m2219502085_gshared
zz:__ZN7mecanim6CRCKeyENS_7eStringE
Ijf:_SslStreamBase_get_CanWrite_m2069502593
B8b:__ZL12SetPrefValueRKN4core12basic_stringIcNS_20StringStorageDefaultIcEEEERK9PrefValue
hzj:__ZN6il2cpp5utils11StringUtils6PrintfEPKcz
fXi:__ZNSt3__26vectorIN6il2cpp8metadata18GenericArrayMethodENS_9allocatorIS3_EEE7reserveEj
fUa:__ZN15NameToObjectMapI6ShaderNSt3__23mapI4PPtrIS0_EN4core12basic_stringIcNS5_20StringStorageDefaultIcEEEENS1_4lessIS4_EENS1_9allocatorINS1_4pairIKS4_S9_EEEEEENS1_8multimapIS9_S4_NSA_IS9_EENSC_INSD_IKS9_S4_EEEEEEE4FindERSK_
MFg:_ShimEnumerator_Reset_m98005789_gshared
MVa:__ZN24GenerateTypeTreeTransfer21TransferResourceImageE19ActiveResourceImagePKcR13StreamingInfoPvjiPKN5Unity4TypeE
EDj:__ZN6il2cpp6icalls8mscorlib6System7Runtime15InteropServicesL16IsObjectPinnableEP12Il2CppObject
x2e:_ReadOnlyCollection_1_System_Collections_IList_set_Item_m1377990618_gshared
VXf:_ILGenerator_make_room_m373147874
nNg:_Dictionary_2_Init_m1045257495_gshared
T_d:_Array_InternalArray__IndexOf_TisKeyValuePair_2_t888819835_m2660446234_gshared
Zfe:_PKCS1_Verify_v15_m2571212635
hPa:__ZNSt3__212__deque_baseI18ReflectionProbeJobNS_9allocatorIS1_EEED2Ev
Xy:__ZN11UnityEngine9Animation27DestroyAnimationSetBindingsEPNS0_20AnimationSetBindingsERN7mecanim6memory9AllocatorE
adb:__ZN15dense_hashtableINSt3__24pairIKiN4core17string_with_labelILi1EEEEEi18SInt32HashFunctionN14dense_hash_mapIiS5_S7_NS0_8equal_toIiEE13stl_allocatorIS6_L18MemLabelIdentifier1ELi16EEE9SelectKeyESA_SD_E13set_empty_keyERKS6_
QD:__ZN8Animator12CleanupClassEv
REf:_DecoderReplacementFallbackBuffer__ctor_m1305504326
Otc:__Z13TransferFieldI8JSONReadLb0E27Converter_SimpleNativeClassI10RectOffsetEEvRK23StaticTransferFieldInfoR31RuntimeSerializationCommandInfoRT1_
m7c:_String_IndexOf_m570401060
kSd:_Enum_System_IConvertible_ToDateTime_m2924690746
gkd:_Dropdown_CreateBlocker_m4109366440
HYc:_HashAlgorithm_System_IDisposable_Dispose_m2106335965
BRh:__ZN6il2cpp2os12FastAutoLockC2EPNS0_9FastMutexE
nij:__GLOBAL__sub_I_GenericMetadata_cpp
VOh:__ZL6sub192yyyyyyPyS_S_
mki:__ZN6il2cpp6icalls8mscorlib6System8MonoType18GetFields_internalEP20Il2CppReflectionTypeiS5_
NTb:__Z24CalculateSpotLightBoundsffRK10Matrix4x4fR15SpotLightBounds
ILj:__ZNSt3__216allocator_traitsINS_9allocatorINS_11__tree_nodeINS_12__value_typeINS_12basic_stringIcNS_11char_traitsIcEENS1_IcEEEEPFvvEEEPvEEEEE11__constructINS_4pairIKS8_SA_EEJRKNS_21piecewise_construct_tENS_5tupleIJOS8_EEENSN_IJEEEEEEvNS_17integral_constantIbLb1EEERSE_PT_DpOT0_
Q9d:_TailoringInfo__ctor_m2248501932
VQ:__ZN23CloudWebServicesManager23VirtualRedirectTransferER14SafeBinaryRead
V6f:__Z150RuntimeInvoker_Int32_t2071877448_RuntimeObject_Int32_t2071877448_Int32_t2071877448_RuntimeObject_Int32_t2071877448_Int32_t2071877448_Int32_t2071877448PFvvEPK10MethodInfoPvPS4_
rBd:_FixedSizeArrayListWrapper_InsertRange_m2690348965
fDb:__Z19ShouldTransferFieldR32SerializationCommandQueueBuilder17ScriptingClassPtriR18TransferField_InfoRK20CoreScriptingClasses
SZf:_FieldInfo_get_IsStatic_m1411173225
nSh:__ZN6il2cpp2vm5Class11SetupEventsEP11Il2CppClass
jve:_MemoryStream_Read_m2289595005
Hsa:__ZN26SinglePassStereoSupportExt21SetStereoMatrixCommonE21MonoOrStereoscopicEye24BuiltinShaderMatrixParamRK10Matrix4x4f
uK:__ZN5audio5mixer22UpdateAudioMixerMemoryERKNS0_18AudioMixerConstantERNS0_16AudioMixerMemoryEfPN4FMOD6SystemEf
Rvc:__ZL21InitializeCachedStripPv
H3i:__ZN6il2cpp6icalls8mscorlib6System9Threading6Thread23GetCachedCurrentCultureEP12Il2CppThread
Zzg:_Selectable_get_allSelectables_m3045831006
$Fa:__ZNK6Camera22GetWorldToCameraMatrixEv
Aoj:__ZN6il2cpp2vm12GenericClass11IsValueTypeEP18Il2CppGenericClass
sjk:__ZL95Transform_t3275118058_CustomAttributesCacheGenerator_Transform_Rotate_m976738541____relativeTo1P21CustomAttributesCache
cCb:__ZN13MonoBehaviour7SetNameEPKc
Laf:_ContentInfo__ctor_m3579805263
xYh:__ZN15dense_hashtableINSt3__24pairIK10KeyWrapperIPKcEP11Il2CppClassEES5_N6il2cpp5utils11StringUtils12StringHasherIS4_EEN14dense_hash_mapIS5_S8_SE_NS5_14EqualsComparerINSB_13VmStringUtils21CaseSensitiveComparerEEENS0_9allocatorIS9_EEE9SelectKeyESJ_SL_E15set_deleted_keyERKS9_
fzg:_ScrollRect_get_verticalNormalizedPosition_m1701804869
kX:__GLOBAL__sub_I_runtime_shaders_shaderimpl_0_cpp
y9a:__ZN18AwakeFromLoadQueue5ClearEv
_Hg:_Enumerator_get_Current_m2986380627_AdjustorThunk
qSb:__ZNSt3__27__sort5IR15ReflProbeSorterPP15ReflectionProbeEEjT0_S6_S6_S6_S6_T_
p6:__ZN8Playable10DisconnectEPS_i
XUg:_InternalEnumerator_1_get_Current_m1526874475_AdjustorThunk
qk:_glGenTransformFeedbacks
Pya:__ZN13LoadOperationD2Ev
Fee:_KeyPairPersistence__ctor_m1817312194
sWd:_Array_InternalArray__ICollection_Contains_TisMark_t2724874473_m1640201705_gshared
R9h:__ZNSt3__214__split_bufferIN6il2cpp2os19SocketHandleWrapperERNS_9allocatorIS3_EEE17__destruct_at_endEPS3_
VFb:__Z21PlayerStartFirstSceneb
KVf:_TypeBuilder_get_AssemblyQualifiedName_m2097258567
UTa:__ZNSt3__27__sort5IRPFbRKNS_4pairIN9ShaderLab16FastPropertyNameEN18UnityPropertySheet11UnityTexEnvEEES8_EPS6_EEjT0_SD_SD_SD_SD_T_
Yfa:__ZNK7ApiGLES18GetExtensionStringEv
jra:__ZN31TransformFeedbackSkinPoseBufferD0Ev
pVk:_emscripten_glVertexAttrib1f__wrapper
eSj:__ZNKSt3__26__treeINS_12__value_typeIPFvvEPK10MethodInfoEENS_19__map_value_compareIS3_S7_NS_4lessIS3_EELb1EEENS_9allocatorIS7_EEE6__rootEv
dMi:__ZN15dense_hashtableINSt3__24pairIK10KeyWrapperINS1_IPK12PropertyInfoP11Il2CppClassEEEjEES9_17ReflectionMapHashIS8_EN14dense_hash_mapIS9_jSD_NS9_14EqualsComparerINS0_8equal_toIS8_EEEENS0_9allocatorISB_EEE9SelectKeyESI_SK_E13clear_deletedER30dense_hashtable_const_iteratorISB_S9_SD_SM_SI_SK_E
Uif:_SslStreamBase_get_MightNeedHandshake_m3432170694
iOg:_DefaultComparer_Equals_m1281232537_gshared
Wo:FUNCTION_TABLE_iiiiiiiii
Opd:_InputField_set_asteriskChar_m619206227
tEf:_DES_IsSemiWeakKey_m3967392585
sne:_Int16_System_IConvertible_ToUInt32_m883204517_AdjustorThunk
j1f:_MonoProperty_get_PropertyType_m1921201152
Aid:_FloatTween_TweenValue_m3881535116_AdjustorThunk
oEj:_GC_allochblk
N9a:__Z15UnloadGameScenev
UZk:_glCheckFramebufferStatus__wrapper
t8a:__ZNSt3__26vectorIN30RuntimeInitializeOnLoadManager15ClassMethodInfoE13stl_allocatorIS2_L18MemLabelIdentifier13ELi16EEE7reserveEj
SJj:__ZN6il2cpp2vm6Atomic9IncrementEPVi
tQi:__ZN15dense_hashtableINSt3__24pairIK10KeyWrapperIPK14Il2CppAssemblyEPK22Il2CppMonoAssemblyNameEES6_N6il2cpp5utils11PointerHashIS4_EEN14dense_hash_mapIS6_SA_SF_NS6_14EqualsComparerINS0_8equal_toIS5_EEEENS0_9allocatorISB_EEE9SelectKeyESK_SM_E5clearEv
W6e:_BigInteger_get_Rng_m2525288368
GCd:_CaseInsensitiveHashCodeProvider__ctor_m3775398833
NNk:__ZNSt3__212basic_stringIcNS_11char_traitsIcEENS_9allocatorIcEEEaSEOS5_
cfc:__Z36Renderer_Get_Custom_PropSortingOrderP12Il2CppObject
avh:_GUIContent__cctor_m976962423
ZGi:__ZNK15dense_hashtableINSt3__24pairIK10KeyWrapperIPK10Il2CppTypeEjEES6_N6il2cpp8metadata14Il2CppTypeHashEN14dense_hash_mapIS6_jSB_NS6_14EqualsComparerINSA_26Il2CppTypeEqualityComparerEEENS0_9allocatorIS8_EEE9SelectKeyESF_SH_E13find_positionERS7_
JQa:__ZN7Texture5ResetEv
srh:_Transform_Rotate_m976738541
nsb:__Z18Transfer_BlittableI24GenerateTypeTreeTransferLb0E8Vector2fEvRK29SerializationCommandArgumentsR31RuntimeSerializationCommandInfo
csb:__Z18Transfer_BlittableI24GenerateTypeTreeTransferLb1EhEvRK29SerializationCommandArgumentsR31RuntimeSerializationCommandInfo
vxi:__ZNSt3__214__split_bufferIiRNS_9allocatorIiEEEC2EjjS3_
Gcc:__ZNK16TypeTreeIterator10ByteOffsetEv
rld:_Graphic_get_rectTransform_m2697395074
y5:__ZnwjRKSt9nothrow_t
sC:__ZN8Animator11ClearObjectEv
gpf:_X500DistinguishedName_Decode_m3070515374
BSa:__ZN14SafeBinaryRead19TransferSTLStyleMapINSt3__23mapI39DeprecatedFastPropertyNameSerializationN18UnityPropertySheet11UnityTexEnvENS1_4lessIS3_EENS1_9allocatorINS1_4pairIKS3_S5_EEEEEEEEvRT_17TransferMetaFlags
Zmf:_IPv6Address_set_ScopeId_m1442934355
yBf:_ObjectManager_RaiseOnDeserializedEvent_m512850179
T8h:__ZNSt3__220__tree_is_left_childIPNS_16__tree_node_baseIPvEEEEbT_
Bcc:__Z35UnregisterSerializationCacheBuilderPFv17ScriptingClassPtrR23CachedSerializationDataRbE
RGa:__Z30GetBuiltinVectorParamArraySize24BuiltinShaderVectorParam
JEi:__ZNSt3__218uninitialized_copyIPNS_4pairIK10KeyWrapperINS1_IPK14Il2CppAssemblyP11Il2CppClassEEEjEESC_EET0_T_SE_SD_
B9d:_CodePointIndexer__ctor_m797342079
Apj:__ZNKSt3__213__vector_baseI20Il2CppStackFrameInfoNS_9allocatorIS1_EEE8capacityEv
Jyi:__ZNSt3__2geIPKcEEbRKNS_11__wrap_iterIT_EES7_
xYa:__ZN18StreamedBinaryReadILb0EE21TransferSTLStyleArrayI13dynamic_arrayI7Hash128Lj8EEEEvRT_17TransferMetaFlags
mZa:__ZN21RendererUpdateManager11AddRendererER8Renderer
s0b:__Z13RegisterClassI15ResourceManagerEvv
Wmb:__Z35Transfer_Blittable_FixedBufferFieldI14SafeBinaryReadsEvRK29SerializationCommandArgumentsR31RuntimeSerializationCommandInfo
I2a:__ZN14SafeBinaryRead21TransferSTLStyleArrayI13dynamic_arrayIfLj4EEEEvRT_17TransferMetaFlags
izj:__ZN6il2cpp5utils11StringUtils11Utf16ToUtf8EPKDs
Y7a:__ZN18StreamedBinaryReadILb0EE21TransferSTLStyleArrayINSt3__26vectorIN15ResourceManager10DependencyE13stl_allocatorIS5_L18MemLabelIdentifier52ELi16EEEEEEvRT_17TransferMetaFlags
mSc:__ZN11UnityEngine15PlatformWrapper20IsRootedOrJailbrokenEv
YIb:__ZZ23InitPlayerLoopCallbacksvEN52PreLateUpdateScriptRunBehaviourLateUpdateRegistrator7ForwardEv
Ipf:_X509Certificate2_GetNameInfo_m402390219
JTb:__Z33IntersectAABBPlaneBoundsOptimizedRK4AABBPKN4math7_float4Ei
evd:_Swapper_BeginInvoke_m2652511022
jnh:_RectOffset_t3387826427_marshal_pinvoke_back
iba:__ZN9GfxDevice19EndGeometryJobFrameEv
Yrb:__ZN27Converter_SimpleNativeClassI17AnimationCurveTplIfEE17ScriptingToNativeER18ScriptingObjectPtrPS1_
zQj:__ZN6il2cpp8metadata24Il2CppGenericInstCompare7CompareERK10KeyWrapperIPK17Il2CppGenericInstES8_
i_h:__ZNK15dense_hashtableINSt3__24pairIK10KeyWrapperIPK19Il2CppGenericMethodEPK26Il2CppGenericMethodIndicesEES6_N6il2cpp8metadata23Il2CppGenericMethodHashEN14dense_hash_mapIS6_SA_SE_NS6_14EqualsComparerINSD_26Il2CppGenericMethodCompareEEENS0_9allocatorISB_EEE9SelectKeyESI_SK_E5beginEv
Ild:_Graphic_get_materialForRendering_m2600868951
Os:__ZN27AnimationLayerMixerPlayable21UpdateLayerParametersEv
ulh:_Quaternion_Internal_FromEulerRad_m1739712481
OVe:_Collection_1_System_Collections_IList_Contains_m3210868188_gshared
nsi:__ZNSt3__216allocator_traitsINS_9allocatorIP11Il2CppClassEEE8max_sizeERKS4_
R1b:__ZNK17AnimationCurveTplIfE8EvaluateEfPNS0_5CacheE
aIb:__Z31ManagerContextInitializeClassesv
tki:__ZNSt3__213__vector_baseIP9FieldInfoNS_9allocatorIS2_EEED2Ev
q_j:__ZL53SortedList_t3004938869_CustomAttributesCacheGeneratorP21CustomAttributesCache
Gyc:_UNITY_FT_List_Finalize
sgj:__ZNSt3__216allocator_traitsINS_9allocatorINS_11__tree_nodeINS_12__value_typeIP24Il2CppReflectionAssemblyPvEES6_EEEEE11__constructINS_4pairIKS5_S6_EEJRKNS_21piecewise_construct_tENS_5tupleIJRSD_EEENSI_IJEEEEEEvNS_17integral_constantIbLb1EEERS9_PT_DpOT0_
vNb:__Z20LightAttenuateApproxRKfS0_
Vva:__ZN9Scripting30SetCachedPtrOnScriptingWrapperE18ScriptingObjectPtrP6Object
uvb:__Z18Transfer_BlittableI19StreamedBinaryWriteILb0EELb0EdEvRK29SerializationCommandArgumentsR31RuntimeSerializationCommandInfo
kW:__ZN17LowLevelAllocator6MallocEj
I8c:_ASCIIEncoding_GetBytes_m3649277167
SKa:__ZN18BlockRangeInternal16PopLastNodeIndexEP10BlockRangeji
qRf:_Version__ctor_m2972638031
Uce:_Kernel_MultiplyByDword_m155008287
c2a:__ZN4MeshD0Ev
qag:__Z121RuntimeInvoker_Void_t1841601450_Int64_t909078037_RuntimeObject_RuntimeObject_Int64_t909078037_RuntimeObject_RuntimeObjectPFvvEPK10MethodInfoPvPS4_
DXc:__ZL42RequestRecreateEyeTexturesBeforeNextUpdatev
_ea:__ZNK6Camera20IsCurrentlyRenderingEv
Du:__ZN21AnimationClipPlayable23ProcessRootMotionNoClipEPK35AnimationPlayableEvaluationConstantPK32AnimationPlayableEvaluationInputP33AnimationPlayableEvaluationOutput
gPc:__Z36CanvasRenderer_CUSTOM_SetPopMaterialP12Il2CppObjectS0_i
cwi:_UpdatedEventHandler_Invoke_m4240581743
pqc:__Z18Transfer_BlittableI9JSONWriteLb0EdEvRK29SerializationCommandArgumentsR31RuntimeSerializationCommandInfo
IIa:__ZN6Camera8TransferI19StreamedBinaryWriteILb0EEEEvRT_
H0e:_ReadOnlyCollection_1_System_Collections_IList_Insert_m3679749778_gshared
lDg:_Toggle_OnDidApplyAnimationProperties_m325835214
PKk:_wctomb
Kdc:__Z27Camera_CUSTOM_GetAllCamerasP11Il2CppArray
GGd:_Convert_InternalFromBase64String_m3682756716
Wc:___cxa_rethrow
Urc:__Z18Transfer_BlittableI8JSONReadLb1EhEvRK29SerializationCommandArgumentsR31RuntimeSerializationCommandInfo
vVk:_glBindRenderbuffer__wrapper
OLf:_TimeSpan_Add_m3228293154
lOg:_DefaultComparer_Equals_m4098991076_gshared
DWb:__ZN13MonoBehaviour8SetClassE17ScriptingClassPtr18ScriptingObjectPtr
qaf:_RC4__cctor_m523650203
N9g:_CrossContextDelegate_Invoke_m2908136830
hkb:__ZN20LocalFileSystemPosix4ReadER13FileEntryDatayyPvPy
XQb:__ZNSt3__211__sift_downIRN23ForwardShaderRenderLoop18RenderObjectSorterILb0EEEP21ForwardRenderPassDataEEvT0_S7_T_NS_15iterator_traitsIS7_E15difference_typeES7_
mye:_UnmanagedMemoryStream_get_Position_m4093669769
sCb:__ZN13MonoBehaviour5DoGUIENS_13GUILayoutTypeEii
EVf:_DerivedType_IsDefined_m555719351
Tah:_Mark_get_IsDefined_m3332701456
Exa:__ZNK12TLSAllocatorI14StackAllocatorE8ContainsEPKv
A5a:__ZN11TimeManager8TransferI18StreamedBinaryReadILb0EEEEvRT_
Vhb:__ZN15SerializeTraitsINSt3__23mapI4PPtrI6ShaderEN4core12basic_stringIcNS5_20StringStorageDefaultIcEEEENS0_4lessIS4_EENS0_9allocatorINS0_4pairIKS4_S9_EEEEEEE8TransferI24GenerateTypeTreeTransferEEvRSH_RT_
e0h:__ZNSt3__217__compressed_pairINS_15__tree_end_nodeIPNS_16__tree_node_baseIPvEEEENS_9allocatorINS_11__tree_nodeINS_12__value_typeIP11Il2CppClassSB_EES3_EEEEEC2Ev
EEf:_DESTransform__cctor_m1179482644
p2a:__ZN14BlendShapeData8TransferI14SafeBinaryReadEEvRT_
vSd:_Enum_Format_m2294492821
xVa:__ZN7Texture25ReloadFromStorageIfNeededEPvb
jpc:__Z35Transfer_Blittable_FixedBufferFieldI9JSONWritehEvRK29SerializationCommandArgumentsR31RuntimeSerializationCommandInfo
QRf:_OverflowException__ctor_m2564269836
WFg:_ShimEnumerator_get_Entry_m2332479818_gshared
rNd:_DateTime_CheckDateTimeKind_m329345155_AdjustorThunk
UIc:_Update_Max
e0i:__ZN6il2cpp6icalls8mscorlib6SystemL15ThrowNoWideningEv
Z1b:__ZNK23TransformChangeDispatch24GetChangeMaskForInterestENS_12InterestTypeE
tMj:__ZNKSt3__26__treeINS_12__value_typeIPvxEENS_19__map_value_compareIS2_S3_NS_4lessIS2_EELb1EEENS_9allocatorIS3_EEE6__rootEv
ejc:__Z45Transform_CUSTOM_INTERNAL_CALL_TransformPointP12Il2CppObjectRK8Vector3fRS1_
wVe:__ZN23InterfaceActionInvoker2Ii18Color32_t874517518E6InvokeEjP11Il2CppClassP12Il2CppObjectiS0_
B_b:__ZL10KeyHandleriPK23EmscriptenKeyboardEventPv
TSa:__ZNSt3__26__treeINS_12__value_typeI39DeprecatedFastPropertyNameSerializationfEENS_19__map_value_compareIS2_S3_NS_4lessIS2_EELb1EEENS_9allocatorIS3_EEE7destroyEPNS_11__tree_nodeIS3_PvEE
DCc:_tt_cmap4_char_index
nMf:_TimeSpan_op_Addition_m3421801803
Djb:__ZNK12HandlerChain8IsHiddenERK13FileEntryData
Duk:__ZL50Graphic_t2426225576_CustomAttributesCacheGeneratorP21CustomAttributesCache
mrb:__ZL26Transfer_SimpleNativeClassI17RemapPPtrTransfer10RectOffsetLb0EEvRK29SerializationCommandArgumentsR31RuntimeSerializationCommandInfo
hzc:__Z14ValidateFormatR13dynamic_arrayIN20TextRenderingPrivate16TextFormatChangeELj4EE
V4h:__ZNK6il2cpp5utils11collections13ArrayValueMapIPK10Il2CppType17Il2CppInteropData26InteropDataToTypeConverterNS_8metadata14Il2CppTypeLessENS8_26Il2CppTypeEqualityComparerEE3endEv
nMd:_DateTime_System_IConvertible_ToInt32_m2789391054_AdjustorThunk
ehg:__Z73RuntimeInvoker_Single_t2076509932_Vector3_t2243707580_Vector3_t2243707580PFvvEPK10MethodInfoPvPS4_
Cde:_ASN1Convert_FromInt32_m1541043489
wdd:_PointerInputModule_ProcessMove_m3200120346
nHd:_Convert_ToByte_m1008221737
r9e:_MD2Managed_MD2Transform_m3825201358
jwk:__ZL69Scrollbar_t3248359358_CustomAttributesCacheGenerator_m_OnValueChangedP21CustomAttributesCache
geb:__ZNSt3__26vectorIN9ShaderLab20SerializedSubProgram13BufferBindingENS_9allocatorIS3_EEEC2ERKS6_
Ljd:_Dropdown_AddOptions_m835420907
NGa:__ZNK9ShaderLab20ShaderBlendStateDesc15ToGfxBlendStateEPK19ShaderPropertySheetS3_R13GfxBlendState
Xgd:_CanvasUpdateRegistry_IsRebuildingLayout_m1677873278
Ay:__ZN11UnityEngine9AnimationL22GenericBindingCallbackEPvS1_i
EIc:_Compute_Point_Displacement
Chb:__ZN9ShaderLab9IntShaderC2Ev
t5h:__ZN15dense_hashtableINSt3__24pairIK10KeyWrapperIPK11Il2CppClassEPKcEES6_N6il2cpp5utils11PointerHashIS3_EEN14dense_hash_mapIS6_S9_SE_NS6_14EqualsComparerINS0_8equal_toIS5_EEEENS0_9allocatorISA_EEE9SelectKeyESJ_SL_E13clear_deletedER30dense_hashtable_const_iteratorISA_S6_SE_SN_SJ_SL_E
eri:__ZN6il2cpp6icalls8mscorlib6SystemL9IsPrivateEPK9EventInfo
wKj:__ZN6il2cpp6icalls8mscorlib6System10Reflection4Emit11TypeBuilder20setup_internal_classEP27Il2CppReflectionTypeBuilderS7_
jTg:_ArrayReadOnlyList_1_IndexOf_m1809425308_gshared
Hui:_il2cpp_gc_disable
toc:__ZN5Unity9rapidjson6WriterI16TempBufferWriterNS0_4UTF8IcEES4_13JSONAllocatorE11WriteUint64Ey
sqf:_X509Chain_GetSubjectKeyIdentifier_m4232927227
jUk:_glGetShaderInfoLog__wrapper
vEd:_Hashtable_Clone_m165405752
idi:__ZNKSt3__26vectorIP12Il2CppThreadNS_9allocatorIS2_EEE17__annotate_shrinkEj
ZPh:__ZN13Il2CppHashMapIPK22Il2CppGenericParameterP11Il2CppClassN6il2cpp5utils11PointerHashIS1_EENSt3__28equal_toIS2_EENS9_9allocatorINS9_4pairIK10KeyWrapperIS2_ES4_EEEEEC2EjRKS8_RKSB_
ktc:__ZN8JSONRead21TransferSTLStyleArrayI31ArrayOfManagedObjectsTransfererEEvRT_17TransferMetaFlags
OCa:__Z15CreateDirectoryRKN4core12basic_stringIcNS_20StringStorageDefaultIcEEEE
I5i:__ZNKSt3__212basic_stringIDsNS_11char_traitsIDsEENS_9allocatorIDsEEE14__get_long_capEv
YPa:__Z21CalculateGlobalMatrix23TransformAccessReadOnly
eij:__ZNSt3__26vectorIN6il2cpp2vm5Image20EmbeddedResourceDataENS_9allocatorIS4_EEE3endEv
F5a:__ZNK13BuildSettings22GetTypeVirtualInternalEv
Vse:_MonoIO_GetCurrentDirectory_m1509324201
bIf:_UTF32Encoding_GetHashCode_m4205784236
q3i:__ZN6il2cpp6icalls8mscorlib6System10Reflection8Assembly27GetManifestResourceInternalEP24Il2CppReflectionAssemblyP12Il2CppStringPiPP22Il2CppReflectionModule
q0b:__Z13RegisterClassI14RenderSettingsEvv
kVb:__ZNK25CameraStackRenderingState25CalculateCameraTargetTypeEv
BHj:_GC_set_on_event
ftg:__Z80RuntimeInvoker_Boolean_t3825574718_Navigation_t1571958496_Navigation_t1571958496PFvvEPK10MethodInfoPvPS4_
MSe:_Collection_1_ConvertItem_m3563206219_gshared
kMf:_TimeSpan_Subtract_m3597791685_AdjustorThunk
N0i:__ZNKSt3__213__vector_baseIN6il2cpp2vm22EmbeddedResourceRecordENS_9allocatorIS3_EEE9__end_capEv
TWi:__ZNKSt3__26vectorIN6il2cpp8metadata18GenericArrayMethodENS_9allocatorIS3_EEE5beginEv
Sw:__ZN7mecanim12statemachine24CreateStateMachineOutputEPKNS0_20StateMachineConstantEjRNS_6memory9AllocatorE
yoj:__ZN6il2cpp2vm12GenericClass8GetClassEP18Il2CppGenericClass
Jba:__ZNK9GfxDevice27GetActiveRenderSurfaceWidthEv
ZRc:__ZN11UnityEngine15PlatformWrapper28GetCleanGraphicsFixedVersionEv
w:tempBigIntP
ECi:__ZN6il2cpp2vm4Type7GetTypeEPK10Il2CppType
jvd:_AssemblyLoadEventHandler_Invoke_m108373765
vdd:_PointerInputModule_ShouldStartDrag_m4163638715
JBi:__ZNSt3__26vectorIiNS_9allocatorIiEEEC2Ev
kHh:__ZL24UnresolvedVirtualCall_76P12Il2CppObjectPK10MethodInfo
rla:__ZN6prcoreL17RemapGenericFloatI18TexFormatRGBAFloat17TexFormatRGBAHalfEEvPKNS_9InnerInfoE
zJb:__Z16FindCameraStacksRKNSt3__24listI4PPtrI6CameraENS_9allocatorIS3_EEEERNS_6vectorI11CameraStackNS4_ISA_EEEE
XXa:__ZN10GISettings8TransferI14SafeBinaryReadEEvRT_
sn:FUNCTION_TABLE_vifff
I2e:_ReadOnlyCollection_1_System_Collections_Generic_ICollectionU3CTU3E_Remove_m2957273994_gshared
vXb:__ZN19CustomRenderTexture12ClearGPUDataEv
lad:_BaseInputModule_ShouldActivateModule_m2899747874
j5h:__ZNSt3__29make_pairIP11Il2CppClassRPKcEENS_4pairINS_18__make_pair_returnIT_E4typeENS7_IT0_E4typeEEEOS8_OSB_
qsg:__Z86RuntimeInvoker_Int32_t2071877448_DateTimeOffset_t1362988906_DateTimeOffset_t1362988906PFvvEPK10MethodInfoPvPS4_
SQa:__ZN13RenderTexture13ApplySettingsEv
PSk:_glVertexAttrib4f__wrapper
Ue:_JS_Sound_SetListenerPosition
kn:FUNCTION_TABLE_fiffi
VYf:_ModuleBuilderTokenGenerator_GetToken_m3427457873
YOc:__Z55Register_UnityEngine_CanvasGroup_get_ignoreParentGroupsv
mAg:_Selectable_get_isPointerInside_m3162215687
r_d:_Array_FindIndex_TisRuntimeObject_m4149904176_gshared
KGe:_List_1_System_Collections_IList_Contains_m149594880_gshared
ysj:__ZNSt3__26vectorIN6il2cpp2os10ThreadImpl10APCRequestENS_9allocatorIS4_EEE5eraseENS_11__wrap_iterIPKS4_EE
XQf:_UnauthorizedAccessException__ctor_m3480402128
Rce:_BigInteger_op_Modulus_m3788401748
nah:_ArgInfo_GetInOutArgs_m3184132151
Ibb:__ZNK8Material16MarkDependenciesER27GarbageCollectorThreadState
Llh:_Random_Range_m3327624272
sqc:__ZL17Transfer_GUIStyleI9JSONWriteLb0EEvRK29SerializationCommandArgumentsR31RuntimeSerializationCommandInfo
GLj:__ZNSt3__216allocator_traitsINS_9allocatorINS_11__tree_nodeINS_12__value_typeINS_12basic_stringIcNS_11char_traitsIcEENS1_IcEEEEPFvvEEEPvEEEEE9constructINS_4pairIKS8_SA_EEJRKNS_21piecewise_construct_tENS_5tupleIJOS8_EEENSN_IJEEEEEEvRSE_PT_DpOT0_
nOb:__Z28GetHaloVertexPositionsStereoP8Vector3fRKS_S2_f
gma:__ZN6prcoreL27StretchGenericFloatBilinearI15TexFormatRGHalfEEvPKNS_9InnerInfoE
ODe:_Enumerator_MoveNext_m598197344_AdjustorThunk
ywi:__ZN6il2cpp2vm14TypeNameParser16InitializeParserEv
fX:__GLOBAL__sub_I_runtime_misc_0_cpp
a8c:_String_JoinUnchecked_m1880555587
TGa:__ZNK9ShaderLab7Program21GetMatchingSubProgramEPK6ShaderPKNS_4PassERK16ShaderKeywordSetjPS7_R19ShaderSnippetResult
q2d:_Array_InternalArray__Insert_TisKeyValuePair_2_t1174980068_m2464431954_gshared
yhc:__Z49Register_UnityEngine_Resources_GetBuiltinResourcev
PCc:_tt_cmap10_char_index
Hjd:_Dropdown_Awake_m335654827
SMg:_Dictionary_2_U3CCopyToU3Em__0_m1479035402_gshared
nCd:_BitArray_set_Item_m3801461194
fSh:__ZN15dense_hashtableINSt3__24pairIK10KeyWrapperIPK22Il2CppGenericParameterEP11Il2CppClassEES6_N6il2cpp5utils11PointerHashIS4_EEN14dense_hash_mapIS6_S9_SE_NS6_14EqualsComparerINS0_8equal_toIS5_EEEENS0_9allocatorISA_EEE9SelectKeyESJ_SL_E3endEv
L7c:_String_Remove_m3580114465
twh:_GUIUtility_EndGUIFromException_m3100752188
nP:__ZN11AudioSource24ClearExtensionPropertiesE12PropertyName
Vfb:__ZN9ShaderLab22SerializedBindChannels8TransferI19StreamedBinaryWriteILb0EEEEvRT_
xpb:__ZN15SerializeTraitsI5RectTIiEE8TransferI14SafeBinaryReadEEvRS1_RT_
mdg:__Z82RuntimeInvoker_Int32_t2071877448_RuntimeObject_Int32_t2071877448_Int16_t4041245914PFvvEPK10MethodInfoPvPS4_
Jnf:_WebHeaderCollection_AddWithoutValidate_m1479880592
Myc:_UNITY_FT_Stream_ReadUShort
$pd:_InputField_OnEnable_m3797157569
Kfc:__Z51Register_UnityEngine_GUILayer_INTERNAL_CALL_HitTestv
ASa:__ZNSt3__26__treeINS_12__value_typeIN4core12basic_stringIcNS2_20StringStorageDefaultIcEEEES6_EENS_19__map_value_compareIS6_S7_NS_4lessIS6_EELb1EEE13stl_allocatorIS7_L18MemLabelIdentifier1ELi16EEE7destroyEPNS_11__tree_nodeIS7_PvEE
qKh:_Nullable_1__ctor_m796575255_gshared
QAj:__ZN6il2cpp2vm8Profiler7GCEventE13Il2CppGCEvent
xMd:_DateTimeUtils_ToString_m3878360633
AZi:__ZN15dense_hashtableINSt3__24pairIK10KeyWrapperIP11Il2CppClassES4_EES5_N6il2cpp8metadata16SZArrayClassHashEN14dense_hash_mapIS5_S4_SA_NS5_14EqualsComparerINS9_19SZArrayClassCompareEEENS0_9allocatorIS7_EEE9SelectKeyESE_SG_E4findERS6_
d0i:__ZN6il2cpp6icalls8mscorlib6SystemL16ThrowInvalidCastEPK11Il2CppClassS5_
nha:__Z13IsDepthFormat14GraphicsFormat
P6a:__ZN12AspectRatios8TransferI24GenerateTypeTreeTransferEEvRT_
nAk:_Bounds_GetHashCode_m458298790
uvc:__Z12FormatBufferPciPKcz
Ned:_TouchInputModule_Process_m1373751353
mYf:_MethodBuilder_Invoke_m1874904900
zRh:__ZN6il2cpp2vm5Class13GetArrayClassEP11Il2CppClassj
$Fb:__ZN19RuntimeSceneManager18LoadSceneAsyncIntoER10UnitySceneRKN4core12basic_stringIcNS2_20StringStorageDefaultIcEEEENS_11LoadingModeEb
pVf:_DerivedType_InvokeMember_m4149586013
UPi:__ZN14dense_hash_mapI10KeyWrapperIPK14Il2CppAssemblyEPK22Il2CppMonoAssemblyNameN6il2cpp5utils11PointerHashIS2_EENS4_14EqualsComparerINSt3__28equal_toIS3_EEEENSD_9allocatorINSD_4pairIKS4_S7_EEEEED2Ev
Zjf:_TlsStream_SetLength_m1460039587
hmc:__ZN11IMGUIModule12AddGUIScriptER8ListNodeI13MonoBehaviourE
nb:invoke_difi
Srj:__ZNSt3__214__split_bufferIN6il2cpp2os10ThreadImpl10APCRequestERNS_9allocatorIS4_EEE17__destruct_at_endEPS4_NS_17integral_constantIbLb0EEE
$4:__ZL50StaticRegisterSceneLoadedCallback_LightmapSettingsPv
t9f:__Z119RuntimeInvoker_Void_t1841601450_RuntimeObject_RuntimeObject_RuntimeObject_RuntimeObject_Int32_t2071877448_RuntimeObjectPFvvEPK10MethodInfoPvPS4_
Km:FUNCTION_TABLE_iiffi
Kmd:_GridLayoutGroup_get_cellSize_m1061731753
Nga:__ZN21GLESGpuProgramApplier11ApplyVectorERKN20GpuProgramParameters14ValueParameterEPK8Vector4ft
ZQc:__ZN22BaseUnityConnectClient17SaveSessionValuesEv
vfh:_Parser_IsIgnoreCase_m4155598997
Duh:_GUILayoutUtility_LayoutSingleGroup_m3024581181
n9i:__ZN15dense_hashtableINSt3__24pairIK10KeyWrapperIP14Il2CppIUnknownEjEES5_N6il2cpp5utils11PointerHashIS3_EEN14dense_hash_mapIS5_jSB_NS5_14EqualsComparerINS0_8equal_toIS4_EEEENS0_9allocatorIS7_EEE9SelectKeyESG_SI_E12expand_arrayEjN21dense_hash_map_traits17integral_constantIbLb0EEE
_Ec:_cff_size_done
ETb:__ZN29ExtractProjectionPlanesHelperILb1EE5ApplyERK10Matrix4x4fP5Plane
fKb:__ZN22RenderingCommandBuffer13GetAndCheckRTE24BuiltinRenderTextureTypeRKN9ShaderLab16FastPropertyNameEPKcPP13RenderTexture
LXb:__ZN6Camera34UpdatePreviousViewProjectionMatrixEv
ZRa:__ZN9ShaderLab11ShaderState25RemoveUnsupportedProgramsEPK6Shader
Pgb:__ZL23AddGpuProgramParametersR20GpuProgramParametersRKNSt3__26vectorIN9ShaderLab20SerializedSubProgram15MatrixParameterENS1_9allocatorIS5_EEEERKNS2_INS4_15VectorParameterENS6_ISB_EEEEiP16PropertyNamesSet
Ojc:__Z44Register_UnityEngine_Object_DestroyImmediatev
E2j:__ZL62_ConstructorBuilder_t1236878896_CustomAttributesCacheGeneratorP21CustomAttributesCache
sqe:_Int64_System_IConvertible_ToInt16_m2022633688_AdjustorThunk
dCe:_OrdinalComparer__ctor_m2952942058
QTc:__ZNSt3__26__treeINS_12__value_typeIN4core12basic_stringIcNS2_20StringStorageDefaultIcEEEEN11UnityEngine7Connect19RemoteSettingsValueEEENS_19__map_value_compareIS6_SA_NS_4lessIS6_EELb1EEE13stl_allocatorISA_L18MemLabelIdentifier6ELi16EEE16__construct_nodeERKNS_4pairIKS6_S9_EE
Wqh:_Transform_INTERNAL_get_localPosition_m130325652
$P:__Z71Register_UnityEngine_AudioSource_INTERNAL_CALL_ClearExtensionPropertiesv
EUj:__ZN6il2cpp8metadata25Il2CppGenericClassCompare7CompareEPK18Il2CppGenericClassS4_
cC:__ZNK8Animator20IsInMatchTargetStateEv
dH:__ZN13AudioListener23VirtualRedirectTransferER24GenerateTypeTreeTransfer
__j:__ZL51TextInfo_t3620182823_CustomAttributesCacheGeneratorP21CustomAttributesCache
Omc:__Z36Register_UnityEngine_GUI_set_changedv
Shd:_ColorTween_get_startColor_m278546349_AdjustorThunk
rti:__ZN6il2cpp2os6Atomic10Exchange64EPVyy
cGf:_Encoding_get_Unicode_m1382741113
iAk:_Behaviour_set_enabled_m602406666
A8g:_LifetimeServices_set_SponsorshipTimeout_m1403222216
Gzd:_Char_ToString_m1401375624_AdjustorThunk
$$d:_Array_InternalArray__ICollection_Add_TisTableRange_t2011406615_m147373358_gshared
GId:_Convert_ToDateTime_m1251728572
Jxi:__ZNSt3__214__split_bufferIiRNS_9allocatorIiEEE17__destruct_at_endEPi
b0d:_Array_InternalArray__ICollection_Add_TisBoolean_t3825574718_m1009318882_gshared
D3e:_ReadOnlyCollection_1_System_Collections_IList_set_Item_m1149349508_gshared
nw:__ZN27AnimationLayerMixerPlayable18SetInputConnectionEP8Playablei
Yv:__ZN7mecanim28TransformValueArrayBlendNodeEiiiRKNS_10ValueArrayERKNS_14ValueArrayMaskERS0_RS3_RNS_16ValueArrayWeightEf
_Af:_ObjectReader_ReadObjectContent_m3949770110
wHk:_Mesh_get_colors32_m1054093013
GWh:__ZN6il2cpp2vm5Class40GetInterfaceInvokeDataFromVTableSlowPathEPK12Il2CppObjectPK11Il2CppClassj
JLa:__ZN20TierGraphicsSettings8TransferI18StreamedBinaryReadILb0EEEEvRT_
EZi:__GLOBAL__sub_I_Thread_cpp
ISa:__ZN14SafeBinaryRead8TransferINSt3__24pairIN9ShaderLab16FastPropertyNameE10ColorRGBAfEEEEvRT_PKc17TransferMetaFlags
tOh:__ZL9rshift128PyS_
HBj:__ZNSt3__216allocator_traitsINS_9allocatorIPK14Il2CppAssemblyEEE7destroyIS4_EEvRS5_PT_
UAf:_ObjectReader_RecordFixup_m1893348030
D7d:_LayoutGroup_SetProperty_TisRuntimeObject_m1703476175_gshared
jWf:_EnumBuilder_GetElementType_m1228393631
cTi:__ZN14dense_hash_mapI10KeyWrapperINSt3__24pairIPK12PropertyInfoP11Il2CppClassEEEj17ReflectionMapHashIS8_ENS9_14EqualsComparerINS1_8equal_toIS8_EEEENS1_9allocatorINS2_IKS9_jEEEEE13set_empty_keyERSH_
Mg:_glRenderbufferStorage
Icj:__ZNK15dense_hashtableINSt3__24pairIK10KeyWrapperINS1_IPKcS4_EEEiEES6_24NamespaceAndNamePairHashN14dense_hash_mapIS6_iS9_NS6_14EqualsComparerI26NamespaceAndNamePairEqualsEENS0_9allocatorIS8_EEE9SelectKeyESD_SF_E13find_positionERS7_
mgc:__Z45Register_UnityEngine_Input_get_touchSupportedv
bSc:__ZN11UnityEngine15PlatformWrapper28GetTextureFormatSupportFlagsEv
EAc:_UNITY_FT_Create_Class_pshinter_module_class
i7c:_String_CompareOrdinalCaseInsensitiveUnchecked_m2002640463
_wd:_Boolean_GetHashCode_m1894638460
CFc:_cf2_setError
rIf:_UTF7Encoding_InternalGetChars_m4157428055
rab:__Z33InterpolateLightProbeCoefficientsRK17LightProbeContextRK29LightProbeSamplingCoordinatesR20SphericalHarmonicsL2
CFg:_Enumerator_Reset_m3129803197_AdjustorThunk
yIb:__ZZ23InitPlayerLoopCallbacksvEN35PreUpdateSendMouseEventsRegistrator7ForwardEv
bfe:_SmallXmlParser_HandleBufferedContent_m3397096753
bfa:__ZNK6Camera25GetNormalizedViewportRectEP13RenderTextureb
Zg:_glDisable
hrd:_InputField_OnDeselect_m3963675647
lRa:__ZN13RenderTexture8TransferI24GenerateTypeTreeTransferEEvRT_
Yzj:__ZN6il2cpp5utils11StringUtils15StringDuplicateEPKDsj
usf:_BaseMachine_Scan_m122450399
Wu:__ZN17AnimationPlayable17ProcessRootMotionEP35AnimationPlayableEvaluationConstantP32AnimationPlayableEvaluationInputP33AnimationPlayableEvaluationOutput
rAd:_ArrayList_CopyTo_m2353632788
TEk:_GameObject_get_activeSelf_m2643917226
S4:__ZNSt3__26vectorINS_4pairIyP17VertexDeclarationEENS_9allocatorIS4_EEE6assignIPS4_EENS_9enable_ifIXaasr21__is_forward_iteratorIT_EE5valuesr16is_constructibleIS4_NS_15iterator_traitsISB_E9referenceEEE5valueEvE4typeESB_SB_
G_k:b119
vJb:__ZNK8Material12GetPassCountEv
UFd:_Enumerator__cctor_m3784927209
x_k:b110
y_k:b111
z_k:b112
CPk:_bitshift64Ashr
B_k:b114
C_k:b115
D_k:b116
E_k:b117
K2h:__ZN30dense_hashtable_const_iteratorINSt3__24pairIK10KeyWrapperIN6il2cpp5utils13dynamic_arrayIPK10Il2CppTypeLj4EEEEPFvvEEESA_NS3_8metadata19Il2CppSignatureHashEN14dense_hash_mapISA_SD_SG_NSA_14EqualsComparerINSF_22Il2CppSignatureCompareEEENS0_9allocatorISE_EEE9SelectKeyESK_SM_E30advance_past_empty_and_deletedEv
Fia:__ZN4crnd12crn_unpacker22decode_alpha_endpointsEv
iUb:__Z23CullDynamicObjectsUmbraPK4AABBPKN5Umbra15OcclusionBufferER9IndexList
Mx:__ZThn148_NK26AnimatorControllerPlayable41GetStateMachineBehaviourVectorDescriptionEv
ECc:_tt_cmap4_char_next
DGk:_Mathf_Approximately_m1944881077
hjg:__Z444RuntimeInvoker_Boolean_t3825574718_RuntimeObject_RuntimeObject_RuntimeObject_ColorU26_t3402129837_Int32_t2071877448_Single_t2076509932_Single_t2076509932_Int32_t2071877448_SByte_t454417549_SByte_t454417549_Int32_t2071877448_Int32_t2071877448_Int32_t2071877448_Int32_t2071877448_SByte_t454417549_Int32_t2071877448_Single_t2076509932_Single_t2076509932_Single_t2076509932_Single_t2076509932_SByte_t454417549_SByte_t454417549_UInt32U26_t2197289955PFvvEPK10MethodInfoPvPS4_
lhh:_GeneralNames_ToString_m800435094
Lfd:_BaseMeshEffect_OnDidApplyAnimationProperties_m2484799839
P8c:_ASCIIEncoding_GetString_m3931709239
cth:_Vector4_Equals_m2166390052
joh:_RectTransform_SetInsetAndSizeFromParentEdge_m2595554673
EW:__GLOBAL__sub_I_runtime_assetbundles_1_cpp
tI:__ZN4FMOD7Channel11setPositionEjj
Rh:_glBindSampler
S4e:_ReadOnlyCollection_1_System_Collections_Generic_ICollectionU3CTU3E_Clear_m964488020_gshared
Vh:_glGetVertexAttribiv
k7c:_String_IndexOfAny_m2027595557
d0d:_Array_InternalArray__ICollection_Add_TisChar_t3454481338_m422084244_gshared
mZh:__ZNSt3__218uninitialized_fillIPNS_4pairIK10KeyWrapperIPKcEP11Il2CppClassEES9_EEvT_SB_RKT0_
OLc:__ZN2UI11CanvasGroup23VirtualRedirectTransferER18StreamedBinaryReadILb0EE
_lj:__ZN6il2cpp2gcL24ShouldInsertIntoCCWCacheEP12Il2CppObject
Zph:_Texture__ctor_m1220114221
xtc:__ZN8JSONRead8TransferIbEEvRT_PKc17TransferMetaFlagsb
Bof:_X509KeyUsageExtension_Decode_m3292847033
hkg:__Z52RuntimeInvoker_RaycastResult_t21186376_RuntimeObjectPFvvEPK10MethodInfoPvPS4_
q$f:_Module_filter_by_type_name_ignore_case_m3574895736
AXa:__ZN26CustomRenderTextureManager19PreAllocateMaterialEP19CustomRenderTexture
HRh:__ZNSt3__29make_pairIRPK22Il2CppGenericParameterRP11Il2CppClassEENS_4pairINS_18__make_pair_returnIT_E4typeENS9_IT0_E4typeEEEOSA_OSD_
AAf:_ObjectReader_ReadObject_m397855326
XDj:_GC_promote_black_lists
Lnd:_Image_get_fillAmount_m3354146540
luc:__Z29Transfer_Blittable_ArrayFieldI8JSONRead8Vector4fEvRT_R9ArrayInfoRK23StaticTransferFieldInfo
Qn:FUNCTION_TABLE_vf
oo:FUNCTION_TABLE_vd
wNf:_Type_GetMethod_m1930231379
qo:FUNCTION_TABLE_vi
lY:__ZN13RuntimeStaticI37UnityShaderCompilerExtPluginConfigureLb0EE16StaticInitializeEPv
BTc:__ZN11UnityEngine7Connect17DeviceStatusEvent20SetDeviceAspectRatioEf
rae:_SimpleCollator_GetContraction_m1391584430
bxd:_CultureInfo_get_InvariantCulture_m398972276
Sxi:__ZNKSt3__26vectorIiNS_9allocatorIiEEE14__annotate_newEj
Dwd:_Boolean_System_IConvertible_ToInt64_m4142756949_AdjustorThunk
IE:__ZNK8Animator17HasBoundPlayablesEv
Mnc:__ZN5Unity9rapidjson13GenericReaderINS0_4UTF8IcEES3_13JSONAllocatorE10ParseFalseILj0ENS0_19GenericStringStreamIS3_EENS0_15GenericDocumentIS3_S4_S4_EEEEvRT0_RT1_
f9e:_HMAC_initializePad_m3828610671
SQg:_EqualityComparer_1_System_Collections_IEqualityComparer_Equals_m1089835085_gshared
Z$c:_RSAParameters_t1462703416_marshal_pinvoke_cleanup
Usi:__ZN6il2cpp2vm7Runtime9SetConfigEPKc
poc:__ZN5Unity9rapidjson12PrettyWriterI16TempBufferWriterNS0_4UTF8IcEES4_13JSONAllocatorE10StartArrayEv
YYi:__ZN24dense_hashtable_iteratorINSt3__24pairIK10KeyWrapperIP11Il2CppClassES4_EES5_N6il2cpp8metadata16SZArrayClassHashEN14dense_hash_mapIS5_S4_SA_NS5_14EqualsComparerINS9_19SZArrayClassCompareEEENS0_9allocatorIS7_EEE9SelectKeyESE_SG_EC2EPK15dense_hashtableIS7_S5_SA_SI_SE_SG_EPS7_SO_b
ta:invoke_iiifiii
m5i:__ZN6il2cpp2vm9Exception11FromNameMsgEPK11Il2CppImagePKcS6_S6_
iNf:_Type_internal_from_name_m1506974323
an:FUNCTION_TABLE_fiiifii
yfj:__ZNKSt3__26vectorINS_12basic_stringIcNS_11char_traitsIcEENS_9allocatorIcEEEENS4_IS6_EEE5beginEv
cE:__ZN10HumanTrait15InitializeClassEv
$6:__Z14GetTimeManagerv
MWc:__ZN19TransportJavaScript7CleanupEv
NCa:__Z12GUIDToStringRK9UnityGUIDPc
PNi:__ZN15dense_hashtableINSt3__24pairIK10KeyWrapperINS1_IPK9EventInfoP11Il2CppClassEEEjEES9_17ReflectionMapHashIS8_EN14dense_hash_mapIS9_jSD_NS9_14EqualsComparerINS0_8equal_toIS8_EEEENS0_9allocatorISB_EEE9SelectKeyESI_SK_E13clear_deletedER30dense_hashtable_const_iteratorISB_S9_SD_SM_SI_SK_E
HL:__ZN11AudioSource22UnmuteActiveVideoSinksEv
Tzj:__ZN4utf88internal20is_overlong_sequenceIiEEbjT_
Pi:_glReadBuffer
BEa:__Z9SetLocalR15TransformAccessRKN4math7_float4Ey
HBd:_SynchronizedArrayListWrapper_get_Count_m4104930530
aQb:__Z30SetupBakedOcclusionForGeometrybRK26SharedLightmapSettingsDataRK15LightmapIndicesR17ShaderPassContext
_2c:_SecurityPermission_IsSubsetOf_m1087302418
mec:__Z41Register_UnityEngine_Cursor_get_lockStatev
Rth:_Event_Internal_GetMousePosition_m2992465246
yPb:__Z14SetupLightmapsRK8Vector4fS1_R17ShaderPassContext
SPi:__ZN14dense_hash_mapI10KeyWrapperIPK14Il2CppAssemblyEPK22Il2CppMonoAssemblyNameN6il2cpp5utils11PointerHashIS2_EENS4_14EqualsComparerINSt3__28equal_toIS3_EEEENSD_9allocatorINSD_4pairIKS4_S7_EEEEE13set_empty_keyERSJ_
guf:_Interval_get_Empty_m3170923997
hQa:__ZL20InitializeGUIShadersv
Q1b:__Z20DestroyObjectDelayedP6Objectf
RV:__ZN20DynamicHeapAllocatorI17LowLevelAllocatorED0Ev
wqd:_InputField_OnDrag_m726194348
zbe:_PreviousInfo__ctor_m1442166472_AdjustorThunk
VMb:__ZN9DepthPassD2Ev
tMh:_TextGenerator_get_rectExtents_m954923136
mH:__ZN11AudioFilter6GetDSPEv
W_:__ZN19RuntimeSceneManager14CanUnloadSceneEP10UnityScene
ucg:__Z50RuntimeInvoker_Single_t2076509932_Int64_t909078037PFvvEPK10MethodInfoPvPS4_
XMb:__Z22ExtractRenderNodeQueueRK11CullResults15ExtractionFlagsR15RenderNodeQueue
h4d:_Array_InternalArray__set_Item_TisContentType_t1028629049_m703420360_gshared
WQe:_List_1_set_Item_m1431784996_gshared
tG:__ZN24AudioScriptBufferManagerC2Ev
Gxc:__ZNSt3__26vectorIh13stl_allocatorIhL18MemLabelIdentifier1ELi16EEE8__appendEj
i6f:__Z95RuntimeInvoker_Void_t1841601450_RuntimeObject_Int32_t2071877448_Int32_t2071877448_RuntimeObjectPFvvEPK10MethodInfoPvPS4_
Dnc:__ZN8JSONRead32GetValueForKeyWithNameConversionEPKN5Unity9rapidjson12GenericValueINS1_4UTF8IcEE13JSONAllocatorEEPKc
Jxc:__ZN20TextRenderingPrivate8FontImpl16ResetPackingDataEv
R_d:_Array_InternalArray__IndexOf_TisLink_t865133271_m3612939760_gshared
pFk:_Input_get_mousePresent_m1100327283
kpc:__Z18Transfer_BlittableI9JSONWriteLb0EfEvRK29SerializationCommandArgumentsR31RuntimeSerializationCommandInfo
Xha:__Z21GetAsyncUploadManagerv
Gj:_emscripten_glDetachShader
y9d:_SafeHandleZeroOrMinusOneIsInvalid_get_IsInvalid_m2033528032
szd:_Char_IsUpper_m4083577610
Lha:__ZN17GenericDynamicVBO20ReleaseChunkInternalERK21DynamicVBOChunkHandlejj
sKc:__ZL27CleanupModule_TextRenderingv
x9d:_SafeHandleZeroOrMinusOneIsInvalid__ctor_m3340306667
qLk:_fmodl
_Bf:_SerializationInfo_AddValue_m902275108
ELk:_fmodf
Mva:__ZN12CachedWriter11Align4WriteEv
$Nb:__Z20DoDeferredRenderLoopR17RenderLoopContextR13dynamic_arrayI16RenderObjectDataLj4EES4_RK11CullResultsRP13RenderTextureSA_Pb
dGb:__ZN19RuntimeSceneManager11CreateSceneEv
ksh:_Vector2_op_Implicit_m385881926
QEc:_ps_get_standard_strings
$Pb:__Z27SetupBakedOcclusionForLightbRK15SharedLightDataR17ShaderPassContext
AOj:__ZN6il2cpp2os5Mutex6UnlockEv
dMk:___fseeko_unlocked
qzg:_ScrollRect_OnScroll_m3346515304
zEe:_Enumerator_System_Collections_IEnumerator_get_Current_m3461301268_gshared
c_i:__ZNKSt3__26vectorIP12Il2CppThreadN6il2cpp2gc9AllocatorIS2_EEE17__annotate_shrinkEj
MLg:_Dictionary_2_CopyToCheck_m1638253305_gshared
XJb:__Z18RenderImageFiltersR10RenderLoopb
jW:__Z19free_alloc_internalPv18MemLabelIdentifier
cPc:__Z43CanvasRenderer_Get_Custom_PropMaterialCountP12Il2CppObject
kQb:__ZNSt3__227__insertion_sort_incompleteIR23CompareReflectionProbesP31RuntimeReflectionProbeBlendInfoEEbT0_S5_T_
z0e:_ReadOnlyCollection_1_System_Collections_Generic_IListU3CTU3E_set_Item_m25653560_gshared
Guc:__ZN8JSONRead21TransferSTLStyleArrayI13dynamic_arrayI11QuaternionfLj4EEEEvRT_17TransferMetaFlags
Owk:__ZL68Selectable_t1490392188_CustomAttributesCacheGenerator_m_InteractableP21CustomAttributesCache
lZh:__ZN15dense_hashtableINSt3__24pairIK10KeyWrapperIPKcEP11Il2CppClassEES5_N6il2cpp5utils11StringUtils12StringHasherIS4_EEN14dense_hash_mapIS5_S8_SE_NS5_14EqualsComparerINSB_13VmStringUtils21CaseSensitiveComparerEEENS0_9allocatorIS9_EEE9SelectKeyESJ_SL_E21fill_range_with_emptyEPS9_SP_
Cac:__ZN19RuntimeSceneManager32LoadSceneAsyncByNameOrBuildIndexERKN4core12basic_stringIcNS0_20StringStorageDefaultIcEEEEiNS_11LoadingModeEb
yjj:__ZNK14dense_hash_setI10KeyWrapperIP18Il2CppGenericClassEN6il2cpp8metadata22Il2CppGenericClassHashENS3_14EqualsComparerINS5_25Il2CppGenericClassCompareEEENSt3__29allocatorIS3_EEE4findERKS3_
fbf:_CertificateSelectionCallback_Invoke_m2902629105
s4:__ZN10InputEventD2Ev
KHd:_DateTimeFormatInfo_GetAllDateTimePatternsInternal_m1587126173
Noe:_NumberFormatter_Append_m3268121457
Jga:__ZN15dense_hashtableINSt3__24pairIK9TextureIDiEES2_N12TextureIdMap20TextureIDHashFunctorEN14dense_hash_mapIS2_iS6_NS0_8equal_toIS2_EE13stl_allocatorIS4_L18MemLabelIdentifier67ELi16EEE9SelectKeyES9_SC_E12resize_deltaEjj
YWc:__ZN22UnityWebRequestManagerD2Ev
I$c:_RSA_ToXmlString_m4145056574
LRd:_Double_System_IConvertible_ToUInt64_m1318285078_AdjustorThunk
WKk:_isalpha
Yxg:_Selectable_FindSelectable_m2739582497
wnd:_LayoutGroup_GetAlignmentOnAxis_m1783063916
zMd:_DateTimeUtils_ZeroPad_m86470512
Mdi:__ZN6il2cpp2vmL17IsSocketAsyncCallEP14Il2CppDelegate
Vzh:_U3CStartU3Ec__Iterator0_MoveNext_m42377021_gshared
Wyj:__ZN6il2cpp2vm6String6NewLenEPKcj
eEb:__ZN17PersistentManager9AddStreamEv
Wk:_time
Vkh:_PlayableOutput_Equals_m2167434642_AdjustorThunk
kmd:_Graphic_UnregisterDirtyLayoutCallback_m1724443555
b9e:_CryptoConvert_ToHex_m2874017189
iGc:_cf2_stack_free
Rbd:_ExecuteEvents_get_pointerClickHandler_m713983310
dNj:__ZNSt3__210unique_ptrINS_11__tree_nodeINS_12__value_typeIPvxEES3_EENS_22__tree_node_destructorINS_9allocatorIS5_EEEEED2Ev
Ku:__ZN7mecanim9animation19EvaluateFloatValuesEPKNS0_18ClipMuscleConstantEPKNS_18ValueArrayConstantEPKNS0_12ClipBindingsEPKNS0_10ClipOutputEPNS0_18AnimationNodeStateEfbb
Zbj:__ZNKSt3__26vectorI20Il2CppStackFrameInfoNS_9allocatorIS1_EEE4rendEv
JC:__ZN8Animator31ClearInternalControllerPlayableEv
T6h:__ZNSt3__23mapIP11Il2CppClassS2_NS_4lessIS2_EENS_9allocatorINS_4pairIKS2_S2_EEEEE6insertINS6_IS2_S2_EEvEENS6_INS_14__map_iteratorINS_15__tree_iteratorINS_12__value_typeIS2_S2_EEPNS_11__tree_nodeISG_PvEEiEEEEbEEOT_
PRf:_WeakReference_Finalize_m3318354542
ZDa:__ZN10GameObject8TransferI24GenerateTypeTreeTransferEEvRT_
cFe:_Enumerator_VerifyState_m3913376581_gshared
JGi:__ZN15dense_hashtableINSt3__24pairIK10KeyWrapperINS1_IPK9FieldInfoP11Il2CppClassEEEjEES9_17ReflectionMapHashIS8_EN14dense_hash_mapIS9_jSD_NS9_14EqualsComparerINS0_8equal_toIS8_EEEENS0_9allocatorISB_EEE9SelectKeyESI_SK_E4findERSA_
pZk:_glDeleteSync__wrapper
dJd:_Decimal_op_Implicit_m623319612
zIg:_ValueCollection_System_Collections_Generic_ICollectionU3CTValueU3E_Remove_m98888100_gshared
dbd:_EventTrigger_OnPointerExit_m2119176877
zKf:_ThreadAbortException__ctor_m1623816114
y2b:__ZN13ProduceHelperI30RuntimeInitializeOnLoadManagerLb0EE7ProduceE18MemLabelIdentifier18ObjectCreationMode
MVb:__ZN13RenderTexture19SetAutoGenerateMipsEb
nja:__Z20GetTextureFormatInfo13TextureFormat
Q4b:__Z40InitializeLightAnimationBindingInterfacev
H8f:__Z119RuntimeInvoker_RuntimeObject_RuntimeObject_RuntimeObject_Int32_t2071877448_Int32_t2071877448_MonoIOErrorU26_t1029615899PFvvEPK10MethodInfoPvPS4_
xx:__ZN26AnimatorControllerPlayable8GetFloatEiRf
Tvg:_Shadow__ctor_m924057531
Tcd:_PointerEventData_set_worldPosition_m192283671
MJj:__ZN6il2cpp5utils10MemoryPool6MallocEj
NF:__ZN11SoundHandle8InstanceD2Ev
B7:__ZN31CanvasBatchIntermediateRenderer13StaticDestroyEPv
nkh:_X509Store_BuildCrlsCollection_m52567568
z0:__ZNSt3__23mapIiP15MonoScriptCacheNS_4lessIiEE13stl_allocatorINS_4pairIKiS2_EEL18MemLabelIdentifier78ELi16EEEixERS7_
K8d:_Array_InternalArray__get_Item_TisUICharInfo_t3056636800_m3872982785_gshared
yHk:_Mesh_SetNormals_m2780518036
Q3h:__ZN14dense_hash_mapI10KeyWrapperIN6il2cpp5utils13dynamic_arrayIPK10Il2CppTypeLj4EEEEPFvvENS1_8metadata19Il2CppSignatureHashENS8_14EqualsComparerINSB_22Il2CppSignatureCompareEEENSt3__29allocatorINSG_4pairIKS8_SA_EEEEED2Ev
uSd:_Enum_ToString_m662345249
Bhg:__Z150RuntimeInvoker_Single_t2076509932_Single_t2076509932_Single_t2076509932_SingleU26_t4173844468_Single_t2076509932_Single_t2076509932_Single_t2076509932PFvvEPK10MethodInfoPvPS4_
jec:__Z41Register_UnityEngine_CullingGroup_Disposev
lWa:__ZN7Cubemap23VirtualRedirectTransferER19StreamedBinaryWriteILb0EE
mBa:__ZN25MultiBlocksMemoryFileData5WriteEyyPKv
bNi:__ZNSt3__218uninitialized_fillIPNS_4pairIK10KeyWrapperINS1_IPK12PropertyInfoP11Il2CppClassEEEjEESB_EEvT_SD_RKT0_
qMe:_List_1_System_Collections_IList_Add_m4271264217_gshared
dSi:__ZN14dense_hash_mapI10KeyWrapperIPK10Il2CppTypeEjN6il2cpp8metadata14Il2CppTypeHashENS4_14EqualsComparerINS6_26Il2CppTypeEqualityComparerEEENSt3__29allocatorINSB_4pairIKS4_jEEEEE13set_empty_keyERSE_
Zma:__ZL17ProgramUniform2fvPK7ApiGLESjiihPKv
kXk:b83
Bxc:__ZN20TextRenderingPrivate8FontImpl21HasCharacterInTextureEjijfPj
AOh:__ZL6add128yyyyPyS_
rMk:_htonl
xea:__Z20GetBufferManagerGLESv
AAb:__ZN18StreamedBinaryReadILb0EE21TransferSTLStyleArrayI31ArrayOfManagedObjectsTransfererEEvRT_17TransferMetaFlags
CIf:_UTF7Decoder_GetChars_m2790530452
vsc:__Z18Transfer_BlittableI8JSONReadLb0EtEvRK29SerializationCommandArgumentsR31RuntimeSerializationCommandInfo
FOi:__ZN15dense_hashtableINSt3__24pairIK10KeyWrapperINS1_IPK9EventInfoP11Il2CppClassEEEjEES9_17ReflectionMapHashIS8_EN14dense_hash_mapIS9_jSD_NS9_14EqualsComparerINS0_8equal_toIS8_EEEENS0_9allocatorISB_EEE9SelectKeyESI_SK_E12expand_arrayEjN21dense_hash_map_traits17integral_constantIbLb0EEE
uTj:__ZNSt3__26__treeINS_12__value_typeIPFvvEPK10MethodInfoEENS_19__map_value_compareIS3_S7_NS_4lessIS3_EELb1EEENS_9allocatorIS7_EEE4sizeEv
uCg:_Text_set_fontSize_m2101304336
sAc:_pshinter_module_class_pic_free
Yvk:__ZL68Navigation_t1571958496_CustomAttributesCacheGenerator_m_SelectOnLeftP21CustomAttributesCache
gy:__ZN34AnimationStateMachineMixerPlayable13EndTransitionEv
Gzj:__ZNSt3__212basic_stringIDsNS_11char_traitsIDsEENS_9allocatorIDsEEE9__grow_byEjjjjjj
WH:__ZN12AudioManager21FixMasterGroupRoutingEv
H1c:_SymmetricAlgorithm_set_Key_m2973350820
puk:__ZL58FontData_t2614388407_CustomAttributesCacheGenerator_m_FontP21CustomAttributesCache
Lnf:_WebHeaderCollection_IsHeaderValue_m1723393133
Lwc:__ZN20TextRenderingPrivate8FontImpl13CharacterInfo8TransferI24GenerateTypeTreeTransferEEvRT_
qPk:__ZNK10__cxxabiv122__base_class_type_info16search_above_dstEPNS_19__dynamic_cast_infoEPKvS4_ib
M6f:__Z69RuntimeInvoker_Boolean_t3825574718_Int32_t2071877448_SByte_t454417549PFvvEPK10MethodInfoPvPS4_
Vsj:__ZN6il2cpp2os10ThreadImpl33UnregisterCurrentThreadForCleanupEv
qw:__ZN27AnimationLayerMixerPlayable22PrepareAnimationEventsEfR13dynamic_arrayI22AnimationClipEventInfoLj4EE
Rmb:__Z18Transfer_BlittableI14SafeBinaryReadLb1E4AABBEvRK29SerializationCommandArgumentsR31RuntimeSerializationCommandInfo
dqj:__ZN6il2cpp6icalls8mscorlib6System4Enum12get_hashcodeEP12Il2CppObject
yHj:_GC_set_no_dls
IUj:__ZN6il2cpp8metadata26Il2CppGenericMethodCompare6EqualsEPK19Il2CppGenericMethodS4_
S5:__Z22CreateMutexLockedQueue18MemLabelIdentifier
d$a:__ZNK13ScreenManager16GetScreenTimeoutEv
qFj:_GC_block_empty
BG:__ZN9AudioClip7WWWOpenEPKciPjPPvS4_
VNi:__ZNK10KeyWrapperINSt3__24pairIPK9EventInfoP11Il2CppClassEEE14EqualsComparerINS0_8equal_toIS7_EEEclERKS8_SE_
Imb:__Z18Transfer_BlittableI14SafeBinaryReadLb0E8Vector2fEvRK29SerializationCommandArgumentsR31RuntimeSerializationCommandInfo
d4d:_Array_InternalArray__set_Item_TisPlayableBinding_t2498078091_m2071396616_gshared
ixe:_SynchronizedReader_Peek_m282642073
Ndb:__ZN15SerializeTraitsIN9ShaderLab20SerializedSubProgram16TextureParameterEE8TransferI14SafeBinaryReadEEvRS2_RT_
Exd:_Byte_System_IConvertible_ToInt16_m1575115635_AdjustorThunk
wsh:_Vector3_set_Item_m2026854946_AdjustorThunk
g0i:__ZN6il2cpp6icalls8mscorlib6SystemL14AssignUnsignedIhEEvNS2_17WidenedValueUnionEPv14Il2CppTypeEnumjj
b9g:_Context_get_HasGlobalDynamicSinks_m3205328884
Qae:_SimpleCollator_CompareQuick_m619038530
ujf:_SslStreamBase_EndRead_m1072850679
L_h:__ZN14dense_hash_setI10KeyWrapperIPK17Il2CppGenericInstEN6il2cpp8metadata21Il2CppGenericInstHashENS4_14EqualsComparerINS6_24Il2CppGenericInstCompareEEENSt3__29allocatorIS4_EEED2Ev
fd:_SDL_GetTicks
Kie:_X509CertificateEnumerator_System_Collections_IEnumerator_get_Current_m1643583406
goa:__ZN18GfxFramebufferGLES20CleanupFBOMapForRBIDERKj
kKi:__ZN15dense_hashtableINSt3__24pairIK10KeyWrapperINS1_IPK11Il2CppImageP11Il2CppClassEEEjEES9_17ReflectionMapHashIS8_EN14dense_hash_mapIS9_jSD_NS9_14EqualsComparerINS0_8equal_toIS8_EEEENS0_9allocatorISB_EEE9SelectKeyESI_SK_E6insertERKSB_
PTb:__Z21CreateShadowCullerJobP30CreateUmbraShadowCullerJobData
Rma:__ZL18ProgramUniform2uivPK7ApiGLESjiihPKv
hfi:__ZNSt3__216allocator_traitsINS_9allocatorIP12Il2CppThreadEEE11__constructIS3_JRKS3_EEEvNS_17integral_constantIbLb1EEERS4_PT_DpOT0_
GFh:_AudioConfigurationChangeHandler_BeginInvoke_m1585211075
NQb:__Z33GenerateShadowCasterPartsSortDataRK16ShadowCasterDatajRK15RenderNodeQueueRKNSt3__26vectorI20ShadowCasterPartData13stl_allocatorIS7_L18MemLabelIdentifier2ELi16EEEERK10Matrix4x4fRjP20ShadowCasterSortData
eFk:_GUILayer_INTERNAL_CALL_HitTest_m381183969
gyh:_UnityAction_2_Invoke_m319876726_gshared
Mpb:__Z29Transfer_Blittable_ArrayFieldI14SafeBinaryRead9BoundsIntEvRT_R9ArrayInfoRK23StaticTransferFieldInfo
CNg:_Dictionary_2_ToTKey_m4209561517_gshared
wFc:_cf2_computeDarkening
sEj:_GC_expand_hp_inner
Kjj:__ZNK15dense_hashtableI10KeyWrapperIP18Il2CppGenericClassES3_N6il2cpp8metadata22Il2CppGenericClassHashEN14dense_hash_setIS3_S6_NS3_14EqualsComparerINS5_25Il2CppGenericClassCompareEEENSt3__29allocatorIS3_EEE8IdentityESA_SD_E12test_deletedEj
ffc:__Z25Screen_Get_Custom_PropDpiv
Mmd:_GridLayoutGroup_get_spacing_m1909275195
Lzj:__ZN4utf812find_invalidIPKcEET_S3_S3_
_rf:_X509ExtensionCollection_System_Collections_ICollection_CopyTo_m3421329346
IDj:_GC_err_printf
WWf:_FieldBuilder_SetValue_m3109503557
vld:_Graphic_OnBeforeTransformParentChanged_m1866292273
Rpf:_X509Certificate2_Verify_m1574874641
TS:__ZN11UnityEngine15CloudWebService20WebRequestRestClient7PrepareEv
ntk:__ZL58PhysicsRaycaster_t249603239_CustomAttributesCacheGeneratorP21CustomAttributesCache
pxc:__ZN20TextRenderingPrivate19NativeTextGenerator23FixLineHorizontalOffsetEiii
MFd:_SortedList_GetEnumerator_m1318483481
Cuh:_GUILayoutUtility_LayoutFreeGroup_m2224160855
qz:__ZN7mecanim9animation19DestroyAnimationSetEPNS0_12AnimationSetERNS_6memory9AllocatorE
_Sk:_emscripten_glDepthRange__wrapper
A1:__ZN14SerializedFile7ReleaseEv
mMh:_TextGenerator__ctor_m1469954680
Xkb:__ZN16MemoryFileSystem4OpenER13FileEntryData14FilePermission16FileAutoBehavior
o7:__ZN13RuntimeStaticI13RendererSceneLb0EE13StaticDestroyEPv
Vsb:__Z18Transfer_BlittableI24GenerateTypeTreeTransferLb1E12PropertyNameEvRK29SerializationCommandArgumentsR31RuntimeSerializationCommandInfo
O4b:__ZN5Light15InitializeClassEv
N5a:__ZN14SafeBinaryRead21TransferSTLStyleArrayI10vector_mapIPKN5Unity4TypeE7Hash128NSt3__24lessIS5_EENS7_9allocatorINS7_4pairIS5_S6_EEEEEEEvRT_17TransferMetaFlags
j6i:__ZNSt3__29allocatorIDsE8allocateEjPKv
AG:__ZN9AudioClip18GetQueuedAudioDataEPPvj
gKc:__ZN20TextRenderingPrivate21TextMeshGeneratorImpl14GarbageCollectEv
qui:__ZNSt3__23maxIiNS_6__lessIiiEEEERKT_S5_S5_T0_
N8b:__ZNK9Texture2D17CheckHasPixelDataEv
Iub:__Z18Transfer_BlittableI19StreamedBinaryWriteILb0EELb0E9BoundsIntEvRK29SerializationCommandArgumentsR31RuntimeSerializationCommandInfo
EMb:__Z18SetShadowsKeywordsR17ShaderPassContext9LightType10ShadowType16ShadowProjectionbb
aTi:__ZN14dense_hash_mapI10KeyWrapperINSt3__24pairIPK12PropertyInfoP11Il2CppClassEEEj17ReflectionMapHashIS8_ENS9_14EqualsComparerINS1_8equal_toIS8_EEEENS1_9allocatorINS2_IKS9_jEEEEEC2EjRKSB_RKSF_
D4b:__ZN17CollisionMeshDataC2Ev
gbh:_Regex_get_RightToLeft_m529734879
Tyg:_ScrollRect_SetDirty_m93243192
cfi:__ZNKSt3__213__vector_baseIP12Il2CppThreadNS_9allocatorIS2_EEE7__allocEv
OXa:__ZN16LightmapSettings23VirtualRedirectTransferER19StreamedBinaryWriteILb0EE
PIb:__ZZ23InitPlayerLoopCallbacksvEN47PostLateUpdateMemoryFrameMaintenanceRegistrator7ForwardEv
to:FUNCTION_TABLE_viiififii
mFj:_GC_push_next_marked
Eab:__ZN18IDCollectorFunctor18GenerateInstanceIDEi17TransferMetaFlags
Yoe:_NumberFormatter_ToDecHex_m1474793296
tkg:__Z74RuntimeInvoker_Int32_t2071877448_RaycastHit_t87180320_RaycastHit_t87180320PFvvEPK10MethodInfoPvPS4_
lxa:__ZN14StackAllocatorD0Ev
B$i:__ZN6il2cpp2vm6Thread8SetStateEP12Il2CppThreadNS0_11ThreadStateE
bCe:_OperatingSystem_Clone_m1943707477
Wkd:_FontData_set_richText_m29558601
QKf:_Scheduler_Change_m4063588742
b6h:__ZN6il2cpp2vm13MetadataCache25GetMethodGenericContainerEPK10MethodInfo
f5d:_Array_Resize_TisVector2_t2243707579_m1117258774_gshared
Y2:__ZNSt3__27__sort4IRNS_6__lessI14ObjectLoadDataS2_EEPS2_EEjT0_S6_S6_S6_T_
kLb:__ZNK25CameraStackRenderingState16GetCurrentCameraEv
bzi:__ZNKSt3__213__vector_baseIN6il2cpp2vm17TypeNameParseInfoENS_9allocatorIS3_EEE9__end_capEv
xDj:__ZN6il2cpp8metadataL7CompareIjEEiRKT_S4_
pbc:__Z22PlayableValidityChecksRK9HPlayableb
n7a:__ZN15ResourceManagerD2Ev
_Ke:_List_1_Insert_m2532850849_gshared
_dc:__Z41Register_UnityEngine_Camera_GetAllCamerasv
pvg:_MaskableGraphic_OnCanvasHierarchyChanged_m2012659245
zia:__ZN4crnd12crn_unpacker10unpack_dxnEPPhjjjjjj
lUc:__ZN28PerformanceReportingSettings8TransferI14SafeBinaryReadEEvRT_
yJd:_Double_Parse_m2344589511
Cbg:__Z78RuntimeInvoker_Boolean_t3825574718_IntPtr_t_Int32_t2071877448_SByte_t454417549PFvvEPK10MethodInfoPvPS4_
Dsc:__Z18Transfer_BlittableI8JSONReadLb1E5RectTIiEEvRK29SerializationCommandArgumentsR31RuntimeSerializationCommandInfo
s$i:__ZNKSt3__213__vector_baseIP12Il2CppThreadN6il2cpp2gc9AllocatorIS2_EEE7__allocEv
s3i:__ZN6il2cpp2vm22EmbeddedResourceRecordC2ERKS1_
gWa:__ZN9Texture2D13AwakeFromLoadE17AwakeFromLoadMode
hae:_MSCompatUnicodeTableUtil__cctor_m1479836795
tfh:_PositionAssertion__ctor_m3703837499
jsd:_LayoutGroup_get_minWidth_m4111745491
Lwe:_StreamWriter_Initialize_m1707678624
loj:__ZN6il2cpp2vm3RCW14QueryInterfaceILb0EEEP14Il2CppIUnknownP15Il2CppComObjectRK10Il2CppGuid
Myg:_ScrollRect_set_verticalScrollbar_m2903688658
Vka:__ZN6prcoreL17RemapGenericFloatI15TexFormatRFloat18TexFormatARGBFloatEEvPKNS_9InnerInfoE
W2j:__ZL50_Thread_t1894135853_CustomAttributesCacheGeneratorP21CustomAttributesCache
vfj:__ZN6il2cpp2vmL17FindClassMatchingEPK11Il2CppImagePKcS5_P11Il2CppClassb
QXg:_InternalEnumerator_1_get_Current_m1047712960_gshared
kVc:__ZN11UnityEngine15PlatformWrapper20GetPlayerPrefsUInt64ERKN4core12basic_stringIcNS1_20StringStorageDefaultIcEEEEy
nQb:__ZN20ReflectionProbeCacheC2ER13BatchRendererR15RenderLoopStats
c8:__ZN18AssetBundleManagerC2Ev
Vjb:__ZNK12HandlerChain6ExistsERK13FileEntryData
bek:__ZL61ExtensionAttribute_t1840441203_CustomAttributesCacheGeneratorP21CustomAttributesCache
WJd:_Convert_ToInt32_m2734833291
cRb:__Z30FindDirectAttenuationFromProbeP18ForwardLightsBlockbiRK10RenderNodeRK23FindForwardLightsParamsf
S4a:__ZN12InputManager23VirtualRedirectTransferER24GenerateTypeTreeTransfer
_ib:__ZN9Transform23VirtualRedirectTransferER24GenerateTypeTreeTransfer
dhb:__ZNSt3__26vectorIN9ShaderLab20SerializedSubProgram12UAVParameterENS_9allocatorIS3_EEE21__push_back_slow_pathIKS3_EEvRT_
H7g:_CrossAppDomainChannel_RegisterCrossAppDomainChannel_m43456045
Jrf:_X509ChainElement_Count_m228862214
yMf:_TimeZone_IsDaylightSavingTime_m1840774423
ZHc:_UNITY_tt_size_ready_bytecode
RDk:_InvokableCallList_ClearPersistent_m2011323876
bwc:__ZN13TextRendering4FontD2Ev
K2f:__Z47RuntimeInvoker_Single_t2076509932_RuntimeObjectPFvvEPK10MethodInfoPvPS4_
Vyc:_UNITY_FT_Stream_Open
Xtb:__Z29Transfer_Blittable_ArrayFieldI24GenerateTypeTreeTransfer9BoundsIntEvRT_R9ArrayInfoRK23StaticTransferFieldInfo
RBa:__ZN10MemoryFile4ReadEyyPvPy
Yhb:__ZN8keywords18KeywordSetToStringERK16ShaderKeywordSetRN4core12basic_stringIcNS3_20StringStorageDefaultIcEEEE
qaa:__ZN13GfxDeviceGLES26UpdateViewProjectionMatrixEv
GAk:_Bounds_op_Inequality_m1440807554
c5b:__ZZL23RegisterLightPropertiesR22GenericPropertyBindingEN22Wrapper_LightIntensity13SetFloatValueEPvf
aF:__ZN4FMOD3DSP12setParameterEif
BEb:__ZN13MemoryManager16StaticInitializeEv
C_j:__ZL53StackFrame_t2050294881_CustomAttributesCacheGeneratorP21CustomAttributesCache
lf:___cxa_free_exception
T3e:_ReadOnlyCollection_1_System_Collections_ICollection_CopyTo_m4126742951_gshared
r$i:__ZNKSt3__26vectorIP12Il2CppThreadN6il2cpp2gc9AllocatorIS2_EEE8max_sizeEv
bJ:__ZN4FMOD22FakeModChannelCallbackEPv
rf:_emscripten_glValidateProgram
aMa:__ZN4Mesh10CreateMeshEv
wNi:__ZN6il2cpp2gc19AppendOnlyGCHashMapINSt3__24pairIPK9EventInfoP11Il2CppClassEEP21Il2CppReflectionEvent17ReflectionMapHashIS9_ENS2_8equal_toIS9_EEE3AddERKS9_SB_
TF:__ZN4FMOD7SystemI11createSoundEPKcjP22FMOD_CREATESOUNDEXINFOPPNS_5SoundE
Nzf:_ArrayFixupRecord_FixupImpl_m2377725358
hbi:__ZNSt3__26vectorIN6il2cpp2os19SocketHandleWrapperENS_9allocatorIS3_EEE5eraseENS_11__wrap_iterIPKS3_EE
TFc:_cf2_stack_clear
lRd:_Double_System_IConvertible_ToBoolean_m4251806534_AdjustorThunk
_Fg:_ShimEnumerator_Reset_m2247049027_gshared
l7i:__ZN6il2cpp6icalls8mscorlib6System4Type27get_IsGenericTypeDefinitionEP20Il2CppReflectionType
NVb:__ZN7Texture13SetAnisoLevelEi
fR:__ZNSt3__26__treeINS_12__value_typeIN4core12basic_stringIcNS2_20StringStorageDefaultIcEEEEjEENS_19__map_value_compareIS6_S7_NS_4lessIS6_EELb1EEE13stl_allocatorIS7_L18MemLabelIdentifier88ELi16EEE7destroyEPNS_11__tree_nodeIS7_PvEE
aqf:_X509Chain_Process_m2508784250
PPe:_List_1_RemoveAt_m2929488689_gshared
JJc:_raccess_guess_vfat
jQc:__Z44Canvas_CUSTOM_GetETC1SupportedCanvasMaterialv
bLa:__ZN11HaloManager10UpdateHaloEiR9Transform11ColorRGBA32fjP6Object
LY:__ZN33InstancedMeshIntermediateRenderer13StaticDestroyEPv
Gne:_Int16_Parse_m3012618547
M8i:__ZN14dense_hash_mapI10KeyWrapperIP14Il2CppIUnknownEjN6il2cpp5utils11PointerHashIS1_EENS3_14EqualsComparerINSt3__28equal_toIS2_EEEENS9_9allocatorINS9_4pairIKS3_jEEEEE13set_empty_keyERSF_
b9f:__Z50RuntimeInvoker_Void_t1841601450_OpCode_t2247480392PFvvEPK10MethodInfoPvPS4_
TJa:__Z21DestroyShadowMapCacheP14ShadowMapCache
Rw:__ZN7mecanim9animation25CreateControllerWorkspaceEPKNS0_18ControllerConstantERNS_6memory9AllocatorE
HDe:_Enumerator_VerifyState_m739025304_gshared
bjd:_Graphic_RegisterDirtyVerticesCallback_m4169445219
RPj:__ZNKSt3__26__treeIPFvvENS_4lessIS2_EENS_9allocatorIS2_EEE6__rootEv
iSi:__ZN15dense_hashtableINSt3__24pairIK10KeyWrapperIPK10Il2CppTypeEjEES6_N6il2cpp8metadata14Il2CppTypeHashEN14dense_hash_mapIS6_jSB_NS6_14EqualsComparerINSA_26Il2CppTypeEqualityComparerEEENS0_9allocatorIS8_EEE9SelectKeyESF_SH_E14squash_deletedEv
U7i:__ZN6il2cpp2vm13LivenessState5ResetEv
pmg:__Z138RuntimeInvoker_Void_t1841601450_RuntimeObject_Color32_t874517518_Int32_t2071877448_Int32_t2071877448_Single_t2076509932_Single_t2076509932PFvvEPK10MethodInfoPvPS4_
Noc:__ZN9JSONWrite8TransferI11KeyframeTplIfEEEvRT_PKc17TransferMetaFlags
$Bg:_Text_get_cachedTextGenerator_m224335893
naj:__ZN6il2cpp2vm3RCW23GetOrCreateFromIUnknownEP14Il2CppIUnknownP11Il2CppClass
sHb:__ZN24BuiltinShaderParamValuesC2Ev
apc:__ZL41CreateJSONTransferFunctionScriptingTraitsv
QNj:__ZNSt3__25tupleIJRKPvEEC2ILb1ELb0EEES3_
Pte:_FileStream_get_CanWrite_m775322953
CCb:__Z23GetLateBehaviourManagerv
Nbd:_ExecuteEvents_Execute_m2863348178
u1:__ZN10MemoryPool10DeallocateEPv
hlc:__ZN8GUIState8SetEventERK10InputEvent
Ake:_NumberFormatInfo__ctor_m2752806684
Gjf:_SslStreamBase_get_CanRead_m3061866682
$na:__ZN14GfxDeviceStats10ResetFrameEv
dch:_PatternCompiler_EmitFastRepeat_m1175707353
X7d:_Array_InternalArray__get_Item_TisKeyValuePair_2_t3716250094_m3120861630_gshared
vAc:_cff_driver_class_pic_free
TOf:_UInt32_TryParse_m3987111861
fRk:dynCall_vif
gRk:dynCall_vid
JJe:_List_1_System_Collections_IList_get_Item_m3989815218_gshared
hRk:dynCall_vii
pAb:__Z18Transfer_BlittableI18StreamedBinaryReadILb0EELb0EdEvRK29SerializationCommandArgumentsR31RuntimeSerializationCommandInfo
ubh:_Enumerator_System_Collections_IEnumerator_MoveNext_m3313126804
IMb:__ZNK17InstancedPropInfo14IsInstanceableERK19ShaderPropertySheet
Kua:__ZN5Unity9Component16CheckConsistencyEv
yfd:_LayoutRebuilder_ValidController_m2595049322
Jna:__ZN7ApiGLES11CheckShaderERjb
IHa:__ZN19ShaderPropertySheet37CreateTextureAuxPropertyUninitializedEN9ShaderLab16FastPropertyNameES1_PKc
ASh:__ZN6il2cpp2vm5Class13GetBitmapSizeEPK11Il2CppClass
kvb:__ZL26Transfer_SimpleNativeClassI19StreamedBinaryWriteILb0EE10RectOffsetLb1EEvRK29SerializationCommandArgumentsR31RuntimeSerializationCommandInfo
W7d:_Array_InternalArray__get_Item_TisKeyValuePair_2_t1174980068_m964958642_gshared
sTc:__ZN11UnityEngine7Connect17DeviceStatusEventD2Ev
hIi:__ZN15dense_hashtableINSt3__24pairIK10KeyWrapperIPK10Il2CppTypeEjEES6_N6il2cpp8metadata14Il2CppTypeHashEN14dense_hash_mapIS6_jSB_NS6_14EqualsComparerINSA_26Il2CppTypeEqualityComparerEEENS0_9allocatorIS8_EEE9SelectKeyESF_SH_E3endEv
eRb:__Z28GetNonInterpolatedLightProbeRK17LightProbeContextjR20SphericalHarmonicsL2
o0d:_Array_InternalArray__ICollection_Add_TisDateTime_t693205669_m3559987213_gshared
hda:__ZN13GfxDeviceGLES17SetGpuProgramNameEP10GpuProgramPKc
eT:__ZNK11UnityEngine15CloudWebService25WebRequestDownloadHandler11GetProgressEv
yNh:_CanvasGroup_IsRaycastLocationValid_m2290612432
O4h:__ZN6il2cpp2vm13MetadataCache28GetMethodDefinitionFromIndexEi
Rvj:__ZN6il2cpp2os20FileErrnoToErrorCodeEi
DSa:__ZN14SafeBinaryRead19TransferSTLStyleMapINSt3__23mapI39DeprecatedFastPropertyNameSerialization10ColorRGBAfNS1_4lessIS3_EENS1_9allocatorINS1_4pairIKS3_S4_EEEEEEEEvRT_17TransferMetaFlags
P$f:_MonoEventInfo_GetEventInfo_m2331957186
OBk:_Component_get_transform_m3374354972
$g:_atexit
zCd:_BitArrayEnumerator_Reset_m3218489242
Rxd:_Byte_System_IConvertible_ToUInt16_m2275325191
Enh:_RectTransform_INTERNAL_get_anchorMin_m3722367822
gPi:__ZN6il2cpp2vmL31GetObjectForMissingDefaultValueEj
oRc:__ZN11UnityEngine15PlatformWrapper30GetVRPlayAreaBoundaryDimensionEv
T2h:__ZNK15dense_hashtableINSt3__24pairIK10KeyWrapperIN6il2cpp5utils13dynamic_arrayIPK10Il2CppTypeLj4EEEEPFvvEEESA_NS3_8metadata19Il2CppSignatureHashEN14dense_hash_mapISA_SD_SG_NSA_14EqualsComparerINSF_22Il2CppSignatureCompareEEENS0_9allocatorISE_EEE9SelectKeyESK_SM_E10test_emptyEj
web:__ZN9ShaderLab14SerializedPassC2ERKS0_
FVg:_InternalEnumerator_1_System_Collections_IEnumerator_get_Current_m3088751576_AdjustorThunk
Kba:__ZNK9GfxDevice28GetActiveRenderSurfaceHeightEv
l:STACKTOP
xHc:_cff_get_name_index
Lye:_Math_Cos_m43596019
dYa:__ZN21EnlightenSceneMapping16BuildRemapTablesEv
U7b:__ZN17TransformInternal27UpdateDeepChildCountUpwardsER18TransformHierarchyii
n0g:_InternalEnumerator_1_System_Collections_IEnumerator_get_Current_m1533037706_AdjustorThunk
NOk:__ZNK10__cxxabiv117__class_type_info16search_above_dstEPNS_19__dynamic_cast_infoEPKvS4_ib
A:tempBigIntD
X5c:_Single_Equals_m3359827399_AdjustorThunk
ibd:_EventTrigger_OnPointerClick_m413999043
z:tempBigIntI
m8e:_PrimalityTests_RabinMillerTest_m2029846965
y:tempBigIntR
x:tempBigIntS
Hph:_Sprite_INTERNAL_get_border_m3953160722
pn:FUNCTION_TABLE_viffi
syc:_open_face_PS_from_sfnt_stream
nzf:_ServerIdentity_CreateObjRef_m1056204803
nCj:__ZNKSt3__26vectorIPK14Il2CppAssemblyNS_9allocatorIS3_EEE14__annotate_newEj
a3:__ZN6Object18RegisterInstanceIDEPS_
Asb:__Z18Transfer_BlittableI24GenerateTypeTreeTransferLb1EsEvRK29SerializationCommandArgumentsR31RuntimeSerializationCommandInfo
rmj:__ZN15dense_hashtableINSt3__24pairIK10KeyWrapperIP12Il2CppObjectEN6il2cpp2gc9CachedCCWEEES5_NS7_5utils11PointerHashIS3_EEN14dense_hash_mapIS5_S9_SD_NS5_14EqualsComparerINS0_8equal_toIS4_EEEENS0_9allocatorISA_EEE9SelectKeyESI_SK_E11set_deletedER30dense_hashtable_const_iteratorISA_S5_SD_SM_SI_SK_E
Aaa:__ZNK9GfxDevice18GetWorldViewMatrixEv
UJe:_List_1_Contains_m3819542652_gshared
ndf:_TlsServerKeyExchange__ctor_m247733406
Bdj:__ZN15dense_hashtableINSt3__24pairIK10KeyWrapperINS1_IPKcS4_EEEiEES6_24NamespaceAndNamePairHashN14dense_hash_mapIS6_iS9_NS6_14EqualsComparerI26NamespaceAndNamePairEqualsEENS0_9allocatorIS8_EEE9SelectKeyESD_SF_E12expand_arrayEjN21dense_hash_map_traits17integral_constantIbLb0EEE
f1e:_ReadOnlyCollection_1_System_Collections_IList_Add_m3065652010_gshared
MAj:__ZN6il2cpp6icalls8mscorlib6System7Convert17Base64ToByteArrayEPDsib
Czh:_IndexedSet_1_Clear_m2776064367_gshared
ctg:__Z82RuntimeInvoker_Boolean_t3825574718_RaycastResult_t21186376_RaycastResult_t21186376PFvvEPK10MethodInfoPvPS4_
u1h:__ZNSt3__218__insertion_sort_3IRN6il2cpp5utils11collections13ArrayValueMapIPK10Il2CppType17Il2CppInteropData26InteropDataToTypeConverterNS1_8metadata14Il2CppTypeLessENSA_26Il2CppTypeEqualityComparerEE12SortComparerEPS8_EEvT0_SH_T_
_ii:__ZNSt3__26vectorINS_4pairIPK10MethodInfoP11Il2CppClassEENS_9allocatorIS7_EEE21__push_back_slow_pathIS7_EEvOT_
Eaa:__ZNK9GfxDevice25GetDeviceProjectionMatrixEv
sYi:__ZNSt3__26vectorIP11Il2CppClassNS_9allocatorIS2_EEE21__push_back_slow_pathIS2_EEvOT_
qmf:_HttpWebRequest__ctor_m1248252412
Mfj:__ZNSt3__216forward_as_tupleIJEEENS_5tupleIJDpOT_EEES4_
qzi:__ZNKSt3__213__vector_baseINS_12basic_stringIcNS_11char_traitsIcEENS_9allocatorIcEEEENS4_IS6_EEE9__end_capEv
ma:invoke_iidiii
Gsb:__Z18Transfer_BlittableI24GenerateTypeTreeTransferLb1EtEvRK29SerializationCommandArgumentsR31RuntimeSerializationCommandInfo
WRf:_RankException__ctor_m2119191472
eP:__ZN12AudioManager33GetCurrentAmbisonicDefinitionNameE31UnityAudioEffectDefinitionFlags
Dri:__ZNSt3__216allocator_traitsINS_9allocatorIP11Il2CppClassEEE9constructIS3_JRKS3_EEEvRS4_PT_DpOT0_
qac:__ZN10systeminfo24GetRuntimePlatformStringEv
Arc:__ZN9JSONWrite8TransferI13dynamic_arrayI4AABBLj4EEEEvRT_PKc17TransferMetaFlags
c9f:__Z64RuntimeInvoker_Void_t1841601450_OpCode_t2247480392_RuntimeObjectPFvvEPK10MethodInfoPvPS4_
cnh:_Rect_GetHashCode_m2708838453
Ewa:__ZN10SpookyHash5ShortEPKvjPyS2_
BFh:_AudioSettings_InvokeOnAudioManagerUpdate_m667489537
Enf:_SPKey_Equals_m1112627532
awe:_Stream_Close_m1499612649
mah:_ArgInfo__ctor_m3787931268
iFi:__ZN14dense_hash_mapI10KeyWrapperINSt3__24pairIPK9FieldInfoP11Il2CppClassEEEj17ReflectionMapHashIS8_ENS9_14EqualsComparerINS1_8equal_toIS8_EEEENS1_9allocatorINS2_IKS9_jEEEEE3endEv
Ejh:_X509Chain_Build_m175470596
kBk:_Camera_INTERNAL_CALL_RaycastTry2D_m268676834
KHa:__ZN9ShaderLab6TexEnvC2ERKNS_25SerializedTexturePropertyE
yEa:__ZN9Transform32SetLocalScaleWithoutNotificationERKN4math7_float3Ey
Ldf:_TlsServerCertificate__ctor_m3697944709
Oai:__ZN6il2cpp2vm19SocketPollingThread14DequeueRequestEv
Hvj:__ZL10RevealLinkPv
V3d:_Array_InternalArray__set_Item_TisSingle_t2076509932_m4273663642_gshared
Ei:___cxa_end_catch
xYf:_MethodBuilder_MakeGenericMethod_m303913412
Jrj:__ZNSt3__214__split_bufferIN6il2cpp2os10ThreadImpl10APCRequestERNS_9allocatorIS4_EEE5clearEv
MSf:_AssemblyName_InternalGetPublicKeyToken_m3706025887
F$h:__ZN15dense_hashtableI10KeyWrapperIPK17Il2CppGenericInstES4_N6il2cpp8metadata21Il2CppGenericInstHashEN14dense_hash_setIS4_S7_NS4_14EqualsComparerINS6_24Il2CppGenericInstCompareEEENSt3__29allocatorIS4_EEE8IdentityESB_SE_E21fill_range_with_emptyEPS4_SI_
oRk:dynCall_viffffii
vbd:_ExecuteEvents_Execute_m4235029535
MBk:_Color32_ToString_m685380321_AdjustorThunk
rQc:__Z43Register_UnityEngine_Canvas_set_scaleFactorv
KJc:_raccess_guess_linux_cap
AP:__Z36AudioSource_Get_Custom_PropIsPlayingP12Il2CppObject
vhf:_ReceiveRecordAsyncResult_get_AsyncWaitHandle_m1602093076
bmg:__Z113RuntimeInvoker_Boolean_t3825574718_Ray_t2469606224_RaycastHitU26_t1969197280_Single_t2076509932_Int32_t2071877448PFvvEPK10MethodInfoPvPS4_
BAb:__Z19TransferField_ArrayI18StreamedBinaryReadILb0EE27Converter_UnityEngineObjectEvRK23StaticTransferFieldInfoR31RuntimeSerializationCommandInfoRT0_
xdg:__Z221RuntimeInvoker_Void_t1841601450_Int32_t2071877448_Int16_t4041245914_Int16_t4041245914_SByte_t454417549_SByte_t454417549_SByte_t454417549_SByte_t454417549_SByte_t454417549_SByte_t454417549_SByte_t454417549_SByte_t454417549PFvvEPK10MethodInfoPvPS4_
ioc:__ZNK5Unity9rapidjson12GenericValueINS0_4UTF8IcEE13JSONAllocatorE6AcceptINS0_12PrettyWriterI16TempBufferWriterS3_S3_S4_EEEEbRT_
CNa:__ZN5Light8TransferI24GenerateTypeTreeTransferEEvRT_
EZ:__Z33InitializeBuiltinShaderParamNamesv
jva:__ZNK16TypeTreeIterator4TypeEv
Gsh:_Vector3_get_sqrMagnitude_m1445517847
kah:_LeaseManager__ctor_m2166901364
OHb:__ZN10FileSystem25MountDataFolderFileSystemERKN4core12basic_stringIcNS0_20StringStorageDefaultIcEEEES6_
mj:_glGetUniformLocation
Sba:__ZN13GfxDeviceGLES32CreateColorRenderSurfacePlatformEP17RenderSurfaceBase19RenderTextureFormat
lxk:__ZL46Text_t356221433_CustomAttributesCacheGeneratorP21CustomAttributesCache
hG:__ZN12AudioManager24CreateFMODSoundFromMovieEP9AudioClip
zPi:__ZN6il2cpp2vm10Reflection27GetCustomAttributesCacheForEPK14Il2CppAssembly
Rph:_StackTraceUtility_ExtractStackTrace_m2375126700
_5h:__ZN6il2cpp2vm13MetadataCache24GetGenericInstanceMethodEPK10MethodInfoPK20Il2CppGenericContext
M1a:__ZNK9Texture3D12GetDimensionEv
jae:_SimpleCollator_SetCJKTable_m1356471502
Ipe:_Int32_System_IConvertible_ToUInt64_m2888588559_AdjustorThunk
q2:__Z24ConvertSeparatorsToUnityPc
e5a:__ZNSt3__213__vector_baseI9InputAxisNS_9allocatorIS1_EEED2Ev
Dyi:__ZNSt3__216allocator_traitsINS_9allocatorIiEEE9constructIiJRKiEEEvRS2_PT_DpOT0_
SZi:__ZN6il2cpp2vm6Thread20FreeThreadStaticDataEP12Il2CppThread
u2f:__Z28RuntimeInvoker_RuntimeObjectPFvvEPK10MethodInfoPvPS4_
wTd:_Exception_get_ClassName_m2189012117
Ase:_IOException__ctor_m613517077
y6g:_MarshalDirectiveException__ctor_m3894820706
gGc:_cf2_glyphpath_finalize
cGd:_Stack__ctor_m521896492
BLb:__Z20LookRotationToMatrixRK8Vector3fS1_P10Matrix3x3f
ERk:dynCall_viififi
kci:__ZNKSt3__26vectorIP17Il2CppAsyncResultN6il2cpp2gc9AllocatorIS2_EEE8capacityEv
KAi:__ZNSt3__213__vector_baseINS_12basic_stringIcNS_11char_traitsIcEENS_9allocatorIcEEEENS4_IS6_EEEC2ERKS7_
$4h:__ZNSt3__28distanceIPK17Il2CppInteropDataEENS_15iterator_traitsIT_E15difference_typeES5_S5_
JXh:__ZN15dense_hashtableINSt3__24pairIK10KeyWrapperIPK11Il2CppClassEPKcEES6_N6il2cpp5utils11PointerHashIS3_EEN14dense_hash_mapIS6_S9_SE_NS6_14EqualsComparerINS0_8equal_toIS5_EEEENS0_9allocatorISA_EEE9SelectKeyESJ_SL_E12expand_arrayEjN21dense_hash_map_traits17integral_constantIbLb0EEE
oCc:_UNITY_FT_Stream_Free
UMf:_Type_GetTypeFromHandle_m432505302
tZi:__ZN15dense_hashtableINSt3__24pairIK10KeyWrapperINS1_IP11Il2CppClassjEEES4_EES6_N6il2cpp8metadata14ArrayClassHashEN14dense_hash_mapIS6_S4_SB_NS6_14EqualsComparerINSA_17ArrayClassCompareEEENS0_9allocatorIS8_EEE9SelectKeyESF_SH_E12maybe_shrinkEv
jme:_GuidParser_ParseHex_m3163482281
j6g:_GCHandle_FreeHandle_m2466807271
yld:_GraphicRegistry_get_instance_m2112667631
nR:__ZN11UnityEngine15CloudWebService14DataDispatcher25OnDataBlockConsumedStaticEPv
Abd:_ExecuteEvents_Execute_m2476343313
P2j:__ZL54_MethodInfo_t3642518830_CustomAttributesCacheGeneratorP21CustomAttributesCache
Hgd:_CanvasUpdateRegistry_CleanInvalidItems_m1402635291
Iii:__ZNKSt3__213__vector_baseINS_4pairIPK10MethodInfoP11Il2CppClassEENS_9allocatorIS7_EEE8capacityEv
Pyb:__Z29Transfer_Blittable_ArrayFieldI18StreamedBinaryReadILb1EE11QuaternionfEvRT_R9ArrayInfoRK23StaticTransferFieldInfo
Nmj:__ZNSt3__26__treeINS_12__value_typeIjN6il2cpp2os17SocketHandleEntryEEENS_19__map_value_compareIjS5_NS_4lessIjEELb1EEENS_9allocatorIS5_EEE10__end_nodeEv
H0d:_Array_InternalArray__ICollection_Add_TisSByte_t454417549_m46595441_gshared
Vbd:_ExecuteEvents_get_endDragHandler_m56074740
muh:_GUIUtility_GetDefaultSkin_m3585053327
Kqd:_InputField_IsValidChar_m3929866302
mdb:__Z14resize_trimmedINSt3__26vectorIN9ShaderLab20SerializedSubProgram16SamplerParameterENS0_9allocatorIS4_EEEEEvRT_j
Vzd:_ArrayList__cctor_m2090802806
qOk:__ZNSt3__212basic_stringIcNS_11char_traitsIcEENS_9allocatorIcEEE6insertEjPKcj
cpc:__Z44InitializeTransferFunctionScriptingTraitsForI8JSONReadEvR31TransferFunctionScriptingTraits
KGb:__ZNSt3__27__sort4IRNS_4lessIN22BuiltinResourceManager8ResourceEEEPS3_EEjT0_S7_S7_S7_T_
Ebd:_ExecuteEvents_Execute_m171612015
xia:__ZN4crnd12crn_unpacker11unpack_dxt5EPPhjjjjjj
CPf:_UInt32_System_IConvertible_ToUInt64_m4083788326_AdjustorThunk
QIc:_UNITY_tt_face_get_location
GEf:_DESTransform_Permutation_m4174035780
Ise:_Path_IsDsc_m1314465747
Kte:_MonoIO_Seek_m3461199288
BWb:__ZN10GameObject34AddFirstTransformComponentInternalEP9Transform
UOh:__ZL9lshift128PyS_
lec:__Z31Cursor_Get_Custom_PropLockStatev
TX:__ZNSt3__26__treeINS_12__value_typeINS_4pairIPcS3_EENS_3setIS3_15compare_tstringIPKcENS_9allocatorIS3_EEEEEENS_19__map_value_compareIS4_SD_20smaller_tstring_pairIS8_ELb1EEENSA_ISD_EEE7destroyEPNS_11__tree_nodeISD_PvEE
tM:__ZN12AudioManager29GetCurrentAmbisonicDefinitionE31UnityAudioEffectDefinitionFlags
NRh:__ZN15dense_hashtableINSt3__24pairIK10KeyWrapperIPK22Il2CppGenericParameterEP11Il2CppClassEES6_N6il2cpp5utils11PointerHashIS4_EEN14dense_hash_mapIS6_S9_SE_NS6_14EqualsComparerINS0_8equal_toIS5_EEEENS0_9allocatorISA_EEE9SelectKeyESJ_SL_E15insert_noresizeERKSA_
Nec:__Z52Register_UnityEngine_GameObject_GetComponentInParentv
Y5a:__ZN15SerializeTraitsINSt3__24pairIPKN5Unity4TypeE7Hash128EEE8TransferI14SafeBinaryReadEEvRS7_RT_
ZDj:_GC_number_stack_black_listed
OTb:__Z37GenerateCombinedDynamicVisibleListJobP11CullResults
h$a:__ZNK13ScreenManager21GetCursorInsideWindowEv
uKi:__ZN15dense_hashtableINSt3__24pairIK10KeyWrapperINS1_IPK11Il2CppImageP11Il2CppClassEEEjEES9_17ReflectionMapHashIS8_EN14dense_hash_mapIS9_jSD_NS9_14EqualsComparerINS0_8equal_toIS8_EEEENS0_9allocatorISB_EEE9SelectKeyESI_SK_E9set_valueEPSB_RKSB_
Juj:__ZN6il2cpp2vmL22RaiseOverflowExceptionEv
iqe:_Int64_System_IConvertible_ToByte_m3027162116_AdjustorThunk
cbh:_Match_get_Empty_m3581361913
MQb:__Z20IntersectAABBFrustumRK4AABBPK5Planej
Z7c:_String_Concat_m626692867
jFk:_Input_GetMouseButtonDown_m2313448302
U5b:__ZN13RenderManager15InitializeClassEv
opb:__ZN15SerializeTraitsI12PropertyNameE8TransferI14SafeBinaryReadEEvRS0_RT_
$Xd:_PlayableHandle_IsPlayableOfType_TisAnimationOffsetPlayable_t1019600543_m3217464196_AdjustorThunk
GW:__GLOBAL__sub_I_runtime_baseclasses_2_cpp
M0h:__ZN15dense_hashtableI10KeyWrapperIPK19Il2CppGenericMethodES4_N6il2cpp8metadata23Il2CppGenericMethodHashEN14dense_hash_setIS4_S7_NS4_14EqualsComparerINS6_26Il2CppGenericMethodCompareEEENSt3__29allocatorIS4_EEE8IdentityESB_SE_E5clearEv
jrc:__ZN9JSONWrite8TransferI11ColorRGBA32EEvRT_PKc17TransferMetaFlags
Rtc:__Z22TransferField_NonArrayI8JSONRead27Converter_SimpleNativeClassI8GradientEEvRK23StaticTransferFieldInfoR31RuntimeSerializationCommandInfoRT0_
V2e:_ReadOnlyCollection_1_System_Collections_IList_RemoveAt_m2372993063_gshared
pna:__ZNSt3__26vectorI15ComputeShaderCBNS_9allocatorIS1_EEE21__push_back_slow_pathIKS1_EEvRT_
FDb:__ZN10MonoScript13AwakeFromLoadE17AwakeFromLoadMode
$0b:__ZN13ProduceHelperI11MonoManagerLb0EE7ProduceE18MemLabelIdentifier18ObjectCreationMode
iqa:__ZNK18GfxFramebufferGLES15DiscardContentsER12ObjectHandleI17RenderSurface_TagP17RenderSurfaceBaseE
Oee:_KeyPairPersistence_IsUserProtected_m37342608
qqc:__Z18Transfer_BlittableI9JSONWriteLb1EdEvRK29SerializationCommandArgumentsR31RuntimeSerializationCommandInfo
GVk:_glGetIntegerv__wrapper
Zne:_NumberFormatter_ResetCharBuf_m3823516989
H:Math_pow
Xva:__ZN10GameObject28FinalizeAddComponentInternalEPN5Unity9ComponentE
$Ad:_ArrayListWrapper_CopyTo_m735618473
hXa:__ZN9Texture2DD2Ev
kMa:__ZNK17InstancedPropInfo15RenderInstancesERK15RenderNodeQueuePK17BatchInstanceDataj17ShaderChannelMaskPFbPvS6_iR11MeshBuffersR16DrawBuffersRangeRiSC_E
oAd:_ArrayList_Remove_m3941780739
Ncg:__Z69RuntimeInvoker_Void_t1841601450_SByte_t454417549_TimeSpan_t3430258949PFvvEPK10MethodInfoPvPS4_
quh:_GUIUtility_Internal_GetDefaultSkin_m2938938210
Dgi:__ZNSt3__216allocator_traitsIN6il2cpp2gc9AllocatorIP17Il2CppAsyncResultEEE8max_sizeERKS6_
wUf:_ConstructorBuilder_not_created_m2150488017
Y3f:__Z63RuntimeInvoker_Char_t3454481338_Int16_t4041245914_RuntimeObjectPFvvEPK10MethodInfoPvPS4_
lyh:_UnityAction_2_BeginInvoke_m2906232794_gshared
RE:__ZNSt3__26vectorIiNS_9allocatorIiEEE6insertENS_11__wrap_iterIPKiEERS5_
Jgh:_Uri_AppendQueryAndFragment_m2358658590
Jq:__ZN13dynamic_arrayIhLj1EE18resize_initializedEjRKh12ResizePolicy
D5:__ZN27IntermediateRendererManagerD2Ev
Nab:__ZN17PersistentManager27GetLoadErrorMessageFromPathERKN4core12basic_stringIcNS0_20StringStorageDefaultIcEEEE
VEf:_DecoderReplacementFallbackBuffer_Fallback_m1790184670
_l:_glGenRenderbuffers
Z3i:__ZN6il2cpp6icalls8mscorlib6System2IO6MonoIO19GetCurrentDirectoryEPi
ARb:__Z21IntersectSegmentPlaneRK8Vector3fS1_RK5PlanePS_
e8c:_String_GetHashCode_m931956593
x6a:__ZN14PlayerSettings23VirtualRedirectTransferER17RemapPPtrTransfer
WVk:_emscripten_glGetIntegerv__wrapper
jM:__ZN12AudioManager31GetCurrentSpatializerDefinitionEv
S3a:__ZN12MeshRenderer16UpdateCachedMeshEv
Wob:__Z19TransferField_ArrayI14SafeBinaryRead27Converter_SimpleNativeClassI8GradientEEvRK23StaticTransferFieldInfoR31RuntimeSerializationCommandInfoRT0_
z$b:__ZN15dense_hashtableINSt3__24pairIKN4core12basic_stringIcNS2_20StringStorageDefaultIcEEEE10vector_setI4PPtrI11SpriteAtlasENS0_4lessISB_EE13stl_allocatorISB_L18MemLabelIdentifier81ELi16EEEEES6_20StringHash32FunctionIS6_EN14dense_hash_mapIS6_SH_SK_NS0_8equal_toIS6_EESE_ISI_LSF_81ELi16EEE9SelectKeyESN_SO_E15insert_noresizeERKSI_
bcj:__ZN6il2cpp2vm5Image9GetCorlibEv
ny:__ZNK27StateMachineBehaviourPlayer25FireStateMachineBehaviourEiiN7mecanim12statemachine19StateMachineMessageE
oyg:_ScrollRectEvent__ctor_m2283981448
scg:__Z52RuntimeInvoker_Single_t2076509932_Single_t2076509932PFvvEPK10MethodInfoPvPS4_
amg:__Z109RuntimeInvoker_Single_t2076509932_RuntimeObject_RuntimeObject_Single_t2076509932_ILayoutElementU26_t440254879PFvvEPK10MethodInfoPvPS4_
hFe:_Enumerator_VerifyState_m3913376581_AdjustorThunk
elf:_NameObjectCollectionBase_System_Collections_ICollection_CopyTo_m810189168
voh:_Renderer_get_sortingOrder_m2559463128
gWb:__ZN6Camera15SetOrthographicEb
RBc:_UNITY_FT_Stream_GetUShort
Laa:__ZN13GfxDeviceGLES14DisableScissorEv
W1j:__ZL71ReliabilityContractAttribute_t1625655220_CustomAttributesCacheGeneratorP21CustomAttributesCache
ZKd:_Decimal_op_Explicit_m1986696267
gNg:_Dictionary_2_System_Collections_ICollection_CopyTo_m3578539931_gshared
woe:_NumberFormatter_AppendDecimalString_m3532330813
Cc:_glVertexAttrib4f
Eyi:__ZNSt3__26vectorIiNS_9allocatorIiEEE21__push_back_slow_pathIRKiEEvOT_
PUf:_ILGenerator__ctor_m3365621387
gTd:_Environment_GetFolderPath_m1849163024
qde:_ASN1_Add_m2540239672
dXd:_Array_InternalArray__ICollection_Remove_TisInt16_t4041245914_m3380378727_gshared
nwf:_MethodDictionary_CopyTo_m1721788774
QBi:__ZNSt3__213__vector_baseIN6il2cpp2vm17TypeNameParseInfoENS_9allocatorIS3_EEEC2Ev
Bwc:__ZNSt3__26vectorINS_4pairINS1_IttEEfEENS_9allocatorIS3_EEE8__appendEj
U7g:_SinkProviderData__ctor_m1828480392
Vdd:_RaycastResult_ToString_m2233441736_AdjustorThunk
RFj:_GC_set_hdr_marks
qMa:__Z17SetupObjectMatrixRK10Matrix4x4fi
a5c:_SecurityFrame_ToString_m1282306399
fbe:_SimpleCollator_MatchesBackwardCore_m1884994267
aMf:_TimeSpan_From_m1249538749
QPc:__Z84Register_UnityEngine_RectTransformUtility_INTERNAL_CALL_RectangleContainsScreenPointv
Bae:_SimpleCollator_GetSortKey_m1317491197
WX:__ZN13RuntimeStaticINSt3__23mapINS0_4pairIPcS3_EEPFbPvR14SafeBinaryReadE20smaller_tstring_pairIPKcENS0_9allocatorINS2_IKS4_S9_EEEEEELb0EE13StaticDestroyES5_
X$f:_MonoEvent_GetCustomAttributes_m3899596098
xKd:_Convert_ToSByte_m3295168715
At:__ZN7mecanim9animation16CreateClipMemoryEPKNS0_4ClipEiRNS_6memory9AllocatorE
pyc:_open_face
S3b:__ZZL31RegisterOtherRendererPropertiesR22GenericPropertyBindingEN30Wrapper_RendererReceiveShadows13SetFloatValueEPvf
LOc:__Z17RegisterModule_UIv
sye:_UnmanagedMemoryStream_Flush_m3305300000
iGb:__ZL11LoadManagerRKN4core12basic_stringIcNS_20StringStorageDefaultIcEEEEi
yba:__ZN9GfxDevice24CreateRenderDepthSurfaceE9TextureIDiiii16TextureDimension17DepthBufferFormat18SurfaceCreateFlags
qBf:_ObjectManager_DoFixups_m835924385
Qyf:_RemotingServices_CreateWellKnownServerIdentity_m3390048085
ujj:__ZNSt3__26vectorIPK10Il2CppTypeNS_9allocatorIS3_EEE9push_backEOS3_
$F:__ZN4FMOD5Sound11setUserDataEPv
vcb:__ZN14SafeBinaryRead21TransferSTLStyleArrayINSt3__26vectorIN9ShaderLab19SerializedSubShaderENS1_9allocatorIS4_EEEEEEvRT_17TransferMetaFlags
VKj:__ZNKSt3__26__treeINS_12__value_typeINS_12basic_stringIcNS_11char_traitsIcEENS_9allocatorIcEEEEPFvvEEENS_19__map_value_compareIS7_SA_NS_4lessIS7_EELb1EEENS5_ISA_EEE10__end_nodeEv
iw:__ZN27AnimationLayerMixerPlayable13SetInputCountEi
R8e:_ARC4Managed_KeySetup_m73384687
gCa:__ZNK25SingleBlockMemoryFileData4SizeEv
Mmi:__ZNSt3__222__tree_node_destructorINS_9allocatorINS_11__tree_nodeIP11Il2CppClassPvEEEEEclEPS6_
pNd:_DateTime_Equals_m2562884703
MA:__ZN9BlobWrite8TransferIN7mecanim12statemachine18StateMachineMemoryEEEvRT_PKc17TransferMetaFlags
WJ:__ZL50UnityAudioEffect_InternalSetFloatParameterCallbackP14FMOD_DSP_STATEif
clj:__ZNK15dense_hashtableINSt3__24pairIK10KeyWrapperIP12Il2CppObjectEN6il2cpp2gc9CachedCCWEEES5_NS7_5utils11PointerHashIS3_EEN14dense_hash_mapIS5_S9_SD_NS5_14EqualsComparerINS0_8equal_toIS4_EEEENS0_9allocatorISA_EEE9SelectKeyESI_SK_E3endEv
BV:__ZN17LowLevelAllocator4FreeEPvj
VEd:_KeyMarker__cctor_m2057880225
IQh:__ZN15dense_hashtableINSt3__24pairIK10KeyWrapperIPK22Il2CppGenericParameterEP11Il2CppClassEES6_N6il2cpp5utils11PointerHashIS4_EEN14dense_hash_mapIS6_S9_SE_NS6_14EqualsComparerINS0_8equal_toIS5_EEEENS0_9allocatorISA_EEE9SelectKeyESJ_SL_E9copy_fromERKSO_j
Qle:_TextInfo_get_ListSeparator_m3426465394
rue:_FileStream_BeginWrite_m3895959548
Sef:_Context_set_RecordProtocol_m1968834768
U3:__ZL19StaticCleanupPlayerPv
Sqf:_X509Certificate2Enumerator_MoveNext_m1861665712
f7b:__ZN13PlayableGraph4StopEv
J5f:__Z87RuntimeInvoker_RuntimeObject_RuntimeObject_RuntimeObject_RuntimeObject_SByte_t454417549PFvvEPK10MethodInfoPvPS4_
a8:__ZN15dense_hashtableINSt3__24pairIKN4core12basic_stringIcNS2_20StringStorageDefaultIcEEEEP11AssetBundleEES6_20StringHash32FunctionIS6_EN14dense_hash_mapIS6_S9_SC_NS0_8equal_toIS6_EENS0_9allocatorISA_EEE9SelectKeyESF_SH_ED2Ev
uJb:__Z24HandleRoundedCornerPropsP19ShaderPropertySheetRK5RectTIfERK8Vector4ff
c9c:_DecoderExceptionFallbackBuffer_Fallback_m3457210607
uth:_WaitForSecondsRealtime__ctor_m3561981695
MK:__ZN12AudioManager37RebindAudioSourcesAndSubMixersToMixerEP10AudioMixer
sh:_emscripten_set_touchmove_callback
Pua:__ZN9Behaviour10DeactivateE19DeactivateOperation
cYe:_Collection_1_System_Collections_IList_get_Item_m2836259259_gshared
HVa:__ZN13StreamingInfo8TransferI14SafeBinaryReadEEvRT_
Ucb:__ZN15dense_hashtableINSt3__24pairIKiN4core17string_with_labelILi1EEEEEi18SInt32HashFunctionN14dense_hash_mapIiS5_S7_NS0_8equal_toIiEE13stl_allocatorIS6_L18MemLabelIdentifier1ELi16EEE9SelectKeyESA_SD_E15insert_noresizeERKS6_
Mp:__Z23CalculateGlobalRotation23TransformAccessReadOnly
eSa:__ZNK9ShaderLab7Program11IsSupportedEPK6Shader
Wqf:_X509Store_Close_m2412711366
jzi:__ZNSt3__216allocator_traitsINS_9allocatorIN6il2cpp2vm17TypeNameParseInfoEEEE9__destroyIS4_EEvNS_17integral_constantIbLb1EEERS5_PT_
P3b:__Z43InitializeRendererAnimationBindingInterfacev
n3:__ZL26DestroyGameObjectRecursiveR10GameObjectR11BatchDelete
Vug:_CullStateChangedEvent__ctor_m4025397477
lGj:_GC_allochblk_nth
DTj:__ZNSt3__216allocator_traitsINS_9allocatorINS_11__tree_nodeINS_12__value_typeIPFvvEPK10MethodInfoEEPvEEEEE9constructINS_4pairIKS5_S8_EEJNSF_IS5_S8_EEEEEvRSC_PT_DpOT0_
OJf:_Mutex_ReleaseMutex_m2143813124
tPf:_UInt32_System_IConvertible_ToSByte_m604037412_AdjustorThunk
Ypj:__ZN6il2cpp2os5posix13PosixAutoLockC2EP15pthread_mutex_t
JNc:__ZZN2UI6Canvas15InitializeClassEvEN33FunctorImpl_1523kTransformChanged4CallEPviR11MessageData
b3b:__Z7HaloTexP9Texture2DPhiiii
oSk:dynCall_i
k1d:_Array_InternalArray__ICollection_CopyTo_TisKeyValuePair_2_t3749587448_m2750720485_gshared
Fih:_X509Certificate__cctor_m2984068893
e7d:_Component_GetComponents_TisRuntimeObject_m1186222966_gshared
CRk:dynCall_f
ftb:__Z35Transfer_Blittable_FixedBufferFieldI24GenerateTypeTreeTransferjEvRK29SerializationCommandArgumentsR31RuntimeSerializationCommandInfo
mUa:__ZN8Playable13SetInputCountEi
WQk:dynCall_v
Uve:_Path__cctor_m3685888661
jPd:_Decimal_System_IConvertible_ToDateTime_m4247760250_AdjustorThunk
Mde:_BitConverterLE_ULongFromBytes_m2583105400
Roa:__ZN7ApiGLES14TextureSamplerEjjRK24GfxTextureSamplingParams17TextureColorSpace
_Lg:_Dictionary_2_ToTKey_m965425080_gshared
oIa:__ZN6Camera23VirtualRedirectTransferER14SafeBinaryRead
CJe:_List_1_System_Collections_IList_Insert_m2838947798_gshared
XQj:__ZNSt3__26vectorINS_12basic_stringIDsNS_11char_traitsIDsEENS_9allocatorIDsEEEENS4_IS6_EEE8__appendEj
$Lf:_TimeSpan_FromDays_m2859053398
YCi:__ZN6il2cpp2vm4Type11IsEmptyTypeEPK10Il2CppType
PSc:__ZN11UnityEngine7Connect13ConnectConfig11ConfigValueD2Ev
jfa:__ZNSt3__26__treeINS_12__value_typeIjP14DataBufferGLESEENS_19__map_value_compareIjS4_NS_4lessIjEELb1EEENS_9allocatorIS4_EEE7destroyEPNS_11__tree_nodeIS4_PvEE
k7b:__ZN13PlayableGraph15SetPrepareStageE13DirectorStage
xb:invoke_viiiiiiii
IFh:_AudioSource_set_clip_m4189170370
Yye:_MissingMemberException__ctor_m2869542203
rpa:__ZN18GfxFramebufferGLES24UpdateDefaultFramebufferEP17RenderSurfaceBaseS1_N2gl6HandleILNS2_10ObjectTypeE9EEE
u4i:__ZNKSt3__26__treeINS_12basic_stringIcNS_11char_traitsIcEENS_9allocatorIcEEEENS_4lessIS6_EENS4_IS6_EEE6__rootEv
wFi:__ZNK15dense_hashtableINSt3__24pairIK10KeyWrapperINS1_IPK9FieldInfoP11Il2CppClassEEEjEES9_17ReflectionMapHashIS8_EN14dense_hash_mapIS9_jSD_NS9_14EqualsComparerINS0_8equal_toIS8_EEEENS0_9allocatorISB_EEE9SelectKeyESI_SK_E12test_deletedEj
_Eh:_AudioSource_AddAmbisonicExtension_m312887346
EPe:_List_1_Find_m160737912_gshared
hgh:_Uri_EnsureAbsoluteUri_m1892758054
MXa:__ZN16LightmapSettings5ResetEv
vza:__ZN12FileAccessor4ReadEyPvPy
Imc:__Z42Register_UnityEngine_Event_get_commandNamev
Tzd:_ArrayList_ThrowNewArgumentOutOfRangeException_m3795973535
joc:__ZN5Unity9rapidjson12PrettyWriterI16TempBufferWriterNS0_4UTF8IcEES4_13JSONAllocatorE12PrettyPrefixENS0_4TypeE
Dch:_Regex_Init_m1873144192
Qde:_BitConverterLE_ToDouble_m516016818
X2:__ZNK15FileSystemEntry6ExistsEv
r4a:__ZNK9Transform21GetLocalToWorldMatrixER10Matrix4x4f
DMh:_TextGenerator_ValidatedSettings_m647349856
caf:_EncryptedPrivateKeyInfo__ctor_m3398795484
nrh:_Transform_SetParent_m3603514159
aH:__ZN13AudioListener23VirtualRedirectTransferER19StreamedBinaryWriteILb0EE
nca:__ZN13GfxDeviceGLES11CopyTextureE9TextureIDS0_
zyj:__ZN24dense_hashtable_iteratorINSt3__24pairIK10KeyWrapperIPK19Il2CppGenericMethodEP10MethodInfoEES6_N6il2cpp8metadata23Il2CppGenericMethodHashEN14dense_hash_mapIS6_S9_SD_NS6_14EqualsComparerINSC_26Il2CppGenericMethodCompareEEENS0_9allocatorISA_EEE9SelectKeyESH_SJ_EC2EPK15dense_hashtableISA_S6_SD_SL_SH_SJ_EPSA_SR_b
RUk:_emscripten_glViewport__wrapper
Ijg:__Z47RuntimeInvoker_RuntimeObject_Single_t2076509932PFvvEPK10MethodInfoPvPS4_
J8g:_Context__cctor_m3895126354
THc:_tt_size_select
FR:__ZN11UnityEngine15CloudWebService17SessionEventQueue15RestoreFromFileER12FileAccessorPvy
o6a:__ZN14PlayerSettingsD2Ev
Rte:_FileStream_get_Length_m2265080501
nNf:_Type_type_is_assignable_from_m1620694099
NEj:_GC_reclaim_all
e6:__ZN13PlayableGraph14DestroyOutputsEv
I9g:_ContextAttribute_GetPropertiesForNewContext_m4007241045
kf:___syscall122
Yrh:_Vector2_set_Item_m985527261_AdjustorThunk
G7e:_Kernel_Subtract_m2224959291
f5g:_ResourceSet__ctor_m2566914412
K8e:_ASN1Convert_ToDateTime_m2305963290
z1c:_SymmetricAlgorithm_Finalize_m1665128997
Q6e:_BigInteger__ctor_m2991182310
zWh:__ZN6il2cpp2vm5Class6IsEnumEPK11Il2CppClass
$dc:__Z52Register_UnityEngine_Camera_INTERNAL_CALL_RaycastTryv
AMk:_mkdir
nmj:__ZN14dense_hash_mapI10KeyWrapperIP12Il2CppObjectEN6il2cpp2gc9CachedCCWENS4_5utils11PointerHashIS1_EENS3_14EqualsComparerINSt3__28equal_toIS2_EEEENSB_9allocatorINSB_4pairIKS3_S6_EEEEE5eraseE24dense_hashtable_iteratorISI_S3_S9_NSK_9SelectKeyESE_SJ_E
qHd:_Convert_ToByte_m791636053
H1g:_InternalEnumerator_1_get_Current_m2986222582_AdjustorThunk
koh:_Vector2_set_Item_m985527261
$qi:__ZN6il2cpp6icalls8mscorlib6SystemL12GetEventImplINS_5utils10functional6FilterINSt3__212basic_stringIcNS7_11char_traitsIcEENS7_9allocatorIcEEEENS4_13VmStringUtils23CaseInsensitiveComparerEEEEEP21Il2CppReflectionEventP11Il2CppClassiRKT_
URk:dynCall_iifi
icc:__ZN18ScriptingArguments13CopyFromOtherERKS_
iEc:_ps_hints_close
g6b:__Z16CreateRenderLoopR6Camera
lW:_tlsf_create
oZh:__ZNSt3__24pairIK10KeyWrapperIPKcEP11Il2CppClassEC2IRS8_vEEOT_
J2g:_DefaultComparer_Compare_m4039941311_gshared
hIg:_Enumerator_MoveNext_m2534596951_AdjustorThunk
y7a:__ZN14SafeBinaryRead21TransferSTLStyleArrayINSt3__26vectorIN15ResourceManager10DependencyE13stl_allocatorIS4_L18MemLabelIdentifier52ELi16EEEEEEvRT_17TransferMetaFlags
fCb:__ZN13MonoBehaviour23VirtualRedirectTransferER18StreamedBinaryReadILb0EE
deb:__ZN9ShaderLab20SerializedSubProgramC2ERKS0_
L0c:_SHA256Managed_ProcessBlock_m1064908669
sBj:__ZNSt3__217__compressed_pairIPPK11Il2CppClassNS_9allocatorIS3_EEEC2ES4_
oPk:__ZNK10__cxxabiv121__vmi_class_type_info27has_unambiguous_public_baseEPNS_19__dynamic_cast_infoEPvi
xLd:_Convert_ToUInt64_m2215781574
_ih:_X509Certificate_VerifySignature_m4020723406
FUd:_CompareInfo_LastIndexOf_m2978196696
kee:_DSAManaged_Generate_m3166917081
IEg:_Enumerator_VerifyCurrent_m3330382363_AdjustorThunk
pzg:_ScrollRect_StopMovement_m1824352159
i_a:__ZN15QualitySettings23VirtualRedirectTransferER19StreamedBinaryWriteILb0EE
LOb:__Z20RenderFullScreenQuadR9GfxDeviceRK6Camera17ShaderChannelMaskRK5RectTIfEf21MonoOrStereoscopicEye
X_e:_ReadOnlyCollection_1_System_Collections_IList_Contains_m2320811592_gshared
Rea:__ZN16RenderTextureMap5QueryEPK17RenderSurfaceBase
kNa:__ZN5Light17MainThreadCleanupEv
eye:_UnexceptionalStreamWriter_Write_m186237617
czg:_ScrollRect_UpdateScrollbars_m3921404746
vYk:_emscripten_glUniform4iv__wrapper
Xwd:_Boolean_CompareTo_m1086129598_AdjustorThunk
a4b:__ZN8Material8GetFloatEN9ShaderLab16FastPropertyNameE
tAc:_psnames_module_class_pic_free
Skc:__Z11GetGUIStatev
kg:_pthread_key_create
gAd:_ArrayList_Clear_m3834604134
rg:_emscripten_glGetObjectParameterivARB
AIa:__ZN15SerializeTraitsI10ColorRGBAfE8TransferI14SafeBinaryReadEEvRS0_RT_
l8h:__ZN6il2cpp2vm13MetadataCache27GetEventDefinitionFromIndexEi
_3:__ZN22BuiltinResourceManager13StaticDestroyEPv
V4d:_Array_Resize_TisCustomAttributeTypedArgument_t1498197914_m3055365808_gshared
e3:__ZN10GameObject17GetComponentIndexEPN5Unity9ComponentE
M$a:__ZN14SafeBinaryRead21TransferSTLStyleArrayI13dynamic_arrayI7SubMeshLj4EEEEvRT_17TransferMetaFlags
P5c:_Single_IsNegativeInfinity_m2615809279
eqe:_Int32_GetTypeCode_m3811463295_AdjustorThunk
Mcf:_CipherSuiteFactory_GetSsl3SupportedCiphers_m2476597368
Lmf:_IPv6Address_Fill_m1824197512
tzc:__ZNK13TextRendering4Font11GetMaterialEv
IJ:__ZN29AudioEffectInternalDefinition9CreateDSPEPN4FMOD6SystemEPvPfP23UnityAudioAmbisonicDataPP25UnityAudioSpatializerData
rJc:_UNITY_tt_face_vary_cvt
hkc:__GLOBAL__sub_I_Grid_cpp
iki:__ZNK6il2cpp5utils10functional6FilterINSt3__212basic_stringIcNS3_11char_traitsIcEENS3_9allocatorIcEEEENS0_13VmStringUtils21CaseSensitiveComparerEEclIPKcEEbRKT_
gji:__ZNKSt3__214__split_bufferINS_4pairIPK10MethodInfoP11Il2CppClassEERNS_9allocatorIS7_EEE8capacityEv
clc:__Z28DidLoadAllAssembliesCallbackv
bYb:__ZN35RegisterRuntimeInitializeAndCleanup22ExecuteInitializationsEv
Oaj:__Z7strrchrUa9enable_ifIXLb1EEEPci
fya:__ZN23PreloadManagerOperation14SetFinalTimingEffff
i:DYNAMICTOP_PTR
hsh:_Vector2_op_Division_m1216397880
Rjd:_Dropdown_SetupTemplate_m1416189897
nKb:__Z11CopyTextureP7TextureiiS0_ii
_5a:__ZN13BuildSettings8TransferI18StreamedBinaryReadILb0EEEEvRT_
$vg:_PositionAsUV1__ctor_m412270210
Z5b:__ZN10GameObject15InitializeClassEv
aCf:_SerializationInfo_GetInt16_m3549836657
lwj:__ZN6il2cpp2os6Thread12SetApartmentENS0_14ApartmentStateE
bfc:__Z38Renderer_Get_Custom_PropSortingLayerIDP12Il2CppObject
kxk:__ZL90StencilMaterial_t1630303189_CustomAttributesCacheGenerator_StencilMaterial_Add_m1745413071P21CustomAttributesCache
JWd:_Array_InternalArray__ICollection_Contains_TisWorkRequest_t1154022482_m865286315_gshared
SRd:_Double_Equals_m920556135_AdjustorThunk
Oya:__ZN14AsyncOperationD0Ev
Hbf:_CipherSuite_get_ExpandedKeyMaterialSize_m296573450
qGd:_Stack_Push_m284336154
Abc:__Z25scripting_raise_exception21ScriptingExceptionPtr
fpd:_InputField_set_caretBlinkRate_m3521089516
aNd:_DateTime_Add_m4237489122
H7a:__ZN15ResourceManager10Dependency8TransferI14SafeBinaryReadEEvRT_
hii:__ZN6il2cpp2vmL32SpawnSocketPollingThreadIfNeededEv
iEj:_GC_extend_size_map
K3g:_Comparer_1_System_Collections_IComparer_Compare_m637596782_gshared
kK:__ZN4FMOD6System9setDriverEi
_jj:__ZN6il2cpp8metadataL24RecursiveGenericDepthForEPK17Il2CppGenericInst
cGa:__ZNK9Transform11GetRotationEv
O$h:__ZNKSt3__26__treeINS_12__value_typeIP11Il2CppClassS3_EENS_19__map_value_compareIS3_S4_NS_4lessIS3_EELb1EEENS_9allocatorIS4_EEE6__rootEv
Jpf:_X509Certificate2_Find_m833446211
Yec:__Z36Register_UnityEngine_GameObject_Findv
EEc:_pshinter_get_globals_funcs
gtb:__Z18Transfer_BlittableI24GenerateTypeTreeTransferLb0EyEvRK29SerializationCommandArgumentsR31RuntimeSerializationCommandInfo
hSa:__ZN8Material14CreateMaterialER6ShaderN6Object9HideFlagsEb
Xee:_KeyPairPersistence_FromXml_m2310151202
POd:_DBNull_System_IConvertible_ToUInt64_m2919804476
tDc:_tt_cmap12_char_map_binary
NQi:__ZNSt3__218uninitialized_fillIPNS_4pairIK10KeyWrapperIPK14Il2CppAssemblyEPK22Il2CppMonoAssemblyNameEESB_EEvT_SD_RKT0_
$bg:__Z51RuntimeInvoker_Double_t4078015681_Int16_t4041245914PFvvEPK10MethodInfoPvPS4_
Zzc:_ft_outline_glyph_transform
mqa:__Z25GetBuiltinResourceManagerv
v_g:_InternalEnumerator_1_System_Collections_IEnumerator_get_Current_m439366097_AdjustorThunk
mkj:__ZN6il2cpp2gc8GCHandle15GetTargetHandleEP12Il2CppObjectii
Ih:_llvm_trap
JZ:__ZNSt3__27__sort5IRNS_6__lessIN12_GLOBAL__N_114ParamNameIndexES3_EEPS3_EEjT0_S7_S7_S7_S7_T_
sse:_Directory_CreateDirectory_m3561886598
a0c:_RSAPKCS1KeyExchangeFormatter_CreateKeyExchange_m1122286094
IEj:_get_index
g0h:__ZNSt3__26__treeINS_12__value_typeIP11Il2CppClassS3_EENS_19__map_value_compareIS3_S4_NS_4lessIS3_EELb1EEENS_9allocatorIS4_EEE10__end_nodeEv
fP:__ZN11AudioSource7SetMuteEb
fJa:__Z26scripting_method_get_class18ScriptingMethodPtr
Ydf:_ClientSessionInfo_get_Valid_m3589823308
Wfe:_PKCS1_Sign_v15_m2137018891
cYd:_SetPropertyUtility_SetClass_TisRuntimeObject_m3524554928_gshared
VMa:__ZN17CollisionMeshData20VertexDataHasChangedEv
Xci:__ZN6il2cpp2vm21ThreadPoolCompartment12DetachThreadEP12Il2CppThread
Oba:__ZN13GfxDeviceGLES30SetBackBufferColorDepthSurfaceEP17RenderSurfaceBaseS1_
GGf:_Latin1Encoding_GetBytes_m1067304501
wnc:__Z52Register_UnityEngine_GUIUtility_get_systemCopyBufferv
B7b:__ZN16StreamedResource8TransferI18StreamedBinaryReadILb0EEEEvRT_
ngc:__Z49Register_UnityEngine_Input_get_imeCompositionModev
SWh:___cxx_global_var_init_4
Tcb:__ZN15dense_hashtableINSt3__24pairIKiN4core17string_with_labelILi1EEEEEi18SInt32HashFunctionN14dense_hash_mapIiS5_S7_NS0_8equal_toIiEE13stl_allocatorIS6_L18MemLabelIdentifier1ELi16EEE9SelectKeyESA_SD_E12resize_deltaEjj
bVb:__ZNK20OcclusionCullingData22GetStaticRendererCountEv
EBc:_UNITY_tt_face_free_ps_names
bvc:__GLOBAL__sub_I_runtime_particlesystem_modules_5_cpp
WVh:__ZNK6il2cpp2vm17TypeNameParseInfo9modifiersEv
OOb:__ZNK6Camera17GetSkyboxMaterialEv
DZk:_emscripten_glDisableVertexAttribArray__wrapper
PWg:_InternalEnumerator_1_get_Current_m3259181373_AdjustorThunk
p6i:__ZNSt3__216allocator_traitsINS_9allocatorIDsEEE8max_sizeERKS2_
eZg:_InternalEnumerator_1_get_Current_m789289033_gshared
L8d:_Array_InternalArray__get_Item_TisUILineInfo_t3621277874_m1432166059_gshared
U3a:__ZN12MeshRenderer18CalculateLocalAABBER4AABBRKS_RK4Mesh
_hh:_X509CertificateCollection_GetEnumerator_m3994741635
cdg:__Z242RuntimeInvoker_Boolean_t3825574718_RuntimeObject_RuntimeObject_RuntimeObject_SByte_t454417549_DateTimeU26_t3448131235_DateTimeOffsetU26_t3212986406_RuntimeObject_Int32_t2071877448_SByte_t454417549_BooleanU26_t3168250738_BooleanU26_t3168250738PFvvEPK10MethodInfoPvPS4_
Jme:_Guid_ToString_m3927110175
eV:__ZN21UnityDefaultAllocatorI17LowLevelAllocatorE8AllocateEji
gnf:_IPv6Address_AsIPv4Int_m3565745471
zMc:__ZL28InitializeUIScriptingClassesv
eDk:_Display_RecreateDisplayList_m1746695619
WRk:dynCall_iiifi
WFb:__ZN10UnityScene10ClearRootsEv
Npi:__ZNSt3__216allocator_traitsINS_9allocatorIN6il2cpp6icalls8mscorlib6System12PropertyPairEEEE9constructIS6_JS6_EEEvRS7_PT_DpOT0_
Qjb:__ZN12HandlerChain10AtomicMoveER13FileEntryDataS1_
dYd:_SetPropertyUtility_SetStruct_TisBoolean_t3825574718_m752301298_gshared
G6:__ZZN15DirectorManager15InitializeClassEvEN48PreLateUpdateDirectorDeferredEvaluateRegistrator7ForwardEv
Zvc:__ZN20SpeedTreeWindManager6UpdateEf
jfh:_Literal_GetWidth_m1285678191
UId:_Decimal_ThrowAtPos_m3318712794
iwh:_GUITargetAttribute_GetGUITargetAttrValue_m3706077059
wge:_RSAManaged_GetPaddedValue_m4394397
wC:__ZN7mecanim9animation20CreateAvatarConstantEPNS_8skeleton8SkeletonEPNS1_13SkeletonPoseTIN4math4trsXEEES8_PNS_5human5HumanES3_iRKS6_RNS_6memory9AllocatorE
cye:_UnexceptionalStreamWriter__ctor_m2209699189
QLe:_List_1_Find_m970100220_gshared
OXd:_Array_InternalArray__ICollection_Remove_TisVector2_t2243707579_m3881494282_gshared
p3a:__ZN14CompressedMesh8TransferI19StreamedBinaryWriteILb0EEEEvRT_
FSf:_AssemblyFileVersionAttribute__ctor_m2026149866
b2d:_Array_InternalArray__ICollection_CopyTo_TisUILineInfo_t3621277874_m2142954044_gshared
LYf:_TypeBuilder_SetParent_m387557893
msh:_Vector2_get_up_m1721661564
xcf:_CipherSuiteCollection_cultureAwareCompare_m1825407448
jTh:__ZNSt3__216allocator_traitsINS_9allocatorIjEEE11__constructIjJEEEvNS_17integral_constantIbLb1EEERS2_PT_DpOT0_
EMd:_DateTimeFormatInfo_GetEraName_m1437894363
H2d:_Array_InternalArray__Insert_TisLabelFixup_t4090909514_m3927736182_gshared
gsf:_X509KeyUsageExtension_Encode_m3100824560
BLa:__ZN24GenerateTypeTreeTransfer8TransferI21PlatformShaderDefinesEEvRT_PKc17TransferMetaFlags
p7a:__ZNK15ResourceManager22GetTypeVirtualInternalEv
eOg:_DefaultComparer_GetHashCode_m1728348656_gshared
xqd:_InputField_MouseDragOutsideRect_m3758282095
Uvg:_Outline_ModifyMesh_m3796381413
jwc:__ZN13TextRendering4Font23VirtualRedirectTransferER24GenerateTypeTreeTransfer
mtf:_Interpreter_PopulateGroup_m4098755954
oaf:_PrivateKeyInfo_DecodeRSA_m919734506
wgc:__ZNSt3__27__sort4IRNS_6__lessI11KeyframeTplIfES3_EEPS3_EEjT0_S7_S7_S7_T_
cme:_GuidParser_Reset_m3389485794
HO:__ZN11AudioSource15InitializeClassEv
ORe:_Enumerator_System_Collections_IEnumerator_get_Current_m1270503615_gshared
fWg:_InternalEnumerator_1_System_Collections_IEnumerator_get_Current_m3315293493_gshared
Awh:_TextEditor__ctor_m1435332308
lOb:__ZN11HaloManager17RenderGeometryJobEP25DynamicVBOGeometryJobDataj
nZg:_InternalEnumerator_1_System_Collections_IEnumerator_get_Current_m4023948615_gshared
vE:__ZNSt3__227__insertion_sort_incompleteIRPFbN7mecanim9animation13MuscleIndexIdES3_EPS3_EEbT0_S8_T_
I9c:_BaseInput_get_mousePresent_m3571192771
PZk:_emscripten_glBlendEquation__wrapper
oWi:__ZN15dense_hashtableINSt3__24pairIK10KeyWrapperIP11Il2CppClassES4_EES5_N6il2cpp8metadata16SZArrayClassHashEN14dense_hash_mapIS5_S4_SA_NS5_14EqualsComparerINS9_19SZArrayClassCompareEEENS0_9allocatorIS7_EEE9SelectKeyESE_SG_E13set_empty_keyERKS7_
yNk:__ZNSt3__212basic_stringIcNS_11char_traitsIcEENS_9allocatorIcEEE6__initEPKcj
Nj:_emscripten_set_fullscreenchange_callback
Hfe:_KeyPairPersistence__IsUserProtected_m3417764903
Jsf:_CategoryUtils_CategoryFromName_m226887453
mQd:_Decimal_op_Division_m1099836590
qU:__ZN11UnityEngine15CloudWebService14DataDispatcher22ResetNetworkRetryIndexEv
Sj:_emscripten_glDrawArrays
lIb:__ZZ23InitPlayerLoopCallbacksvEN43EarlyUpdateExecuteMainThreadJobsRegistrator7ForwardEv
TT:__ZN11UnityEngine15CloudWebService19SessionEventManagerC2Ev
V1i:__ZNKSt3__26vectorIN6il2cpp2vm22EmbeddedResourceRecordENS_9allocatorIS3_EEE14__annotate_newEj
lte:_File_Open_m1543461971
AEd:_Hashtable_KeyEquals_m1433874944
oth:_Vector4__cctor_m1770725722
f9h:__ZNSt3__26vectorIN6il2cpp2os19SocketHandleWrapperENS_9allocatorIS3_EEE4backEv
esj:__ZNSt3__216allocator_traitsINS_9allocatorIN6il2cpp2os10ThreadImpl10APCRequestEEEE8allocateERS6_j
wXc:__ZN13RuntimeStaticI14dynamic_bitsetLb0EE16StaticInitializeEPv
V8:__ZNSt3__222__merge_move_constructIRNS_4lessIN4core12basic_stringIcNS2_20StringStorageDefaultIcEEEEEENS_11__wrap_iterIPS6_EESB_EEvT0_SC_T1_SD_PNS_15iterator_traitsISC_E10value_typeET_
Rdc:__Z41Register_UnityEngine_Camera_get_eventMaskv
ZO:__ZL19CleanupModule_Audiov
LCh:_GenericComparer_1_Compare_m2516380588_gshared
Jvi:__ZN6il2cpp2os4File10DeleteFileERKNSt3__212basic_stringIcNS2_11char_traitsIcEENS2_9allocatorIcEEEEPi
tse:_File_Exists_m1685968367
WMh:_Canvas_get_scaleFactor_m1899077319
kqb:__Z29Transfer_Blittable_ArrayFieldI14SafeBinaryReadiEvRT_R9ArrayInfoRK23StaticTransferFieldInfo
Yji:__ZN6il2cpp6icalls8mscorlib6System8MonoType8GetFieldEP20Il2CppReflectionTypeP12Il2CppStringi
m3h:__ZN15dense_hashtableINSt3__24pairIK10KeyWrapperIN6il2cpp5utils13dynamic_arrayIPK10Il2CppTypeLj4EEEEPFvvEEESA_NS3_8metadata19Il2CppSignatureHashEN14dense_hash_mapISA_SD_SG_NSA_14EqualsComparerINSF_22Il2CppSignatureCompareEEENS0_9allocatorISE_EEE9SelectKeyESK_SM_E5clearEv
jWk:_emscripten_glVertexAttrib3fv__wrapper
BJi:__ZN15dense_hashtableINSt3__24pairIK10KeyWrapperINS1_IPK10MethodInfoP11Il2CppClassEEEjEES9_17ReflectionMapHashIS8_EN14dense_hash_mapIS9_jSD_NS9_14EqualsComparerINS0_8equal_toIS8_EEEENS0_9allocatorISB_EEE9SelectKeyESI_SK_E12expand_arrayEjN21dense_hash_map_traits17integral_constantIbLb0EEE
G5e:_Comparison_1_BeginInvoke_m1549337842_gshared
Zjh:_X509Crl_VerifySignature_m25189948
hrj:__ZNSt3__213__vector_baseIN6il2cpp2os10ThreadImpl10APCRequestENS_9allocatorIS4_EEEC2Ev
c3a:__ZN18StreamedBinaryReadILb0EE21TransferSTLStyleArrayI13dynamic_arrayI10Matrix4x4fLj16EEEEvRT_17TransferMetaFlags
j1b:__ZNK28MonoBehaviourPropertyBinding13GetFloatValueERKN11UnityEngine9Animation10BoundCurveE
sCf:_RuntimeFieldHandle_Equals_m1202966418_AdjustorThunk
YGj:_GC_generic_malloc
pqi:__ZNSt3__217__compressed_pairIPN6il2cpp6icalls8mscorlib6System12PropertyPairERNS_9allocatorIS5_EEEC2ES6_S9_
IHg:_Enumerator_System_Collections_IEnumerator_get_Current_m2160496972_AdjustorThunk
Tba:__ZN13GfxDeviceGLES32CreateDepthRenderSurfacePlatformEP17RenderSurfaceBase17DepthBufferFormat
ZAk:_Camera_INTERNAL_CALL_ScreenToViewportPoint_m2554844623
c0a:__ZN24GenerateTypeTreeTransfer8TransferINSt3__26vectorI13dynamic_arrayI8Vector2fLj4EENS1_9allocatorIS5_EEEEEEvRT_PKc17TransferMetaFlags
$Dg:_Enumerator_System_Collections_IDictionaryEnumerator_get_Value_m120250090_gshared
iOa:__ZN19LightProbeOcclusion8TransferI14SafeBinaryReadEEvRT_
lbh:_MatchCollection_TryToGet_m2938913145
e_k:_emscripten_glIsTexture__wrapper
cIk:_MessageTypeSubscribers_get_MessageTypeId_m184006475
XYc:_KeyedHashAlgorithm_get_Key_m3672929432
qba:__ZN9GfxDevice25ReleaseAsyncCommandHeaderEPN21GfxDeviceAsyncCommand3ArgE
aei:__ZNSt3__216allocator_traitsIN6il2cpp2gc9AllocatorINS_11__list_nodeIP17Il2CppAsyncResultPvEEEEE10deallocateERS9_PS8_j
oHk:_Mesh_SetSizedArrayForChannel_m3453069292
q9e:_MD2Managed_HashCore_m248147901
gCb:__ZN13MonoBehaviour23VirtualRedirectTransferER17RemapPPtrTransfer
$qa:__ZN21UniformBufferTFMethod20IsBoneCountSupportedEi
Hmi:__ZNSt3__210unique_ptrINS_11__tree_nodeIP11Il2CppClassPvEENS_22__tree_node_destructorINS_9allocatorIS5_EEEEED2Ev
Xxg:_Selectable_FindSelectableOnLeft_m3706572906
Zue:_MemoryStream__ctor_m4073175573
BGk:_Mathf_Clamp_m966229550
Moi:__ZN6il2cpp6icalls8mscorlib6SystemL8IsPublicEPK10MethodInfo
$Ra:__ZN6Shader27MarkShaderStateNotSupportedEPKS_
_5d:_Array_Sort_TisVector4_t2243707581_TisVector4_t2243707581_m917148421_gshared
kRj:__ZNKSt3__214__split_bufferINS_12basic_stringIDsNS_11char_traitsIDsEENS_9allocatorIDsEEEERNS4_IS6_EEE8capacityEv
eOf:_UInt16_System_IConvertible_ToBoolean_m887616848_AdjustorThunk
Atk:__ZL81AnimationTriggers_t3244928895_CustomAttributesCacheGenerator_m_HighlightedTriggerP21CustomAttributesCache
Aqa:__ZN25TransformFeedbackSkinning8SkinMeshERK18VertexStreamSourceP9GfxBufferP17GPUSkinPoseBufferS4_ii17ShaderChannelMaskb
U9i:__ZN15dense_hashtableINSt3__24pairIK10KeyWrapperIP14Il2CppIUnknownEjEES5_N6il2cpp5utils11PointerHashIS3_EEN14dense_hash_mapIS5_jSB_NS5_14EqualsComparerINS0_8equal_toIS4_EEEENS0_9allocatorIS7_EEE9SelectKeyESG_SI_E12resize_deltaEjj
r1i:__ZNSt3__213__vector_baseIcNS_9allocatorIcEEE17__destruct_at_endEPc
GHf:_UnicodeEncoding_GetCharCount_m3719064538
Twd:_Boolean_CompareTo_m3691698947
fOg:_DefaultComparer_Equals_m3262686272_gshared
Lvb:__Z22TransferField_NonArrayI19StreamedBinaryWriteILb0EE27Converter_SimpleNativeClassI8GUIStyleEEvRK23StaticTransferFieldInfoR31RuntimeSerializationCommandInfoRT0_
Cwe:_StreamReader_ReadToEnd_m3871366821
lAg:_Selectable_set_interactable_m63718297
xuc:__ZN8JSONRead8TransferIN4math12int3_storageEEEvRT_PKc17TransferMetaFlagsb
gJb:__ZN27IntermediateRendererManager29ClearAllIntermediateRenderersEv
a2d:_Array_InternalArray__ICollection_CopyTo_TisUICharInfo_t3056636800_m2132994790_gshared
Np:__Z17CalculateGlobalSM23TransformAccessReadOnlyRKN4math7_float4E
SQ:__ZN23CloudWebServicesManager23VirtualRedirectTransferER18StreamedBinaryReadILb0EE
jlj:__ZN30dense_hashtable_const_iteratorINSt3__24pairIK10KeyWrapperIP12Il2CppObjectEN6il2cpp2gc9CachedCCWEEES5_NS7_5utils11PointerHashIS3_EEN14dense_hash_mapIS5_S9_SD_NS5_14EqualsComparerINS0_8equal_toIS4_EEEENS0_9allocatorISA_EEE9SelectKeyESI_SK_E30advance_past_empty_and_deletedEv
Rl:_emscripten_glLoadIdentity
pYb:__ZNSt3__26vectorINS_4pairIN4core12basic_stringIcNS2_20StringStorageDefaultIcEEEEPK17MessageIdentifierEENS_9allocatorISA_EEE26__swap_out_circular_bufferERNS_14__split_bufferISA_RSC_EEPSA_
cJj:__ZN6il2cpp5utilsL14MakeMultipleOfEjj
$Gd:_Decimal_op_GreaterThan_m1625379433
yTb:__Z29CullShadowCastersWithoutUmbraR9IndexListRK17CullingParametersPK4AABBjj
Fhb:__ZN6Shader16GetDefaultOrNullEv
op:__ZN4AABB8TransferI14SafeBinaryReadEEvRT_
Cdg:__Z79RuntimeInvoker_RuntimeObject_SByte_t454417549_SByte_t454417549_SByte_t454417549PFvvEPK10MethodInfoPvPS4_
HIi:__ZN24dense_hashtable_iteratorINSt3__24pairIK10KeyWrapperINS1_IPK10MethodInfoP11Il2CppClassEEEjEES9_17ReflectionMapHashIS8_EN14dense_hash_mapIS9_jSD_NS9_14EqualsComparerINS0_8equal_toIS8_EEEENS0_9allocatorISB_EEE9SelectKeyESI_SK_EC2EPK15dense_hashtableISB_S9_SD_SM_SI_SK_EPSB_SS_b
ane:_Int16_System_IConvertible_ToDecimal_m2010889121_AdjustorThunk
FXd:_Array_InternalArray__ICollection_Remove_TisPlayableBinding_t2498078091_m2632165671_gshared
tYa:__ZN18StreamedBinaryReadILb0EE21TransferSTLStyleArrayI13dynamic_arrayI12LightmapDataLj4EEEEvRT_17TransferMetaFlags
f_b:__Z11MD5ToStringPh
iEe:_Enumerator_MoveNext_m2625246500_AdjustorThunk
$fc:__Z38Input_Get_Custom_PropCompositionStringv
ZIf:_UTF8Encoding_GetPreamble_m4179999478
SVh:__ZN6il2cpp2vm5Class19GetArrayElementSizeEPK11Il2CppClass
yEd:_SyncHashtable__ctor_m3750218498
$R:__ZN9JSONWrite8TransferIN4core12basic_stringIcNS1_20StringStorageDefaultIcEEEEEEvRT_PKc17TransferMetaFlags
khh:_GeneralNames_get_IPAddresses_m1712556836
mIf:_UTF7Encoding_GetByteCount_m253528135
odd:_PointerInputModule_CopyFromTo_m2185451090
K2d:_Array_InternalArray__Insert_TisRefEmitPermissionSet_t2708608433_m4154753514_gshared
$Nk:__ZNSt3__212basic_stringIcNS_11char_traitsIcEENS_9allocatorIcEEE6resizeEjc
l$d:_Array_InternalArray__IndexOf_TisMonoResource_t3127387157_m1933788179_gshared
r6a:__ZN14PlayerSettings16CheckConsistencyEv
JN:__ZN11AudioModule30GetOrCreateDSPFromCustomFilterEP17AudioCustomFilter
KJa:__ZN19AtomicPageAllocatorD2Ev
vn:FUNCTION_TABLE_viiiiiiiiiiiiii
Maj:__ZN6il2cpp6icalls8mscorlib6System13GlobalizationL20culture_lcid_locatorEPKvS5_
nVe:_Collection_1_Add_m3182287887_gshared
Bcd:_PointerEventData_set_useDragThreshold_m2778439880
vVa:__ZNK12CubemapArray16ExtractImageImplEP14ImageReferenceNS0_8BlitModeEbi
Ugc:__Z63Register_UnityEngine_MonoBehaviour_StartCoroutine_Auto_Internalv
GNa:__ZN5Light8TransferI19StreamedBinaryWriteILb0EEEEvRT_
wac:__ZN10systeminfo24GetSystemLanguageCultureEi
kHf:_StringBuilder_Append_m3618697540
Bzg:_ScrollRect_get_normalizedPosition_m1640825682
f3c:_SecurityElement_IsValidAttributeName_m2201790420
Thi:__ZNSt3__217__compressed_pairIPP12Il2CppThreadNS_9allocatorIS2_EEEC2ES3_
D6a:__ZN10VRSettings8TransferI14SafeBinaryReadEEvRT_
mOf:_UInt16_System_IConvertible_ToDecimal_m984067306_AdjustorThunk
NUb:__Z18AddGroupToWorkloadR26BlockRangeBalancedWorkloadjR13dynamic_arrayI10BlockRangeLj4EERS1_IjLj4EE
aAc:_UNITY_FT_Outline_Get_CBox
bbi:__ZNKSt3__211__wrap_iterIPP17Il2CppAsyncResultEplEi
M0d:_Array_InternalArray__ICollection_Add_TisUInt16_t986882611_m2791161149_gshared
pX:__GLOBAL__sub_I_runtime_gfxdevice_0_cpp
rEg:_Enumerator_Reset_m3115320746_gshared
goe:_NumberFormatter_FormatDecimal_m1435371940
tae:_SimpleCollator_GetTailContraction_m1037943844
s_c:_RC2CryptoServiceProvider_CreateEncryptor_m252199767
Pzh:_U3CStartU3Ec__Iterator0_MoveNext_m2339115502_gshared
bWc:__ZN20UnityWebRequestProtoI24UnityWebRequestTransport16AtomicRefCounter14RedirectHelper14ResponseHelper15DownloadHandler13UploadHandler12HeaderHelper14AsyncOperationE8FinalizeEv
Cjg:__Z165RuntimeInvoker_Void_t1841601450_RuntimeObject_Int32_t2071877448_Int32_t2071877448_RuntimeObject_Int32_t2071877448_Single_t2076509932_Single_t2076509932_RuntimeObjectPFvvEPK10MethodInfoPvPS4_
DGa:__ZN22PerThreadPageAllocator14AcquireNewPageEj
VO:__ZN24AudioScriptBufferManager15DidReloadDomainEv
ysb:__Z18Transfer_BlittableI24GenerateTypeTreeTransferLb1E9BoundsIntEvRK29SerializationCommandArgumentsR31RuntimeSerializationCommandInfo
zPb:__ZN6Camera13ClearNoSkyboxEb
jxi:__ZNSt3__2neIPiEEbRKNS_11__wrap_iterIT_EES6_
wqe:_Int64_System_IConvertible_ToInt64_m989981560_AdjustorThunk
ZKe:_List_1_CheckIndex_m2576265846_gshared
okg:__Z110RuntimeInvoker_Boolean_t3825574718_Vector2_t2243707579_Vector2_t2243707579_Single_t2076509932_SByte_t454417549PFvvEPK10MethodInfoPvPS4_
_th:_Event_get_mousePosition_m1191943012
Jud:_Array_combsort_m2486643569
BHk:_Mesh_SetUVs_m3637760384
t5:__ZNSt3__27__sort5IR17CompareInstanceIDPP6ObjectEEjT0_S6_S6_S6_S6_T_
iYb:__ZN13sorted_vectorINSt3__24pairIN4core12basic_stringIcNS2_20StringStorageDefaultIcEEEEPK17MessageIdentifierEEN10vector_mapIS6_S9_NS0_4lessIS6_EENS0_9allocatorISA_EEE13value_compareESF_E4findIS6_EENS0_11__wrap_iterIPSA_EERKT_
rOg:_DefaultComparer_Equals_m145577182_gshared
Eea:__ZN18GfxFramebufferGLES10InvalidateEv
bje:_SmallXmlParser_SkipWhitespaces_m2923234398
wPd:_Decimal_System_IConvertible_ToSingle_m1736019752_AdjustorThunk
uia:__ZN4crnd11crnd_deleteINS_13prefix_coding14decoder_tablesEEEvPT_
OY:__ZN10MemoryPoolD2Ev
c6g:_GCHandle__ctor_m2952050298_AdjustorThunk
Qlc:__ZNSt3__26__treeINS_12__value_typeIN4core12basic_stringIcNS2_20StringStorageDefaultIcEEEEN5IMGUI12NamedControlEEENS_19__map_value_compareIS6_S9_NS_4lessIS6_EELb1EEENS_9allocatorIS9_EEE7destroyEPNS_11__tree_nodeIS9_PvEE
eif:_SslClientStream_get_SelectedClientCertificate_m1580018944
_Hd:_DateTime_FromTicks_m75527956
nee:_KeyGeneratedEventHandler_Invoke_m4220935979
gJf:_CompressedStack_Capture_m179370023
SPh:__ZNSt3__217__compressed_pairINS_12basic_stringIcNS_11char_traitsIcEENS_9allocatorIcEEE5__repES5_EC2Ev
Yna:__ZN14GfxDeviceStats19EndClientFrameStatsEv
MQd:_DebuggerTypeProxyAttribute__ctor_m3082078467
PXd:_Array_InternalArray__ICollection_Remove_TisVector3_t2243707580_m3881497481_gshared
qbc:__ZN9Scripting26RaiseArgumentNullExceptionEPKc
mpi:__ZNKSt3__213__vector_baseIN6il2cpp6icalls8mscorlib6System12PropertyPairENS_9allocatorIS5_EEE8capacityEv
H_k:b120
yW:__ZL18InternalLogConsolePKcz
gLk:_lseek
HKe:_List_1_System_Collections_IList_set_Item_m2267202349_gshared
BFe:_Enumerator_System_Collections_IEnumerator_get_Current_m3866069145_AdjustorThunk
FVe:_Collection_1_ConvertItem_m2972284337_gshared
ckf:_AuthorityKeyIdentifierExtension_Decode_m1941074339
mM:__ZN11AudioSource16UpdatePauseStateEv
a5:__ZL52StaticUnregisterSceneLoadedCallback_LightmapSettingsPv
Ew:__ZN7mecanim5human25HumanPoseAddAdditiveLayerERNS0_9HumanPoseERKS1_fRKNS_6bitsetILj70EEE
v8:__ZN13RuntimeStaticI18SpriteAtlasManagerLb0EE16StaticInitializeEPv
kmf:_RemoteCertificateValidationCallback_Invoke_m2237177542
pnd:_HorizontalOrVerticalLayoutGroup_set_childForceExpandWidth_m1140293254
ZSj:__ZN6il2cpp5utils25NativeDelegateMethodCache17AddNativeDelegateEPFvvEPK10MethodInfo
llf:_NameObjectCollectionBase_BaseAdd_m964300824
SVd:_Array_InternalArray__ICollection_Contains_TisKeyValuePair_2_t1174980068_m650645929_gshared
KOb:__ZN27DeviceViewProjMatricesStateD2Ev
J9h:__ZNSt3__214__split_bufferIN6il2cpp2os19SocketHandleWrapperERNS_9allocatorIS3_EEE5clearEv
x$c:_RNGCryptoServiceProvider_RngOpen_m2238023214
CTf:_CustomAttributeData_GetCustomAttributes_m4124612360
jsb:__Z18Transfer_BlittableI24GenerateTypeTreeTransferLb0E8Vector3fEvRK29SerializationCommandArgumentsR31RuntimeSerializationCommandInfo
cej:__ZN15dense_hashtableINSt3__24pairIK10KeyWrapperINS1_IPKcS4_EEEiEES6_24NamespaceAndNamePairHashN14dense_hash_mapIS6_iS9_NS6_14EqualsComparerI26NamespaceAndNamePairEqualsEENS0_9allocatorIS8_EEE9SelectKeyESD_SF_E14squash_deletedEv
fwc:__ZNK13TextRendering4Font22GetTypeVirtualInternalEv
C_i:__ZN6il2cpp2vm6Thread16RequestInterruptEP12Il2CppThread
_7a:__ZN19StreamedBinaryWriteILb0EE21TransferSTLStyleArrayINSt3__26vectorIN15ResourceManager10DependencyE13stl_allocatorIS5_L18MemLabelIdentifier52ELi16EEEEEEvRT_17TransferMetaFlags
Vjf:_TlsStream_get_Position_m3551173234
D8g:_LeaseManager_SetPollTime_m3137304074
LDd:_Hashtable_CalcPrime_m1835281409
f:HEAPU32
oja:__ZN6prcoreL10inner_flipILj2EEEvPhS1_j
NYf:_TypeBuilder_has_ctor_method_m3449702467
p1a:__ZNK14Texture2DArray16ExtractImageImplEP14ImageReferenceNS0_8BlitModeEbi
Mqc:__ZN9JSONWrite8TransferIbEEvRT_PKc17TransferMetaFlags
dud:_Array_CreateInstance_m679102425
Cxa:__ZN12TLSAllocatorI14StackAllocatorED0Ev
f6g:_GCHandle_GetTarget_m2056570211
q5a:__ZN11TimeManager16CheckConsistencyEv
dMb:__ZN21GfxDeviceAsyncCommand10ArgScratch15ThreadedCleanupEv
Wrj:__ZNSt3__214__split_bufferIN6il2cpp2os10ThreadImpl10APCRequestERNS_9allocatorIS4_EEE9__end_capEv
Kmj:__ZNSt3__26__treeINS_12__value_typeIjN6il2cpp2os17SocketHandleEntryEEENS_19__map_value_compareIjS5_NS_4lessIjEELb1EEENS_9allocatorIS5_EEEC2ERKS9_
dae:_MSCompatUnicodeTable_IsJapaneseSmallLetter_m2541532635
Y6e:_BigInteger_GenerateRandom_m1878468830
Krb:__ZN12NativeBufferI27Converter_UnityEngineObjectE15SetupForWritingER9ArrayInfo
Sld:_Graphic_UpdateGeometry_m2431537946
_Be:_ObsoleteAttribute__ctor_m834417715
pe:_glTexImage3D
WO:__Z20RegisterModule_Audiov
Gcf:_TlsCipherSuite__ctor_m2983563913
ySa:__ZNSt3__26vectorINS_4pairI11ShaderTagIDS2_EENS_9allocatorIS3_EEE6insertENS_11__wrap_iterIPKS3_EERS8_
ye:_JS_SystemInfo_GetCurrentCanvasWidth
Obc:__ZL34GetComponentsImplementationRecurseILb1ELi0ELi1EEbR10GameObjectbRK17CompareParametersRK39GetComponentsImplementation_ReturnValue
e7i:__ZN6il2cpp2vm14PlatformInvoke30MarshalCSharpStringToCppStringEP12Il2CppString
Xnj:__ZN6il2cpp2vm5Field10IsInstanceEP9FieldInfo
Z6a:__ZN10VRSettings8TransferI18StreamedBinaryReadILb0EEEEvRT_
Hv:__ZN22AnimationMixerPlayable12MixerProcessEP35AnimationPlayableEvaluationConstantP32AnimationPlayableEvaluationInputP33AnimationPlayableEvaluationOutputM17AnimationPlayableFvS1_S3_S5_EPFvS1_S3_S5_ESA_PFvS5_S1_S3_S5_PN7mecanim16ValueArrayWeightEfEPFvS1_S3_S5_SD_fE
HXg:_InternalEnumerator_1_System_Collections_IEnumerator_get_Current_m1322273508_AdjustorThunk
_jb:__ZN22LocalFileSystemHandler4NameEv
Xqe:_Int64_TryParse_m3093198325
vfg:__Z145RuntimeInvoker_Void_t1841601450_RuntimeObject_RuntimeObject_RuntimeObject_Int32_t2071877448_Int32_t2071877448_Int32_t2071877448_Int32_t2071877448PFvvEPK10MethodInfoPvPS4_
eii:__ZN6il2cpp2vm10ThreadPool5QueueEP14Il2CppDelegatePPvS3_P12Il2CppObject
Rvb:__Z19TransferField_ArrayI19StreamedBinaryWriteILb0EE27Converter_SimpleNativeClassI8GradientEEvRK23StaticTransferFieldInfoR31RuntimeSerializationCommandInfoRT0_
Bte:_FileLoadException_ToString_m319701103
Qve:_NullStream_Seek_m1809916110
Ksc:__Z18Transfer_BlittableI8JSONReadLb0E12PropertyNameEvRK29SerializationCommandArgumentsR31RuntimeSerializationCommandInfo
rQd:_Delegate_SetMulticastInvoke_m361277268
K9c:_BaseInput_GetMouseButtonUp_m32571233
wFf:_EncoderReplacementFallbackBuffer_get_Remaining_m2777488845
m0a:__ZN7SubMesh8TransferI18StreamedBinaryReadILb0EEEEvRT_
MNa:__ZN15SharedLightData17MainThreadCleanupEv
RIf:_UTF8Encoding_GetCharCount_m3557355060
lXg:_InternalEnumerator_1_System_Collections_IEnumerator_get_Current_m127456009_gshared
kkc:__ZNK19RectangleCellLayout9CellRoundERKN4Grid9GridStateERKN4math7_float3E
cf:_emscripten_glIsEnabled
Ofi:__ZN6il2cpp2gc9AllocatorINSt3__211__list_nodeIP17Il2CppAsyncResultPvEEE8allocateEjPKv
Txb:__ZN18StreamedBinaryReadILb1EE21TransferSTLStyleArrayI13dynamic_arrayIdLj8EEEEvRT_17TransferMetaFlags
Pec:__Z45Register_UnityEngine_GameObject_get_transformv
mDj:__ZN6il2cpp6icalls8mscorlib6System11DiagnosticsL17FrameNeedsSkippedERK20Il2CppStackFrameInfo
_$:__Z29scripting_class_instance_size17ScriptingClassPtr
fuc:__Z29Transfer_Blittable_ArrayFieldI8JSONRead5RectTIiEEvRT_R9ArrayInfoRK23StaticTransferFieldInfo
cii:__ZNSt3__210__list_impIP17Il2CppAsyncResultN6il2cpp2gc9AllocatorIS2_EEED2Ev
v6e:_Func_2_Invoke_m2929712329_gshared
Gif:_SslHandshakeHash_initializePad_m4132246594
frf:_X509CertificateCollection_get_Item_m848456018
tU:__ZN11UnityEngine15CloudWebService19SessionEventManager26ProcessEventQueueJobStaticEPv
dyi:__ZNSt3__216allocator_traitsINS_9allocatorIiEEE8allocateERS2_j
_dh:_AnchorInfo_get_IsUnknownWidth_m3747592836
$oi:__ZNSt3__26vectorIN6il2cpp6icalls8mscorlib6System12PropertyPairENS_9allocatorIS5_EEEC2Ev
Img:__Z99RuntimeInvoker_Void_t1841601450_Int32_t2071877448_Int32_t2071877448_Int32_t2071877448_RuntimeObjectPFvvEPK10MethodInfoPvPS4_
NU:__ZN11UnityEngine15CloudWebService19SessionEventManager37OnTimerExpiredPerformArchiveJobStaticEPv
Epc:__Z18Transfer_BlittableI9JSONWriteLb1E9BoundsIntEvRK29SerializationCommandArgumentsR31RuntimeSerializationCommandInfo
SCk:_DebugLogHandler_Internal_LogException_m4229368478
Vii:__ZNSt3__213__vector_baseINS_4pairIPK10MethodInfoP11Il2CppClassEENS_9allocatorIS7_EEE9__end_capEv
LPa:__ZN10builtintex15GetWhiteTextureEv
OUj:__ZN6il2cpp6icalls8mscorlib6System10Reflection4Emit11DerivedType21create_unmanaged_typeEP20Il2CppReflectionType
HKk:_printf_core
h1i:__ZNSt3__213__vector_baseIcNS_9allocatorIcEEE5clearEv
dAf:_FormatterConverter_ToInt32_m1004171952
Pwh:_InvokableCall_1_Invoke_m2228071798_gshared
q7:__Z29GetOcclusionPortalManagerListv
itd:_Array_System_Collections_IList_set_Item_m4290470392
Myf:_RemotingConfiguration_RegisterActivatedServiceType_m4003543022
jic:__Z39Register_UnityEngine_Sprite_get_texturev
_0h:__ZN30dense_hashtable_const_iteratorI10KeyWrapperIPK19Il2CppGenericMethodES4_N6il2cpp8metadata23Il2CppGenericMethodHashEN14dense_hash_setIS4_S7_NS4_14EqualsComparerINS6_26Il2CppGenericMethodCompareEEENSt3__29allocatorIS4_EEE8IdentityESB_SE_EC2EPK15dense_hashtableIS4_S4_S7_SG_SB_SE_EPKS4_SN_b
w8g:_ConfigHandler_GetNotNull_m2454680251
qOh:__ZL10rescale128PyS_Piiiii
EG:__ZN9AudioClip7WWWSeekEPvjS0_
UKb:__ZN8GUILayer14RenderGUILayerE5RectTIfEjR17ShaderPassContext
eY:__ZL32StaticInitializeIUnityInterfacesPv
ILb:__Z13CameraProjectRK8Vector3fRK10Matrix4x4fS4_RK5RectTIiERS_b
T8a:__ZN30RuntimeInitializeOnLoadManager15ClassMethodInfo8TransferI19StreamedBinaryWriteILb0EEEEvRT_
m4:__Z22CreateMutexLockedStackv
uMd:_DateTime_System_IConvertible_ToType_m3821835592
Buf:_IntervalCollection_get_Item_m1667788970
LGb:__ZNSt3__27__sort5IRNS_4lessIN22BuiltinResourceManager8ResourceEEEPS3_EEjT0_S7_S7_S7_S7_T_
CGf:_Latin1Encoding_GetByteCount_m2812921286
zgb:__ZN9ShaderLab11ShaderStateD2Ev
ePd:_Decimal_System_IConvertible_ToByte_m3432160840
vGf:_UTF7Encoding__ctor_m1941256679
tDb:__Z23TransferScriptingObjectI24GenerateTypeTreeTransferEvRT_18ScriptingObjectPtr17ScriptingClassPtrPK15MonoScriptCache
gAf:_BinaryCommon__cctor_m3619690968
ozc:_UNITY_FT_Set_Pixel_Sizes
Gjh:_X509Chain_FindCertificateRoot_m589250107
EQj:__ZNSt3__213__vector_baseINS_12basic_stringIDsNS_11char_traitsIDsEENS_9allocatorIDsEEEENS4_IS6_EEE7__allocEv
FRf:_Version_GetHashCode_m880841176
$z:__ZN8Animator24SortJobsBasedOnHierarchyERK13dynamic_arrayINS_11AnimatorJobELj8EERS0_IS2_Lj4EE
xvb:__ZL17Transfer_GUIStyleI19StreamedBinaryWriteILb0EELb0EEvRK29SerializationCommandArgumentsR31RuntimeSerializationCommandInfo
Njb:__ZNK12HandlerChain6TargetERK13FileEntryDataR15FileSystemEntry
CFf:_Encoding__ctor_m3985582722
aBf:_ObjectManager_RaiseOnDeserializingEvent_m1841526046
h8c:_String_CreateString_m560359261
iBc:_UNITY_FT_Init_Class_tt_service_get_cmap_info
ZXc:_DSA_ToXmlString_m1014346120
J0c:_SHA256Managed__ctor_m1410575277
zIk:_Plane_Raycast_m3246912889_AdjustorThunk
AUd:_CompareInfo_internal_index_managed_m859405335
nwd:_Boolean_System_IConvertible_ToDateTime_m2613818037_AdjustorThunk
R8h:__ZNSt3__211__tree_nextIPNS_16__tree_node_baseIPvEEEET_S5_
m2e:_ReadOnlyCollection_1_System_Collections_IList_Clear_m2240307498_gshared
Eij:__ZN15dense_hashtableI10KeyWrapperIP18Il2CppGenericClassES3_N6il2cpp8metadata22Il2CppGenericClassHashEN14dense_hash_setIS3_S6_NS3_14EqualsComparerINS5_25Il2CppGenericClassCompareEEENSt3__29allocatorIS3_EEE8IdentityESA_SD_E14squash_deletedEv
Hoj:__ZN6il2cpp2vm11MethodStack17GetStackFramesRawEv
Pla:__ZN6prcoreL17RemapGenericFloatI17TexFormatRGBAHalf17TexFormatRGBFloatEEvPKNS_9InnerInfoE
sAf:_BinaryFormatter_NoCheckDeserialize_m1968202401
imd:_Graphic_CrossFadeAlpha_m4067047552
Okg:__Z92RuntimeInvoker_Void_t1841601450_RuntimeObject_RuntimeObject_Color32_t874517518_RuntimeObjectPFvvEPK10MethodInfoPvPS4_
Zhc:__Z35Sprite_Get_Custom_PropPixelsPerUnitP12Il2CppObject
o1h:__ZNSt3__26__sortIRN6il2cpp5utils11collections13ArrayValueMapIPK10Il2CppType17Il2CppInteropData26InteropDataToTypeConverterNS1_8metadata14Il2CppTypeLessENSA_26Il2CppTypeEqualityComparerEE12SortComparerEPS8_EEvT0_SH_T_
Wab:__ZN11PreloadDataD2Ev
WWc:__ZN15DownloadHandler14ProcessHeadersERK9HeaderMap
wwc:__ZNSt3__26vectorINS_4pairIifEE13stl_allocatorIS2_L18MemLabelIdentifier35ELi16EEE6assignINS_11__wrap_iterIPS2_EEEENS_9enable_ifIXaasr21__is_forward_iteratorIT_EE5valuesr16is_constructibleIS2_NS_15iterator_traitsISC_E9referenceEEE5valueEvE4typeESC_SC_
Yb:invoke_iifi
KHk:_MonoBehaviour_StopCoroutineViaEnumerator_Auto_m2222980381
b_j:__ZL79Hashtable_t909839986_CustomAttributesCacheGenerator_Hashtable__ctor_m3742489710P21CustomAttributesCache
HDg:_VertexHelper_AddUIVertexStream_m3599763288
RPg:_EqualityComparer_1_System_Collections_IEqualityComparer_Equals_m1565968086_gshared
y3d:_Array_InternalArray__set_Item_TisSlot_t2022531261_m3811041838_gshared
MKa:__ZN15SharedLightData15UpdateTransformERK9Transform
O_c:_RijndaelTransform__cctor_m1393306207
Fld:_Graphic_get_defaultMaterial_m1022773737
KEc:_UNITY_FT_Init_Class_pscmaps_interface
uBg:_Slider_OnDidApplyAnimationProperties_m3202463395
KMh:_TextGenerator_PopulateAlways_m817480435
YEf:_EncoderExceptionFallback__ctor_m3203614411
bnd:_GridLayoutGroup_SetLayoutVertical_m3233681648
Jfc:__Z44Register_UnityEngine_RectOffset_get_verticalv
PNf:_Type_MakeGenericType_m973683242
vQj:__ZN6il2cpp2vm9LastError31InitializeLastErrorThreadStaticEv
D2b:__ZN13ProduceHelperI13RenderTextureLb0EE7ProduceE18MemLabelIdentifier18ObjectCreationMode
ere:_Int64_ToString_m2785525583
dK:__ZN4FMOD6System17setSoftwareFormatEi17FMOD_SOUND_FORMATii18FMOD_DSP_RESAMPLER
SWf:_FieldBuilder_GetCustomAttributes_m291168515
Pza:__ZN15dense_hashtableINSt3__24pairIKN4core12basic_stringIcNS2_20StringStorageDefaultIcEEEEP20ArchiveStorageReaderEES6_20StringHash32FunctionIS6_EN14dense_hash_mapIS6_S9_SC_NS0_8equal_toIS6_EE13stl_allocatorISA_L18MemLabelIdentifier55ELi16EEE9SelectKeyESF_SI_E12expand_arrayEjN21dense_hash_map_traits17integral_constantIbLb0EEE
hli:__ZNKSt3__26vectorIP9FieldInfoNS_9allocatorIS2_EEE14__annotate_newEj
t0f:_MonoGenericCMethod__ctor_m2520666358
JDk:_InvokableCall_remove_Delegate_m3232269751
eh:_JS_SystemInfo_GetCurrentCanvasHeight
Ixk:__ZL75CanvasScaler_t2574720772_CustomAttributesCacheGenerator_m_FallbackScreenDPIP21CustomAttributesCache
RUg:_InternalEnumerator_1_System_Collections_IEnumerator_get_Current_m1313308902_gshared
exf:_ReturnMessage_get_OutArgs_m299904174
oSa:__ZNK8Material22GetTypeVirtualInternalEv
Zmc:__Z34GUIStyle_Get_Custom_PropFixedWidthP12Il2CppObject
uge:_RSAManaged_get_PublicOnly_m2603845138
uPd:_Decimal_System_IConvertible_ToSByte_m3745141000_AdjustorThunk
Gvj:__ZN6il2cpp2gc16GarbageCollector11GetWeakLinkEPPv
nAe:_MonoType_GetMethods_m353342170
Q2f:__Z108RuntimeInvoker_Boolean_t3825574718_SByte_t454417549_RuntimeObject_Int32_t2071877448_ExceptionU26_t1467204777PFvvEPK10MethodInfoPvPS4_
Mqj:__GLOBAL__sub_I_Console_cpp
Fla:__ZN6prcoreL17RemapGenericFloatI14TexFormatRHalf17TexFormatRGBAHalfEEvPKNS_9InnerInfoE
fti:__ZN6il2cpp2vm7Runtime11InvokeArrayEPK10MethodInfoPvP11Il2CppArrayPP15Il2CppException
JQi:__ZN30dense_hashtable_const_iteratorINSt3__24pairIK10KeyWrapperIPK14Il2CppAssemblyEPK22Il2CppMonoAssemblyNameEES6_N6il2cpp5utils11PointerHashIS4_EEN14dense_hash_mapIS6_SA_SF_NS6_14EqualsComparerINS0_8equal_toIS5_EEEENS0_9allocatorISB_EEE9SelectKeyESK_SM_EC2EPK15dense_hashtableISB_S6_SF_SO_SK_SM_EPKSB_SV_b
rke:_GregorianCalendar_get_Eras_m4010603022
CSd:_Enum_System_IConvertible_ToUInt16_m1001858842
NLg:_Dictionary_2_make_pair_m394533803_gshared
JIc:_Dual_Project
AF:__ZN9AudioClip23VirtualRedirectTransferER14SafeBinaryRead
Vzk:_AsyncOperation_t3814632279_marshal_pinvoke_back
Noa:__ZN4gles20EnsureTextureCreatedEP7ApiGLESP17RenderSurfaceGLES
Xsd:_LayoutRebuilder_U3CRebuildU3Em__2_m3239837417
tMb:__ZN15ReplacementPass13PrepareSubsetEjRK10RenderNodeifRK17ShaderReplaceData
vPd:_Decimal_System_IConvertible_ToSingle_m1736019752
VK:__Z32AudioMeasurement_GetTimeConstantff
VAi:__ZNSt3__216allocator_traitsINS_9allocatorINS_12basic_stringIcNS_11char_traitsIcEENS1_IcEEEEEEE8allocateERS7_j
Ewj:__ZN6il2cpp8metadata11FieldLayout12LayoutFieldsEjjjRKNSt3__26vectorIPK10Il2CppTypeNS2_9allocatorIS6_EEEERNS1_15FieldLayoutDataE
Zjk:__ZL54ContextMenu_t2283362202_CustomAttributesCacheGeneratorP21CustomAttributesCache
aUb:__ZL27PrepareSceneNodesJobCombineP25ScheduleSceneNodesJobData
zue:_Stream_EndWrite_m263497992
wzd:_Char_Parse_m2121403806
M9:__ZN13GfxDeviceGLESD2Ev
M5:__ZN18AsyncUploadManager13StaticDestroyEPv
bWf:_EnumBuilder_GetConstructorImpl_m331611313
gcb:__ZN6Shader7SetNameEPKc
Jid:_DefaultControls_SetParentAndAlign_m3048898502
xXb:__ZN19CustomRenderTexture22HandleBoundaryWrappingERKNS_14UpdateZoneInfoEj
I8h:__ZN6il2cpp2vm13MetadataCache32GenerateCustomAttributeTypeCacheEi
urf:_X509Chain__cctor_m826131835
s0h:__ZN15dense_hashtableI10KeyWrapperIPK19Il2CppGenericMethodES4_N6il2cpp8metadata23Il2CppGenericMethodHashEN14dense_hash_setIS4_S7_NS4_14EqualsComparerINS6_26Il2CppGenericMethodCompareEEENSt3__29allocatorIS4_EEE8IdentityESB_SE_ED2Ev
yrh:_Transform_GetEnumerator_m1156558734
uz:__ZNK11UnityEngine9Animation30GenericBindingValueArrayUniqueclERKNS0_14GenericBindingES4_
gvd:_ArrayTypeMismatchException__ctor_m1923871345
kEf:_CspParameters__ctor_m3051314030
Dwa:__ZNK15dense_hashtableINSt3__24pairIKNS1_I9UnityGUIDxEE15SpriteAtlasDataEES3_23SpriteRenderDataKeyHashN14dense_hash_mapIS3_S5_S7_NS0_8equal_toIS3_EE13stl_allocatorIS6_L18MemLabelIdentifier81ELi16EEE9SelectKeyESA_SD_E23find_position_with_hashERS4_j
cvh:_GUILayoutEntry_set_style_m864176480
grh:_Transform_INTERNAL_set_localRotation_m1514748659
OIc:_Direct_Move_Y
MIc:_Direct_Move_X
Dqf:_X509ChainElement_Set_m2634474339
jwd:_Boolean_System_IConvertible_ToByte_m1443044213_AdjustorThunk
Ai:_glClearDepthf
Wmi:__ZNSt3__210unique_ptrINS_11__tree_nodeIP11Il2CppClassPvEENS_22__tree_node_destructorINS_9allocatorIS5_EEEEEC2EPS5_OS9_
s2b:__ZN19SkinnedMeshRenderer7GetMeshEv
Sib:__ZN19RuntimeSceneManager14GetActiveSceneEv
MGb:__ZNSt3__218__insertion_sort_3IRNS_4lessIN22BuiltinResourceManager8ResourceEEEPS3_EEvT0_S7_T_
fri:__ZN6il2cpp6icalls8mscorlib6SystemL8IsStaticEPK9EventInfo
sfc:__Z29RectOffset_Set_Custom_PropTopP12Il2CppObjecti
Znf:_WebRequest__ctor_m1537196628
znf:_ServicePointManager_get_CertificatePolicy_m345233313
dce:_BigInteger_op_Equality_m366854173
gOa:__ZN14SafeBinaryRead21TransferSTLStyleArrayI13dynamic_arrayI19LightProbeOcclusionLj4EEEEvRT_17TransferMetaFlags
a8b:__ZN19StreamedBinaryWriteILb0EE4InitE24TransferInstructionFlags20BuildTargetSelection
$ug:_MaskableGraphic_Cull_m3130802047
$cc:__Z40Register_UnityEngine_Application_OpenURLv
phf:_RecordProtocol_MapV2CipherCode_m4064211604
xYd:_Enumerable_Where_TisRuntimeObject_m1140705402_gshared
F8c:_ASCIIEncoding_GetByteCount_m2696039881
qxi:__ZNSt3__216allocator_traitsINS_9allocatorIiEEE9constructIiJiEEEvRS2_PT_DpOT0_
chf:_ReceiveRecordAsyncResult_SetComplete_m2441107665
POa:__ZN20SphericalHarmonicsL28TransferI19StreamedBinaryWriteILb0EEEEvRT_
MIk:_BeLive_Awake_m332617507
Vgd:_CanvasUpdateRegistry_InternalUnRegisterCanvasElementForLayoutRebuild_m3740187734
E1b:__ZNK28RectTransformPropertyBinding9BindValueER6ObjectRKN11UnityEngine9Animation14GenericBindingERNS3_10BoundCurveE
xVf:_DerivedType_get_AssemblyQualifiedName_m2010127631
B3a:__ZN4Mesh14UploadMeshDataEb
J2d:_Array_InternalArray__Insert_TisMonoResource_t3127387157_m2580914422_gshared
pZg:_InternalEnumerator_1_System_Collections_IEnumerator_get_Current_m4023948615_AdjustorThunk
JSb:__ZN14qsort_internal5QSortIP16RenderObjectDatai25RenderPrePassObjectSorterEEvT_S4_T0_T1_
Wje:_ArgIterator_Equals_m2415994310
ogg:__Z85RuntimeInvoker_Char_t3454481338_RuntimeObject_Int32U26_t455636984_CharU26_t1894467670PFvvEPK10MethodInfoPvPS4_
H2b:__ZN14RenderSettings12CleanupClassEv
fic:__Z43DataUtility_CUSTOM_INTERNAL_CALL_GetPaddingP12Il2CppObjectR8Vector4f
rN:__ZN21AudioScriptingClasses26InvokeOnAudioManagerUpdateEP21ScriptingExceptionPtr
Sia:__ZN18AsyncUploadManager15DoDeCruncherJobEP26FileAssetUploadInstruction
Kca:__ZN9GfxDevice15ImmediateNormalEfff
AFf:_EncoderReplacementFallbackBuffer_GetNextChar_m1811006007
oRi:__ZN15dense_hashtableINSt3__24pairIK10KeyWrapperIPK22Il2CppGenericParameterEPK24MonoGenericParameterInfoEES6_N6il2cpp5utils11PointerHashIS4_EEN14dense_hash_mapIS6_SA_SF_NS6_14EqualsComparerINS0_8equal_toIS5_EEEENS0_9allocatorISB_EEE9SelectKeyESK_SM_E4swapERSP_
Atb:__ZN13GUIStyleState8TransferI24GenerateTypeTreeTransferEEvRT_
a2:__ZN20dynamic_block_vectorI14FileIdentifierE22push_back_no_constructEv
H1a:__ZN9Texture3D23VirtualRedirectTransferER14SafeBinaryRead
bHi:__ZN30dense_hashtable_const_iteratorINSt3__24pairIK10KeyWrapperIPK10Il2CppTypeEjEES6_N6il2cpp8metadata14Il2CppTypeHashEN14dense_hash_mapIS6_jSB_NS6_14EqualsComparerINSA_26Il2CppTypeEqualityComparerEEENS0_9allocatorIS8_EEE9SelectKeyESF_SH_EC2EPK15dense_hashtableIS8_S6_SB_SJ_SF_SH_EPKS8_SQ_b
mHf:_StringBuilder_Append_m1462406979
Qdb:__ZNSt3__26vectorIN9ShaderLab20SerializedSubProgram16TextureParameterENS_9allocatorIS3_EEE8__appendEj
w9i:__ZN30dense_hashtable_const_iteratorINSt3__24pairIK10KeyWrapperIP14Il2CppIUnknownEjEES5_N6il2cpp5utils11PointerHashIS3_EEN14dense_hash_mapIS5_jSB_NS5_14EqualsComparerINS0_8equal_toIS4_EEEENS0_9allocatorIS7_EEE9SelectKeyESG_SI_E30advance_past_empty_and_deletedEv
sXa:__ZN9Texture2D13UploadTextureEi
fGf:_Type_GetType_m773255995
tHc:_cff_get_cid_from_glyph_index
yEh:_PCMSetPositionCallback_Invoke_m1437833149
ewg:_RawImage__ctor_m527845386
eK:__ZN4FMOD6System19setSoftwareChannelsEi
sua:__ZN9GfxDevice19SetSinglePassStereoE16SinglePassStereo
Q3d:_Array_InternalArray__set_Item_TisResourceCacheItem_t333236149_m2074358118_gshared
xFg:_Enumerator_MoveNext_m3349738440_gshared
fpf:_X500DistinguishedName_DecodeRawData_m3640767187
JJf:_Monitor_Monitor_wait_m3813798368
LWh:__ZNSt3__211char_traitsIcE6assignERcRKc
_Vd:_Array_InternalArray__ICollection_Contains_TisDouble_t4078015681_m2262383923_gshared
Qwd:_Boolean_System_IConvertible_ToUInt64_m3594533761
sng:__Z85RuntimeInvoker_Boolean_t3825574718_SpriteStateU26_t1330646292_SpriteState_t1353336012PFvvEPK10MethodInfoPvPS4_
rgc:__Z60Register_UnityEngine_Input_INTERNAL_set_compositionCursorPosv
Jbe:_BigInteger_get_Rng_m1268152318
dRk:dynCall_viiiii
z7f:__Z90RuntimeInvoker_Boolean_t3825574718_RuntimeObject_RuntimeObject_RuntimeObject_RuntimeObjectPFvvEPK10MethodInfoPvPS4_
iRk:dynCall_viiiif
V$f:_MonoEvent_IsDefined_m3151861274
V_i:__ZNKSt3__214__split_bufferIP12Il2CppThreadRN6il2cpp2gc9AllocatorIS2_EEE9__end_capEv
wZf:_PropertyBuilder_GetCustomAttributes_m1029078269
VDc:_Cubic_To
jdf:_TlsStream_WriteInt24_m1660453494
Odc:__Z44Register_UnityEngine_Camera_get_farClipPlanev
rOa:__ZNSt3__26vectorINS_4pairI7Hash128iEE13stl_allocatorIS3_L18MemLabelIdentifier82ELi16EEE8__appendEj
Fq:__Z25InverseTransformDirection23TransformAccessReadOnlyRKN4math7_float3Eb
mO:__ZNK12AudioManager15GetDSPBlockSizeEv
n6a:__ZNK17IAnimationBinding30CurveAttributeToSerializedPathERKN11UnityEngine9Animation10BoundCurveE
uGi:__ZNSt3__218uninitialized_copyIPNS_4pairIK10KeyWrapperINS1_IPK9FieldInfoP11Il2CppClassEEEjEESC_EET0_T_SE_SD_
lig:__Z87RuntimeInvoker_Color_t2020392075_Color_t2020392075_Color_t2020392075_Single_t2076509932PFvvEPK10MethodInfoPvPS4_
Xlj:__ZN6il2cpp2gc16GarbageCollector14GetOrCreateCCWEP12Il2CppObjectRK10Il2CppGuid
sfj:__ZN6il2cpp2vm5Image21FromTypeNameParseInfoEPK11Il2CppImageRKNS0_17TypeNameParseInfoEb
uga:__ZN17BufferManagerGLES13AcquireBufferEjN14DataBufferGLES11BufferUsageEb
xGd:_Console_OpenStandardError_m3676373108
rye:_UnmanagedMemoryStream_SetLength_m1805321486
nef:_Context_get_ProtocolNegotiated_m624488778
avd:_SimpleEnumerator_MoveNext_m1696906961
IUc:__ZN16UnityAdsSettingsD0Ev
aff:_Context_StartSwitchingSecurityParameters_m373522596
C1f:_MonoProperty_GetRequiredCustomModifiers_m576853384
yha:__ZNK7ApiGLES10DebugLabelEN2gl10ObjectTypeEjPKc
b$d:_Array_InternalArray__IndexOf_TisInt16_t4041245914_m1619355230_gshared
WZd:__ZN21InterfaceFuncInvoker2Ii18Color32_t874517518S0_E6InvokeEjP11Il2CppClassP12Il2CppObjectS0_S0_
nPk:__ZNK10__cxxabiv121__vmi_class_type_info16search_below_dstEPNS_19__dynamic_cast_infoEPKvib
lqe:_Int64_System_IConvertible_ToDateTime_m1002280174
Pga:__ZN19ConstantBuffersGLES13SetCBConstantEiiPKvi
rHd:_Convert_ToByte_m9159597
Ajh:_X509Store_BuildCertificatesCollection_m4224672591
gic:__Z38DataUtility_CUSTOM_Internal_GetMinSizeP12Il2CppObjectP13Vector2fIcall
a7b:__ZN8PlayableC2E17ScriptingClassPtr18DirectorPlayerType
Y4g:_ResourceEnumerator_get_Key_m1012797265
loe:_NumberFormatter_FormatPercent_m776769918
lui:_il2cpp_class_has_attribute
HQi:__ZNK15dense_hashtableINSt3__24pairIK10KeyWrapperIPK14Il2CppAssemblyEPK22Il2CppMonoAssemblyNameEES6_N6il2cpp5utils11PointerHashIS4_EEN14dense_hash_mapIS6_SA_SF_NS6_14EqualsComparerINS0_8equal_toIS5_EEEENS0_9allocatorISB_EEE9SelectKeyESK_SM_E10test_emptyERK30dense_hashtable_const_iteratorISB_S6_SF_SO_SK_SM_E
ZKf:_Scheduler_ShrinkIfNeeded_m2186823111
cbf:_Alert_get_IsCloseNotify_m577852330
v0:__Z27FindOrCreateMonoScriptCache17ScriptingClassPtr22InitScriptingCacheTypeP6Objecti
qzb:__Z18Transfer_BlittableI18StreamedBinaryReadILb0EELb1E8Vector3fEvRK29SerializationCommandArgumentsR31RuntimeSerializationCommandInfo
ENc:__ZN2UI14CanvasRenderer13SyncVertexPtrER8JobFenceNS0_8SyncFlagE
N0:__Z35scripting_method_get_argument_count18ScriptingMethodPtr
zya:__ZN18AssetBundleManager18SortPreloadObjectsER13dynamic_arrayIiLj4EEb
iOf:_UInt16_System_IConvertible_ToChar_m4055364664_AdjustorThunk
hki:__ZN6il2cpp6icalls8mscorlib6SystemL8IsStaticEPK9FieldInfo
Fsh:_Vector3_SqrMagnitude_m3835019255
Zec:__Z20Gradient_CUSTOM_InitP12Il2CppObject
znc:__Z48Register_UnityEngine_GUIUtility_Internal_ExitGUIv
qTi:__ZN14dense_hash_mapI10KeyWrapperINSt3__24pairIPK9FieldInfoP11Il2CppClassEEEj17ReflectionMapHashIS8_ENS9_14EqualsComparerINS1_8equal_toIS8_EEEENS1_9allocatorINS2_IKS9_jEEEEE15set_deleted_keyERSH_
Qih:_X509Certificate_get_RawData_m1262574599
pNa:__ZN5Light23VirtualRedirectTransferER19StreamedBinaryWriteILb0EE
zxd:_Byte_System_IConvertible_ToDouble_m4224320007
eUb:__ZL21CullDynamicObjectsJobP14CullingJobDataj
HLc:__ZN2UI15ClearCanvasDataER8JobFenceRNS_10CanvasDataE
Xmf:_IPAddress_ToString_m1462985652
N_f:_MethodBase_GetMethodFromHandleNoGenericCheck_m4274264088
LIg:_ValueCollection_System_Collections_Generic_ICollectionU3CTValueU3E_Clear_m3471385195_gshared
bFg:_Enumerator_get_CurrentKey_m1408186928_AdjustorThunk
gYb:__ZN14ManagerContext17InitializeClassesEv
vvg:_MaskUtilities_GetRectMasksForClip_m1540508301
aya:__ZN19StreamedBinaryWriteILb0EE21TransferSTLStyleArrayINSt3__26vectorI14ConstantStringNS2_9allocatorIS4_EEEEEEvRT_17TransferMetaFlags
Vt:__ZN7mecanim5human20MaskHasRightFootGoalERKNS_6bitsetILj70EEE
Hxb:__ZN18StreamedBinaryReadILb1EE21TransferSTLStyleArrayI31ArrayOfManagedObjectsTransfererEEvRT_17TransferMetaFlags
L7h:__ZN14dense_hash_mapI10KeyWrapperIPK19Il2CppGenericMethodEPK26Il2CppGenericMethodIndicesN6il2cpp8metadata23Il2CppGenericMethodHashENS4_14EqualsComparerINS9_26Il2CppGenericMethodCompareEEENSt3__29allocatorINSE_4pairIKS4_S7_EEEEE3endEv
LGe:_List_1_System_Collections_IList_IndexOf_m406088260_gshared
ORf:_WeakReference_get_Target_m1672141897
oce:_Kernel_DwordDivMod_m4066997639
wEc:_t1_hints_open
vRc:__ZN11UnityEngine15PlatformWrapper24GetVRTrackedAreaGeometryER13dynamic_arrayI8Vector3fLj4EE
heg:__Z68RuntimeInvoker_Boolean_t3825574718_DateTime_t693205669_RuntimeObjectPFvvEPK10MethodInfoPvPS4_
wRj:__ZNKSt3__26vectorINS_12basic_stringIDsNS_11char_traitsIDsEENS_9allocatorIDsEEEENS4_IS6_EEE14__annotate_newEj
s2c:_X509Certificate_GetCertHash_m2299453268
TZc:_MD5CryptoServiceProvider__ctor_m457716966
RVd:_Array_InternalArray__ICollection_Contains_TisKeyValuePair_2_t888819835_m3819112676_gshared
L4i:__ZNKSt3__26__treeINS_12basic_stringIcNS_11char_traitsIcEENS_9allocatorIcEEEENS_4lessIS6_EENS4_IS6_EEE3endEv
JJd:_Decimal_s64_m2965457432
i9b:__Z18TransformPoints3x4RK10Matrix4x4fPK8Vector3fjPS2_ji
jXc:__ZN22UnityWebRequestManager21CreateUnityWebRequestEv
esi:__ZNSt3__217__compressed_pairIPP11Il2CppClassRNS_9allocatorIS2_EEEC2ES3_S6_
_I:__ZN4FMOD7Channel11getUserDataEPPv
Knh:_RectTransform_INTERNAL_set_anchorMax_m4173108796
zBc:_UNITY_tt_face_load_gasp
Ilg:__Z150RuntimeInvoker_RuntimeObject_RuntimeObject_Int32_t2071877448_Int32_t2071877448_Int32_t2071877448_Int32_t2071877448_Int32_t2071877448_Int32_t2071877448PFvvEPK10MethodInfoPvPS4_
N1e:_ReadOnlyCollection_1_System_Collections_IList_Insert_m3650067527_gshared
Xyc:_ft_ansi_stream_close
dm:_JS_Sound_SetPitch
hvi:_il2cpp_runtime_invoke_convert_args
Mtc:__Z19TransferField_ArrayI8JSONRead27Converter_SimpleNativeClassI10RectOffsetEEvRK23StaticTransferFieldInfoR31RuntimeSerializationCommandInfoRT0_
n4g:_Enumerator_get_CurrentKey_m447338908_AdjustorThunk
kdf:_Context_get_SecurityProtocol_m1600902905
$3i:__ZN6il2cpp6icalls8mscorlib6System2IO6MonoIO11GetFileStatEP12Il2CppStringPNS3_8FileStatEPi
tda:__ZN9GfxDevice33InsertCustomMarkerCallbackAndDataEPFviPvEiS0_j
iVc:__ZN11UnityEngine15PlatformWrapper16GenerateRandomIdEv
vMb:__ZNK9ShaderLab9IntShader6GetTagE11ShaderTagIDb
BRb:__Z25CalculateShadowCasterCullbPK5PlaneRK10Matrix4x4fRK8Vector3fff9LightTypeS7_R16ShadowCasterCullPKb
Gti:_il2cpp_get_corlib
eZc:_HMAC_HashCore_m1869699062
lSf:_Assembly_GetTypes_m1317253146
UOa:__ZN11Tetrahedron8TransferI19StreamedBinaryWriteILb0EEEEvRT_
one:_Int16_System_IConvertible_ToType_m2901377575_AdjustorThunk
yqe:_Int64_System_IConvertible_ToSByte_m253213816_AdjustorThunk
uOc:__ZN2UI14CanvasRenderer11SetMaterialEP8Materiali
tdd:_MouseState_SetButtonState_m2329922363
nte:_FileStream__ctor_m3815606687
yEj:_GC_freehblk
Tne:_NumberFormatter_NumberToString_m668979517
e5e:_ReadOnlyCollection_1_System_Collections_IList_Remove_m2507730234_gshared
JHb:__Z36GiveDebuggerChanceToAttachIfRequiredv
oIg:_Enumerator_System_Collections_IEnumerator_Reset_m2482663638_gshared
Wbc:__ZN9Scripting35DestroyObjectFromScriptingImmediateEP6Objectb
sWh:__ZNK6il2cpp2vm17TypeNameParseInfo13assembly_nameEv
VUb:__ZNK6Camera48AreVRStereoViewMatricesWithinSingleCullToleranceEv
Emk:__ZL53Rigidbody2D_t502193897_CustomAttributesCacheGeneratorP21CustomAttributesCache
fyf:_RemotingServices_GetRemoteObject_m3663391550
GXk:_glGetRenderbufferParameteriv__wrapper
IRe:_Queue_1_Peek_m1224538505_gshared
q9f:__Z105RuntimeInvoker_RuntimeObject_Int32_t2071877448_RuntimeObject_RuntimeObject_RuntimeObject_SByte_t454417549PFvvEPK10MethodInfoPvPS4_
f$d:_Array_InternalArray__IndexOf_TisRuntimeObject_m2440219229_gshared
cIh:__ZL25UnresolvedVirtualCall_122P12Il2CppObject23PropertyName_t217228410fPK10MethodInfo
qc:invoke_iiiiiiiiiiiiiii
Cwj:__ZN6il2cpp2os6Thread33UnregisterCurrentThreadForCleanupEv
g_k:_emscripten_glIsRenderbuffer__wrapper
EXh:__ZN15dense_hashtableINSt3__24pairIK10KeyWrapperIPK11Il2CppClassEPKcEES6_N6il2cpp5utils11PointerHashIS3_EEN14dense_hash_mapIS6_S9_SE_NS6_14EqualsComparerINS0_8equal_toIS5_EEEENS0_9allocatorISA_EEE9SelectKeyESJ_SL_E9copy_fromERKSO_j
r7h:__ZNSt3__216allocator_traitsINS_9allocatorINS_11__tree_nodeINS_12__value_typeIP11Il2CppClassS5_EEPvEEEEE8allocateERS9_j
XLc:__ZN2UI11CanvasGroup8TransferI19StreamedBinaryWriteILb0EEEEvRT_
syb:__Z29Transfer_Blittable_ArrayFieldI18StreamedBinaryReadILb1EE5RectTIiEEvRT_R9ArrayInfoRK23StaticTransferFieldInfo
WLa:__ZNK20IntermediateRenderer8GetLayerEv
Ysi:__ZN6il2cpp5utils9PathUtils7CombineIcEENSt3__212basic_stringIT_NS3_11char_traitsIS5_EENS3_9allocatorIS5_EEEERKSA_RKNS0_10StringViewIS5_EE
FWi:__ZNSt3__213__vector_baseIN6il2cpp8metadata18GenericArrayMethodENS_9allocatorIS3_EEEC2Ev
n_a:__ZN15QualitySettings8TransferI14SafeBinaryReadEEvRT_
gXh:__ZN14dense_hash_mapI10KeyWrapperIPK11Il2CppClassEPKcN6il2cpp5utils11PointerHashIS1_EENS4_14EqualsComparerINSt3__28equal_toIS3_EEEENSC_9allocatorINSC_4pairIKS4_S6_EEEEE13set_empty_keyERSI_
hph:_SendMouseEvents_SendEvents_m1854997939
Epb:__ZN14SafeBinaryRead21TransferSTLStyleArrayI13dynamic_arrayIxLj8EEEEvRT_17TransferMetaFlags
cxe:_StringReader_CheckObjectDisposedException_m3099453260
Gki:__ZNSt3__216allocator_traitsINS_9allocatorIP9FieldInfoEEE7destroyIS3_EEvRS4_PT_
Ekf:_ListDictionary_System_Collections_IEnumerable_GetEnumerator_m2244736244
jhj:__ZNSt3__26vectorIN6il2cpp2vm5Image20EmbeddedResourceDataENS_9allocatorIS4_EEE21__push_back_slow_pathIS4_EEvOT_
mX:__GLOBAL__sub_I_runtime_utilities_0_cpp
DOj:__ZN6il2cpp2os9FastMutexD2Ev
bPj:__ZNSt3__210unique_ptrINS_11__tree_nodeIPFvvEPvEENS_22__tree_node_destructorINS_9allocatorIS5_EEEEED2Ev
qlg:__Z97RuntimeInvoker_Void_t1841601450_SByte_t454417549_SByte_t454417549_Int32_t2071877448_RuntimeObjectPFvvEPK10MethodInfoPvPS4_
B_d:_Array_IndexOf_TisCustomAttributeTypedArgument_t1498197914_m3666284377_gshared
Qce:_Kernel_AddSameSign_m2332657679
wCk:_Cursor_get_lockState_m300851107
G$:__ZN14SerializedFile10ReadObjectEx18ObjectCreationModebPPK8TypeTreePbR6Object
WSe:_Collection_1_System_Collections_IList_IndexOf_m3460849589_gshared
f9b:__ZN4Mesh12SetIndexDataEiiPKv16GfxPrimitiveTypei
PGb:__ZN14dynamic_bitset6resizeEjb
cad:_BaseInputModule_FindCommonRoot_m2696088443
xS:__ZN11UnityEngine15CloudWebService10RestClientINS0_23WebRequestRestHeaderMapEE7SetDataEPKhj
WA:__ZN7mecanim8skeleton16SkeletonPoseCopyIN4math4trsXES3_EEvPKNS0_13SkeletonPoseTIT_EEPNS4_IT0_EE
hXh:__ZN14dense_hash_mapI10KeyWrapperIPK11Il2CppClassEPKcN6il2cpp5utils11PointerHashIS1_EENS4_14EqualsComparerINSt3__28equal_toIS3_EEEENSC_9allocatorINSC_4pairIKS4_S6_EEEEE15set_deleted_keyERSI_
faa:__ZN9GfxDevice34SetStencilRefWhenStencilWasSkippedEi
ESc:__ZN11UnityEngine7Connect13ConnectConfig20RestoreTimeoutConfigERK13dynamic_arrayIiLj4EEjRS3_
pc:invoke_fi
uKj:__ZN6il2cpp6icalls8mscorlib6System10Reflection4Emit11TypeBuilder20create_runtime_classEP27Il2CppReflectionTypeBuilderS7_
xW:__ZL21InternalAssertConsolePKcz
R5:__ZN18AsyncUploadManagerC2E18MemLabelIdentifier
nc:invoke_ff
n9h:__ZNKSt3__213__vector_baseIN6il2cpp2os19SocketHandleWrapperENS_9allocatorIS3_EEE9__end_capEv
yd:_emscripten_glVertexAttrib3f
nLi:__ZN30dense_hashtable_const_iteratorINSt3__24pairIK10KeyWrapperINS1_IPK11Il2CppImageP11Il2CppClassEEEjEES9_17ReflectionMapHashIS8_EN14dense_hash_mapIS9_jSD_NS9_14EqualsComparerINS0_8equal_toIS8_EEEENS0_9allocatorISB_EEE9SelectKeyESI_SK_EppEv
Smh:_Rect_set_yMax_m1836907767_AdjustorThunk
dzd:_Char_CompareTo_m3044885427
vLe:_List_1_System_Collections_IList_IndexOf_m2887559165_gshared
XIg:_ValueCollection__ctor_m1825701219_gshared
exc:__ZN20TextRenderingPrivate8TextMesh11ApplyToMeshEv
Ewg:_GetRaycastNonAllocCallback_Invoke_m106496059
ATk:_emscripten_glDrawRangeElements__wrapper
MNh:_CanvasRenderer_set_popMaterialCount_m3475132987
gJa:__Z28scripting_class_is_valuetype17ScriptingClassPtr
rTj:__ZNSt3__222__tree_node_destructorINS_9allocatorINS_11__tree_nodeINS_12__value_typeIPFvvEPK10MethodInfoEEPvEEEEEclEPSB_
x_b:__ZNSt3__25dequeI10InputEventNS_9allocatorIS1_EEE19__add_back_capacityEv
nEe:_Enumerator_System_Collections_IEnumerator_Reset_m336811426_AdjustorThunk
oqa:__ZN13ComputeShader13SetValueParamERKN9ShaderLab16FastPropertyNameEiPKv
G3a:__ZN14BlendShapeDataD2Ev
u8h:__ZN6il2cpp2vm13MetadataCache25GetIndexForTypeDefinitionEPK11Il2CppClass
Sma:__ZL18ProgramUniform3uivPK7ApiGLESjiihPKv
yvd:_Attribute_IsDefined_m1350918959
bPc:__Z47CanvasRenderer_Set_Custom_PropHasPopInstructionP12Il2CppObjecth
l1f:_MonoProperty_get_DeclaringType_m4236036432
Ama:__ZN5Image8SetImageEii13TextureFormatb
d1:__ZN17MessageIdentifier21GetRegisteredMessagesEv
kSg:_U3CGetEnumeratorU3Ec__Iterator0_System_Collections_IEnumerator_get_Current_m480171694_gshared
FWd:_Array_InternalArray__ICollection_Contains_TisContentType_t1028629049_m2321684690_gshared
XU:__Z13RegisterClassI23CloudWebServicesManagerEvv
$Bj:__ZNSt3__214__split_bufferIPK14Il2CppAssemblyRNS_9allocatorIS3_EEE5clearEv
_aj:__GLOBAL__sub_I_Image_cpp
Kye:_Math_Sin_m2320256962
p4e:_ReadOnlyCollection_1_System_Collections_Generic_IListU3CTU3E_Insert_m2409570138_gshared
IKe:_List_1_Add_m2123823603_gshared
NTa:__ZNSt3__27__sort5IRPFbRKNS_4pairIN9ShaderLab16FastPropertyNameEfEES6_EPS4_EEjT0_SB_SB_SB_SB_T_
cMi:__ZN30dense_hashtable_const_iteratorINSt3__24pairIK10KeyWrapperINS1_IPK12PropertyInfoP11Il2CppClassEEEjEES9_17ReflectionMapHashIS8_EN14dense_hash_mapIS9_jSD_NS9_14EqualsComparerINS0_8equal_toIS8_EEEENS0_9allocatorISB_EEE9SelectKeyESI_SK_EC2EPK15dense_hashtableISB_S9_SD_SM_SI_SK_EPKSB_ST_b
Dfd:_CanvasUpdateRegistry__ctor_m4037208045
Zth:_Event_Finalize_m270300156
uxj:__ZN14dense_hash_mapI10KeyWrapperIPK19Il2CppGenericMethodEP10MethodInfoN6il2cpp8metadata23Il2CppGenericMethodHashENS4_14EqualsComparerINS8_26Il2CppGenericMethodCompareEEENSt3__29allocatorINSD_4pairIKS4_S6_EEEEE15set_deleted_keyERSG_
Qpb:__Z29Transfer_Blittable_ArrayFieldI14SafeBinaryRead4AABBEvRT_R9ArrayInfoRK23StaticTransferFieldInfo
P1e:_ReadOnlyCollection_1_System_Collections_IList_RemoveAt_m2396335261_gshared
AGg:_Transform_1_Invoke_m2675095773_gshared
Bji:__ZNSt3__216allocator_traitsINS_9allocatorINS_4pairIPK10MethodInfoP11Il2CppClassEEEEE8allocateERS9_j
wjd:_Dropdown_set_captionImage_m1952025570
qLi:__ZN15dense_hashtableINSt3__24pairIK10KeyWrapperINS1_IPK11Il2CppImageP11Il2CppClassEEEjEES9_17ReflectionMapHashIS8_EN14dense_hash_mapIS9_jSD_NS9_14EqualsComparerINS0_8equal_toIS8_EEEENS0_9allocatorISB_EEE9SelectKeyESI_SK_E21fill_range_with_emptyEPSB_SO_
jrk:__ZL56g_UnityEngine_UI_Assembly_CustomAttributesCacheGeneratorP21CustomAttributesCache
pge:_RSAManaged_remove_KeyGenerated_m452989252
Ifc:__Z46Register_UnityEngine_RectOffset_get_horizontalv
ZUa:__ZN18DelayedCallManager8ClearAllEv
BYb:__ZN17PersistentManagerC2E18MemLabelIdentifierii
Bhj:__ZNSt3__216allocator_traitsINS_9allocatorIN6il2cpp2vm5Image20EmbeddedResourceDataEEEE20__construct_backwardIPS5_EEvRS6_T_SB_RSB_
Ggc:__Z22Mesh_CUSTOM_HasChannelP12Il2CppObject30InternalScriptingShaderChannel
qrk:__ZL117EventSystem_t3466835263_CustomAttributesCacheGenerator_EventSystem_t3466835263____lastSelectedGameObject_PropertyInfoP21CustomAttributesCache
v3i:__ZN6il2cpp2os8AutoLockD2Ev
VSb:__ZNK25RenderPrePassObjectSorterclERK16RenderObjectDataS2_
Sxb:__Z22TransferField_NonArrayI18StreamedBinaryReadILb1EE27Converter_SimpleNativeClassI8GUIStyleEEvRK23StaticTransferFieldInfoR31RuntimeSerializationCommandInfoRT0_
kSi:__ZN15dense_hashtableINSt3__24pairIK10KeyWrapperIPK10Il2CppTypeEjEES6_N6il2cpp8metadata14Il2CppTypeHashEN14dense_hash_mapIS6_jSB_NS6_14EqualsComparerINSA_26Il2CppTypeEqualityComparerEEENS0_9allocatorIS8_EEE9SelectKeyESF_SH_EC2EjRKSB_RKSF_RKSJ_
me:_Mix_LoadWAV_RW
Cvh:_GUIStyle_set_stretchWidth_m281327581
BP:__Z45AudioSource_Get_Custom_PropSpatializeInternalP12Il2CppObject
Zoa:__Z13IsFloatFormat14GraphicsFormat
cr:__ZNSt3__27__sort4IRNS_6__lessIN11UnityEngine9Animation13CachedBindingES4_EEPS4_EEjT0_S8_S8_S8_T_
bki:__ZN6il2cpp6icalls8mscorlib6SystemL12GetFieldImplINS_5utils10functional6FilterINSt3__212basic_stringIcNS7_11char_traitsIcEENS7_9allocatorIcEEEENS4_13VmStringUtils21CaseSensitiveComparerEEEEEP21Il2CppReflectionFieldP11Il2CppClassiRKT_
fkj:__ZN6il2cpp2gcL12alloc_handleEPNS0_10HandleDataEP12Il2CppObjectb
tXk:_emscripten_glGetAttribLocation__wrapper
Fgd:_CanvasScaler_HandleConstantPhysicalSize_m687057631
_ui:_il2cpp_object_get_virtual_method
iTb:__Z13InitIndexListR9IndexListj
jie:_PKCS12_Encrypt_m1401341763
d2:__ZL16ReadTypeTreeImplILb1EEbR8TypeTreeRK16TypeTreeIteratorRPKhS6_i
Ee:_glBlendEquationSeparate
gci:__ZNSt3__26vectorIP17Il2CppAsyncResultN6il2cpp2gc9AllocatorIS2_EEE17__destruct_at_endEPS2_
R0c:_SHA384_Create_m1970724783
nm:_emscripten_glDeleteVertexArrays
Nda:__ZN13GfxDeviceGLES17SetComputeUniformE12ObjectHandleI18ComputeProgram_TagPvER18ComputeShaderParamjPKv
Uoi:__ZN6il2cpp6icalls8mscorlib6SystemL16CheckMemberMatchI10MethodInfoNS_5utils10functional6FilterINSt3__212basic_stringIcNS8_11char_traitsIcEENS8_9allocatorIcEEEENS5_13VmStringUtils21CaseSensitiveComparerEEEEEbPKT_PK11Il2CppClassSN_iRKT0_
vZk:_emscripten_glValidateProgram__wrapper
o9b:__ZN13MeshScripting27PrintErrorCantAccessChannelEPK4Mesh30InternalScriptingShaderChannel
nfe:_SmallXmlParser_ReadComment_m1117342068
_Bj:__ZNSt3__214__split_bufferIPK14Il2CppAssemblyRNS_9allocatorIS3_EEED2Ev
Le:_emscripten_glUniform3fv
hdi:__ZNSt3__213__vector_baseIP12Il2CppThreadNS_9allocatorIS2_EEE17__destruct_at_endEPS2_
dSa:__ZN9ShaderLab7Program14RemoveVariantsERK13dynamic_arrayI16ShaderKeywordSetLj4EE
M6i:__ZN6il2cpp2vm9Exception20GetArgumentExceptionEPKcS3_
Zuc:__Z29Transfer_Blittable_ArrayFieldI8JSONReadiEvRT_R9ArrayInfoRK23StaticTransferFieldInfo
FXk:_glDrawArrays__wrapper
ZN:__ZN9AudioClip27IsFormatSupportedByPlatformERKN4core12basic_stringIcNS0_20StringStorageDefaultIcEEEE
NVa:__ZN29SerializeTraitsForStringTypesIN4core12basic_stringIcNS0_20StringStorageDefaultIcEEEEE8TransferI24GenerateTypeTreeTransferEEvRS4_RT_
Xeb:__ZN9ShaderLab26SerializedShaderDependency8TransferI24GenerateTypeTreeTransferEEvRT_
C4f:__Z92RuntimeInvoker_RuntimeObject_RuntimeObject_Int32_t2071877448_Int32_t2071877448_RuntimeObjectPFvvEPK10MethodInfoPvPS4_
TBc:_UNITY_FT_Match_Size
uhd:_ColorBlock_Equals_m738243050
nv:__ZN7mecanim20CreateValueArrayMaskEPKNS_18ValueArrayConstantERNS_6memory9AllocatorE
aNk:_free
hlf:_NameObjectCollectionBase_GetEnumerator_m646294968
yAk:_Bounds_set_size_m4260584766_AdjustorThunk
wRc:__ZN11UnityEngine7Connect14AppUpdateEventC2Ev
RIa:__ZN12ImageFilters17RemoveImageFilterERK11ImageFilter
zFh:_AudioSettings_InvokeOnAudioConfigurationChanged_m4035594278
uda:__ZN9GfxDevice31InsertCustomBlitCallbackAndDataEPFviPvER33UnityRenderingExtCustomBlitParams
MHb:__Z32AddPathRemapsForBuiltinResourcesRKN4core12basic_stringIcNS_20StringStorageDefaultIcEEEE
y_h:__ZNSt3__24pairIK10KeyWrapperIPK19Il2CppGenericMethodEPK26Il2CppGenericMethodIndicesEC2IRSA_vEEOT_
pph:_HitInfo_SendMessage_m3395411273_AdjustorThunk
iee:_DSAManaged_remove_KeyGenerated_m61544860
Q9i:__ZNSt3__29make_pairIRP14Il2CppIUnknownjEENS_4pairINS_18__make_pair_returnIT_E4typeENS5_IT0_E4typeEEEOS6_OS9_
irb:__ZL26Transfer_SimpleNativeClassI17RemapPPtrTransfer17AnimationCurveTplIfELb0EEvRK29SerializationCommandArgumentsR31RuntimeSerializationCommandInfo
nhh:_KeyUsageExtension_Decode_m4115739726
pm:_glDeleteTransformFeedbacks
qf:_JS_WebRequest_Send
sDj:__ZN6il2cpp2os4Time31GetTicks100NanosecondsMonotonicEv
Ntj:__ZNSt3__26__treeINS_12basic_stringIcNS_11char_traitsIcEENS_9allocatorIcEEEENS_4lessIS6_EENS4_IS6_EEE16__construct_nodeIJRKS6_EEENS_10unique_ptrINS_11__tree_nodeIS6_PvEENS_22__tree_node_destructorINS4_ISH_EEEEEEDpOT_
jGd:_Stack_Clear_m771767447
Dqe:_Int64_System_IConvertible_ToUInt16_m2638682734
c3j:__ZL102ChannelServices_t2007814595_CustomAttributesCacheGenerator_ChannelServices_RegisterChannel_m3832858065P21CustomAttributesCache
pTc:__ZN18UnityConnectClient32OnVrControllerStateChangedStaticEPS_13dynamic_arrayIN4core12basic_stringIcNS2_20StringStorageDefaultIcEEEELj4EE
QOk:__ZNK10__cxxabiv117__class_type_info24process_found_base_classEPNS_19__dynamic_cast_infoEPvi
AKh:_Nullable_1_Equals_m1889119397_AdjustorThunk
ANh:_CanvasRenderer_INTERNAL_CALL_SetColor_m1064368306
M8h:__ZN6il2cpp2vm13MetadataCache21GetFieldInfoFromIndexEj
Rwg:_Raycast2DCallback_BeginInvoke_m4219004388
Qyj:__GLOBAL__sub_I_String_cpp
Jkf:_ListDictionary_FindEntry_m432748847
kq:__ZNSt3__26vectorIN4core12basic_stringIcNS1_20StringStorageDefaultIcEEEENS_9allocatorIS5_EEE6assignINS_11__wrap_iterIPS5_EEEENS_9enable_ifIXaasr21__is_forward_iteratorIT_EE5valuesr16is_constructibleIS5_NS_15iterator_traitsISE_E9referenceEEE5valueEvE4typeESE_SE_
Bti:_il2cpp_init
lGk:_Mathf_Cos_m3039455602
lLc:__ZNSt3__26__treeIPN2UI14CanvasRendererENS_4lessIS3_EENS_9allocatorIS3_EEE7destroyEPNS_11__tree_nodeIS3_PvEE
i7f:__Z176RuntimeInvoker_Boolean_t3825574718_RuntimeObject_Int32U26_t455636984_Int32_t2071877448_Int32_t2071877448_Int32_t2071877448_RuntimeObject_SByte_t454417549_ContextU26_t3131521781PFvvEPK10MethodInfoPvPS4_
gca:__ZN13GfxDeviceGLES22UploadTextureSubData2DE9TextureIDPKhiiiiii14GraphicsFormat
Muh:_GUILayoutEntry__ctor_m3585399294
w4i:__ZNSt3__26__treeINS_12basic_stringIcNS_11char_traitsIcEENS_9allocatorIcEEEENS_4lessIS6_EENS4_IS6_EEE12__node_allocEv
kfc:__Z35Register_UnityEngine_Screen_get_dpiv
yQi:__ZNK15dense_hashtableINSt3__24pairIK10KeyWrapperIPK14Il2CppAssemblyEPK22Il2CppMonoAssemblyNameEES6_N6il2cpp5utils11PointerHashIS4_EEN14dense_hash_mapIS6_SA_SF_NS6_14EqualsComparerINS0_8equal_toIS5_EEEENS0_9allocatorISB_EEE9SelectKeyESK_SM_E5beginEv
T9h:__ZNKSt3__26vectorIN6il2cpp2os19SocketHandleWrapperENS_9allocatorIS3_EEE17__annotate_deleteEv
ptc:__ZN8JSONRead8TransferIxEEvRT_PKc17TransferMetaFlagsb
$vc:__ZN13SpeedTreeWind7AdvanceEbd
pl:___syscall193
cga:__ZN18GlslGpuProgramGLES19ApplyGpuProgramGLESERK20GpuProgramParametersPKh
Rac:__ZN9Transform16SetLocalPositionERK8Vector3f
znd:_LayoutGroup_GetTotalMinSize_m2600700952
U_b:__ZN10BootConfig4Data12InitFromFileEPPKcjS2_
nzb:__Z15Transfer_StringI18StreamedBinaryReadILb0EELb0EEvRK29SerializationCommandArgumentsR31RuntimeSerializationCommandInfo
MJ:__ZN12SoundManagerC2Ev
xBc:_UNITY_tt_face_free_name
Q7b:__ZN17TransformInternal24AddTransformSubhierarchyER18TransformHierarchyjS1_RjS2_yb
Y5i:__ZNKSt3__212basic_stringIDsNS_11char_traitsIDsEENS_9allocatorIDsEEE8capacityEv
N5d:_Array_Sort_TisUICharInfo_t3056636800_m37864585_gshared
l9:__ZN15dense_hashtableINSt3__24pairIKN4core12basic_stringIcNS2_20StringStorageDefaultIcEEEE10vector_setI4PPtrI11SpriteAtlasENS0_4lessISB_EE13stl_allocatorISB_L18MemLabelIdentifier81ELi16EEEEES6_20StringHash32FunctionIS6_EN14dense_hash_mapIS6_SH_SK_NS0_8equal_toIS6_EESE_ISI_LSF_81ELi16EEE9SelectKeyESN_SO_E4swapERSR_
rXi:__ZNSt3__214__split_bufferIN6il2cpp8metadata18GenericArrayMethodERNS_9allocatorIS3_EEE5clearEv
mYk:_emscripten_glGetUniformfv__wrapper
Mna:__ZN14DataBufferGLES3MapEjjj
X_g:_InternalEnumerator_1_System_Collections_IEnumerator_get_Current_m771161214_gshared
Co:FUNCTION_TABLE_fidi
YEg:_Enumerator_get_CurrentValue_m2645962456_gshared
AYk:_emscripten_glGetShaderiv__wrapper
E0b:__Z13RegisterClassI9TransformEvv
zTa:__ZN18UnityPropertySheet11UnityTexEnv8TransferI19StreamedBinaryWriteILb0EEEEvRT_
eGa:__ZNK6Camera33CalculateFarPlaneWorldSpaceLengthEv
c5g:_ResourceInfo_t3933049236_marshal_pinvoke_back
rHj:_GC_make_descriptor
kLi:__ZNK15dense_hashtableINSt3__24pairIK10KeyWrapperINS1_IPK11Il2CppImageP11Il2CppClassEEEjEES9_17ReflectionMapHashIS8_EN14dense_hash_mapIS9_jSD_NS9_14EqualsComparerINS0_8equal_toIS8_EEEENS0_9allocatorISB_EEE9SelectKeyESI_SK_E5beginEv
n3h:__ZNK15dense_hashtableINSt3__24pairIK10KeyWrapperIN6il2cpp5utils13dynamic_arrayIPK10Il2CppTypeLj4EEEEPFvvEEESA_NS3_8metadata19Il2CppSignatureHashEN14dense_hash_mapISA_SD_SG_NSA_14EqualsComparerINSF_22Il2CppSignatureCompareEEENS0_9allocatorISE_EEE9SelectKeyESK_SM_E4sizeEv
e0d:_Array_InternalArray__ICollection_Add_TisDictionaryEntry_t3048875398_m279246399_gshared
t7g:_ChannelServices_GetCurrentChannelInfo_m4080942430
bI:__ZN4FMOD3DSP8getInputEiPPS0_PPNS_13DSPConnectionE
DCe:_KeyValuePair_2_ToString_m2882821022_AdjustorThunk
GM:__ZN11SoundHandle8Instance13CreateChannelERS_b
O3a:__ZN10MeshFilter23VirtualRedirectTransferER17RemapPPtrTransfer
_zc:_ft_outline_glyph_bbox
crh:_Transform_INTERNAL_set_rotation_m366775404
XG:__ZN13AudioListenerD2Ev
PJc:_UNITY_FT_Done_Library
wOj:__ZN6il2cpp2os5MutexC2Eb
IDg:_VertexHelper__cctor_m1150948588
UNc:__ZN2UI13CanvasManager17EmitDataForCameraEP6Camera
joj:__ZN6il2cpp2vm6Object16GetVirtualMethodEP12Il2CppObjectPK10MethodInfo
IGg:_Transform_1_Invoke_m1111426439_gshared
Ohc:__Z44Register_UnityEngine_Material_GetTextureImplv
WXk:_glUniform3uiv__wrapper
OEb:__ZL8MainLoopv
bTf:_Binder_ConvertArgs_m2999223281
IWf:_TypeBuilder_IsDefined_m3186251655
zPc:__Z47Register_UnityEngine_CanvasRenderer_SetMaterialv
d8g:_ConfigHandler_ValidatePath_m3188987489
Apa:__ZN15dense_hashtableINSt3__24pairIKPK17RenderSurfaceBaseP13RenderTextureEES4_19PointerHashFunctionIS4_EN14dense_hash_mapIS4_S7_SA_NS0_8equal_toIS4_EE13stl_allocatorIS8_L18MemLabelIdentifier67ELi16EEE9SelectKeyESD_SG_E12resize_deltaEjj
ONi:__ZN30dense_hashtable_const_iteratorINSt3__24pairIK10KeyWrapperINS1_IPK9EventInfoP11Il2CppClassEEEjEES9_17ReflectionMapHashIS8_EN14dense_hash_mapIS9_jSD_NS9_14EqualsComparerINS0_8equal_toIS8_EEEENS0_9allocatorISB_EEE9SelectKeyESI_SK_EC2EPK15dense_hashtableISB_S9_SD_SM_SI_SK_EPKSB_ST_b
uBe:_NumberFormatter_get_IntegerDigits_m3972411141
j4a:__ZThn32_N12MeshRendererD1Ev
NQa:__ZN13RenderTexture23VirtualRedirectTransferER19StreamedBinaryWriteILb0EE
aGg:_ShimEnumerator_MoveNext_m2728191736_gshared
k1h:__ZN6il2cpp5utils11collections13ArrayValueMapIPK10Il2CppType17Il2CppInteropData26InteropDataToTypeConverterNS_8metadata14Il2CppTypeLessENS8_26Il2CppTypeEqualityComparerEEC2EPS6_jS7_S9_SA_
iQf:_UInt64_System_IConvertible_ToInt32_m930227577_AdjustorThunk
kAj:__ZN6il2cpp2vm13ComObjectBase17GetMarshalSizeMaxERK10Il2CppGuidPvjS5_jPj
wNk:__ZNSt3__212basic_stringIcNS_11char_traitsIcEENS_9allocatorIcEEEC2ERKS4_
M3b:__ZN9TransformC2E18MemLabelIdentifier18ObjectCreationMode
_Mk:_truncate
Jfb:__ZN9ShaderLab27SerializedShaderVectorValue8TransferI18StreamedBinaryReadILb0EEEEvRT_
RYa:__ZN8Renderer21RendererBecameVisibleEv
i3e:_ReadOnlyCollection_1_System_Collections_Generic_ICollectionU3CTU3E_Clear_m2503787861_gshared
uMk:___stpncpy
aVe:_Collection_1_System_Collections_IList_Add_m669232520_gshared
VNe:_List_1_RemoveAt_m1843849279_gshared
vei:__ZNSt3__26vectorIP12Il2CppThreadNS_9allocatorIS2_EEE21__push_back_slow_pathIRKS2_EEvOT_
fZ:__ZN10MemoryPool16StaticInitializeEPv
K7:__ZN11TypeManager21CleanupGlobalInstanceEv
Nuh:_LayoutCache__ctor_m3175562018
_Nf:_TypedReference_GetHashCode_m3498861551_AdjustorThunk
N:Math_atan
JCi:__ZNSt3__212basic_stringIcNS_11char_traitsIcEENS_9allocatorIcEEE6__initIPKcEENS_9enable_ifIXsr21__is_forward_iteratorIT_EE5valueEvE4typeESA_SA_
hRj:__ZNSt3__214__split_bufferINS_12basic_stringIDsNS_11char_traitsIDsEENS_9allocatorIDsEEEERNS4_IS6_EEED2Ev
GG:__ZNK10SampleClip11GetResourceEv
wBa:__ZN4core12basic_stringIcNS_20StringStorageDefaultIcEEE6resizeEj
Lmc:__Z43Register_UnityEngine_Event_set_displayIndexv
$0g:_InternalEnumerator_1_System_Collections_IEnumerator_get_Current_m2821735692_AdjustorThunk
evc:__GLOBAL__sub_I_CmEventProfiler_cpp
l8e:_PrimalityTests_GetSPPRounds_m873706010
nHf:_StringBuilder_AppendLine_m1686706871
T4e:_ReadOnlyCollection_1_System_Collections_Generic_IListU3CTU3E_Insert_m584948331_gshared
CDa:__ZN17GlobalGameManager23VirtualRedirectTransferER24GenerateTypeTreeTransfer
pve:_MemoryStream_ToArray_m547789004
XTc:__ZN19UnityConnectServiceD0Ev
aYd:_PlayableHandle_IsPlayableOfType_TisAnimatorControllerPlayable_t1744083903_m1628500864_gshared
Due:_MonoIO_SetLength_m1019790894
qIb:__ZZ23InitPlayerLoopCallbacksvEN46EarlyUpdateUpdateAllUnityWebStreamsRegistrator7ForwardEv
UQf:_UIntPtr_ToString_m387842486
jKa:__ZNSt3__26vectorIfNS_9allocatorIfEEE8__appendEjRKf
ddi:__ZNSt3__2neIPKP12Il2CppThreadEEbRKNS_11__wrap_iterIT_EES9_
fSc:__ZN11UnityEngine15PlatformWrapper21GetCopyTextureSupportEv
Dld:_Graphic_get_depth_m3526566553
IN:__ZN11AudioModule27IsFormatSupportedByPlatformEPKc
PCd:_CollectionBase_get_InnerList_m44314156
DSd:_Enum_System_IConvertible_ToUInt32_m3575456858
blk:__ZL86ArgumentCache_t4810721_CustomAttributesCacheGenerator_m_ObjectArgumentAssemblyTypeNameP21CustomAttributesCache
hFa:__ZNSt3__26vectorI17SortingLayerEntryNS_9allocatorIS1_EEE6assignINS_11__wrap_iterIPS1_EEEENS_9enable_ifIXaasr21__is_forward_iteratorIT_EE5valuesr16is_constructibleIS1_NS_15iterator_traitsISA_E9referenceEEE5valueEvE4typeESA_SA_
H1:__ZN14SerializedFile14SerializedTypeD2Ev
cji:__ZNSt3__26vectorINS_4pairIPK10MethodInfoP11Il2CppClassEENS_9allocatorIS7_EEE26__swap_out_circular_bufferERNS_14__split_bufferIS7_RS9_EE
Ruc:__Z19TransferField_ArrayI8JSONRead16Converter_StringEvRK23StaticTransferFieldInfoR31RuntimeSerializationCommandInfoRT0_
bTb:__Z19SetupShadowCullDataRK27ScriptableCullingParametersRK17ShaderReplaceDataPK22SceneCullingParametersf16ShadowProjectionR14ShadowCullData
yxa:__ZNK25ThreadsafeLinearAllocator22GetAllocatedMemorySizeEv
eFc:_cff_size_request
DUa:__ZN15DirectorManager14ConnectionPool12SwitchBucketEP14ConnectionList
gNf:_Type_EqualsInternal_m266086934
ggi:__ZNKSt3__26vectorIP17Il2CppAsyncResultN6il2cpp2gc9AllocatorIS2_EEE17__annotate_deleteEv
zLc:__ZN2UI11CompareFuncEPNS_6CanvasES1_
SI:__ZN4FMOD7Channel11set3DSpreadEf
oQj:__ZN6il2cpp2os6Memory14AlignedReAllocEPvjj
W:Math_fround
KVa:__ZN24GenerateTypeTreeTransfer16TransferTypelessEPjPKc17TransferMetaFlags
Kwc:__ZN20TextRenderingPrivate8FontImpl8TransferI24GenerateTypeTreeTransferEEvRT_
jZc:_HMACMD5__ctor_m3425004426
Uge:_SymmetricTransform_InternalTransformBlock_m55428483
Tma:__ZL18ProgramUniform4uivPK7ApiGLESjiihPKv
Tze:_LongComparer_Compare_m398047722
oQg:_EqualityComparer_1_System_Collections_IEqualityComparer_Equals_m2170611288_gshared
rvd:_Attribute_CheckParameters_m1754681684
zHf:_UnicodeEncoding_GetByteCount_m2761661599
eti:__ZN6il2cpp2vm7Runtime15InvokeWithThrowEPK10MethodInfoPvPS5_
JPa:__ZN10builtintex21GetAttenuationTextureEv
Om:FUNCTION_TABLE_viiiiiiiiiiiiiii
MOi:__ZN15dense_hashtableINSt3__24pairIK10KeyWrapperINS1_IPK9EventInfoP11Il2CppClassEEEjEES9_17ReflectionMapHashIS8_EN14dense_hash_mapIS9_jSD_NS9_14EqualsComparerINS0_8equal_toIS8_EEEENS0_9allocatorISB_EEE9SelectKeyESI_SK_E21fill_range_with_emptyEPSB_SO_
DAg:_Selectable_TriggerAnimation_m3096883407
W8b:__ZNK4Mesh19CanAccessFromScriptEv
RY:__Z15GetGraphicsCapsv
Fea:__ZN7ApiGLES15BindVertexArrayEN2gl6HandleILNS0_10ObjectTypeE3EEE
$4b:__ZZL23RegisterLightPropertiesR22GenericPropertyBindingEN21Wrapper_LightDrawHalo13GetFloatValueEPv
Dxh:_UnityAction_1_BeginInvoke_m2825236457_gshared
Yu:__ZN17AnimationPlayable17GetAnimationClipsER13dynamic_arrayIP13AnimationClipLj4EE
lQb:__Z20IntersectionAABBAABBRK10MinMaxAABBS1_PS_
JOi:__ZN30dense_hashtable_const_iteratorINSt3__24pairIK10KeyWrapperINS1_IPK9EventInfoP11Il2CppClassEEEjEES9_17ReflectionMapHashIS8_EN14dense_hash_mapIS9_jSD_NS9_14EqualsComparerINS0_8equal_toIS8_EEEENS0_9allocatorISB_EEE9SelectKeyESI_SK_EppEv
pMf:_TimeSpan_op_GreaterThan_m2202243191
D$b:__ZN18BackgroundJobQueue29ScheduleMainThreadJobInternalEPFvPvES0_
fqf:_X509Chain_IsSelfIssued_m2009755967
QLc:__ZN2UI11CanvasGroup23VirtualRedirectTransferER24GenerateTypeTreeTransfer
xmb:__Z18Transfer_BlittableI14SafeBinaryReadLb1EhEvRK29SerializationCommandArgumentsR31RuntimeSerializationCommandInfo
VMd:_DateTime_GetTimeMonotonic_m4135038456
Mwk:__ZL67Selectable_t1490392188_CustomAttributesCacheGenerator_m_SpriteStateP21CustomAttributesCache
Q8:__ZNSt3__224__buffered_inplace_mergeIRNS_4lessIN4core12basic_stringIcNS2_20StringStorageDefaultIcEEEEEENS_11__wrap_iterIPS6_EEEEvT0_SC_SC_T_NS_15iterator_traitsISC_E15difference_typeESG_PNSF_10value_typeE
gHf:_StringBuilder_Append_m3636508479
bc:invoke_viifff
__:__Z22DestroyObjectHighLevelP6Objectb
xNb:__Z26BeginRenderQueueExtractionR15RenderNodeQueuePK16RendererCullDataRK13CullingOutputPK12LODDataArray15ExtractionFlagsP18JobBatchDispatcher
Zwc:__ZNK13TextRendering4Font10GetTextureEv
m_c:_SymmetricAlgorithm_set_KeySize_m270664177
Hhj:__ZNKSt3__26vectorIN6il2cpp2vm5Image20EmbeddedResourceDataENS_9allocatorIS4_EEE8capacityEv
lj:_emscripten_glVertexAttrib3fv
gzk:__ZL49Shadow_t4269599528_CustomAttributesCacheGeneratorP21CustomAttributesCache
B3i:__ZN6il2cpp6icalls8mscorlib6System9Threading6Thread16SetName_internalEP12Il2CppThreadP12Il2CppString
pj:_glBeginTransformFeedback
_Ka:__ZN18JobBatchDispatcherC2E11JobPriorityi
Jkc:__ZN8GUIStyle14GetBuiltinFontEv
_ca:__ZN9GfxDevice13EndFrameStatsEv
i3b:__Z7Empty2DP9Texture2DPhiiii
Bre:_IntPtr_ToString_m1500137303_AdjustorThunk
Mdd:_RaycasterManager__cctor_m3713028899
M$i:__ZN6il2cpp6icalls8mscorlib6System7Runtime15InteropServices7Marshal19copy_from_unmanagedEiiP11Il2CppArrayi
cKe:_List_1_CheckCollection_m1228076404_gshared
jBh:_SymmetricTransform_ThrowBadPaddingException_m2553969731
WG:__ZL34StaticDestroyAudioCustomFilterRootPv
wqa:__ZN19ComputeShaderKernelD2Ev
__b:__ZN10systeminfo21GetTemporaryCachePathEv
AGf:_Encoding_GetBytes_m3820493744
LXe:_Collection_1_IsValidItem_m2164075061_gshared
VAa:__ZN15ArchiveReadFile4ReadEyyPvPy
MMh:_TextGenerator_GetPreferredHeight_m2983948849
Ohb:__ZN12ScriptMapper8TransferI14SafeBinaryReadEEvRT_
Nef:_Context_set_ClientWriteKey_m1137238126
Psb:__Z18Transfer_BlittableI24GenerateTypeTreeTransferLb1E10Matrix4x4fEvRK29SerializationCommandArgumentsR31RuntimeSerializationCommandInfo
Deh:_Expression_GetFixedWidth_m2900825908
sDh:_GenericEqualityComparer_1_Equals_m1663005117_gshared
XUf:_ILGenerator_Mono_GetCurrentOffset_m3553856682
mrc:__ZN9JSONWrite8TransferI10Matrix4x4fEEvRT_PKc17TransferMetaFlags
hWj:__ZL58Decimal_t724701077_CustomAttributesCacheGenerator_MinValueP21CustomAttributesCache
wGc:_cf2_hintmap_map
sFe:_Enumerator_VerifyState_m3639069574_AdjustorThunk
Q2j:__ZL50_Module_t2144668161_CustomAttributesCacheGeneratorP21CustomAttributesCache
Apb:__ZN15SerializeTraitsI5RectTIfEE8TransferI14SafeBinaryReadEEvRS1_RT_
Txa:__ZNK14SerializedFile15GetTypeIfExistsEx
Cic:__Z41Register_UnityEngine_Texture_get_wrapModev
Kyc:_UNITY_FT_Raccess_Get_DataOffsets
Zrf:_X509Extension_CopyFrom_m2644634650
m7b:__ZN14PlayableOutputC2EjP13PlayableGraph
dZa:__ZThn32_NK8Renderer11GetMaterialEi
Ufb:__ZN9ShaderLab20SerializedSubProgram8TransferI19StreamedBinaryWriteILb0EEEEvRT_
W6j:__ZL118SecurityManager_t3191249573_CustomAttributesCacheGenerator_SecurityManager_t3191249573____SecurityEnabled_PropertyInfoP21CustomAttributesCache
FIe:_List_1_System_Collections_IList_Insert_m813883425_gshared
DDj:__ZN6il2cpp6icalls8mscorlib6System7Runtime15InteropServices8GCHandle15GetTargetHandleEP12Il2CppObjectii
J6g:_SafeHandle_Dispose_m3871883741
ik:_unsetenv
nEk:_UnityEvent_FindMethod_Impl_m947332673
Y9:__ZN9GfxDevice29GetMinimumNodesPerGraphicsJobEv
Z2a:__ZN17BlendShapeChannel8TransferI24GenerateTypeTreeTransferEEvRT_
LGj:_GC_init_size_map
Och:_Parser_NewParseException_m3909819299
OQc:__ZN22BaseUnityConnectClient12CloseServiceEv
_6:__ZN15DirectorManager17OnSampleFixedTimeEv
tUb:__ZNK13RendererScene21GetDynamicObjectCountEv
cIg:_Enumerator_System_Collections_IEnumerator_get_Current_m1805365227_AdjustorThunk
bEj:_GC_is_black_listed
Tpd:_InputField_set_caretSelectPositionInternal_m2063243072
vtb:__ZN24GenerateTypeTreeTransfer32TransferSTLStyleArrayWithElementI23ManagedObjectTransfererEEvRT_17TransferMetaFlags
d0g:_InternalEnumerator_1_System_Collections_IEnumerator_get_Current_m3043347404_AdjustorThunk
tvj:__ZN6il2cpp6icalls8mscorlib6System11Environment12get_PlatformEv
vue:_WriteDelegate_BeginInvoke_m2985235908
oOd:_DateTimeOffset_get_Offset_m2335492074_AdjustorThunk
g7d:_Component_GetComponentsInChildren_TisRuntimeObject_m1992201622_gshared
gAc:_UNITY_FT_Destroy_Class_tt_driver_class
IYi:__ZN14dense_hash_mapI10KeyWrapperIP11Il2CppClassES2_N6il2cpp8metadata16SZArrayClassHashENS3_14EqualsComparerINS5_19SZArrayClassCompareEEENSt3__29allocatorINSA_4pairIKS3_S2_EEEEE4findERSD_
lpe:_Int32_System_IConvertible_ToChar_m719315943_AdjustorThunk
Lr:__GLOBAL__sub_I_runtime_animation_0_cpp
Zah:_Match__ctor_m478172746
rLi:__ZNSt3__218uninitialized_fillIPNS_4pairIK10KeyWrapperINS1_IPK11Il2CppImageP11Il2CppClassEEEjEESB_EEvT_SD_RKT0_
h3d:_Array_InternalArray__Insert_TisWorkRequest_t1154022482_m452198486_gshared
tdc:__Z42Register_UnityEngine_Behaviour_get_enabledv
Nye:_Math_Pow_m3099781906
c7h:__ZNSt3__26__treeINS_12__value_typeIP11Il2CppClassS3_EENS_19__map_value_compareIS3_S4_NS_4lessIS3_EELb1EEENS_9allocatorIS4_EEE16__insert_node_atEPNS_16__tree_node_baseIPvEERSF_SF_
ITi:__ZN15dense_hashtableINSt3__24pairIK10KeyWrapperINS1_IPK14Il2CppAssemblyP11Il2CppClassEEEjEES9_17ReflectionMapHashIS8_EN14dense_hash_mapIS9_jSD_NS9_14EqualsComparerINS0_8equal_toIS8_EEEENS0_9allocatorISB_EEE9SelectKeyESI_SK_E13set_empty_keyERKSB_
Bwi:__ZN6il2cpp2vm14TypeNameParser23ParseNestedTypeOptionalERi
yAe:_MonoType_ReorderParamArrayArguments_m979187413
e7e:_BigInteger_ToString_m1842353154
COj:__ZN6il2cpp2os13FastMutexImplC2Ev
QQc:__ZN22BaseUnityConnectClient14QueueCoreEventERN11UnityEngine15CloudWebService17CloudServiceEventEb
kVg:_InternalEnumerator_1_get_Current_m2882946014_gshared
y8a:__ZN30RuntimeInitializeOnLoadManager9ClassInfo8TransferI14SafeBinaryReadEEvRT_
m6g:_GCHandle_Equals_m170815541_AdjustorThunk
LQb:__ZL13RenderCastersiRK8Vector3fS1_RK13ShadowJobDataR17ShaderPassContextRKNSt3__26vectorI16ShadowCasterData13stl_allocatorIS9_L18MemLabelIdentifier2ELi16EEEERKNS8_I20ShadowCasterPartDataSA_ISG_LSB_2ELi16EEEERK15RenderNodeQueuebPKj
jl:_emscripten_glGetShaderInfoLog
yBi:__ZNSt3__26vectorIiNS_9allocatorIiEEE8allocateEj
