xc:_glClearStencil
K0d:_Array_InternalArray__ICollection_Add_TisMark_t2724874473_m1613484179_gshared
Kuk:__ZL80Graphic_t2426225576_CustomAttributesCacheGenerator_Graphic_OnFillVBO_m1723985607P21CustomAttributesCache
Guj:__ZN6il2cpp2vm5Array13GetByteLengthEP11Il2CppArray
Vwg:_Raycast3DCallback_BeginInvoke_m3028685017
V5f:__Z79RuntimeInvoker_RuntimeObject_Int64_t909078037_Int64_t909078037_Int64_t909078037PFvvEPK10MethodInfoPvPS4_
_Qg:_EqualityComparer_1__cctor_m968537130_gshared
NVc:__ZN15DownloadHandler7OnAbortEv
gfi:__ZNKSt3__228__libcpp_compressed_pair_impIPP12Il2CppThreadNS_9allocatorIS2_EELj2EE6secondEv
EMh:_TextGenerator_Invalidate_m1993568841
Z5e:_Comparison_1_Invoke_m353639462_gshared
rIa:__Z30GetIntermediateRendererManagerv
Cld:_GraphicRegistry_RegisterGraphicForCanvas_m2284226562
Via:__Z21SourceMipLevelForBlitiiii
aNa:__ZN31CanvasBatchIntermediateRenderer15AddAsRenderNodeER15RenderNodeQueueRK20DeprecatedSourceData
rfk:__ZL87Component_t3819376471_CustomAttributesCacheGenerator_Component_GetComponent_m1409092944P21CustomAttributesCache
dXf:_GenericTypeParameterBuilder_GetEvent_m4210567427
tJj:__ZNSt3__228__libcpp_compressed_pair_impIPNS_11__list_nodeIPN6il2cpp5utils10MemoryPool6RegionEPvEENS_22__allocator_destructorINS_9allocatorIS8_EEEELj0EE5firstEv
XFd:_Enumerator_get_Key_m2908810861
yRc:__ZN11UnityEngine7Connect14AppUpdateEventD0Ev
luh:_GUI_DoSetSkin_m2532620610
psg:__Z35RuntimeInvoker_UIVertex_t1204258818PFvvEPK10MethodInfoPvPS4_
oW:__ZdlPv
_sk:__ZL77StandaloneInputModule_t70867863_CustomAttributesCacheGenerator_m_VerticalAxisP21CustomAttributesCache
Qr:__ZN11UnityEngine9Animation28GenericAnimationBindingCacheD2Ev
T3j:__ZL68RemotingSurrogateSelector_t2821375126_CustomAttributesCacheGeneratorP21CustomAttributesCache
b0h:__ZNSt3__23mapIP11Il2CppClassS2_NS_4lessIS2_EENS_9allocatorINS_4pairIKS2_S2_EEEEEC2Ev
PFe:_List_1_System_Collections_IList_IndexOf_m39706221_gshared
gLg:_Dictionary_2_Remove_m1849931834_gshared
lDk:_DisplaysUpdatedDelegate_EndInvoke_m1055876886
NId:_Decimal_op_Implicit_m2971610317
yvh:_GUILayoutGroup_ResetCursor_m3614985691
_id:_Graphic_UnregisterDirtyVerticesCallback_m1526739224
qWb:__Z18RestoreRenderStateR20CameraRenderOldStateR17ShaderPassContext
FBd:_SynchronizedArrayListWrapper_get_Item_m3309425850
Ywb:__Z18Transfer_BlittableI18StreamedBinaryReadILb1EELb1E5RectTIfEEvRK29SerializationCommandArgumentsR31RuntimeSerializationCommandInfo
rEk:_UnityEventBase_RebuildPersistentCallsIfNeeded_m2776978024
Imh:_Rect_set_height_m1455613541_AdjustorThunk
Qsb:__Z18Transfer_BlittableI24GenerateTypeTreeTransferLb0E11ColorRGBA32EvRK29SerializationCommandArgumentsR31RuntimeSerializationCommandInfo
U0:__Z25scripting_class_from_name17ScriptingImagePtrPKcS1_
dTi:__ZN14dense_hash_mapI10KeyWrapperINSt3__24pairIPK12PropertyInfoP11Il2CppClassEEEj17ReflectionMapHashIS8_ENS9_14EqualsComparerINS1_8equal_toIS8_EEEENS1_9allocatorINS2_IKS9_jEEEEE15set_deleted_keyERSH_
aDb:__Z29scripting_class_enum_basetype17ScriptingClassPtr
C7g:__ZN21InterfaceFuncInvoker3IP12Il2CppObjectP8String_tS1_PS3_E6InvokeEjP11Il2CppClassS1_S3_S1_S4_
gek:__ZL80Enumerable_t2148412300_CustomAttributesCacheGenerator_Enumerable_Any_m1395534165P21CustomAttributesCache
rmd:_GraphicRaycaster_get_ignoreReversedGraphics_m2757724367
thg:__Z111RuntimeInvoker_Void_t1841601450_Vector4_t2243707581_Vector4_t2243707581_Vector4_t2243707581_Vector4_t2243707581PFvvEPK10MethodInfoPvPS4_
GFa:__ZNK12BaseRenderer18GetRenderNodeCountEv
OGi:__ZN14dense_hash_mapI10KeyWrapperIPK10Il2CppTypeEjN6il2cpp8metadata14Il2CppTypeHashENS4_14EqualsComparerINS6_26Il2CppTypeEqualityComparerEEENSt3__29allocatorINSB_4pairIKS4_jEEEEE3endEv
QXf:_GenericTypeParameterBuilder_GetHashCode_m867619899
lMf:_TimeSpan_ToString_m2947282901
wQg:_EqualityComparer_1__cctor_m3397254040_gshared
rkb:__ZNK20LocalFileSystemPosix6ParentERK13FileEntryDataRN4core12basic_stringIcNS3_20StringStorageDefaultIcEEEE
Lza:__ZN15dense_hashtableINSt3__24pairIKN4core12basic_stringIcNS2_20StringStorageDefaultIcEEEEP20ArchiveStorageReaderEES6_20StringHash32FunctionIS6_EN14dense_hash_mapIS6_S9_SC_NS0_8equal_toIS6_EE13stl_allocatorISA_L18MemLabelIdentifier55ELi16EEE9SelectKeyESF_SI_E4swapERSL_
dAe:_MonoType_CheckMethodSecurity_m4116906190
YIj:__ZNSt3__226__list_node_pointer_traitsIPN6il2cpp5utils10MemoryPool6RegionEPvE26__unsafe_link_pointer_castEPNS_16__list_node_baseIS5_S6_EE
V5d:_Array_Sort_TisVector2_t2243707579_m1307634946_gshared
gsi:__ZNSt3__29allocatorIP11Il2CppClassE8allocateEjPKv
yga:__ZN7ApiGLES17CopyBufferSubDataEjjlll
bQf:_UInt64_System_IConvertible_ToDecimal_m4205696037
Hnc:__ZN5Unity9rapidjson15GenericDocumentINS0_4UTF8IcEE13JSONAllocatorS4_E11ParseStreamILj1ES3_NS0_25GenericInsituStringStreamIS3_EEEERS5_RT1_
jWh:__ZNSt3__26vectorIPK10Il2CppTypeNS_9allocatorIS3_EEE7reserveEj
pKh:_U3CCreateWhereIteratorU3Ec__Iterator1D_1_Reset_m1773515612_gshared
qOb:__ZN25CameraStackRenderingState20GetOrCreateBuiltinRTE24BuiltinRenderTextureTypeii17DepthBufferFormat19RenderTextureFormatj22RenderTextureReadWrite14VRTextureUsagei
Vpd:_InputField_get_caretPosition_m1005871812
BNa:__Z32TransferEnumWithNameForceIntSizeI14SafeBinaryRead16LightmappingMaskEvRT_RT0_PKc17TransferMetaFlags
NJg:_Dictionary_2__ctor_m3111963761_gshared
DBh:_AesManaged_CreateEncryptor_m1729287824
g1a:__ZNK14Texture2DArray26CanReuploadDataToGfxDeviceEv
LSb:__ZN17PrePassRenderLoop14RenderBasePassEP13RenderTextureRK14LightingLayersR13dynamic_arrayI16RenderObjectDataLj4EERbR10MinMaxAABB
BDa:__ZN17GlobalGameManager23VirtualRedirectTransferER17RemapPPtrTransfer
nCc:_sfnt_stream_close
Kij:__ZNSt3__24swapIN10KeyWrapperIP18Il2CppGenericClassE14EqualsComparerIN6il2cpp8metadata25Il2CppGenericClassCompareEEEEENS_9enable_ifIXaasr21is_move_constructibleIT_EE5valuesr18is_move_assignableISB_EE5valueEvE4typeERSB_SE_
Kyd:_Char_System_IConvertible_ToInt16_m2741348777_AdjustorThunk
vlc:__ZN5IMGUI18RepaintModalWindowER8GUIState
jIh:__ZL25UnresolvedVirtualCall_129P12Il2CppObject17Color_t2020392075PK10MethodInfo
Zkd:_FontData_get_verticalOverflow_m83665814
t$e:_ReadOnlyCollection_1_System_Collections_Generic_IListU3CTU3E_set_Item_m1547026160_gshared
hHa:__ZNK15dense_hashtableINSt3__24pairIKN9ShaderLab7Program23ShaderKeywordSetAndHashEPKNS2_10SubProgramEEES4_NS3_24ShaderKeywordHashFunctorEN14dense_hash_mapIS4_S8_SA_NS0_8equal_toIS4_EE13stl_allocatorIS9_L18MemLabelIdentifier67ELi16EEE9SelectKeyESD_SG_E23find_position_with_hashERS5_j
TYj:__ZL61MarshalAsAttribute_t2900773360_CustomAttributesCacheGeneratorP21CustomAttributesCache
P$a:__Z23SetSpriteMeshIndexCountP14SharedMeshDataj
uQa:__ZN7Texture13SetFilterModeEi
hfk:__ZL87Camera_t189460977_CustomAttributesCacheGenerator_Camera_get_allCamerasCount_m1873043770P21CustomAttributesCache
Ycc:__Z46Register_UnityEngine_Application_get_isPlayingv
nyj:__ZN6il2cpp8metadata13GenericMethod9GetMethodEPK19Il2CppGenericMethod
jq:__ZNSt3__26vectorIN4core12basic_stringIcNS1_20StringStorageDefaultIcEEEENS_9allocatorIS5_EEE7reserveEj
fLd:_Convert_ToUInt16_m2130758075
DLi:__ZN15dense_hashtableINSt3__24pairIK10KeyWrapperINS1_IPK11Il2CppImageP11Il2CppClassEEEjEES9_17ReflectionMapHashIS8_EN14dense_hash_mapIS9_jSD_NS9_14EqualsComparerINS0_8equal_toIS8_EEEENS0_9allocatorISB_EEE9SelectKeyESI_SK_E3endEv
opf:_X509BasicConstraintsExtension_Encode_m3505127076
qci:__ZNKSt3__26vectorIP17Il2CppAsyncResultN6il2cpp2gc9AllocatorIS2_EEE5beginEv
i0h:__ZNSt3__217__compressed_pairINS_15__tree_end_nodeIPNS_16__tree_node_baseIPvEEEENS_9allocatorINS_11__tree_nodeINS_12__value_typeIP11Il2CppClassSB_EES3_EEEEE5firstEv
Haa:__ZN13GfxDeviceGLES11SetViewportERK5RectTIiE
Ynd:_Image_get_pixelsPerUnit_m4104195799
rDg:_Toggle_InternalToggle_m2323729210
rPd:_Decimal_System_IConvertible_ToInt64_m2504363272
Iic:__Z24Time_Get_Custom_PropTimev
Std:_Array_GetValue_m3182152438
Pd:_emscripten_glDepthRange
t_i:__ZNSt3__216allocator_traitsIN6il2cpp2gc9AllocatorIP12Il2CppThreadEEE10deallocateERS6_PS5_j
FEf:_DESTransform_CipherFunct_m3559419566
EPj:__ZNSt3__216allocator_traitsINS_9allocatorINS_11__tree_nodeIPFvvEPvEEEEE9constructIS4_JRKS4_EEEvRS7_PT_DpOT0_
z_c:_Rijndael_Create_m113171669
oCf:_RuntimeFieldHandle_get_Value_m3963757144
zYb:__ZNSt3__26vectorINS_4pairIN4core12basic_stringIcNS2_20StringStorageDefaultIcEEEES6_EE13stl_allocatorIS7_L18MemLabelIdentifier38ELi16EEE12__move_rangeEPS7_SC_SC_
qdb:__Z14resize_trimmedINSt3__26vectorIN9ShaderLab20SerializedSubProgram12UAVParameterENS0_9allocatorIS4_EEEEEvRT_j
$nc:__ZN5Unity9rapidjson13GenericReaderINS0_4UTF8IcEES3_13JSONAllocatorE11ParseObjectILj1ENS0_25GenericInsituStringStreamIS3_EENS0_15GenericDocumentIS3_S4_S4_EEEEvRT0_RT1_
Vzf:_SerializationInfo_AddValue_m1781549036
Rpg:__Z59RuntimeInvoker_Void_t1841601450_PlayableBinding_t2498078091PFvvEPK10MethodInfoPvPS4_
pdf:_TlsServerKeyExchange_verifySignature_m3641534563
Z9b:__ZN13BuildSettings34ConvertScenePathToDisplayScenePathERKN4core12basic_stringIcNS0_20StringStorageDefaultIcEEEE
vXe:_Collection_1_Clear_m445145071_gshared
_2:__ZNSt3__218__insertion_sort_3IRNS_6__lessI14ObjectLoadDataS2_EEPS2_EEvT0_S6_T_
Ywh:_InvokableCall_1_Find_m2337296995_gshared
FBg:_Slider_FindSelectableOnLeft_m3136767885
tia:__ZN4crndL20crnd_default_reallocEPvjPjbS0_
Jld:__ZN21InterfaceFuncInvoker1IP19Material_t193706927S1_E6InvokeEjP11Il2CppClassP12Il2CppObjectS1_
GZd:_Array_BinarySearch_TisInt32_t2071877448_m51233948_gshared
xNk:__ZNSt3__212basic_stringIcNS_11char_traitsIcEENS_9allocatorIcEEEC2ERKS5_
qyf:_ProviderData_CopyFrom_m431414335
Oig:__Z74RuntimeInvoker_Boolean_t3825574718_Vector2_t2243707579_Vector2_t2243707579PFvvEPK10MethodInfoPvPS4_
F0a:__ZN18SpriteAtlasManager19AddRequestingSpriteE4PPtrI6SpriteE
$Hf:_UTF32Encoding_GetPreamble_m767706727
n2i:__ZNKSt3__217__compressed_pairIPN6il2cpp2vm22EmbeddedResourceRecordENS_9allocatorIS3_EEE6secondEv
tic:__Z33Texture_CUSTOM_Internal_GetHeightP12Il2CppObject
nsd:_LayoutGroup_get_preferredHeight_m3901163825
jag:__Z111RuntimeInvoker_Void_t1841601450_RuntimeObject_SByte_t454417549_ObjectU26_t597476745_HeaderU5BU5DU26_t2818328198PFvvEPK10MethodInfoPvPS4_
wUh:__ZNKSt3__214__split_bufferIPK10Il2CppTypeRNS_9allocatorIS3_EEE8capacityEv
Cli:__ZNSt3__216allocator_traitsINS_9allocatorIP9FieldInfoEEE11__constructIS3_JRKS3_EEEvNS_17integral_constantIbLb1EEERS4_PT_DpOT0_
uVb:__ZN23ScriptableRenderContextC2Ev
_nk:__ZL118AudioSource_t1135106623_CustomAttributesCacheGenerator_AudioSource_INTERNAL_CALL_ReadExtensionPropertyName_m3694806886P21CustomAttributesCache
HIa:__ZN4PPtrI13RenderTextureE8TransferI18StreamedBinaryReadILb0EEEEvRT_
qId:_DateTime_AbsoluteDays_m3061694073
oFi:__ZN14dense_hash_mapI10KeyWrapperINSt3__24pairIPK9FieldInfoP11Il2CppClassEEEj17ReflectionMapHashIS8_ENS9_14EqualsComparerINS1_8equal_toIS8_EEEENS1_9allocatorINS2_IKS9_jEEEEE6insertERKSI_
TBj:__ZNSt3__216allocator_traitsINS_9allocatorIPK14Il2CppAssemblyEEE9constructIS4_JRKS4_EEEvRS5_PT_DpOT0_
_Ic:_UNITY_FT_Stream_GetChar
xxb:__Z18Transfer_BlittableI18StreamedBinaryReadILb1EELb1EdEvRK29SerializationCommandArgumentsR31RuntimeSerializationCommandInfo
xBj:__ZNSt3__213__vector_baseIPK14Il2CppAssemblyNS_9allocatorIS3_EEE7__allocEv
iFg:_Enumerator_System_Collections_IEnumerator_get_Current_m229223308_gshared
nek:__ZL202U3CCreateWhereIteratorU3Ec__Iterator1D_1_t2523986802_CustomAttributesCacheGenerator_U3CCreateWhereIteratorU3Ec__Iterator1D_1_System_Collections_Generic_IEnumerableU3CTSourceU3E_GetEnumerator_m2392330777P21CustomAttributesCache
jDb:__Z26BuildSerializationCacheFor17ScriptingClassPtrRb
zoa:__ZN7ApiGLES15BlitFramebufferEN2gl6HandleILNS0_10ObjectTypeE9EEENS0_15FramebufferReadES3_S3_iiiiiiiiNS0_15FramebufferTypeE
$ti:_il2cpp_class_get_name
iHk:_Mesh_CheckCanAccessSubmeshTriangles_m2644388378
Zeg:__Z112RuntimeInvoker_RuntimeObject_RuntimeObject_RuntimeObject_RuntimeObject_RuntimeObject_RuntimeObject_RuntimeObjectPFvvEPK10MethodInfoPvPS4_
h2j:__ZL55GCHandleType_t1970708122_CustomAttributesCacheGeneratorP21CustomAttributesCache
L5b:__ZN13ProduceHelperI10GUIElementLb1EE7ProduceE18MemLabelIdentifier18ObjectCreationMode
KIh:__ZL25UnresolvedVirtualCall_156P12Il2CppObject18Color32_t874517518PK10MethodInfo
Nrh:_UnitySynchronizationContext__ctor_m1804960286
rNh:_WillRenderCanvases_BeginInvoke_m4217413147
c9i:__ZNSt3__24moveIRPNS_4pairIK10KeyWrapperIP14Il2CppIUnknownEjEEEEONS_16remove_referenceIT_E4typeEOSB_
oBd:_FixedSizeArrayListWrapper_AddRange_m2071800418
OD:__ZN13ProduceHelperI8AnimatorLb0EE7ProduceE18MemLabelIdentifier18ObjectCreationMode
CEb:__Z9InitInputv
Bbg:__Z85RuntimeInvoker_Boolean_t3825574718_Int64_t909078037_Int64_t909078037_SByte_t454417549PFvvEPK10MethodInfoPvPS4_
XFi:__ZN15dense_hashtableINSt3__24pairIK10KeyWrapperINS1_IPK9FieldInfoP11Il2CppClassEEEjEES9_17ReflectionMapHashIS8_EN14dense_hash_mapIS9_jSD_NS9_14EqualsComparerINS0_8equal_toIS8_EEEENS0_9allocatorISB_EEE9SelectKeyESI_SK_ED2Ev
CEe:_Enumerator_VerifyState_m2358705882_AdjustorThunk
hCc:_UNITY_tt_face_build_cmaps
Vxg:_Selectable_Navigate_m915280351
wlb:__ZN16MemoryFileSystem6DeleteER13FileEntryDatab
luj:__ZNSt3__27forwardINS_22__tree_node_destructorINS_9allocatorINS_11__tree_nodeINS_12basic_stringIcNS_11char_traitsIcEENS2_IcEEEEPvEEEEEEEEOT_RNS_16remove_referenceISD_E4typeE
lja:__ZL21BlitScaleStbImageImplRK14ImageReferenceRS_NS_10ColorSpaceE
Wnh:_RectTransform_INTERNAL_set_pivot_m4248720081
Wjf:_TlsStream_set_Position_m378064217
rfb:__ZN18StreamedBinaryReadILb0EE21TransferSTLStyleArrayI13dynamic_arrayIjLj4EEEEvRT_17TransferMetaFlags
Iob:__Z29Transfer_Blittable_ArrayFieldI14SafeBinaryReadyEvRT_R9ArrayInfoRK23StaticTransferFieldInfo
KL:__ZN20SoundChannelInstance15setChannelGroupEPN4FMOD12ChannelGroupE
NFi:__ZNK15dense_hashtableINSt3__24pairIK10KeyWrapperINS1_IPK9FieldInfoP11Il2CppClassEEEjEES9_17ReflectionMapHashIS8_EN14dense_hash_mapIS9_jSD_NS9_14EqualsComparerINS0_8equal_toIS8_EEEENS0_9allocatorISB_EEE9SelectKeyESI_SK_E12test_deletedERK24dense_hashtable_iteratorISB_S9_SD_SM_SI_SK_E
F3c:_Evidence_Equals_m2325859915
Jkh:_PlayableHandle_INTERNAL_CALL_GetPlayableTypeOf_m1683061051
dsj:__ZNSt3__217__compressed_pairIPN6il2cpp2os10ThreadImpl10APCRequestERNS_9allocatorIS4_EEEC2ES5_S8_
$Sf:_Default__ctor_m172834064
lc:invoke_vifffii
iAb:__Z35Transfer_Blittable_FixedBufferFieldI18StreamedBinaryReadILb0EEaEvRK29SerializationCommandArgumentsR31RuntimeSerializationCommandInfo
j5i:__ZN6il2cpp2vm9Exception27RaiseNullReferenceExceptionEv
Edh:_Regex_IsMatch_m2159202025
pBa:__ZNK25MultiBlocksMemoryFileData5CloneEv
kHj:_GC_add_ext_descriptor
emi:__ZNSt3__29addressofIP11Il2CppClassEEPT_RS3_
tIj:__ZN6il2cpp2os14WindowsRuntime22GetRestrictedErrorInfoEv
ood:_Image_CalculateLayoutInputHorizontal_m3275149860
Bvf:_RemotingServices_GetMethodBaseFromName_m3271095947
tAa:__ZN17ArchiveFileSystem11CreateAsDirER13FileEntryData
hQk:dynCall_iiiiiiiiiiii
H8c:_ASCIIEncoding_GetBytes_m3617160053
O$g:_InternalEnumerator_1_MoveNext_m2289229080_AdjustorThunk
tcf:_CipherSuiteCollection_System_Collections_IList_RemoveAt_m143866082
Bua:__ZN22VertexDeclarationCacheD0Ev
_hb:__ZL26KeywordSetToStringDontSortRKNSt3__26vectorIN4core12basic_stringIcNS1_20StringStorageDefaultIcEEEENS_9allocatorIS5_EEEERS5_
dla:__ZN6prcoreL17RemapGenericFloatI16TexFormatRGFloat17TexFormatRGBAHalfEEvPKNS_9InnerInfoE
fG:__ZN12AudioManager22CreateFMODSoundFromWWWEP10IWWWStream15FMOD_SOUND_TYPE17FMOD_SOUND_FORMATjjbbP10SampleClip
X3b:__ZNK32RendererMaterialAnimationBinding15GenerateBindingERKN4core12basic_stringIcNS0_20StringStorageDefaultIcEEEEbRN11UnityEngine9Animation14GenericBindingE
GKi:__ZN24dense_hashtable_iteratorINSt3__24pairIK10KeyWrapperINS1_IPK11Il2CppImageP11Il2CppClassEEEjEES9_17ReflectionMapHashIS8_EN14dense_hash_mapIS9_jSD_NS9_14EqualsComparerINS0_8equal_toIS8_EEEENS0_9allocatorISB_EEE9SelectKeyESI_SK_E30advance_past_empty_and_deletedEv
Keg:__Z40RuntimeInvoker_HandshakeType_t2540099417PFvvEPK10MethodInfoPvPS4_
h0:__ZN8Remapper23GetOrGenerateInstanceIDERK26SerializedObjectIdentifier
Qej:__ZNSt3__26vectorIPK11Il2CppClassNS_9allocatorIS3_EEE26__invalidate_all_iteratorsEv
Qwe:_StreamWriter_Flush_m3426120024
AAa:__ZN17FileSystemHandler10AtomicMoveER13FileEntryDataS1_
Ya:invoke_iiiiiifffiiifii
uue:_MemoryStream__ctor_m1489366847
Z3c:_SecurityElement_IsValidTag_m64902195
lFg:_Enumerator_System_Collections_IEnumerator_get_Current_m229223308_AdjustorThunk
e2f:_PropertyInfo_SetValue_m2961483868
egj:__ZNSt3__222__tree_node_destructorINS_9allocatorINS_11__tree_nodeINS_12__value_typeIP24Il2CppReflectionAssemblyPvEES6_EEEEEclEPS8_
xKe:_List_1_System_Collections_IList_Contains_m4193366963_gshared
Vgi:__ZNSt3__214__split_bufferI6pollfdRNS_9allocatorIS1_EEED2Ev
uwf:_DictionaryEnumerator_get_Value_m1915638953
xTf:_ConstructorInfo_Invoke_m2144827141
a0a:__ZN6Sprite8TransferI24GenerateTypeTreeTransferEEvRT_
Bjc:__Z48Register_UnityEngine_Transform_SetAsFirstSiblingv
d0a:__ZN7SubMesh8TransferI24GenerateTypeTreeTransferEEvRT_
hDj:__ZN14Il2CppIMarshalC2Ev
i1f:_MonoProperty_get_CanWrite_m2124922514
kki:__ZN6il2cpp6icalls8mscorlib6SystemL16CheckMemberMatchI9FieldInfoNS_5utils10functional6FilterINSt3__212basic_stringIcNS8_11char_traitsIcEENS8_9allocatorIcEEEENS5_13VmStringUtils23CaseInsensitiveComparerEEEEEbPKT_PK11Il2CppClassSN_iRKT0_
zbf:_CipherSuite_get_HashAlgorithmType_m3902365773
brk:__ZL96RemoteSettings_t392466225_CustomAttributesCacheGenerator_RemoteSettings_CallOnUpdate_m1092852243P21CustomAttributesCache
wMk:_poll
gue:_Stream_BeginRead_m1985960185
e2b:__ZN13ProduceHelperI14Texture2DArrayLb0EE7ProduceE18MemLabelIdentifier18ObjectCreationMode
ayh:_UnityAction_1_EndInvoke_m350315359_gshared
J9e:_MD4Managed_GG_m1462438360
Ygc:__Z53PlayableHandle_CUSTOM_INTERNAL_CALL_GetPlayableTypeOfR9HPlayable
Pac:__ZN9Transform23SetSiblingIndexInternalEib
e5j:__ZL91X509Certificate_t283079845_CustomAttributesCacheGenerator_X509Certificate_Reset_m1676863543P21CustomAttributesCache
Ozg:_ScrollRect_get_minWidth_m3151814267
T2i:__ZNSt3__27forwardIPcEEOT_RNS_16remove_referenceIS2_E4typeE
Yre:_BinaryReader_CheckBuffer_m1059275266
Waa:__ZN13GfxDeviceGLES17DestroySubProgramEPN9ShaderLab10SubProgramE
Ot:__ZN7mecanim5human12HumanPoseSubERNS0_9HumanPoseERKS1_S4_
Jsh:_Vector3_Max_m2076081170
v9e:_MD4_Create_m2582504069
ZDh:_HashSet_1_System_Collections_IEnumerable_GetEnumerator_m2498631708_gshared
wjj:__ZN6il2cpp8metadata15GenericMetadata15GetGenericClassEiPK17Il2CppGenericInst
vwd:_Boolean_System_IConvertible_ToInt16_m977801621
hnb:__Z18Transfer_BlittableI14SafeBinaryReadLb0E10Matrix4x4fEvRK29SerializationCommandArgumentsR31RuntimeSerializationCommandInfo
BCb:__Z24GetFixedBehaviourManagerv
Bng:__Z69RuntimeInvoker_Void_t1841601450_Int32_t2071877448_Vector4_t2243707581PFvvEPK10MethodInfoPvPS4_
DLb:__ZN12FlareManager9UpdateJobEP25FlareManagerUpdateJobData
mii:__ZN6il2cpp2vm10ThreadPool4WaitEP17Il2CppAsyncResultPPv
xIk:_Plane__ctor_m730644932_AdjustorThunk
GKk:_vfprintf
Ulc:__ZN10GUIManager12AddGUIScriptER8ListNodeI13MonoBehaviourE
Qzf:_SerializationException__ctor_m1019897788
tMa:__ZN19ShaderPropertySheet20ReservePropertyCountEj
lMb:__ZN20DynamicPropertySheetD0Ev
EYb:__ZN14SafeBinaryRead17RegisterConverterEPKcS1_PFbPvRS_E
PX:__ZN35RegisterRuntimeInitializeAndCleanup8RegisterEPFvPvES2_iS0_
bjk:__ZL101SceneManager_t90660965_CustomAttributesCacheGenerator_SceneManager_Internal_SceneUnloaded_m2177251378P21CustomAttributesCache
mvd:_AsyncCallback__ctor_m3071689932
y4e:_ReadOnlyCollection_1_System_Collections_IList_Clear_m2600246370_gshared
Vyh:_UnityEvent_1_GetDelegate_m915269642_gshared
_og:__Z62RuntimeInvoker_Int32_t2071877448_ParameterModifier_t1820634920PFvvEPK10MethodInfoPvPS4_
see:_DSAManaged_NormalizeArray_m2287089393
Fjc:__Z21Object_CUSTOM_DestroyP12Il2CppObjectf
H0g:_InternalEnumerator_1_System_Collections_IEnumerator_get_Current_m2389982234_AdjustorThunk
Ehb:__ZN8Material26ResetAllCachedMaterialDataEP6Shader
kAg:_Selectable_get_interactable_m1725029500
RXj:__ZL66RuntimeArray_CustomAttributesCacheGenerator_Array_Sort_m3002148658P21CustomAttributesCache
iJc:_UNITY_TT_Get_MM_Var
OOh:__ZN6il2cpp6icalls8mscorlib6System7Decimal13decimal2Int64EP19il2cpp_decimal_reprPx
aa:invoke_diddi
ccd:_ExecuteEvents__cctor_m288775360
nLc:__ZNK2UI6Canvas13GetRenderModeEv
BJd:_Double_TryParseStringConstant_m2585405703
tmb:__Z18Transfer_BlittableI14SafeBinaryReadLb0EiEvRK29SerializationCommandArgumentsR31RuntimeSerializationCommandInfo
r8h:__ZN6il2cpp2vm13MetadataCache30GetPropertyDefinitionFromIndexEi
R4g:_ResourceEnumerator__ctor_m1679839941
Jwi:__ZNK6il2cpp2vm14TypeNameParser9CurrentIsEc
K_c:_RijndaelTransform_Clear_m1652144089
Mse:_MonoIO_GetException_m2577367044
UTc:__ZN22BaseUnityConnectClient17InitializeSessionERKN4core12basic_stringIcNS0_20StringStorageDefaultIcEEEES6_N19CloudServiceHandler13InitModeFlagsE
pij:___cxx_global_var_init_1_14630
MHg:_Enumerator_MoveNext_m1404007384_gshared
xBe:_NumberFormatter_get_IsZero_m1325357749
Ksj:__ZNKSt3__26vectorIN6il2cpp2os10ThreadImpl10APCRequestENS_9allocatorIS4_EEE11__make_iterEPKS4_
fHk:_Mesh_PrintErrorCantAccessIndices_m2990602703
bWk:_emscripten_glDeleteBuffers__wrapper
Jjg:__Z121RuntimeInvoker_Void_t1841601450_Single_t2076509932_Single_t2076509932_Single_t2076509932_Single_t2076509932_RuntimeObjectPFvvEPK10MethodInfoPvPS4_
RSd:_Enum_ToObject_m322320225
l4g:_Enumerator_get_Current_m2754383612_gshared
gRh:__ZNSt3__27forwardIRK10KeyWrapperIPK22Il2CppGenericParameterEEEOT_RNS_16remove_referenceIS8_E4typeE
ucc:__ZN13MonoBehaviour34StopCoroutineFromEnumeratorManagedE18ScriptingObjectPtr
l2c:_X509Certificate__ctor_m3860837120
RAc:_gray_raster_reset
hmg:__Z109RuntimeInvoker_RuntimeObject_Ray_t2469606224_Single_t2076509932_Int32_t2071877448_RuntimeObject_RuntimeObjectPFvvEPK10MethodInfoPvPS4_
t4e:_ReadOnlyCollection_1_System_Collections_Generic_IListU3CTU3E_set_Item_m3663361643_gshared
$D:__ZN7mecanim9animation14AvatarConstant15InitializeClassEv
lbd:_EventTrigger_OnScroll_m626934407
O8a:__ZN30RuntimeInitializeOnLoadManager8TransferI18StreamedBinaryReadILb0EEEEvRT_
WMg:_Dictionary_2__ctor_m1206668798_gshared
_Vf:_TypeBuilder_not_supported_m3178173643
ABc:_UNITY_tt_face_load_pclt
Pbc:__ZL34GetComponentsImplementationRecurseILb1ELi0ELi2EEbR10GameObjectbRK17CompareParametersRK39GetComponentsImplementation_ReturnValue
oOj:__ZN6il2cpp6icalls8mscorlib6System9Threading5Mutex20CreateMutex_internalEbP12Il2CppStringPb
lni:__ZNSt3__217__compressed_pairINS_15__tree_end_nodeIPNS_16__tree_node_baseIPvEEEENS_9allocatorINS_11__tree_nodeIP11Il2CppClassS3_EEEEEC2Ev
OZi:__ZN6il2cpp2gc9AllocatorIP12Il2CppThreadEC2Ev
XAd:_ArrayListWrapper_Remove_m1105489978
HLb:__ZNK6Camera18WorldToScreenPointERK8Vector3fPb
Qvh:_GUISkin__ctor_m2824039590
Uwd:_Boolean_CompareTo_m3691698947_AdjustorThunk
gfj:__ZNKSt3__26vectorIPK11Il2CppClassNS_9allocatorIS3_EEE8max_sizeEv
Qqg:__Z84RuntimeInvoker_Void_t1841601450_RaycastResultU5BU5DU26_t2399554255_Int32_t2071877448PFvvEPK10MethodInfoPvPS4_
NEd:_HashKeys_CopyTo_m3566668422
Vna:__Z18IsCompressedFormat14GraphicsFormat
aYg:_InternalEnumerator_1_Dispose_m549215360_AdjustorThunk
Zgk:__ZL92Input_t1785128008_CustomAttributesCacheGenerator_Input_INTERNAL_get_mousePosition_m655888428P21CustomAttributesCache
Syd:_Convert_ToSByte_m2665932200
t$:__ZNSt3__227__insertion_sort_incompleteIRPFbRKN18AwakeFromLoadQueue4ItemES4_EPS2_EEbT0_S9_T_
VUf:_ILGenerator_label_fixup_m1325994348
sJg:_ValueCollection_System_Collections_ICollection_get_IsSynchronized_m45572582_gshared
fSj:__ZNSt3__26__treeINS_12__value_typeIPFvvEPK10MethodInfoEENS_19__map_value_compareIS3_S7_NS_4lessIS3_EELb1EEENS_9allocatorIS7_EEE12__node_allocEv
P3h:__ZN14dense_hash_mapI10KeyWrapperIN6il2cpp5utils13dynamic_arrayIPK10Il2CppTypeLj4EEEEPFvvENS1_8metadata19Il2CppSignatureHashENS8_14EqualsComparerINSB_22Il2CppSignatureCompareEEENSt3__29allocatorINSG_4pairIKS8_SA_EEEEE15set_deleted_keyERSJ_
Rvg:_Navigation_Equals_m4214630671_AdjustorThunk
JPi:__ZN13ReflectionMapINSt3__24pairIPK10MethodInfoP11Il2CppClassEEP22Il2CppReflectionMethodEC2Ev
lci:__ZNKSt3__26vectorIP17Il2CppAsyncResultN6il2cpp2gc9AllocatorIS2_EEE31__annotate_contiguous_containerEPKvS9_S9_S9_
F1e:_ReadOnlyCollection_1_System_Collections_Generic_IListU3CTU3E_set_Item_m257196015_gshared
E_f:_FieldInfo_GetPseudoCustomAttributes_m2500972355
gYa:__ZN26EnlightenSystemInformation8TransferI14SafeBinaryReadEEvRT_
Z7d:_Array_InternalArray__get_Item_TisLink_t2723257478_m2281261655_gshared
jVc:__ZN11UnityEngine15PlatformWrapper20SetPlayerPrefsUInt64ERKN4core12basic_stringIcNS1_20StringStorageDefaultIcEEEEy
Z3a:__ZN12MeshRendererD0Ev
dP:__ZN12AudioManager35GetCurrentSpatializerDefinitionNameEv
cfh:_ExpressionAssertion_IsComplex_m783019628
PDd:_Hashtable__ctor_m2702360557
yh:_utime
BNd:_DateTimeFormatInfo_get_RawAbbreviatedDayNames_m3998113647
gth:_Vector4_get_sqrMagnitude_m641641704_AdjustorThunk
oB:__Z28SetExposedSkeletonTransformsRKN7mecanim9animation14AvatarConstantERKN11UnityEngine9Animation30AnimatorGenericBindingConstantERKNS_8skeleton13SkeletonPoseTIN4math4trsXEEERKNSA_INSB_7affineXEEERNS5_21AvatarBindingConstantEy
tPg:_DefaultComparer_GetHashCode_m2596628120_gshared
u7j:__ZL94UTF32Encoding_t549530865_CustomAttributesCacheGenerator_UTF32Encoding_GetByteCount_m3183615393P21CustomAttributesCache
ZXd:_PlayableHandle_IsPlayableOfType_TisAnimationLayerMixerPlayable_t3057952312_m2522157783_AdjustorThunk
h8e:_PrimalityTest_Invoke_m4058801829
on:FUNCTION_TABLE_viiiiif
_yf:_RemotingConfiguration_SetCustomErrorsMode_m1844153208
tn:FUNCTION_TABLE_viiiiii
kVd:_CultureInfo_GetFormat_m3560116485
NC:__ZN7mecanim9animation22DestroyAvatarWorkspaceEPNS0_15AvatarWorkspaceERNS_6memory9AllocatorE
xmd:__ZN21InterfaceFuncInvoker0IiE6InvokeEjP11Il2CppClassP12Il2CppObject
mWi:__ZNK10KeyWrapperIP11Il2CppClassE8isNormalEv
eeh:_AnchorInfo_get_IsPosition_m3791659233
RSb:__ZN15LightmapSTCacheC2ER13BatchRendererR15RenderLoopStats
qlc:__ZNSt3__210__list_impIN10GUIManager12SortedScriptE11memory_poolIS2_EE5clearEv
v9j:__ZL76Convert_t2607082565_CustomAttributesCacheGenerator_Convert_ToInt64_m44696721P21CustomAttributesCache
OUa:__ZN14PlayableOutput17SetSourcePlayableEP8Playable
G8a:__ZNSt3__26vectorIN4core12basic_stringIcNS1_20StringStorageDefaultIcEEEE13stl_allocatorIS5_L18MemLabelIdentifier13ELi16EEE8__appendEj
pzf:_TrackingServices__cctor_m3639412334
dC:__ZN7mecanim9animation29MotionOutputGetDeltaTransformEPKNS0_12MotionOutputE
a0b:__Z13RegisterClassI16GraphicsSettingsEvv
rPj:__ZNSt3__26__treeIPFvvENS_4lessIS2_EENS_9allocatorIS2_EEE10__end_nodeEv
EJg:_ValueCollection_System_Collections_IEnumerable_GetEnumerator_m1773104428_gshared
wE:__ZN8Animator14OnAddComponentEPN5Unity9ComponentE
CQe:_List_1_CheckMatch_m1184924052_gshared
Yic:__Z43Transform_CUSTOM_INTERNAL_get_localRotationP12Il2CppObjectP11Quaternionf
S4b:__ZZL23RegisterLightPropertiesR22GenericPropertyBindingEN20Wrapper_LightColorr013SetFloatValueEPvf
bi:_emscripten_glGetTexParameteriv
jKe:_List_1_ToArray_m3752387798_gshared
xyg:_ScrollRect_get_elasticity_m3987376518
Eaf:_RSAManaged_ImportParameters_m3060955884
gie:_DeriveBytes__ctor_m3089550878
r7g:_ChannelData_CopyFrom_m4049054607
j0b:__Z13RegisterClassI4MeshEvv
Qrk:__ZL94AxisEventData_t1524870173_CustomAttributesCacheGenerator_AxisEventData_get_moveDir_m3968662359P21CustomAttributesCache
lUa:__ZN8PlayableD0Ev
x1h:__ZNK26InteropDataToTypeConverterclERK17Il2CppInteropData
IH:__ZN12AudioManager8TransferI19StreamedBinaryWriteILb0EEEEvRT_
Nue:_WriteDelegate_Invoke_m2103848735
iLe:_List_1_get_Capacity_m4262042666_gshared
Sjh:_X509Crl_get_IssuerName_m756409840
oHg:_Transform_1_EndInvoke_m687617772_gshared
SAh:_Locale_GetText_m512920887
W3b:__ZNK32RendererMaterialAnimationBinding12GetPPtrValueERKN11UnityEngine9Animation10BoundCurveE
tzb:__Z18Transfer_BlittableI18StreamedBinaryReadILb0EELb0E8Vector2fEvRK29SerializationCommandArgumentsR31RuntimeSerializationCommandInfo
Iyf:_RemotingConfiguration_get_ProcessId_m3870172209
iOc:__ZN2UI11CanvasGroup12CleanupClassEv
Lle:_SortKey_ToString_m2406913228
$jb:__ZN22LocalFileSystemHandler9MakeLocalER13FileEntryDatab
PAj:__ZN6il2cpp2vm8Profiler10AllocationEP12Il2CppObjectP11Il2CppClass
IId:_Convert_ToDateTime_m1020507389
bik:__ZL78Sprite_t309593783_CustomAttributesCacheGenerator_Sprite_get_packed_m2366369914P21CustomAttributesCache
o6:__ZNK9HPlayable7IsValidEv
azc:__ZNSt3__23mapIN20TextRenderingPrivate7FontRefENS1_6OSFontENS_4lessIS2_EENS_9allocatorINS_4pairIKS2_S3_EEEEEixERS8_
hGk:_Material_SetInt_m2847439171
H8:__Z13FormatOrderedPKcz
owi:_RaycastHit_get_distance_m758224512
Kse:_Path_IsPathRooted_m1347207448
DAf:_ObjectManager_RegisterObjectInternal_m879109503
HVd:_Array_get_swapper_TisVector4_t2243707581_m97441823_gshared
pwc:__ZN14SafeBinaryRead21TransferSTLStyleArrayI10vector_mapINSt3__24pairIttEEfN20TextRenderingPrivate8FontImpl14KerningCompareENS2_9allocatorINS3_IS4_fEEEEEEEvRT_17TransferMetaFlags
F0b:__Z13RegisterClassI15QualitySettingsEvv
Syj:__ZN6il2cpp2vm6String21InitializeEmptyStringEP11Il2CppClass
ASb:__ZN25DeferredRenderLoopScratchD0Ev
jw:__ZN27AnimationLayerMixerPlayable14SetInputWeightEif
UKi:__ZNSt3__29allocatorINS_4pairIK10KeyWrapperINS1_IPK11Il2CppImageP11Il2CppClassEEEjEEE10deallocateEPSB_j
Kt:__ZN7mecanim9animation17EvaluateHumanPoseERKNS0_18ClipMuscleConstantERKNS0_15ClipMuscleInputEPKfRKNS0_12MotionOutputERNS_5human9HumanPoseE
z7j:__ZL90UTF7Encoding_t741406939_CustomAttributesCacheGenerator_UTF7Encoding_GetHashCode_m359766848P21CustomAttributesCache
Lvi:__ZN6il2cpp2osL14FindFileHandleERK4stat
G$i:__ZNSt3__2eqIPKP12Il2CppThreadPS2_EEbRKNS_11__wrap_iterIT_EERKNS6_IT0_EE
KLj:__ZNSt3__24pairIKNS_12basic_stringIcNS_11char_traitsIcEENS_9allocatorIcEEEEPFvvEEC2IJOS6_EJEEENS_21piecewise_construct_tENS_5tupleIJDpT_EEENSE_IJDpT0_EEE
Zcb:__ZN15dense_hashtableINSt3__24pairIKiN4core17string_with_labelILi1EEEEEi18SInt32HashFunctionN14dense_hash_mapIiS5_S7_NS0_8equal_toIiEE13stl_allocatorIS6_L18MemLabelIdentifier1ELi16EEE9SelectKeyESA_SD_E9copy_fromERKSG_j
wIa:__ZN6Camera11ResetAspectEv
ONf:_Type_get_IsGenericType_m3396841573
o7a:__ZN15ResourceManagerD0Ev
qpf:_X509BasicConstraintsExtension_get_HasPathLengthConstraint_m3788532759
sMa:__ZNK17InstancedPropInfo22FillInstancePropertiesER19ShaderPropertySheetjPK17BatchInstanceDatajRK15RenderNodeQueue
tHa:__ZN22CreateGpuProgramOutputD2Ev
Lub:__Z18Transfer_BlittableI19StreamedBinaryWriteILb0EELb1EsEvRK29SerializationCommandArgumentsR31RuntimeSerializationCommandInfo
T$c:_RSACryptoServiceProvider_EncryptValue_m802714447
U8j:__ZL76Convert_t2607082565_CustomAttributesCacheGenerator_Convert_ToByte_m932798552P21CustomAttributesCache
MO:__ZN13ProduceHelperI13AudioListenerLb0EE7ProduceE18MemLabelIdentifier18ObjectCreationMode
mxh:_InvokableCall_1__ctor_m2021220028_gshared
nNh:_WillRenderCanvases_Invoke_m4267547094
QGe:_List_1_System_Collections_ICollection_get_SyncRoot_m1594235606_gshared
HHd:_DateTimeFormatInfo_GetInstance_m3133223810
B7e:_ModulusRing_BarrettReduction_m2802101099
kjb:__ZN12HandlerChain4OpenER13FileEntryData14FilePermission16FileAutoBehavior
PRg:_EqualityComparer_1_get_Default_m2134906921_gshared
t$f:_MonoMethodInfo_GetParametersInfo_m3456861922
CIi:__ZN15dense_hashtableINSt3__24pairIK10KeyWrapperINS1_IPK10MethodInfoP11Il2CppClassEEEjEES9_17ReflectionMapHashIS8_EN14dense_hash_mapIS9_jSD_NS9_14EqualsComparerINS0_8equal_toIS8_EEEENS0_9allocatorISB_EEE9SelectKeyESI_SK_E6insertERKSB_
NIg:_ValueCollection_System_Collections_Generic_ICollectionU3CTValueU3E_Remove_m4188992987_gshared
t2:__ZN14FileCacherReadD2Ev
yab:__ZN13RendererScene23UpdatePreviousFrameDataEii
g0c:_RSAPKCS1SignatureDeformatter_VerifySignature_m1825067195
Ynh:_RectTransform_remove_reapplyDrivenProperties_m52143263
dIh:__ZL25UnresolvedVirtualCall_123P12Il2CppObjectffPK10MethodInfo
kec:__Z50Register_UnityEngine_CullingGroup_FinalizerFailurev
eDe:_KeyValuePair_2_ToString_m2613351884_gshared
kkj:__ZN6il2cpp2gcL13GetHandleSlotEj
gbb:__ZN27UnloadUnusedAssetsOperationD0Ev
bx:__ZN26AnimatorControllerPlayable6MemoryD2Ev
sni:__ZN6il2cpp6icalls8mscorlib6SystemL20GetMethodsByNameImplINS_5utils10functional6FilterINSt3__212basic_stringIcNS7_11char_traitsIcEENS7_9allocatorIcEEEENS4_13VmStringUtils23CaseInsensitiveComparerEEEEEP11Il2CppArrayPK10Il2CppTypejRKT_
x1i:__ZNSt3__26vectorIN6il2cpp2vm22EmbeddedResourceRecordENS_9allocatorIS3_EEE24__RAII_IncreaseAnnotatorC2ERKS6_j
Qtk:__ZL69ColorBlock_t2652774230_CustomAttributesCacheGenerator_m_DisabledColorP21CustomAttributesCache
Cbf:_CipherSuite_get_Code_m3902213587
$wg:_Scrollbar__ctor_m2244981801
vqi:__ZNSt3__228__libcpp_compressed_pair_impIPN6il2cpp6icalls8mscorlib6System12PropertyPairERNS_9allocatorIS5_EELj0EEC2ES6_S9_
GBf:_ObjectRecord_get_HasPendingFixups_m670959802
hPh:_AnimationLayerMixerPlayable__ctor_m678972180
K0c:_SHA256Managed_HashCore_m4111458495
$Ud:_CultureInfo_get_CompareInfo_m3085280862
wek:__ZL89Application_t354826772_CustomAttributesCacheGenerator_Application_get_isEditor_m506138946P21CustomAttributesCache
EBf:_ObjectManager_RecordDelayedFixup_m1895730844
caj:__ZNK15dense_hashtableINSt3__24pairIK10KeyWrapperIP14Il2CppIUnknownEjEES5_N6il2cpp5utils11PointerHashIS3_EEN14dense_hash_mapIS5_jSB_NS5_14EqualsComparerINS0_8equal_toIS4_EEEENS0_9allocatorIS7_EEE9SelectKeyESG_SI_E12test_deletedERK24dense_hashtable_iteratorIS7_S5_SB_SK_SG_SI_E
yMe:_List_1_System_Collections_IList_get_IsFixedSize_m3522184224_gshared
xF:__ZN9AudioClip23VirtualRedirectTransferER18StreamedBinaryReadILb0EE
Vdf:_ClientSessionInfo_CheckDisposed_m1394638186
uDf:_SByte_Parse_m2544167007
N5c:_Single_CompareTo_m2081476257
TQd:_StackFrame_GetILOffset_m115192054
iej:__ZNSt3__26vectorIPK11Il2CppClassNS_9allocatorIS3_EEE9push_backERKS3_
JCf:_RuntimeTypeHandle_GetHashCode_m3697629454_AdjustorThunk
Hbe:_BigInteger__ctor_m2945783161
Fff:_TlsClientHello_Update_m1723542631
unh:_RectOffset_set_top_m1587840032
a4j:__ZL96ProxyAttribute_t4031752430_CustomAttributesCacheGenerator_ProxyAttribute_IsContextOK_m2391079277P21CustomAttributesCache
Qme:_IndexOutOfRangeException__ctor_m3497760912
b3e:_ReadOnlyCollection_1_CopyTo_m1652036789_gshared
Bj:_glCopyTexSubImage2D
Ayf:_RealProxy_InternalGetTransparentProxy_m3415358600
d4b:__ZNK24RendererAnimationBinding13GetFloatValueERKN11UnityEngine9Animation10BoundCurveE
iT:__ZNK15DownloadHandler14HasPendingDataEv
YTe:_Collection_1_Insert_m3594407958_gshared
myi:__ZNSt3__216allocator_traitsINS_9allocatorIiEEE10__max_sizeENS_17integral_constantIbLb1EEERKS2_
wEe:_Enumerator_System_Collections_IEnumerator_Reset_m2200349770_gshared
LAj:__ZN6il2cpp6icalls8mscorlib6System7Convert24InternalFromBase64StringEP12Il2CppStringb
N1c:_SymmetricAlgorithm_CreateDecryptor_m4240570785
PCg:_Text_get_preferredWidth_m3352156860
juk:__ZL87U3CDelayedDestroyDropdownListU3Ec__Iterator0_t3461999471_CustomAttributesCacheGeneratorP21CustomAttributesCache
zSf:_AssemblyCompanyAttribute__ctor_m1217508649
lOc:__ZN2UI13CanvasManager14GetRenderOrderEPKNS_6CanvasE
dnb:__Z18Transfer_BlittableI14SafeBinaryReadLb0E5RectTIfEEvRK29SerializationCommandArgumentsR31RuntimeSerializationCommandInfo
GWc:__ZNK20UnityWebRequestProtoI24UnityWebRequestTransport16AtomicRefCounter14RedirectHelper14ResponseHelper15DownloadHandler13UploadHandler12HeaderHelper14AsyncOperationE14GetUploadBytesEv
J2e:_ReadOnlyCollection_1_System_Collections_Generic_IListU3CTU3E_RemoveAt_m878653284_gshared
vVd:_DateTimeFormatInfo_GetFormat_m3676195179
bha:__ZN14GfxContextGLES14GetFramebufferEv
sWk:_emscripten_glGenVertexArrays__wrapper
Qja:__ZN6prcoreL21CreateRemapAnyBlitterE13TextureFormatS0_
tUj:__ZN6il2cpp2os5Event4WaitEjb
N9b:__ZN17AnimationCurveTplIfE16StripInvalidKeysEv
j0d:_Array_InternalArray__ICollection_Add_TisKeyValuePair_2_t3716250094_m2381539361_gshared
HDk:_InvokableCall_add_Delegate_m1994890856
Rie:_X509Extension_WriteLine_m2850991173
bNc:__ZNK2UI6Canvas17GetSortingLayerIDEv
LWj:__ZL40UIntPtr_t_CustomAttributesCacheGeneratorP21CustomAttributesCache
Yui:_il2cpp_method_has_attribute
$$b:__Z13RegisterClassI17GlobalGameManagerEvv
PZa:__ZN8Renderer24SetupNewRendererForSceneEv
Qxk:__ZL70GridLayoutGroup_t1515633077_CustomAttributesCacheGenerator_m_StartAxisP21CustomAttributesCache
RRi:__ZNSt3__24pairIK10KeyWrapperIPK22Il2CppGenericParameterEPK24MonoGenericParameterInfoEC2IRSA_vEEOT_
fXd:_Array_InternalArray__ICollection_Remove_TisInt64_t909078037_m2653583130_gshared
qMh:_TextGenerator_Populate_Internal_m65392018
jJf:_Thread_get_ExecutionContext_m922067206
j7d:_BaseInvokableCall_ThrowOnInvalidArg_TisInt32_t2071877448_m2823200566_gshared
xsc:__Z35Transfer_Blittable_FixedBufferFieldI8JSONReadtEvRK29SerializationCommandArgumentsR31RuntimeSerializationCommandInfo
Fdf:_RecordProtocol_get_Context_m2688493529
UJa:__ZN4PPtrI7TextureE8TransferI14SafeBinaryReadEEvRT_
n7b:__ZN14PlayableOutput6HandleEv
x$a:__ZNK6Sprite22GetTypeVirtualInternalEv
Fyg:_ScrollRect_get_viewport_m3177057249
nn:FUNCTION_TABLE_iiiiiiiiiiiiii
gfg:__Z100RuntimeInvoker_Void_t1841601450_SByte_t454417549_SByte_t454417549_Int32_t2071877448_SByte_t454417549PFvvEPK10MethodInfoPvPS4_
GVc:__ZN19UnityConnectService18OnPlayerQuitStaticEPS_
BOa:__ZN11Tetrahedron8TransferI24GenerateTypeTreeTransferEEvRT_
rCc:_UNITY_tt_get_cmap_info
$8c:_DecoderExceptionFallback_GetHashCode_m2972426052
Qtb:__Z29Transfer_Blittable_ArrayFieldI24GenerateTypeTreeTransfer5RectTIiEEvRT_R9ArrayInfoRK23StaticTransferFieldInfo
jPa:__ZN16ReflectionProbes8ScheduleEN18ReflectionProbeJob7JobTypeEP15ReflectionProbei
AYe:_Collection_1_IsFixedSize_m3675221982_gshared
E9j:__ZL77Convert_t2607082565_CustomAttributesCacheGenerator_Convert_ToSByte_m883113940P21CustomAttributesCache
FFe:_Enumerator_MoveNext_m3293920409_AdjustorThunk
_ya:__Z18IsDirectoryCreatedRKN4core12basic_stringIcNS_20StringStorageDefaultIcEEEE
rgj:__ZNSt3__210unique_ptrINS_11__tree_nodeINS_12__value_typeIP24Il2CppReflectionAssemblyPvEES5_EENS_22__tree_node_destructorINS_9allocatorIS7_EEEEE11get_deleterEv
EXf:_GenericTypeParameterBuilder_get_DeclaringType_m1652924692
YLc:__ZN2UI13CanvasManagerD2Ev
mmj:__ZNSt3__24pairIP12Il2CppObjectN6il2cpp2gc9CachedCCWEEC2IRS2_RS5_vEEOT_OT0_
d3g:_Comparer_1__cctor_m3112251759_gshared
Cwk:__ZL73ScrollRect_t1199013257_CustomAttributesCacheGenerator_m_VerticalScrollbarP21CustomAttributesCache
Aof:_X509KeyUsageExtension_ToString_m1992050580
Hyc:_UNITY_FT_GlyphLoader_Done
jRf:_ValueType_DefaultEquals_m2245650968
reh:_BalancingGroup__ctor_m2474435406
bpg:__Z49RuntimeInvoker_Int32_t2071877448_Byte_t3683104436PFvvEPK10MethodInfoPvPS4_
a7g:_ConstructionCall__ctor_m1143766850
akk:__ZL108DefaultExecutionOrder_t2717914595_CustomAttributesCacheGenerator_DefaultExecutionOrder_get_order_m3383619944P21CustomAttributesCache
e3g:_Comparer_1_System_Collections_IComparer_Compare_m3203078743_gshared
PAf:_ObjectReader_ReadArrayOfString_m3752210963
xpk:__ZL67GUISkin_t1436893342_CustomAttributesCacheGenerator_m_verticalSliderP21CustomAttributesCache
mUb:__ZNK21IntermediateRenderers16GetBoundingBoxesEv
fDc:_tt_cmap14_char_var_index
rAb:__Z35Transfer_Blittable_FixedBufferFieldI18StreamedBinaryReadILb0EEdEvRK29SerializationCommandArgumentsR31RuntimeSerializationCommandInfo
sMk:_htons
AEc:_psh_globals_new
Bue:_FileStream_Seek_m950719389
Zdd:_StandaloneInputModule_set_allowActivationOnMobileDevice_m2631121618
TId:_Decimal_stripStyles_m294582157
b7h:__ZNKSt3__210unique_ptrINS_11__tree_nodeINS_12__value_typeIP11Il2CppClassS4_EEPvEENS_22__tree_node_destructorINS_9allocatorIS7_EEEEE3getEv
Bli:__ZNKSt3__228__libcpp_compressed_pair_impIPP9FieldInfoNS_9allocatorIS2_EELj2EE6secondEv
T9:__ZN9GfxDevice20SetMaxBufferedFramesEi
bLe:_List_1_RemoveAll_m4125997475_gshared
aZi:__ZNSt3__27forwardI24dense_hashtable_iteratorINS_4pairIK10KeyWrapperIP11Il2CppClassES5_EES6_N6il2cpp8metadata16SZArrayClassHashEN14dense_hash_mapIS6_S5_SB_NS6_14EqualsComparerINSA_19SZArrayClassCompareEEENS_9allocatorIS8_EEE9SelectKeyESF_SH_EEEOT_RNS_16remove_referenceISL_E4typeE
eng:__Z72RuntimeInvoker_Boolean_t3825574718_TypeU26_t1535498077_Int32_t2071877448PFvvEPK10MethodInfoPvPS4_
n7f:__Z98RuntimeInvoker_Void_t1841601450_Int32_t2071877448_Int32_t2071877448_RuntimeObject_SByte_t454417549PFvvEPK10MethodInfoPvPS4_
rK:__ZN24AudioScriptBufferManagerD2Ev
xQk:dynCall_vdd
MNc:__ZN2UIL17UnloadAllCanvasesEv
ugi:__ZNSt3__24moveIRP17Il2CppAsyncResultEEONS_16remove_referenceIT_E4typeEOS5_
ZZb:__Z23ConvertIntegerToTypePtrIsEbPvR14SafeBinaryRead
N2j:__ZL54_MethodBase_t1935530873_CustomAttributesCacheGeneratorP21CustomAttributesCache
yJk:_Level1Intro__ctor_m1363605732
iUh:__ZNKSt3__26vectorIjNS_9allocatorIjEEEixEj
LRg:_EqualityComparer_1__ctor_m99476293_gshared
UEi:__ZNSt3__27forwardINS_4pairIPK14Il2CppAssemblyP11Il2CppClassEEEEOT_RNS_16remove_referenceIS8_E4typeE
N7e:_BigInteger_Incr2_m505983313
Yzd:_ArrayList_get_Count_m523955479
U9f:__Z96RuntimeInvoker_Void_t1841601450_SByte_t454417549_RuntimeObject_SByte_t454417549_SByte_t454417549PFvvEPK10MethodInfoPvPS4_
sBd:_FixedSizeArrayListWrapper_Remove_m1359458911
x7i:__ZNKSt3__211__wrap_iterIPKPK10Il2CppTypeEdeEv
eBk:_CameraCallback_Invoke_m2640212610
sqh:_Touch_get_position_m261108426_AdjustorThunk
Yja:__ZN6prcoreL29inner_stretch_rgb565_bilinearEPKNS_9InnerInfoE
Nfh:_Uri__ctor_m3927533881
sHi:__ZNK10KeyWrapperIPK10Il2CppTypeEcvRKS2_Ev
LDi:__ZNK15dense_hashtableINSt3__24pairIK10KeyWrapperINS1_IPK14Il2CppAssemblyP11Il2CppClassEEEjEES9_17ReflectionMapHashIS8_EN14dense_hash_mapIS9_jSD_NS9_14EqualsComparerINS0_8equal_toIS8_EEEENS0_9allocatorISB_EEE9SelectKeyESI_SK_E12test_deletedEj
Bsk:__ZL98PointerEventData_t1599784723_CustomAttributesCacheGenerator_PointerEventData_get_delta_m1072163964P21CustomAttributesCache
VPc:__Z33Canvas_Get_Custom_PropWorldCameraP12Il2CppObject
bCg:_Text_get_mainTexture_m813502234
OVi:__ZNK15dense_hashtableINSt3__24pairIK10KeyWrapperIP11Il2CppClassES4_EES5_N6il2cpp8metadata16SZArrayClassHashEN14dense_hash_mapIS5_S4_SA_NS5_14EqualsComparerINS9_19SZArrayClassCompareEEENS0_9allocatorIS7_EEE9SelectKeyESE_SG_E12bucket_countEv
lyk:__ZL94LayoutGroup_t3962498969_CustomAttributesCacheGenerator_LayoutGroup_DelayedSetDirty_m4276695617P21CustomAttributesCache
hUj:__ZN6il2cpp8metadata19Il2CppSignatureHash4HashERKNS_5utils13dynamic_arrayIPK10Il2CppTypeLj4EEE
LRb:__ZNK14RenderSettings19GetFlatAmbientColorEv
qja:__ZN6prcoreL10inner_flipILj4EEEvPhS1_j
$5a:__ZN18StreamedBinaryReadILb0EE21TransferSTLStyleArrayI10vector_mapIPKN5Unity4TypeE7Hash128NSt3__24lessIS6_EENS8_9allocatorINS8_4pairIS6_S7_EEEEEEEvRT_17TransferMetaFlags
fy:__ZNK27StateMachineBehaviourPlayer15IsSenderEnabledEv
Y3g:_Enumerator_VerifyState_m2118679243_gshared
Iod:_InputField_get_shouldHideMobileInput_m3694613599
wjc:__Z40Register_UnityEngine_Transform_SetParentv
vif:_SslClientStream_get_HaveRemoteValidation2Callback_m3555576758
$dg:__Z56RuntimeInvoker_TimeSpan_t3430258949_TimeSpan_t3430258949PFvvEPK10MethodInfoPvPS4_
o1a:__ZN14Texture2DArray17UploadToGfxDeviceEv
d2e:_ReadOnlyCollection_1_System_Collections_Generic_IListU3CTU3E_Insert_m4216310986_gshared
R_e:_ReadOnlyCollection_1_System_Collections_Generic_IListU3CTU3E_set_Item_m1532495847_gshared
oJ:__Z14FMODMemoryFreePvjPKc
efk:__ZL103Camera_t189460977_CustomAttributesCacheGenerator_Camera_INTERNAL_CALL_ScreenToViewportPoint_m2554844623P21CustomAttributesCache
KTg:_InternalEnumerator_1_System_Collections_IEnumerator_Reset_m3731327620_AdjustorThunk
oqi:__ZNSt3__24moveIRPN6il2cpp6icalls8mscorlib6System12PropertyPairEEEONS_16remove_referenceIT_E4typeEOS9_
Hsk:__ZL104PointerEventData_t1599784723_CustomAttributesCacheGenerator_PointerEventData_get_worldNormal_m1704987468P21CustomAttributesCache
zth:_YieldInstruction_t3462875981_marshal_pinvoke_cleanup
jod:_Image_AddQuad_m1600600902
RFc:_cf2_glyphpath_moveTo
gok:__ZL77AudioSourceExtension_t1813599864_CustomAttributesCacheGenerator_m_audioSourceP21CustomAttributesCache
kfd:_AnimationTriggers_set_disabledTrigger_m609579531
n$j:__ZL47File_t1930543328_CustomAttributesCacheGeneratorP21CustomAttributesCache
VNd:_DateTimeOffset__ctor_m1796624924
dah:_Identity_get_ChannelSink_m3989446673
xad:_BaseRaycaster_OnDisable_m1716508791
Ju:__ZN7mecanim23TransformValueArrayLoopEiiiRKN4math4trsXES3_RNS_10ValueArrayEf
n_g:_InternalEnumerator_1_MoveNext_m1741571735_gshared
Plc:__ZN5IMGUI14GUIWindowStateD2Ev
RWj:__ZL82Enum_t2459695545_CustomAttributesCacheGenerator_Enum_GetUnderlyingType_m3513899012P21CustomAttributesCache
sHj:_GC_is_heap_ptr
s0i:__GLOBAL__sub_I_Assembly_cpp
egf:_TlsServerSettings_set_CertificateRequest_m3419519893
Scj:__ZNSt3__24pairIK10KeyWrapperINS0_IPKcS3_EEEiEC2IS4_iEEONS0_IT_T0_EEPNS_9enable_ifIXaasr14is_convertibleIS9_S6_EE5valuesr14is_convertibleISA_iEE5valueEvE4typeE
yqh:_TouchScreenKeyboard_Open_m2033426733
qB:__ZN7mecanim5human10RetargetToEPKNS0_5HumanEPKNS0_9HumanPoseES6_RKN4math4trsXEPS4_PNS_8skeleton13SkeletonPoseTIS8_EESF_
Bu:__ZN7mecanim9animation8SeekClipERKNS0_12StreamedClipERNS0_18StreamedClipMemoryEf
SNf:_Type_get_IsGenericParameter_m161434704
hYf:_MethodBuilder_get_Attributes_m3678061338
gm:_emscripten_glIsTexture
_Ad:_ArrayListWrapper_CopyTo_m793444109
S9j:__ZL79Convert_t2607082565_CustomAttributesCacheGenerator_Convert_ToUInt16_m3265369225P21CustomAttributesCache
Nk:_emscripten_glHint
hsg:__Z33RuntimeInvoker_Color32_t874517518PFvvEPK10MethodInfoPvPS4_
YIc:_ft_var_readpackeddeltas
dNd:_DateTime_AddMilliseconds_m1813199744_AdjustorThunk
aDf:_SByte_System_IConvertible_ToSByte_m108774324_AdjustorThunk
lYf:_MethodBuilder_GetParameterCount_m467267889
Uwb:__Z35Transfer_Blittable_FixedBufferFieldI18StreamedBinaryReadILb1EEtEvRK29SerializationCommandArgumentsR31RuntimeSerializationCommandInfo
Qrf:_X509ChainStatus_t4278378721_marshal_pinvoke
Unh:_RectTransform_INTERNAL_get_pivot_m4220117653
uaf:_RSAManaged__ctor_m1680944437
jm:_SDL_UpperBlit
fPa:__Z35GetTextureDecodeValuesWithIntensity16TextureUsageMode17TextureColorSpace10ColorSpacef
cyd:_Byte_GetHashCode_m2885528842_AdjustorThunk
VSi:__ZN15dense_hashtableINSt3__24pairIK10KeyWrapperINS1_IPK9EventInfoP11Il2CppClassEEEjEES9_17ReflectionMapHashIS8_EN14dense_hash_mapIS9_jSD_NS9_14EqualsComparerINS0_8equal_toIS8_EEEENS0_9allocatorISB_EEE9SelectKeyESI_SK_E15set_deleted_keyERKSB_
rKg:_Dictionary_2_OnDeserialization_m2092139626_gshared
chj:__ZN6il2cpp2vm5Image20EmbeddedResourceDataC2ENS0_22EmbeddedResourceRecordEPv
JCb:__ZN14SafeBinaryRead20OverrideRootTypeNameEPKc
lQh:__ZNK10KeyWrapperIPK22Il2CppGenericParameterE14EqualsComparerINSt3__28equal_toIS2_EEEclERKS3_SA_
x2:__ZN14FileCacherRead16UnlockCacheBlockEj
Whe:_X509Certificate_GetUnsignedBigInteger_m3491353542
yqb:__Z18Transfer_BlittableI17RemapPPtrTransferLb1E8Vector3fEvRK29SerializationCommandArgumentsR31RuntimeSerializationCommandInfo
m0j:__ZL57StackBehaviour_t1390406961_CustomAttributesCacheGeneratorP21CustomAttributesCache
Jc:_emscripten_glUniform1f
N5h:__ZNK15dense_hashtableINSt3__24pairIK10KeyWrapperIPKcEP11Il2CppClassEES5_N6il2cpp5utils11StringUtils12StringHasherIS4_EEN14dense_hash_mapIS5_S8_SE_NS5_14EqualsComparerINSB_13VmStringUtils21CaseSensitiveComparerEEENS0_9allocatorIS9_EEE9SelectKeyESJ_SL_E12test_deletedERK24dense_hashtable_iteratorIS9_S5_SE_SN_SJ_SL_E
tjb:__ZNK12HandlerChain4SizeERK13FileEntryData
gzc:__Z20ParseImageParametersR11UTF16StringRiRN20TextRenderingPrivate16TextFormatChangeE
NHk:_NativeClassAttribute__ctor_m3728148471
Oc:_emscripten_glUniform1i
qYg:_InternalEnumerator_1_System_Collections_IEnumerator_Reset_m651165750_AdjustorThunk
msb:__Z18Transfer_BlittableI24GenerateTypeTreeTransferLb1EN4math12int3_storageEEvRK29SerializationCommandArgumentsR31RuntimeSerializationCommandInfo
zY:__Z33UnregisterDeviceEventCallbackImplPFv23UnityGfxDeviceEventTypeE
hxg:__Z14bankers_roundff
Ceb:__ZN9ShaderLab16SerializedTagMapaSERKS0_
lYd:_SetPropertyUtility_SetStruct_TisFillMethod_t1640962579_m1867757822_gshared
ER:__ZN11UnityEngine15CloudWebService16SessionContainer20RestoreSessionHeaderERKN4core12basic_stringIcNS2_20StringStorageDefaultIcEEEES8_RNS0_13SessionHeaderE
JNd:_DateTime_ToString_m1117481977
_Wc:__ZN22UnityWebRequestManager13BackendRetainEv
Hac:__ZN8Material28ApplyMaterialPropertyDrawersEv
IXf:_GenericTypeParameterBuilder_GetGenericArguments_m277381309
Hsg:__Z63RuntimeInvoker_KeyValuePair_2_t888819835_IntPtr_t_RuntimeObjectPFvvEPK10MethodInfoPvPS4_
BC:__ZN11UnityEngine9Animation27CreateAvatarBindingConstantER9TransformPKN7mecanim9animation14AvatarConstantERNS3_6memory9AllocatorE
mgk:__ZL77Gradient_t3600583008_CustomAttributesCacheGenerator_Gradient_Init_m3042650694P21CustomAttributesCache
$Pf:_UInt64_System_IConvertible_ToDateTime_m2412118561
Icc:__ZN9BlobWriteC2ER13dynamic_arrayIhLj16EE24TransferInstructionFlags19BuildTargetPlatform
PSf:_AssemblyName_get_Version_m3495645648
H0:__ZN14MessageHandler3GetEv
ad:_emscripten_glAttachShader
W0e:_ReadOnlyCollection_1__ctor_m1539890895_gshared
S9:__ZN9GfxDevice13SetActiveTierE12GraphicsTier
pEe:_Enumerator_System_Collections_IEnumerator_get_Current_m3079057684_AdjustorThunk
rOe:_List_1_System_Collections_ICollection_get_SyncRoot_m1804424478_gshared
I4a:__ZNSt3__26vectorIN4core12basic_stringIcNS1_20StringStorageDefaultIcEEEENS_9allocatorIS5_EEE6assignIPS5_EENS_9enable_ifIXaasr21__is_forward_iteratorIT_EE5valuesr16is_constructibleIS5_NS_15iterator_traitsISC_E9referenceEEE5valueEvE4typeESC_SC_
Mee:_KeyPairPersistence_get_UserPath_m3433052783
nJi:__ZNSt3__24swapIN14dense_hash_mapI10KeyWrapperINS_4pairIPK10MethodInfoP11Il2CppClassEEEj17ReflectionMapHashIS9_ENSA_14EqualsComparerINS_8equal_toIS9_EEEENS_9allocatorINS3_IKSA_jEEEEE9SelectKeyEEENS_9enable_ifIXaasr21is_move_constructibleIT_EE5valuesr18is_move_assignableISO_EE5valueEvE4typeERSO_SR_
pVe:_Collection_1_ClearItems_m1410275009_gshared
ltg:__Z36RuntimeInvoker_Enumerator_t975728254PFvvEPK10MethodInfoPvPS4_
jWj:__ZL58Decimal_t724701077_CustomAttributesCacheGenerator_MinusOneP21CustomAttributesCache
hyj:__ZNSt3__210__get_pairILj1EE3getIK10KeyWrapperIPK19Il2CppGenericMethodEP10MethodInfoEERT0_RNS_4pairIT_SB_EE
pZd:_Array_InternalArray__IEnumerable_GetEnumerator_TisKeyframe_t1449471340_m3949799719_gshared
Mmb:__Z18Transfer_BlittableI14SafeBinaryReadLb0E11QuaternionfEvRK29SerializationCommandArgumentsR31RuntimeSerializationCommandInfo
$zb:__Z18Transfer_BlittableI18StreamedBinaryReadILb0EELb1E12PropertyNameEvRK29SerializationCommandArgumentsR31RuntimeSerializationCommandInfo
Epd:_InputField_get_inputType_m2187991661
$V:_tlsf_walk_heap
uhe:_PKCS12_Decode_m731190390
cZi:__ZNK15dense_hashtableINSt3__24pairIK10KeyWrapperIP11Il2CppClassES4_EES5_N6il2cpp8metadata16SZArrayClassHashEN14dense_hash_mapIS5_S4_SA_NS5_14EqualsComparerINS9_19SZArrayClassCompareEEENS0_9allocatorIS7_EEE9SelectKeyESE_SG_E10test_emptyERK24dense_hashtable_iteratorIS7_S5_SA_SI_SE_SG_E
Zuh:_GUIContent_set_image_m3266329364
SZg:_InternalEnumerator_1_get_Current_m1550231132_gshared
qeh:_Reference_get_IgnoreCase_m2810892634
pRf:_Version_CheckedSet_m76493673
jb:invoke_vif
mSg:_U3CGetEnumeratorU3Ec__Iterator0_Dispose_m2403602883_gshared
kb:invoke_vid
rOk:__ZNSt3__212basic_stringIcNS_11char_traitsIcEENS_9allocatorIcEEE6insertEjPKc
Z6j:__ZL67UnverifiableCodeAttribute_t765455733_CustomAttributesCacheGeneratorP21CustomAttributesCache
GFk:_ExcludeFromDocsAttribute__ctor_m969773394
lb:invoke_vii
gLb:__ZNK12ImageFilters8DoRenderER17ShaderPassContextP13RenderTextureS3_RKNSt3__26vectorI11ImageFilterNS4_9allocatorIS6_EEEE
Fwk:__ZL82ScrollRect_t1199013257_CustomAttributesCacheGenerator_m_HorizontalScrollbarSpacingP21CustomAttributesCache
Xmd:_LayoutGroup_get_padding_m1653511445
Lxa:__ZN12TLSAllocatorI14StackAllocatorE16ThreadInitializeEP13BaseAllocator
wAd:_ArrayList_Sort_m2778059513
raa:__ZN9GfxDevice32UpdateStereoViewProjectionMatrixE21MonoOrStereoscopicEye
SHb:__ZN15dense_hashtableINSt3__24pairIKN4core12basic_stringIcNS2_20StringStorageDefaultIcEEEEP20ArchiveStorageReaderEES6_20StringHash32FunctionIS6_EN14dense_hash_mapIS6_S9_SC_NS0_8equal_toIS6_EE13stl_allocatorISA_L18MemLabelIdentifier55ELi16EEE9SelectKeyESF_SI_E12resize_deltaEjj
Zfj:__ZNSt3__210unique_ptrINS_11__tree_nodeINS_12__value_typeIP24Il2CppReflectionAssemblyPvEES5_EENS_22__tree_node_destructorINS_9allocatorIS7_EEEEED2Ev
and:_LayoutGroup_SetChildAlongAxis_m2732017156
pOi:__ZNSt3__24swapI17ReflectionMapHashINS_4pairIPK9EventInfoP11Il2CppClassEEEEENS_9enable_ifIXaasr21is_move_constructibleIT_EE5valuesr18is_move_assignableISB_EE5valueEvE4typeERSB_SE_
aPc:__Z41CanvasRenderer_CUSTOM_DisableRectClippingP12Il2CppObject
l9e:_MD2_Create_m539024737
zFd:_SortedList_get_SyncRoot_m3299704254
HGe:_List_1_System_Collections_ICollection_CopyTo_m2020941110_gshared
$Fd:_Slot_t2267560602_marshal_pinvoke
igg:__Z112RuntimeInvoker_Void_t1841601450_RuntimeObject_Int32_t2071877448_Int32_t2071877448_RuntimeObject_SByte_t454417549PFvvEPK10MethodInfoPvPS4_
nxf:_SoapAttribute_get_XmlNamespace_m1436066016
aCa:__ZN25SingleBlockMemoryFileDataD0Ev
Vxa:__ZNSt3__26vectorI14ConstantStringNS_9allocatorIS1_EEE6assignINS_11__wrap_iterIPS1_EEEENS_9enable_ifIXaasr21__is_forward_iteratorIT_EE5valuesr16is_constructibleIS1_NS_15iterator_traitsISA_E9referenceEEE5valueEvE4typeESA_SA_
zR:__ZN11UnityEngine15CloudWebService16SessionContainer21ConvertFromFolderTimeERKN4core12basic_stringIcNS2_20StringStorageDefaultIcEEEEPjPt
xob:__ZNSt3__26vectorI8GUIStyle13stl_allocatorIS1_L18MemLabelIdentifier1ELi16EEE7reserveEj
d3h:__ZNSt3__24swapIPNS_4pairIK10KeyWrapperIN6il2cpp5utils13dynamic_arrayIPK10Il2CppTypeLj4EEEEPFvvEEEEENS_9enable_ifIXaasr21is_move_constructibleIT_EE5valuesr18is_move_assignableISH_EE5valueEvE4typeERSH_SK_
x$d:_Array_InternalArray__IndexOf_TisUInt32_t2149682021_m3231515987_gshared
AAh:_ListPool_1__cctor_m709904475_gshared
MRi:__ZNSt3__29allocatorINS_4pairIK10KeyWrapperIPK22Il2CppGenericParameterEPK24MonoGenericParameterInfoEEE8allocateEjPKv
a2b:__Z31CalculateHierarchyTransformType23TransformAccessReadOnly
y0b:__Z13RegisterClassI11TimeManagerEvv
fJ:__ZN4FMOD8ChannelI11setPositionEjj
M8f:__Z136RuntimeInvoker_IntPtr_t_RuntimeObject_Int32_t2071877448_Int32_t2071877448_Int32_t2071877448_Int32_t2071877448_MonoIOErrorU26_t1029615899PFvvEPK10MethodInfoPvPS4_
TEj:_GC_set_fl_marks
X9g:_SynchronizedClientContextSink__ctor_m978504596
uaa:__ZN9GfxDevice17SetStereoViewportE15StereoscopicEyeRK5RectTIiE
H7:__ZN17BaseObjectManager13StaticDestroyEPv
_Ik:_ClickCount_AddCount_m634862334
T2j:__ZL56_ParameterInfo_t470209990_CustomAttributesCacheGeneratorP21CustomAttributesCache
DOd:_DBNull_System_IConvertible_ToChar_m3344298044
Rah:_LinkStack_Push_m2660199875
_H:__ZN4FMOD6Reverb13setPropertiesEPK22FMOD_REVERB_PROPERTIES
LVi:__ZN15dense_hashtableINSt3__24pairIK10KeyWrapperIP11Il2CppClassES4_EES5_N6il2cpp8metadata16SZArrayClassHashEN14dense_hash_mapIS5_S4_SA_NS5_14EqualsComparerINS9_19SZArrayClassCompareEEENS0_9allocatorIS7_EEE9SelectKeyESE_SG_E5clearEv
UMb:__ZN9DepthPass13PrepareSubsetEjRK10RenderNodeifRK17ShaderReplaceData
QQh:__ZNK30dense_hashtable_const_iteratorINSt3__24pairIK10KeyWrapperIPK22Il2CppGenericParameterEP11Il2CppClassEES6_N6il2cpp5utils11PointerHashIS4_EEN14dense_hash_mapIS6_S9_SE_NS6_14EqualsComparerINS0_8equal_toIS5_EEEENS0_9allocatorISA_EEE9SelectKeyESJ_SL_EneERKSO_
pTh:__ZNSt3__217__compressed_pairIPjNS_9allocatorIjEEE5firstEv
Thh:_X509CertificateCollection_Add_m4008705157
Fwf:_MonoMethodMessage_set_Uri_m3218581120
Sgk:__ZL108TouchScreenKeyboard_t601950206_CustomAttributesCacheGenerator_TouchScreenKeyboard_Open_m2033426733____alert5P21CustomAttributesCache
qEh:_AudioMixerPlayable_GetHandle_m3697423575_AdjustorThunk
l9b:__Z35SetMeshComponentFromArrayFromScriptR4Mesh30InternalScriptingShaderChannel34InternalScriptingVertexChannelTypei17ScriptingArrayPtri
OXi:__ZNSt3__216allocator_traitsINS_9allocatorIN6il2cpp8metadata18GenericArrayMethodEEEE9constructIS4_JS4_EEEvRS5_PT_DpOT0_
P2e:_ReadOnlyCollection_1_System_Collections_IList_Add_m3806843030_gshared
OLa:__ZN4PPtrI6ShaderE8TransferI19StreamedBinaryWriteILb0EEEEvRT_
IVe:_Collection_1_IsFixedSize_m1816795498_gshared
cq:__ZN4core20StringStorageDefaultIcE6assignEPKcj
ynk:__ZL106AudioSettings_t3144015719_CustomAttributesCacheGenerator_AudioSettings_GetSpatializerPluginName_m698617843P21CustomAttributesCache
gNj:__ZNSt3__27forwardINS_15__tree_iteratorINS_12__value_typeIPvxEEPNS_11__tree_nodeIS4_S3_EEiEEEEOT_RNS_16remove_referenceIS9_E4typeE
Olj:__ZN15dense_hashtableINSt3__24pairIK10KeyWrapperIP12Il2CppObjectEN6il2cpp2gc9CachedCCWEEES5_NS7_5utils11PointerHashIS3_EEN14dense_hash_mapIS5_S9_SD_NS5_14EqualsComparerINS0_8equal_toIS4_EEEENS0_9allocatorISA_EEE9SelectKeyESI_SK_E3endEv
Jdd:_MouseButtonEventData_ReleasedThisFrame_m482758300
upj:__ZNKSt3__29allocatorI20Il2CppStackFrameInfoE8max_sizeEv
Roh:_SceneManager_Internal_SceneLoaded_m1729738062
yUi:__ZN15dense_hashtableINSt3__24pairIK10KeyWrapperINS1_IP11Il2CppClassjEEES4_EES6_N6il2cpp8metadata14ArrayClassHashEN14dense_hash_mapIS6_S4_SB_NS6_14EqualsComparerINSA_17ArrayClassCompareEEENS0_9allocatorIS8_EEE9SelectKeyESF_SH_E9copy_fromERKSK_j
xBd:_ReadOnlyArrayListWrapper_set_Item_m2199017141
bWb:__ZN6Camera6SetFarEf
Ohh:_DeriveBytes_DeriveIV_m3343375195
Qzc:_UNITY_FT_Init_Class_ft_bitmap_glyph_class
A$c:_RNGCryptoServiceProvider_GetBytes_m167497991
Gka:__ZN6prcoreL12RemapGenericI17TexFormatABGR888817TexFormatARGB8888EEvPKNS_9InnerInfoE
lDa:__ZN11GameManager17MainThreadCleanupEv
tph:_SetupCoroutine_InvokeMember_m170868586
HQc:__Z50Register_UnityEngine_UISystemProfilerApi_EndSamplev
Doj:__ZN6il2cpp2vm27StacktraceSentryMethodStackC2Ev
Zhg:__Z60RuntimeInvoker_Boolean_t3825574718_PlayableOutput_t988259697PFvvEPK10MethodInfoPvPS4_
IVf:_TypeBuilder_get_Assembly_m492491492
Hb:invoke_vffff
sSh:__ZL19GetEncodedIndexTypej
CXe:_Collection_1_InsertItem_m1225429801_gshared
Lbf:_CipherSuite_set_Context_m4127897124
OHc:_UNITY_tt_slot_init
LIb:__ZZ23InitPlayerLoopCallbacksvEN41PostLateUpdateUpdateResolutionRegistrator7ForwardEv
u_d:_Array_FindLastIndex_TisRuntimeObject_m986818300_gshared
HBb:__Z25scripting_array_class_get17ScriptingClassPtrj
zqc:__ZL22Transfer_ManagedObjectI9JSONWriteLb1EEvRK29SerializationCommandArgumentsR31RuntimeSerializationCommandInfo
fF:__ZNK10SampleClip22GetTypeVirtualInternalEv
zba:__ZN9GfxDevice20DestroyRenderSurfaceER12ObjectHandleI17RenderSurface_TagP17RenderSurfaceBaseE
HUh:__ZNSt3__214__split_bufferIPK10Il2CppTypeRNS_9allocatorIS3_EEE9__end_capEv
x8:__ZN18SpriteAtlasManagerC2Ev
jua:__ZN9GfxDevice22UpdateComputeResourcesEjPK9TextureIDPK16TextureDimensionPKijPKjjPK15ComputeBufferIDS7_PK20ComputeBufferCounterjSC_S2_S5_S9_SF_
uGa:__ZN12_GLOBAL__N_15qAsinEff
E6d:_Dictionary_2_Do_ICollectionCopyTo_TisKeyValuePair_2_t3749587448_m2536766696_gshared
Mxa:__ZN12TLSAllocatorI14StackAllocatorE13ThreadCleanupEv
vmj:__ZNSt3__23mapIjN6il2cpp2os17SocketHandleEntryENS_4lessIjEENS_9allocatorINS_4pairIKjS3_EEEEEC2Ev
HF:__Z18GetAudioManagerPtrv
y_d:_Array_IndexOf_TisRuntimeObject_m1815604637_gshared
gHe:_List_1_GetEnumerator_m2837081829_gshared
rAj:__ZThn4_N6il2cpp2vm13ComObjectBase16MarshalInterfaceEP13Il2CppIStreamRK10Il2CppGuidPvjS7_j
B2a:__ZN4Mesh27SwizzleVertexColorsIfNeededEb
sEb:__Z27FindActiveTransformWithPathPKc
yFa:__ZN12BaseRendererD0Ev
QZb:__Z29StdTemplateConversionFunctionIbyEbPvR14SafeBinaryRead
rfg:__Z44RuntimeInvoker_X509KeyUsageFlags_t2461349531PFvvEPK10MethodInfoPvPS4_
ilh:_PropertyName_op_Inequality_m2830582941
_ie:_SecurityParser_OnEndElement_m2909940377
Vqk:__ZL92CanvasRenderer_t261436805_CustomAttributesCacheGenerator_CanvasRenderer_set_cull_m3941605148P21CustomAttributesCache
YFa:__ZNK6Camera7GetNearEv
Ona:__ZN7ApiGLES11UnmapBufferEjN2gl12BufferTargetE
FAj:__ZN6il2cpp5utilsL24Utf32CharToSurrogatePairEjRA2_Ds
SWa:__Z25GetNextAllowedTextureSizeib13TextureFormat
kEb:__ZN20LocalFileSystemWebGL4CopyER13FileEntryDataS1_
WLe:_List_1_CheckIndex_m4231572822_gshared
_T:__ZN19CloudServiceHandler6RetainEv
VTj:__ZN6il2cpp2os9Semaphore4WaitEb
e4c:_StrongName_Equals_m67226644
ymc:__Z36Event_CUSTOM_Internal_SetNativeEventPv
xGa:__ZN12BaseRenderer20FlattenToRenderQueueER15RenderNodeQueueRK20DeprecatedSourceData
KWf:_FieldBuilder_get_Attributes_m2174064290
Ldj:__ZNSt3__23getILj0EK10KeyWrapperINS_4pairIPKcS4_EEEiEERNS_13tuple_elementIXT_ENS2_IT0_T1_EEE4typeERSB_
lye:_UnmanagedMemoryStream_get_Length_m587008850
ybb:__Z34scripting_liveness_calculation_endPv
okc:__ZNK19RectangleCellLayout13GetCellCenterEv
Zxi:__ZNKSt3__217__compressed_pairIPiNS_9allocatorIiEEE5firstEv
T4c:_SecurityFrame_InitFromRuntimeFrame_m45195821
H$j:__ZL53TextReader_t1561828458_CustomAttributesCacheGeneratorP21CustomAttributesCache
Eqf:_X509Chain_IsSignedWith_m292245392
VLi:__ZN14dense_hash_mapI10KeyWrapperINSt3__24pairIPK12PropertyInfoP11Il2CppClassEEEj17ReflectionMapHashIS8_ENS9_14EqualsComparerINS1_8equal_toIS8_EEEENS1_9allocatorINS2_IKS9_jEEEEE6insertERKSI_
GLi:__ZNK30dense_hashtable_const_iteratorINSt3__24pairIK10KeyWrapperINS1_IPK11Il2CppImageP11Il2CppClassEEEjEES9_17ReflectionMapHashIS8_EN14dense_hash_mapIS9_jSD_NS9_14EqualsComparerINS0_8equal_toIS8_EEEENS0_9allocatorISB_EEE9SelectKeyESI_SK_EeqERKSN_
Xt:__ZN21AnimationClipPlayable22ProcessAnimationNoClipEPK35AnimationPlayableEvaluationConstantPK32AnimationPlayableEvaluationInputP33AnimationPlayableEvaluationOutput
mli:__ZNSt3__217__compressed_pairIPP9FieldInfoRNS_9allocatorIS2_EEE5firstEv
aXd:_Array_InternalArray__ICollection_Remove_TisDateTime_t693205669_m1275668216_gshared
qLg:_Dictionary_2__ctor_m871840915_gshared
_0e:_ReadOnlyCollection_1_System_Collections_Generic_ICollectionU3CTU3E_Remove_m3751131234_gshared
$rc:__Z18Transfer_BlittableI8JSONReadLb0E8Vector3fEvRK29SerializationCommandArgumentsR31RuntimeSerializationCommandInfo
v7g:_ChannelServices__cctor_m3534779830
SBi:__ZNSt3__228__libcpp_compressed_pair_impIPN6il2cpp2vm17TypeNameParseInfoENS_9allocatorIS3_EELj2EEC2ES4_
pRi:__ZNSt3__24swapIN14dense_hash_mapI10KeyWrapperIPK22Il2CppGenericParameterEPK24MonoGenericParameterInfoN6il2cpp5utils11PointerHashIS4_EENS6_14EqualsComparerINS_8equal_toIS5_EEEENS_9allocatorINS_4pairIKS6_S9_EEEEE9SelectKeyEEENS_9enable_ifIXaasr21is_move_constructibleIT_EE5valuesr18is_move_assignableISQ_EE5valueEvE4typeERSQ_ST_
PZi:__ZN6il2cpp2vm6Thread6DetachEP12Il2CppThread
r3j:__ZL63IContributeEnvoySink_t4106549430_CustomAttributesCacheGeneratorP21CustomAttributesCache
frh:_Transform_set_localRotation_m3053695533
ODc:_Render_Single_Pass
LJd:_Convert_ToInt16_m416789348
aFf:_EncoderExceptionFallback_Equals_m762170768
VGh:__ZL24UnresolvedVirtualCall_59P12Il2CppObjectS0_aPK10MethodInfo
ECh:_EqualityComparer_1__cctor_m2666196678_gshared
gvc:__GLOBAL__sub_I_runtime_dynamics_2_cpp
gEg:_Enumerator_get_CurrentValue_m3147984131_AdjustorThunk
HC:__ZN7mecanim8skeleton30SkeletonBuildReverseIndexArrayEPiPKiPKNS0_8SkeletonES6_
Dkc:__Z19GetGUIBlendMaterialv
njg:__Z69RuntimeInvoker_Boolean_t3825574718_TextGenerationSettings_t2543476768PFvvEPK10MethodInfoPvPS4_
Osj:__ZN6il2cpp2os10ThreadImpl5SleepEjb
q1g:_InternalEnumerator_1_System_Collections_IEnumerator_Reset_m3669601605_AdjustorThunk
kkh:_X509ExtensionCollection_System_Collections_IEnumerable_GetEnumerator_m2600902401
nYe:_Collection_1_InsertItem_m1073626529_gshared
Gyh:_UnityEvent_1_GetDelegate_m2559549291_gshared
cmj:__ZN14dense_hash_mapI10KeyWrapperIP12Il2CppObjectEN6il2cpp2gc9CachedCCWENS4_5utils11PointerHashIS1_EENS3_14EqualsComparerINSt3__28equal_toIS2_EEEENSB_9allocatorINSB_4pairIKS3_S6_EEEEE6insertERKSI_
smh:_Rect_get_center_m2903917731_AdjustorThunk
UVk:_glBindSampler__wrapper
bDa:__ZNSt3__26vectorIN20ArchiveStorageHeader12StorageBlockE13stl_allocatorIS2_L18MemLabelIdentifier55ELi16EEE8__appendEj
Hf:_emscripten_set_mouseup_callback
_ta:__ZN9GfxDevice27SetRandomWriteTargetTextureEi9TextureID
Glg:__Z58RuntimeInvoker_Boolean_t3825574718_SpriteState_t1353336012PFvvEPK10MethodInfoPvPS4_
Uba:__ZN9GfxDevice47SwitchColorRenderSurfaceOutOfFastMemoryPlatformEP17RenderSurfaceBaseb
m7d:_BaseInvokableCall_ThrowOnInvalidArg_TisColor_t2020392075_m3638385415_gshared
_Xb:__ZNK18ScreenManagerWebGL8GetWidthEv
pFh:_AudioExtensionManager_GetListenerSpatializerExtensionEditorType_m165088149
n8h:__ZN6il2cpp2vm13MetadataCache33GetFieldDefaultValueDataFromIndexEi
Jmd:_GridLayoutGroup_set_startAxis_m1635162426
cF:__ZN10SampleClipD2Ev
Fhj:__ZNSt3__26vectorIN6il2cpp2vm5Image20EmbeddedResourceDataENS_9allocatorIS4_EEE26__invalidate_all_iteratorsEv
aah:_SynchronizationAttribute_EnterContext_m2984912761
aXj:__ZL73Enum_t2459695545_CustomAttributesCacheGenerator_Enum_ToObject_m2601523252P21CustomAttributesCache
mVd:_CultureInfo_construct_internal_locale_from_name_m971766383
Nsj:__ZN6il2cpp2os10ThreadImpl13SetWaitObjectEPNS0_5posix15PosixWaitObjectE
eyd:_Byte_Equals_m368616327_AdjustorThunk
Rab:__Z13GetGISettingsv
_0d:_Array_InternalArray__ICollection_Add_TisUIVertex_t1204258818_m3869382594_gshared
KT:__ZN11UnityEngine15CloudWebService20WebRequestRestClientC2Ev
iHc:_cff_cmap_unicode_init
QKb:__ZNSt3__224__buffered_inplace_mergeIRN10vector_mapIiN17InstancedPropInfo12PropertyTypeENS_4lessIiEE13stl_allocatorINS_4pairIiS3_EEL18MemLabelIdentifier1ELi16EEE13value_compareENS_11__wrap_iterIPS8_EEEEvT0_SH_SH_T_NS_15iterator_traitsISH_E15difference_typeESL_PNSK_10value_typeE
GSd:_Enum_ToObject_m2460371738
Ece:_PrimalityTests_Test_m1088386156
A2:__ZN14FileCacherRead13GetFileLengthEv
lth:_Vector4_SqrMagnitude_m1060560279
kMk:_readlink
HNi:__ZN15dense_hashtableINSt3__24pairIK10KeyWrapperINS1_IPK9EventInfoP11Il2CppClassEEEjEES9_17ReflectionMapHashIS8_EN14dense_hash_mapIS9_jSD_NS9_14EqualsComparerINS0_8equal_toIS8_EEEENS0_9allocatorISB_EEE9SelectKeyESI_SK_E12resize_deltaEjj
h5d:_Array_Resize_TisVector3_t2243707580_m893658391_gshared
PVg:_InternalEnumerator_1_System_Collections_IEnumerator_get_Current_m4259662004_AdjustorThunk
E8d:_Array_InternalArray__get_Item_TisKeyframe_t1449471340_m1003508933_gshared
tQj:__ZN6il2cpp2os13SemaphoreImplC2Eii
Blk:__ZL123UnitySynchronizationContext_t1205147244_CustomAttributesCacheGenerator_UnitySynchronizationContext_ExecuteTasks_m1920809885P21CustomAttributesCache
_bg:__Z50RuntimeInvoker_Double_t4078015681_Int64_t909078037PFvvEPK10MethodInfoPvPS4_
ohe:_StrongName_get_PublicKeyToken_m1968460885
y4a:__ZNK6Sprite9GetBoundsE8Vector2fbb
Xpi:__ZNKSt3__214__split_bufferIN6il2cpp6icalls8mscorlib6System12PropertyPairERNS_9allocatorIS5_EEE8capacityEv
uJa:__ZNK19RenderEventsContext21CleanupCommandBuffersEv
tPi:__ZN6il2cpp2vm10Reflection27GetCustomAttributesCacheForEPK10MethodInfo
ghj:__ZNSt3__24moveIRN6il2cpp2vm5Image20EmbeddedResourceDataEEEONS_16remove_referenceIT_E4typeEOS7_
kfa:__ZN11ContextGLES6CreateEi
Ure:_BinaryReader_Dispose_m4249456877
QId:_Double_ToString_m1085043609
PAb:__Z19TransferField_ArrayI18StreamedBinaryReadILb0EE27Converter_SimpleNativeClassI17AnimationCurveTplIfEEEvRK23StaticTransferFieldInfoR31RuntimeSerializationCommandInfoRT0_
Pbf:_CipherSuite_createEncryptionCipher_m1926075645
wIk:_Plane__ctor_m730644932
pxa:__ZN14StackAllocator16FrameMaintenanceEb
cmd:_Graphic_Raycast_m3582517890
uza:__Z18ReadStringFromFilePN4core17string_with_labelILi1EEERKNS_12basic_stringIcNS_20StringStorageDefaultIcEEEE
V2i:__ZN6il2cpp5utils10StringViewIcEC2ILj10EEERAT__Kc
h3:__ZNK10GameObject20QueryComponentByTypeEPKN5Unity4TypeE
nuh:_GUISkin_MakeCurrent_m1547433985
uFe:_Enumerator_MoveNext_m1367380970_AdjustorThunk
$Yf:_OpCode_GetHashCode_m2974727122
wFd:_Enumerator_Reset_m466659019
Qbf:_CipherSuite_createDecryptionCipher_m1118350455
Wbh:_PatternCompiler_EmitReference_m1381860071
wRd:_Double_System_IConvertible_ToInt16_m4200640326
bWa:__ZN11TextureData5ResetEv
Ejk:__ZL105RectTransform_t3349966182_CustomAttributesCacheGenerator_RectTransform_INTERNAL_get_anchorMin_m3722367822P21CustomAttributesCache
Uec:__Z53Register_UnityEngine_GameObject_get_activeInHierarchyv
GWi:__ZNSt3__217__compressed_pairIPN6il2cpp8metadata18GenericArrayMethodENS_9allocatorIS3_EEEC2ES4_
MXf:_GenericTypeParameterBuilder_get_IsGenericType_m1883522222
_8:__ZN15dense_hashtableINSt3__24pairIKN4core12basic_stringIcNS2_20StringStorageDefaultIcEEEE13dynamic_arrayI4PPtrI6SpriteELj4EEEES6_20StringHash32FunctionIS6_EN14dense_hash_mapIS6_SC_SF_NS0_8equal_toIS6_EE13stl_allocatorISD_L18MemLabelIdentifier81ELi16EEE9SelectKeyESI_SL_EC2ERKSO_j
t_:__ZL30InitializeCoreScriptingClassesv
yYe:_Collection_1_CheckWritable_m3938993573_gshared
Dg:_glBlitFramebuffer
EAa:__ZN17ArchiveFileSystem5TouchER13FileEntryData
ogf:_SecurityParameters_set_Cipher_m3888132335
Mce:_BigInteger_GeneratePseudoPrime_m2606361440
rOd:_DateTimeFormatInfo_get_ShortTimePattern_m20923983
jqb:__Z35Transfer_Blittable_SingleValueFieldI14SafeBinaryReadhEvRT_R17GeneralMonoObjectRK23StaticTransferFieldInfo
Mvk:__ZL140U3CMouseDragOutsideRectU3Ec__Iterator1_t2599668326_CustomAttributesCacheGenerator_U3CMouseDragOutsideRectU3Ec__Iterator1_Dispose_m2134284531P21CustomAttributesCache
c8b:__ZN12CachedWriter15CompleteWritingEv
bge:_EncryptedPrivateKeyInfo_get_Algorithm_m2779196942
jxf:_RemotingServices_GetRealProxy_m620317996
gNb:__ZN13dynamic_arrayI11CulledLightLj4EE6insertEPS0_PKS0_S4_
mTg:_ArrayReadOnlyList_1_RemoveAt_m2270349795_gshared
fVa:__ZNK12CubemapArray22GetTypeVirtualInternalEv
SKh:_Predicate_1_Invoke_m2060780095_gshared
LOa:__ZN11Tetrahedron8TransferI18StreamedBinaryReadILb0EEEEvRT_
Kn:FUNCTION_TABLE_vif
Ln:FUNCTION_TABLE_vid
Mn:FUNCTION_TABLE_vii
Jbb:__Z40scripting_liveness_calculation_from_root18ScriptingObjectPtrPv
ORa:__ZN7Texture23VirtualRedirectTransferER24GenerateTypeTreeTransfer
Mxc:_UNITY_FT_Set_Transform
V3b:__ZNK32RendererMaterialAnimationBinding12SetPPtrValueERKN11UnityEngine9Animation10BoundCurveEi
bkj:__ZN6il2cpp8metadata15GenericMetadata20RegisterGenericClassEP18Il2CppGenericClass
Ifg:__Z101RuntimeInvoker_OpFlags_t378191910_SByte_t454417549_SByte_t454417549_SByte_t454417549_SByte_t454417549PFvvEPK10MethodInfoPvPS4_
zVk:_glDeleteFramebuffers__wrapper
Bnd:_Image_get_overrideSprite_m706080347
Vog:__Z54RuntimeInvoker_Int32_t2071877448_LabelData_t3712112744PFvvEPK10MethodInfoPvPS4_
o7e:_BigInteger_ModInverse_m1881894572
_si:__ZN6il2cpp2vm7Runtime17GetDelegateInvokeEP11Il2CppClass
xyk:__ZL79LayoutRebuilder_t2155218138_CustomAttributesCacheGenerator_U3CU3Ef__amU24cache4P21CustomAttributesCache
s4b:__ZZN12MeshRenderer15InitializeClassEvEN29FunctorImpl_134kDidDeleteMesh4CallEPviR11MessageData
$wk:__ZL59Slider_t297367283_CustomAttributesCacheGenerator_m_FillRectP21CustomAttributesCache
IRi:__ZN30dense_hashtable_const_iteratorINSt3__24pairIK10KeyWrapperIPK22Il2CppGenericParameterEPK24MonoGenericParameterInfoEES6_N6il2cpp5utils11PointerHashIS4_EEN14dense_hash_mapIS6_SA_SF_NS6_14EqualsComparerINS0_8equal_toIS5_EEEENS0_9allocatorISB_EEE9SelectKeyESK_SM_E30advance_past_empty_and_deletedEv
hYa:__ZN28EnlightenRendererInformation8TransferI14SafeBinaryReadEEvRT_
meg:__Z88RuntimeInvoker_RuntimeObject_RuntimeObject_Int32_t2071877448_RuntimeObject_RuntimeObjectPFvvEPK10MethodInfoPvPS4_
Q1j:__ZL69DefaultDependencyAttribute_t3858269114_CustomAttributesCacheGeneratorP21CustomAttributesCache
qCa:__ZNK15Lz4Decompressor16DecompressMemoryEPKvPjPvS2_
LIi:__ZN15dense_hashtableINSt3__24pairIK10KeyWrapperINS1_IPK10MethodInfoP11Il2CppClassEEEjEES9_17ReflectionMapHashIS8_EN14dense_hash_mapIS9_jSD_NS9_14EqualsComparerINS0_8equal_toIS8_EEEENS0_9allocatorISB_EEE9SelectKeyESI_SK_E13clear_deletedER30dense_hashtable_const_iteratorISB_S9_SD_SM_SI_SK_E
Fmh:_Rect_get_height_m1231429410
fYh:__ZNSt3__210__get_pairILj0EE3getIK10KeyWrapperIPK11Il2CppClassEPKcEERT_RNS_4pairISB_T0_EE
C3e:_ReadOnlyCollection_1_System_Collections_IList_get_Item_m887129009_gshared
BTa:__Z35UnityPropertySheet_MakeSortedColorsRKNSt3__23mapIN9ShaderLab16FastPropertyNameE10ColorRGBAfNS_4lessIS2_EENS_9allocatorINS_4pairIKS2_S3_EEEEEER10vector_mapIS2_S3_S5_NS6_INS7_IS2_S3_EEEEE
bPd:_Decimal_System_IConvertible_ToType_m3828527724_AdjustorThunk
Rpd:_InputField_get_caretPositionInternal_m3011712053
uBc:_UNITY_tt_face_load_os2
d9e:_HMAC_get_Key_m2528863640
kZe:_Collection_1_IsSynchronized_m1366278230_gshared
q7j:__ZL93StringBuilder_t1221177846_CustomAttributesCacheGenerator_StringBuilder_AppendLine_m1686706871P21CustomAttributesCache
Bpb:__Z29Transfer_Blittable_ArrayFieldI14SafeBinaryRead8Vector4fEvRT_R9ArrayInfoRK23StaticTransferFieldInfo
wVd:_Array_get_swapper_TisInt32_t2071877448_m2837069166_gshared
sIi:__ZN6il2cpp2gc19AppendOnlyGCHashMapINSt3__24pairIPK10MethodInfoP11Il2CppClassEEP22Il2CppReflectionMethod17ReflectionMapHashIS9_ENS2_8equal_toIS9_EEE3AddERKS9_SB_
u3j:__ZL62IDynamicMessageSink_t3056162262_CustomAttributesCacheGeneratorP21CustomAttributesCache
Umg:__Z77RuntimeInvoker_Boolean_t3825574718_AspectModeU26_t218518220_Int32_t2071877448PFvvEPK10MethodInfoPvPS4_
e8g:_ConfigHandler_CheckPath_m2296459741
bdd:_PointerEventData_IsScrolling_m1971908975
Irg:__Z56RuntimeInvoker_ContentType_t1028629049_Int32_t2071877448PFvvEPK10MethodInfoPvPS4_
CIb:__ZZ23InitPlayerLoopCallbacksvEN51PostLateUpdateUpdateCustomRenderTexturesRegistrator7ForwardEv
Rmk:__ZL53UILineInfo_t3621277874_CustomAttributesCacheGeneratorP21CustomAttributesCache
nPd:_Decimal_System_IConvertible_ToInt16_m3159038792
tu:__ZN7mecanim9animation12EvaluateClipEPKNS0_4ClipEPKNS0_9ClipInputEPNS0_10ClipMemoryEPNS0_10ClipOutputE
zIj:__ZN6il2cpp5utilsL6Read32EPKc_16423
Uhi:__ZNSt3__228__libcpp_compressed_pair_impIPP12Il2CppThreadNS_9allocatorIS2_EELj2EEC2ES3_
P7a:__ZNSt3__26vectorIN15ResourceManager10DependencyE13stl_allocatorIS2_L18MemLabelIdentifier52ELi16EEEC2INS_11__wrap_iterIPS2_EEEET_SB_RKS5_PNS_9enable_ifIXaasr21__is_forward_iteratorISB_EE5valuesr16is_constructibleIS2_NS_15iterator_traitsISB_E9referenceEEE5valueEvE4typeE
sYa:__ZN4PPtrI11LightProbesE8TransferI18StreamedBinaryReadILb0EEEEvRT_
X5g:_ComVisibleAttribute__ctor_m1789587486
B0f:_MonoMethodInfo_GetReturnType_m2864247130
Qcg:__Z39RuntimeInvoker_DateTimeKind_t2186819611PFvvEPK10MethodInfoPvPS4_
TUb:__ZN13RenderManager29SetCurrentCameraAndStackStateEP6CameraP25CameraStackRenderingState
arh:_Transform_INTERNAL_get_rotation_m1873681960
kFa:__ZNSt3__26__treeINS_12__value_typeIjN4core12basic_stringIcNS2_20StringStorageDefaultIcEEEEEENS_19__map_value_compareIjS7_NS_4lessIjEELb1EEE13stl_allocatorIS7_L18MemLabelIdentifier7ELi16EEE7destroyEPNS_11__tree_nodeIS7_PvEE
hZi:__ZN15dense_hashtableINSt3__24pairIK10KeyWrapperINS1_IP11Il2CppClassjEEES4_EES6_N6il2cpp8metadata14ArrayClassHashEN14dense_hash_mapIS6_S4_SB_NS6_14EqualsComparerINSA_17ArrayClassCompareEEENS0_9allocatorIS8_EEE9SelectKeyESF_SH_E12resize_deltaEjj
Sh:_JS_WebRequest_Release
fte:_DirectoryNotFoundException__ctor_m2242202556
ZR:__ZN11UnityEngine15CloudWebService14DataErrorEventD0Ev
o7i:__ZN6il2cpp6icalls8mscorlib6System4Type20internal_from_handleEi
n8c:_String_CreateString_m2448464375
jsf:_X509SubjectKeyIdentifierExtension__ctor_m2959112706
hEg:_Enumerator_Reset_m1147555085_AdjustorThunk
z_f:_FieldInfo_get_IsNotSerialized_m2322769148
cbk:__ZL68Math_t2022911894_CustomAttributesCacheGenerator_Math_Max_m2671311541P21CustomAttributesCache
Zjj:__ZN6il2cpp8metadata15GenericMetadata7InflateEPK19Il2CppGenericMethodPK20Il2CppGenericContext
EXa:__ZN19ShaderPropertySheet16SetArrayPropertyEN9ShaderLab16FastPropertyNameENS_12PropertyTypeEPKvj
u0f:_MonoGenericCMethod_get_ReflectedType_m2689239043
lZe:_Collection_1_IsFixedSize_m499196375_gshared
Thd:_ColorTween_set_startColor_m3546206870_AdjustorThunk
Qkj:__ZN15dense_hashtableINSt3__24pairIK10KeyWrapperIP12Il2CppObjectEN6il2cpp2gc9CachedCCWEEES5_NS7_5utils11PointerHashIS3_EEN14dense_hash_mapIS5_S9_SD_NS5_14EqualsComparerINS0_8equal_toIS4_EEEENS0_9allocatorISA_EEE9SelectKeyESI_SK_E16reset_thresholdsEv
SVj:__ZL63String_t_CustomAttributesCacheGenerator_String_Split_m394273024P21CustomAttributesCache
NLc:__ZN2UI11CanvasGroup23VirtualRedirectTransferER19StreamedBinaryWriteILb0EE
WYg:_InternalEnumerator_1_get_Current_m4083613828_gshared
zvi:__ZN6il2cpp2os4File11GetStdErrorEv
ihi:__ZNKSt3__26vectorI6pollfdNS_9allocatorIS1_EEE14__annotate_newEj
rMh:_TextGenerator_INTERNAL_CALL_Populate_Internal_cpp_m106350432
fEk:_UnityAction__ctor_m3825983746
Xlc:__ZN8GUIState8EndOnGUIEv
JHf:_UnicodeEncoding_GetString_m542738941
VHc:_UNITY_TT_Get_VMetrics
dxi:__ZNSt3__216allocator_traitsINS_9allocatorIcEEE10__max_sizeENS_17integral_constantIbLb1EEERKS2_
Gse:_Path_InsecureGetFullPath_m2635272425
J5j:__ZL61KeyedHashAlgorithm_t1374150027_CustomAttributesCacheGeneratorP21CustomAttributesCache
rGd:_Enumerator_Clone_m1124749523
KMd:_DateTime_System_IConvertible_ToUInt32_m1363211018
Hlh:_Quaternion_ToString_m1042358501
uCf:_RuntimeMethodHandle__ctor_m1162528746
rLh:_Predicate_1__ctor_m3243601712_gshared
Sni:__ZNSt3__26vectorIPK10MethodInfoNS_9allocatorIS3_EEE24__RAII_IncreaseAnnotatorC2ERKS6_j
lRe:_Enumerator_Dispose_m3300818037_AdjustorThunk
DOe:_List_1_AsReadOnly_m4108578222_gshared
LXc:_DSA__ctor_m613430209
gYd:_SetPropertyUtility_SetStruct_TisSingle_t2076509932_m3849235084_gshared
dia:__ZN7Texture21GetMasterTextureLimitEv
JWb:__Z12CanAddScriptR10GameObject17ScriptingClassPtrPS1_S2_
LTi:__ZN6il2cpp2vm10Reflection12HasAttributeEP12Il2CppObjectP11Il2CppClass
rZh:__ZNSt3__23getILj1EK10KeyWrapperIPKcEP11Il2CppClassEERNS_13tuple_elementIXT_ENS_4pairIT0_T1_EEE4typeERSC_
v2c:_X509Certificate_GetExpirationDateString_m2351894475
pZ:__ZN9ShaderLabL25StaticInitializeShaderLabEPv
QMg:_Dictionary_2_ContainsKeyValuePair_m3818021458_gshared
U:Math_max
uZe:_Collection_1_System_Collections_IList_Insert_m1511106741_gshared
bmi:__ZNSt3__216allocator_traitsINS_9allocatorINS_11__tree_nodeIP11Il2CppClassPvEEEEE10deallocateERS7_PS6_j
Ahk:__ZL93Mesh_t1356156583_CustomAttributesCacheGenerator_Mesh_GetAllocArrayFromChannelImpl_m1559282939P21CustomAttributesCache
AHh:__ZL24UnresolvedVirtualCall_92P12Il2CppObjectPK10MethodInfo
_ti:_il2cpp_class_get_methods
Hxi:__ZNSt3__217__compressed_pairIPiRNS_9allocatorIiEEE6secondEv
Jse:_Path_CanonicalizePath_m383914732
W3g:_Enumerator_System_Collections_IEnumerator_get_Current_m1631145297_gshared
psb:__Z18Transfer_BlittableI24GenerateTypeTreeTransferLb0EN4math12int2_storageEEvRK29SerializationCommandArgumentsR31RuntimeSerializationCommandInfo
BAd:_ArrayList_Synchronized_m2395071980
nwj:__ZN6il2cpp2os6Thread16GetCurrentThreadEv
yXj:__ZL81RuntimeArray_CustomAttributesCacheGenerator_Array_SetValue_m169741241____indices1P21CustomAttributesCache
B6b:__ZN10GameObject13ComponentPair15SetComponentPtrEPN5Unity9ComponentE
fye:_UnexceptionalStreamWriter_Write_m3206913035
k0b:__Z13RegisterClassI10MeshFilterEvv
sFa:__ZN10TagManager8TransferI19StreamedBinaryWriteILb0EEEEvRT_
$ab:__ZN11PreloadData23VirtualRedirectTransferER18StreamedBinaryReadILb0EE
C0a:__ZN13sorted_vectorI4PPtrI11SpriteAtlasENSt3__24lessIS2_EE13stl_allocatorIS2_L18MemLabelIdentifier1ELi16EEE21sort_clear_duplicatesEv
Hz:__Z17dynamic_pptr_castIP10MonoScript6ObjectET_RK4PPtrIT0_E
IEf:_DESTransform_ProcessBlock_m2826669227
vne:_Int16_CompareTo_m3493496879
Jej:__ZNSt3__216allocator_traitsINS_9allocatorIPK11Il2CppClassEEE9__destroyIS4_EEvNS_17integral_constantIbLb1EEERS5_PT_
pik:__ZL56RenderTexture_t2666733923_CustomAttributesCacheGeneratorP21CustomAttributesCache
uLj:__ZNSt3__222__tree_node_destructorINS_9allocatorINS_11__tree_nodeINS_12__value_typeINS_12basic_stringIcNS_11char_traitsIcEENS1_IcEEEEPFvvEEEPvEEEEEclEPSD_
_2h:__ZNSt3__29allocatorINS_4pairIK10KeyWrapperIN6il2cpp5utils13dynamic_arrayIPK10Il2CppTypeLj4EEEEPFvvEEEE10deallocateEPSE_j
v$a:__ZN6Sprite17MainThreadCleanupEv
Ldk:__ZL56OidCollection_t3790243618_CustomAttributesCacheGeneratorP21CustomAttributesCache
j6j:__ZL61SignatureDescription_t89145500_CustomAttributesCacheGeneratorP21CustomAttributesCache
cYg:_InternalEnumerator_1_MoveNext_m3389738333_AdjustorThunk
IK:__ZN10AudioMixer14UpdateMuteSoloEv
SJi:__ZNSt3__27forwardIRKNS_4pairIPK10MethodInfoP11Il2CppClassEEEEOT_RNS_16remove_referenceISA_E4typeE
QJb:__Z17GetMonoManagerPtrv
phi:__ZNSt3__29allocatorI6pollfdE8allocateEjPKv
XRe:_Stack_1_System_Collections_ICollection_get_SyncRoot_m3151629354_gshared
wEa:__ZN9Transform35SetLocalPositionWithoutNotificationERKN4math7_float3Ey
svg:_MaskableGraphic_UnityEngine_UI_IClippable_get_gameObject_m954171032
SPj:__ZNSt3__26__treeIPFvvENS_4lessIS2_EENS_9allocatorIS2_EEE10value_compEv
Si:_JS_Eval_ClearTimeout
Sga:__ZN7ApiGLES16SetPatchVerticesEi
Dve:_MonoIOStat_t1621921065_marshal_pinvoke
MBa:__ZN10MemoryFileC2E18MemLabelIdentifierP14MemoryFileData14FilePermission
gyf:_TrackingServices_NotifyUnmarshaledObject_m1794048369
ARh:__ZN6il2cpp2vm5Class20FromGenericParameterEPK22Il2CppGenericParameter
s4j:__ZL59RemotingServices_t2399536837_CustomAttributesCacheGeneratorP21CustomAttributesCache
xU:__ZN19CloudServiceHandler11FlushEventsEv
i7:__ZN15GlobalCallbacksC2Ev
L3d:_Array_InternalArray__set_Item_TisLabelFixup_t4090909514_m565370771_gshared
OSj:__ZNSt3__214__map_iteratorINS_15__tree_iteratorINS_12__value_typeIPFvvEPK10MethodInfoEEPNS_11__tree_nodeIS8_PvEEiEEEC2ESD_
lzc:_UNITY_FT_New_Memory_Face
Tfk:__ZL99GameObject_t1756533147_CustomAttributesCacheGenerator_GameObject_GetComponentInChildren_m1720983699P21CustomAttributesCache
Cck:__ZL74X509Crl_t1699034837_CustomAttributesCacheGenerator_U3CU3Ef__switchU24map13P21CustomAttributesCache
SBf:_SerializationEntry__ctor_m1619256036_AdjustorThunk
dxc:__ZN20TextRenderingPrivate21TextMeshGeneratorImpl5FlushEv
V3c:__Z15CastclassSealedP12Il2CppObjectP11Il2CppClass
eni:__ZNSt3__228__libcpp_compressed_pair_impIPNS_11__tree_nodeIP11Il2CppClassPvEENS_22__tree_node_destructorINS_9allocatorIS5_EEEELj0EEC2ES6_SA_
J$b:__ZN15ApplicationInfo14GetSandboxTypeEv
n6f:__Z41RuntimeInvoker_TypeAttributes_t2229518203PFvvEPK10MethodInfoPvPS4_
qqb:__Z18Transfer_BlittableI17RemapPPtrTransferLb1EhEvRK29SerializationCommandArgumentsR31RuntimeSerializationCommandInfo
$Lj:__ZNSt3__25tupleIJONS_12basic_stringIcNS_11char_traitsIcEENS_9allocatorIcEEEEEEC2IJS6_ELb0EEEDpOT_
Owj:__ZNSt3__26vectorIjNS_9allocatorIjEEE26__swap_out_circular_bufferERNS_14__split_bufferIjRS2_EE
BVb:__ZN16ReflectionProbes40UpdateRealtimeReflectionProbesTimeslicedEv
mAh:_ListPool_1_Get_m529219189_gshared
Xfj:__ZNSt3__26__treeINS_12__value_typeIP24Il2CppReflectionAssemblyPvEENS_19__map_value_compareIS3_S5_NS_4lessIS3_EELb1EEENS_9allocatorIS5_EEE16__insert_node_atEPNS_16__tree_node_baseIS4_EERSF_SF_
jYf:_MethodBuilder_GetBaseDefinition_m774166361
$zf:_FormatterConverter__ctor_m3958982477
c8a:__ZNK30RuntimeInitializeOnLoadManager22GetTypeVirtualInternalEv
l2h:__ZN15dense_hashtableINSt3__24pairIK10KeyWrapperIN6il2cpp5utils13dynamic_arrayIPK10Il2CppTypeLj4EEEEPFvvEEESA_NS3_8metadata19Il2CppSignatureHashEN14dense_hash_mapISA_SD_SG_NSA_14EqualsComparerINSF_22Il2CppSignatureCompareEEENS0_9allocatorISE_EEE9SelectKeyESK_SM_E12resize_deltaEjj
A3b:__ZN16ReflectionProbes15InitializeClassEv
PJj:__ZN6il2cpp5utils5MatchENSt3__212basic_stringIcNS1_11char_traitsIcEENS1_9allocatorIcEEEEjRKS7_j
iAc:_UNITY_FT_Destroy_Class_psnames_module_class
s5h:__ZNK15dense_hashtableINSt3__24pairIK10KeyWrapperIPK11Il2CppClassEPKcEES6_N6il2cpp5utils11PointerHashIS3_EEN14dense_hash_mapIS6_S9_SE_NS6_14EqualsComparerINS0_8equal_toIS5_EEEENS0_9allocatorISA_EEE9SelectKeyESJ_SL_E12test_deletedEj
ybh:_MRUList_Evict_m2430323183
C1e:_ReadOnlyCollection_1_System_Collections_Generic_ICollectionU3CTU3E_Remove_m1060547576_gshared
Hig:__Z68RuntimeInvoker_Boolean_t3825574718_Rect_t3681755626_SByte_t454417549PFvvEPK10MethodInfoPvPS4_
h8d:_Array_InternalArray__get_Item_TisRuntimeObject_m371871810_gshared
Uxe:_NullTextWriter_Write_m2306984725
Nz:__ZN8Animator13BatchedFKPassERK13dynamic_arrayIP14PlayableOutputLj4EE
Ygf:_RecordProtocol_ProcessChangeCipherSpec_m3233959862
nld:_Graphic_set_raycastTarget_m1229173591
a6d:_Array_Sort_TisVector4_t2243707581_m474199742_gshared
Y3:__ZN13RuntimeStaticINSt3__23mapIN4core12basic_stringIcNS2_20StringStorageDefaultIcEEEES6_NS0_4lessIS6_EE13stl_allocatorINS0_4pairIKS6_S6_EEL18MemLabelIdentifier13ELi16EEEELb0EE13StaticDestroyEPv
DRj:__ZNSt3__216allocator_traitsINS_9allocatorINS_12basic_stringIDsNS_11char_traitsIDsEENS1_IDsEEEEEEE11__constructIS6_JS6_EEEvNS_17integral_constantIbLb1EEERS7_PT_DpOT0_
Pxe:_TextWriter_Write_m576684782
Qj:_glIsVertexArray
_Ba:__ZN25SingleBlockMemoryFileDataC2E18MemLabelIdentifierPvjb
Gva:__ZN5Unity9Component8TransferI18StreamedBinaryReadILb0EEEEvRT_
cNj:__ZNSt3__210unique_ptrINS_11__tree_nodeINS_12__value_typeIPvxEES3_EENS_22__tree_node_destructorINS_9allocatorIS5_EEEEE7releaseEv
ea:invoke_fff
tCg:_Text_get_fontSize_m3105730761
ISk:b14
ngf:_TlsServerHello_Update_m1740270635
XKc:__ZN2UI6Canvas17MainThreadCleanupEv
oka:__ZN6prcoreL12RemapGenericI17TexFormatARGB155517TexFormatRGBA8888EEvPKNS_9InnerInfoE
$yg:_ScrollRect_Rebuild_m3423824761
xmj:__ZNSt3__26__treeINS_12__value_typeIjN6il2cpp2os17SocketHandleEntryEEENS_19__map_value_compareIjS5_NS_4lessIjEELb1EEENS_9allocatorIS5_EEE12__node_allocEv
HOe:_List_1_Find_m3862454845_gshared
saj:__ZNK24dense_hashtable_iteratorINSt3__24pairIK10KeyWrapperIP14Il2CppIUnknownEjEES5_N6il2cpp5utils11PointerHashIS3_EEN14dense_hash_mapIS5_jSB_NS5_14EqualsComparerINS0_8equal_toIS4_EEEENS0_9allocatorIS7_EEE9SelectKeyESG_SI_EneERKSL_
nbh:_MatchCollection_get_Item_m2609281578
XJi:__ZNK30dense_hashtable_const_iteratorINSt3__24pairIK10KeyWrapperINS1_IPK10MethodInfoP11Il2CppClassEEEjEES9_17ReflectionMapHashIS8_EN14dense_hash_mapIS9_jSD_NS9_14EqualsComparerINS0_8equal_toIS8_EEEENS0_9allocatorISB_EEE9SelectKeyESI_SK_EeqERKSN_
msa:__ZN7ApiGLES13CreateProgramEv
aLa:__ZN11HaloManager7AddHaloEv
DIf:_UTF8Encoding__ctor_m100325490
sia:__ZN4crnd12crn_unpackerD2Ev
YBg:_StencilMaterial_ClearAll_m1372779118
ak:_emscripten_glTexImage2D
Lwf:_ObjRefSurrogate_SetObjectData_m1873902916
GHc:_tt_driver_class_pic_init
i_:__ZN18ScriptingArguments9AddStringEPKc
oGj:_setup_header
WQi:__ZNKSt3__29allocatorINS_4pairIK10KeyWrapperIPK14Il2CppAssemblyEPK22Il2CppMonoAssemblyNameEEE8max_sizeEv
qdg:__Z99RuntimeInvoker_RuntimeObject_DateTime_t693205669_Nullable_1_t1693325264_RuntimeObject_RuntimeObjectPFvvEPK10MethodInfoPvPS4_
H$e:_ReadOnlyCollection_1_System_Collections_IList_get_IsReadOnly_m1367736517_gshared
yPk:runPostSets
Rrk:__ZL93AxisEventData_t1524870173_CustomAttributesCacheGenerator_AxisEventData_set_moveDir_m254243794P21CustomAttributesCache
wja:__ZL23stbir__resize_arbitraryPvPKviiiS_iiiffffPfiij14stbir_datatype12stbir_filterS4_10stbir_edgeS5_16stbir_colorspace
zKe:_List_1_System_Collections_IList_Insert_m848656350_gshared
Jsb:__Z18Transfer_BlittableI24GenerateTypeTreeTransferLb1E8Vector4fEvRK29SerializationCommandArgumentsR31RuntimeSerializationCommandInfo
ape:_Int16_ToString_m3971652088_AdjustorThunk
j$h:__ZNSt3__24moveIRN10KeyWrapperIPK17Il2CppGenericInstE14EqualsComparerIN6il2cpp8metadata24Il2CppGenericInstCompareEEEEEONS_16remove_referenceIT_E4typeEOSD_
lk:_pthread_detach
Iai:__ZN6il2cpp2vm19SocketPollingThread7RunLoopEv
dsf:_X509ExtensionEnumerator_Reset_m3200687545
uEi:__ZN10KeyWrapperINSt3__24pairIPK14Il2CppAssemblyP11Il2CppClassEEEC2Ev
dwf:_MethodDictionary_AllocInternalProperties_m3261295876
jNj:__ZNSt3__217__compressed_pairIPNS_11__tree_nodeINS_12__value_typeIPvxEES3_EENS_22__tree_node_destructorINS_9allocatorIS5_EEEEE6secondEv
Y6b:__ZN15DirectorManager20ScheduleGraphDestroyERK14HPlayableGraph
BBb:__ZNSt3__213__stable_sortIRN10vector_mapI17ScriptingClassPtrPKN5Unity4TypeENS_4lessIS2_EENS_9allocatorINS_4pairIS2_S6_EEEEE13value_compareENS_11__wrap_iterIPSB_EEEEvT0_SJ_T_NS_15iterator_traitsISJ_E15difference_typeEPNSM_10value_typeEi
v_h:__ZN15dense_hashtableINSt3__24pairIK10KeyWrapperIPK19Il2CppGenericMethodEPK26Il2CppGenericMethodIndicesEES6_N6il2cpp8metadata23Il2CppGenericMethodHashEN14dense_hash_mapIS6_SA_SE_NS6_14EqualsComparerINSD_26Il2CppGenericMethodCompareEEENS0_9allocatorISB_EEE9SelectKeyESI_SK_E21fill_range_with_emptyEPSB_SO_
$dk:__ZL77U3CPrivateImplementationDetailsU3E_t1486305139_CustomAttributesCacheGeneratorP21CustomAttributesCache
ofb:__ZN9ShaderLab25SerializedTextureProperty8TransferI24GenerateTypeTreeTransferEEvRT_
V5e:_Comparison_1_Invoke_m2645957248_gshared
i_k:_emscripten_glIsShader__wrapper
xTi:__ZN6il2cpp2gc19AppendOnlyGCHashMapINSt3__24pairIPK14Il2CppAssemblyP11Il2CppClassEEP24Il2CppReflectionAssembly17ReflectionMapHashIS9_ENS2_8equal_toIS9_EEEC2Ev
eDc:_tt_cmap14_char_next
O0j:__ZL69AssemblyTrademarkAttribute_t3740556705_CustomAttributesCacheGeneratorP21CustomAttributesCache
pda:__ZN13GfxDeviceGLES28GetNativeVertexBufferPointerEP9GfxBuffer
Rwa:__ZN11NamedObject8TransferI18StreamedBinaryReadILb0EEEEvRT_
hra:__ZNK17GPUSkinPoseBuffer12GetBoneCountEv
JBf:_DelegatePInvokeWrapper_CallbackHandler_t362827733
EFj:_GC_block_was_dirty
Z9i:__ZNK15dense_hashtableINSt3__24pairIK10KeyWrapperIP14Il2CppIUnknownEjEES5_N6il2cpp5utils11PointerHashIS3_EEN14dense_hash_mapIS5_jSB_NS5_14EqualsComparerINS0_8equal_toIS4_EEEENS0_9allocatorIS7_EEE9SelectKeyESG_SI_E12test_deletedEj
r_f:_EventInfo_get_MemberType_m3337516651
Zsc:__Z18Transfer_BlittableI8JSONReadLb1EyEvRK29SerializationCommandArgumentsR31RuntimeSerializationCommandInfo
a5i:__ZNKSt3__26vectorI20Il2CppStackFrameInfoNS_9allocatorIS1_EEE11__make_iterEPKS1_
Ik:_emscripten_glMatrixMode
fs:__ZN8Animator23VirtualRedirectTransferER18StreamedBinaryReadILb0EE
r0j:__ZL93TypeBuilder_t3308873219_CustomAttributesCacheGenerator_TypeBuilder_GetConstructors_m774120094P21CustomAttributesCache
Tte:_NotSupportedException__ctor_m836173213
vwf:_MethodReturnDictionary__ctor_m756139344
tR:__ZN11UnityEngine15CloudWebService14DataDispatcher16PrepareDataBlockERNS0_16SessionContainerE
Psa:__ZN18GfxFramebufferGLES5ClearE13GfxClearFlagsRK10ColorRGBAffib
GPe:_List_1_GetIndex_m2513359832_gshared
rcg:__Z52RuntimeInvoker_Single_t2076509932_Double_t4078015681PFvvEPK10MethodInfoPvPS4_
eAb:__ZL26Transfer_SimpleNativeClassI18StreamedBinaryReadILb0EE10RectOffsetLb0EEvRK29SerializationCommandArgumentsR31RuntimeSerializationCommandInfo
fAc:_UNITY_ft_destroy_default_module_classes
y3h:__ZNSt3__24pairIK10KeyWrapperIN6il2cpp5utils13dynamic_arrayIPK10Il2CppTypeLj4EEEEPFvvEEC2IRSD_vEEOT_
Dej:__ZNKSt3__228__libcpp_compressed_pair_impIPPK11Il2CppClassRNS_9allocatorIS3_EELj0EE5firstEv
bIe:_List_1_CheckMatch_m1772343151_gshared
DMb:__ZL12DepthPassJobPN21GfxDeviceAsyncCommand10ArgScratchEPKNS_3ArgE
Pdb:__ZNSt3__26vectorIN9ShaderLab20SerializedSubProgram16TextureParameterENS_9allocatorIS3_EEE6assignINS_11__wrap_iterIPS3_EEEENS_9enable_ifIXaasr21__is_forward_iteratorIT_EE5valuesr16is_constructibleIS3_NS_15iterator_traitsISC_E9referenceEEE5valueEvE4typeESC_SC_
T$h:__ZNSt3__29allocatorINS_11__tree_nodeINS_12__value_typeIP11Il2CppClassS4_EEPvEEE10deallocateEPS7_j
uoc:__ZN5Unity9rapidjson6WriterI16TempBufferWriterNS0_4UTF8IcEES4_13JSONAllocatorE11WriteDoubleEd
rre:_IntPtr_Equals_m1214967011_AdjustorThunk
d2i:__ZNSt3__216allocator_traitsINS_9allocatorIN6il2cpp2vm22EmbeddedResourceRecordEEEE8allocateERS5_j
zNe:_List_1_Add_m3591975577_gshared
Wna:__ZN14GfxDeviceStats16CopyAllDrawStatsERKS_
L0b:__Z13RegisterClassI19LowerResBlitTextureEvv
Xrk:__ZL100PointerEventData_t1599784723_CustomAttributesCacheGenerator_U3CpointerPressRaycastU3Ek__BackingFieldP21CustomAttributesCache
Lm:FUNCTION_TABLE_iiiiiiiiiiii
dSh:__ZNSt3__27forwardIRPK22Il2CppGenericParameterEEOT_RNS_16remove_referenceIS5_E4typeE
Iuh:_GUIUtility_Internal_GetPixelsPerPoint_m1075452981
lKa:__ZN16GraphicsSettingsD0Ev
vZb:__Z29StdTemplateConversionFunctionIshEbPvR14SafeBinaryRead
rXk:_pthread_mutex_init__wrapper
t7i:__ZN6il2cpp6icalls8mscorlib6SystemL52FormatExceptionMessageForNonConstructableGenericTypeEPK10Il2CppTypeRKNSt3__26vectorIS5_NS6_9allocatorIS5_EEEE
n:cttz_i8
Pzc:_UNITY_FT_GlyphLoader_Add
bVg:_InternalEnumerator_1_System_Collections_IEnumerator_get_Current_m1004764375_AdjustorThunk
gMi:__ZN10KeyWrapperINSt3__24pairIPK12PropertyInfoP11Il2CppClassEEEC2ERKS8_
fDk:_Display_FireDisplaysUpdated_m2197288612
rEi:__ZNSt3__24swapIPNS_4pairIK10KeyWrapperINS1_IPK14Il2CppAssemblyP11Il2CppClassEEEjEEEENS_9enable_ifIXaasr21is_move_constructibleIT_EE5valuesr18is_move_assignableISE_EE5valueEvE4typeERSE_SH_
wId:_DateTimeFormatInfo_get_FullDateTimePattern_m2607507656
Ngf:_HttpsClientStream_RaiseServerCertificateValidation_m3356770426
Gnh:_RectTransform_INTERNAL_set_anchorMin_m3893342226
uMi:__ZNK15dense_hashtableINSt3__24pairIK10KeyWrapperINS1_IPK12PropertyInfoP11Il2CppClassEEEjEES9_17ReflectionMapHashIS8_EN14dense_hash_mapIS9_jSD_NS9_14EqualsComparerINS0_8equal_toIS8_EEEENS0_9allocatorISB_EEE9SelectKeyESI_SK_E12bucket_countEv
s6d:_Array_swap_TisUIVertex_t1204258818_TisUIVertex_t1204258818_m1163375424_gshared
Fl:_emscripten_glViewport
dAj:__ZN6il2cpp6icalls8mscorlib6System15MonoCustomAttrs17IsDefinedInternalEP12Il2CppObjectP20Il2CppReflectionType
YMa:__ZN4Mesh21UnswizzleVertexColorsEb
n8:__ZN30dense_hashtable_const_iteratorINSt3__24pairIKN4core12basic_stringIcNS2_20StringStorageDefaultIcEEEEP11AssetBundleEES6_20StringHash32FunctionIS6_EN14dense_hash_mapIS6_S9_SC_NS0_8equal_toIS6_EENS0_9allocatorISA_EEE9SelectKeyESF_SH_EppEv
cgf:_TlsServerSettings_set_CertificateTypes_m264196087
mWg:_InternalEnumerator_1__ctor_m4150855019_gshared
MNd:_DateTime_ToString_m2276663647_AdjustorThunk
DHc:_cff_parse_font_bbox
Tcc:__Z35Application_Get_Custom_PropIsEditorv
WP:__Z41Register_UnityEngine_AudioSource_set_mutev
oXh:__ZNSt3__24pairIK10KeyWrapperIPK11Il2CppClassEPKcEC2ERKS9_
w6a:__ZN14PlayerSettings23VirtualRedirectTransferER18StreamedBinaryReadILb0EE
eLj:__ZNKSt3__215__tree_iteratorINS_12__value_typeINS_12basic_stringIcNS_11char_traitsIcEENS_9allocatorIcEEEEPFvvEEEPNS_11__tree_nodeISA_PvEEiEptEv
zVd:_Array_get_swapper_TisCustomAttributeTypedArgument_t1498197914_m2780757375_gshared
lCe:_KeyValuePair_2__ctor_m3201181706_AdjustorThunk
fHi:__ZN10KeyWrapperIPK10Il2CppTypeEC2ERKS3_
rUj:__ZN6il2cpp2os5Event5ResetEv
Z_e:_ReadOnlyCollection_1_System_Collections_IList_Insert_m1130110335_gshared
DNk:__ZNSt3__212basic_stringIcNS_11char_traitsIcEENS_9allocatorIcEEEC2EPKcj
xBh:_AesManaged__ctor_m2322442838
sjj:__ZN6il2cpp8metadata15GenericMetadata17InflateParametersEPK13ParameterInfohPK20Il2CppGenericContextb
Gqe:_Int64_System_IConvertible_ToUInt32_m850395426_AdjustorThunk
o$:__ZN18AwakeFromLoadQueue28InvokePersistentManagerAwakeEPNS_4ItemEj17AwakeFromLoadMode
gIa:__ZN6Camera13AwakeFromLoadE17AwakeFromLoadMode
xZc:_HMACSHA512__ctor_m2390736870
_x:__ZNK17AnimationPlayable27GetNextCompatibleDescendantEi
Swa:__ZN4PPtrI6SpriteE8TransferI18StreamedBinaryReadILb0EEEEvRT_
sWf:_TypeBuilder_GetInterfaces_m1818658502
voe:_NumberFormatter_AppendIntegerString_m868842252
v7h:__ZNSt3__216allocator_traitsINS_9allocatorINS_11__tree_nodeINS_12__value_typeIP11Il2CppClassS5_EEPvEEEEE9constructINS_4pairIKS5_S5_EEJNSC_IS5_S5_EEEEEvRS9_PT_DpOT0_
c7e:_BigInteger_op_Equality_m2683055762
ZEb:__Z25SetNeedToPerformRenderingb
zNi:__ZN14dense_hash_mapI10KeyWrapperINSt3__24pairIPK9EventInfoP11Il2CppClassEEEj17ReflectionMapHashIS8_ENS9_14EqualsComparerINS1_8equal_toIS8_EEEENS1_9allocatorINS2_IKS9_jEEEEE3endEv
P0f:_MonoMethod_GetPseudoCustomAttributes_m466965107
Qdh:__ZN21InterfaceFuncInvoker0IP19LinkRef_t2090853131E6InvokeEjP11Il2CppClassP12Il2CppObject
EDa:__ZN10GameObjectD2Ev
SMb:__ZN14qsort_internal30FindAndMovePivotToLastPositionIP15RODataDepthPassi17ROSorterDepthPassEEvT_S4_T0_T1_
Boh:_ResourceRequest_t2560315377_marshal_pinvoke
XEg:_Enumerator_System_Collections_IDictionaryEnumerator_get_Value_m3005608231_gshared
oGh:__ZL24UnresolvedVirtualCall_26P12Il2CppObjectS0_iiPK10MethodInfo
Wej:__ZNKSt3__217__compressed_pairIPPK11Il2CppClassNS_9allocatorIS3_EEE5firstEv
Jug:_MaskUtilities_NotifyStencilStateChanged_m1527407683
o8f:__Z94RuntimeInvoker_Void_t1841601450_RuntimeObject_Int32_t2071877448_RuntimeObject_SByte_t454417549PFvvEPK10MethodInfoPvPS4_
IUb:__ZN12CullingGroup10SendEventsEPK17CullingGroupEventj
mee:_DSAManaged_GenerateKeyPair_m2711647034
uSj:__ZNSt3__217__compressed_pairIjNS_19__map_value_compareIPFvvENS_12__value_typeIS3_PK10MethodInfoEENS_4lessIS3_EELb1EEEEC2EjSB_
bZa:__ZThn32_NK8Renderer8GetLayerEv
E0d:_Array_InternalArray__ICollection_Add_TisResourceCacheItem_t333236149_m1151081240_gshared
lsg:__Z39RuntimeInvoker_RaycastHit2D_t4063908774PFvvEPK10MethodInfoPvPS4_
i2e:_ReadOnlyCollection_1_System_Collections_Generic_ICollectionU3CTU3E_get_IsReadOnly_m2197226755_gshared
$Jd:_Convert_ToInt32_m2209788057
cdj:__ZN30dense_hashtable_const_iteratorINSt3__24pairIK10KeyWrapperINS1_IPKcS4_EEEiEES6_24NamespaceAndNamePairHashN14dense_hash_mapIS6_iS9_NS6_14EqualsComparerI26NamespaceAndNamePairEqualsEENS0_9allocatorIS8_EEE9SelectKeyESD_SF_E30advance_past_empty_and_deletedEv
tzf:_SoapServices_GetXmlTypeForInteropType_m3821579913
GCh:_EqualityComparer_1_System_Collections_IEqualityComparer_Equals_m3601790950_gshared
iYk:_emscripten_glTexParameterfv__wrapper
e1h:__ZNKSt3__29allocatorI10KeyWrapperIPK19Il2CppGenericMethodEE8max_sizeEv
Tmb:__Z18Transfer_BlittableI14SafeBinaryReadLb1E9BoundsIntEvRK29SerializationCommandArgumentsR31RuntimeSerializationCommandInfo
Vui:_il2cpp_method_get_param_count
vac:__ZN10systeminfo19ISOToSystemLanguageERN4core12basic_stringIcNS0_20StringStorageDefaultIcEEEE
XMi:__ZNK15dense_hashtableINSt3__24pairIK10KeyWrapperINS1_IPK12PropertyInfoP11Il2CppClassEEEjEES9_17ReflectionMapHashIS8_EN14dense_hash_mapIS9_jSD_NS9_14EqualsComparerINS0_8equal_toIS8_EEEENS0_9allocatorISB_EEE9SelectKeyESI_SK_E3endEv
ond:_HorizontalOrVerticalLayoutGroup_get_childForceExpandWidth_m227100883
Yig:__Z34RuntimeInvoker_LogType_t1559732862PFvvEPK10MethodInfoPvPS4_
Vdk:__ZL68Uri_t19570940_CustomAttributesCacheGenerator_U3CU3Ef__switchU24map15P21CustomAttributesCache
cEc:_ps_dimension_done
xfd:_LayoutRebuilder_MarkLayoutForRebuild_m640589351
LKc:__Z46Register_UnityEngine_TextGenerator_Dispose_cppv
ddd:_PointerEventData_get_pressEventCamera_m724559964
puj:__ZNSt3__26__treeINS_12basic_stringIcNS_11char_traitsIcEENS_9allocatorIcEEEENS_4lessIS6_EENS4_IS6_EEE10value_compEv
$ci:__ZNSt3__211__wrap_iterIPKP12Il2CppThreadEC2IPS2_EERKNS0_IT_EEPNS_9enable_ifIXsr14is_convertibleIS8_S4_EE5valueEvE4typeE
l3c:_String_IndexOfUnchecked_m3356721554
TXa:__ZN16LightmapSettings8TransferI14SafeBinaryReadEEvRT_
K9:__ZN17BufferManagerGLES13ReleaseBufferEP14DataBufferGLES
hoi:__ZNSt3__214__split_bufferIPK10MethodInfoRNS_9allocatorIS3_EEE17__destruct_at_endEPS3_
Wsc:__Z18Transfer_BlittableI8JSONReadLb1EjEvRK29SerializationCommandArgumentsR31RuntimeSerializationCommandInfo
Jmi:__ZNSt3__210unique_ptrINS_11__tree_nodeIP11Il2CppClassPvEENS_22__tree_node_destructorINS_9allocatorIS5_EEEEE5resetEPS5_
Ihh:_PKCS12_Decrypt_m1557069392
LCg:_VertexHelper_AddUIVertexQuad_m280792808
Nnf:_WebHeaderCollection_ToString_m1246460752
BWg:_InternalEnumerator_1_System_Collections_IEnumerator_get_Current_m2842514953_AdjustorThunk
sJh:__ZL25UnresolvedVirtualCall_192P12Il2CppObject19DateTime_t693205669S1_PK10MethodInfo
Zo:stackSave
xTc:__ZN5Unity9rapidjson15GenericDocumentINS0_4UTF8IcEE13JSONAllocatorNS0_12CrtAllocatorEE6StringEPKcjb
vxj:__ZNSt3__24pairIK10KeyWrapperIPK19Il2CppGenericMethodEP10MethodInfoEC2IRS6_S8_vEEOT_OT0_
vEc:_ps_dimension_end
Kgc:__Z41Register_UnityEngine_Mesh_Internal_Createv
Flb:__ZN16MemoryFileSystem5TouchER13FileEntryData
hjj:__ZNK15dense_hashtableI10KeyWrapperIP18Il2CppGenericClassES3_N6il2cpp8metadata22Il2CppGenericClassHashEN14dense_hash_setIS3_S6_NS3_14EqualsComparerINS5_25Il2CppGenericClassCompareEEENSt3__29allocatorIS3_EEE8IdentityESA_SD_E12test_deletedERK30dense_hashtable_const_iteratorIS3_S3_S6_SF_SA_SD_E
wVh:__ZN6il2cpp2vm5Class14GetNestedTypesEP11Il2CppClassPPv
NZc:_MACTripleDES_Initialize_m1318099802
muj:__ZNSt3__228__libcpp_compressed_pair_impIPNS_11__tree_nodeINS_12basic_stringIcNS_11char_traitsIcEENS_9allocatorIcEEEEPvEENS_22__tree_node_destructorINS5_IS9_EEEELj0EEC2ESA_SD_
R9e:_MD5SHA1_VerifySignature_m507888141
rxd:_Byte_System_IConvertible_ToChar_m4188836679
Xoe:_NumberFormatter_InitDecHexDigits_m2036076025
AFg:_Enumerator_get_CurrentKey_m3839846791_AdjustorThunk
iWb:__ZN6Camera9SetAspectEf
aid:_ColorTween_get_ignoreTimeScale_m641454126_AdjustorThunk
va:invoke_viiffiii
IOj:__ZN6il2cpp2os13FastMutexImpl6UnlockEv
wyj:__ZN15dense_hashtableINSt3__24pairIK10KeyWrapperIPK19Il2CppGenericMethodEP10MethodInfoEES6_N6il2cpp8metadata23Il2CppGenericMethodHashEN14dense_hash_mapIS6_S9_SD_NS6_14EqualsComparerINSC_26Il2CppGenericMethodCompareEEENS0_9allocatorISA_EEE9SelectKeyESH_SJ_E12resize_deltaEjj
g$e:_ReadOnlyCollection_1_Contains_m1800950533_gshared
jtk:__ZL79TouchInputModule_t2561058385_CustomAttributesCacheGenerator_m_ForceModuleActiveP21CustomAttributesCache
zZk:_emscripten_glBindVertexArray__wrapper
Klg:__Z52RuntimeInvoker_Vector2_t2243707579_Int32_t2071877448PFvvEPK10MethodInfoPvPS4_
t9e:_MD4__ctor_m2366413460
QBj:__ZNSt3__26vectorIPK14Il2CppAssemblyNS_9allocatorIS3_EEE9push_backERKS3_
iWi:__ZNSt3__23getILj1EK10KeyWrapperIP11Il2CppClassES3_EERNS_13tuple_elementIXT_ENS_4pairIT0_T1_EEE4typeERSA_
AMg:_Dictionary_2_InitArrays_m435313205_gshared
$E:__ZN10ObjectPoolIN4FMOD3DSPENS0_4DSPIEE7GetFreeEi
EEa:__ZN9Transform37InitializeTransformHierarchyRecursiveER18TransformHierarchyRii
$1b:__Z34DefaultPrepareDispatchBoundsUpdateR13RendererScene18MemLabelIdentifier
old:_Graphic_get_useLegacyMeshGeneration_m1366444625
Gsa:__ZN26SinglePassStereoSupportExt23SetupStereoMatrixParamsE21MonoOrStereoscopicEye24BuiltinShaderMatrixParamRK10Matrix4x4f
gvk:__ZL65InputField_t1631627530_CustomAttributesCacheGenerator_m_InputTypeP21CustomAttributesCache
vQh:__ZNSt3__24swapIjEENS_9enable_ifIXaasr21is_move_constructibleIT_EE5valuesr18is_move_assignableIS2_EE5valueEvE4typeERS2_S5_
crj:__ZNSt3__213__vector_baseIN6il2cpp2os10ThreadImpl10APCRequestENS_9allocatorIS4_EEE17__destruct_at_endEPS4_
Bce:_ModulusRing_Pow_m1137250399
c1g:_InternalEnumerator_1_MoveNext_m2410670600_AdjustorThunk
sP:__Z46AudioListener_CUSTOM_GetNumExtensionPropertiesP12Il2CppObject
Spf:_X509Chain_Build_m2341271288
bMa:__ZN17MeshRenderingData4InitEP4MeshS1_iP15SharedGfxBufferS3_
lOk:__ZNSt3__212basic_stringIcNS_11char_traitsIcEENS_9allocatorIcEEEpLEPKc
Ywj:__ZNSt3__214__split_bufferIjRNS_9allocatorIjEEE17__destruct_at_endEPj
n1e:_ReadOnlyCollection_1_System_Collections_ICollection_get_SyncRoot_m2779904122_gshared
aRg:_EqualityComparer_1_System_Collections_IEqualityComparer_Equals_m1682986002_gshared
YDd:_Hashtable__cctor_m2952659675
Glj:__ZN6il2cpp2gc16GarbageCollector12RunFinalizerEPvS2_
Iyk:__ZL77LayoutUtility_t4076838048_CustomAttributesCacheGenerator_U3CU3Ef__amU24cache4P21CustomAttributesCache
bqb:__ZN15SerializeTraitsI13dynamic_arrayIN4math12int3_storageELj4EEE19ResizeSTLStyleArrayERS3_i
C3c:_Evidence_get_HostEvidenceList_m2095478124
yhj:__ZNSt3__214__split_bufferIN6il2cpp2vm5Image20EmbeddedResourceDataERNS_9allocatorIS4_EEE17__destruct_at_endEPS4_
njc:__Z57Register_UnityEngine_Transform_INTERNAL_set_localPositionv
Wcf:_Context_Clear_m4000337070
Fda:__ZN13GfxDeviceGLES26SetRandomWriteTargetBufferEi15ComputeBufferID
Duf:_IntervalCollection_Normalize_m538796191
sRi:__ZN15dense_hashtableINSt3__24pairIK10KeyWrapperIPK22Il2CppGenericParameterEPK24MonoGenericParameterInfoEES6_N6il2cpp5utils11PointerHashIS4_EEN14dense_hash_mapIS6_SA_SF_NS6_14EqualsComparerINS0_8equal_toIS5_EEEENS0_9allocatorISB_EEE9SelectKeyESK_SM_E16reset_thresholdsEv
O5h:__ZNK24dense_hashtable_iteratorINSt3__24pairIK10KeyWrapperIPKcEP11Il2CppClassEES5_N6il2cpp5utils11StringUtils12StringHasherIS4_EEN14dense_hash_mapIS5_S8_SE_NS5_14EqualsComparerINSB_13VmStringUtils21CaseSensitiveComparerEEENS0_9allocatorIS9_EEE9SelectKeyESJ_SL_EdeEv
pIb:__ZZ23InitPlayerLoopCallbacksvEN49EarlyUpdateResetFrameStatsAfterPresentRegistrator7ForwardEv
wGd:_Console_SetEncodings_m342145566
Gik:__ZL77Object_t1021602117_CustomAttributesCacheGenerator_Object_get_name_m3369637820P21CustomAttributesCache
fld:_FontUpdateTracker_UntrackText_m3827316510
gKi:__ZN6il2cpp2gc19AppendOnlyGCHashMapINSt3__24pairIPK11Il2CppImageP11Il2CppClassEEP22Il2CppReflectionModule17ReflectionMapHashIS9_ENS2_8equal_toIS9_EEE10CopyValuesEPv
fsh:_Vector2_get_sqrMagnitude_m593717298_AdjustorThunk
v8d:_Array_InternalArray__get_Item_TisSingle_t2076509932_m1495809753_gshared
XLh:_Font_get_fontSize_m3125470578
fac:__ZNK11ICallString6ToUTF8Ev
Aeh:_CaptureAssertion_get_Alternate_m2729005740
Rtj:__ZNSt3__210unique_ptrINS_11__tree_nodeINS_12basic_stringIcNS_11char_traitsIcEENS_9allocatorIcEEEEPvEENS_22__tree_node_destructorINS5_IS9_EEEEED2Ev
aaj:__ZN24dense_hashtable_iteratorINSt3__24pairIK10KeyWrapperIP14Il2CppIUnknownEjEES5_N6il2cpp5utils11PointerHashIS3_EEN14dense_hash_mapIS5_jSB_NS5_14EqualsComparerINS0_8equal_toIS4_EEEENS0_9allocatorIS7_EEE9SelectKeyESG_SI_E30advance_past_empty_and_deletedEv
TMb:__ZNSt3__211__sift_downIR17ROSorterDepthPassP15RODataDepthPassEEvT0_S5_T_NS_15iterator_traitsIS5_E15difference_typeES5_
gTf:_Default_SelectMethod_m3081239996
PSa:__ZN18UnityPropertySheet11UnityTexEnvC2Ev
Mcc:__ZNSt3__214__split_bufferIPN9BlobWrite11TypeContextENS_9allocatorIS3_EEE10push_frontERKS3_
fA:__ZN8Animator17ApplyOnAnimatorIKEiRNS_11AnimatorJobE
I2:__ZN12FileAccessor4ReadEyyPvPy
XRa:__ZN13dynamic_arrayI16ShaderKeywordSetLj4EE6insertEPS0_PKS0_S4_
mBb:__Z29Transfer_Blittable_ArrayFieldI18StreamedBinaryReadILb0EE11QuaternionfEvRT_R9ArrayInfoRK23StaticTransferFieldInfo
ewf:_MethodDictionary_IsOverridenKey_m3922224650
jFd:_SyncHashtable_Contains_m3042906549
U1i:__ZNSt3__214__split_bufferIN6il2cpp2vm22EmbeddedResourceRecordERNS_9allocatorIS3_EEE9__end_capEv
pQe:_List_1_System_Collections_IList_set_Item_m4016273526_gshared
TSh:__ZNSt3__216allocator_traitsINS_9allocatorIjEEE9__destroyIjEEvNS_17integral_constantIbLb1EEERS2_PT_
isf:_X509KeyUsageExtension_CopyFrom_m931530012
NJh:__ZL25UnresolvedVirtualCall_213P12Il2CppObject40CustomAttributeTypedArgument_t1498197914PK10MethodInfo
KVb:__ZN13RenderTexture9SetHeightEi
Gt:__ZN7mecanim9animation17ClearMotionOutputEPNS0_18AnimationNodeStateE
_Oa:__ZN16LevelGameManager8TransferI24GenerateTypeTreeTransferEEvRT_
xug:_LayoutUtility_U3CGetMinHeightU3Em__4_m1769295917
Bjf:_SslStreamBase_Read_m1036897444
xwg:_RectMask2D_PerformClipping_m1232012832
_3i:__ZN6il2cpp6icalls8mscorlib6System2IO6MonoIO17GetFileAttributesEP12Il2CppStringPi
oGg:_Transform_1_Invoke_m4020530914_gshared
LCc:_tt_cmap8_char_index
I_:__Z24scripting_class_get_name17ScriptingClassPtr
q4:__ZN13RuntimeStaticI15GUIEventManagerLb0EE13StaticDestroyEPv
ywj:__ZN6il2cpp2os6Thread15CurrentThreadIdEv
Kob:__Z29Transfer_Blittable_ArrayFieldI14SafeBinaryReadjEvRT_R9ArrayInfoRK23StaticTransferFieldInfo
j9h:__ZNSt3__213__vector_baseIN6il2cpp2os19SocketHandleWrapperENS_9allocatorIS3_EEE7__allocEv
ee:_emscripten_set_keydown_callback
HEd:_Enumerator_get_Value_m3684748062
tFa:__ZN19StreamedBinaryWriteILb0EE21TransferSTLStyleArrayINSt3__26vectorI17SortingLayerEntryNS2_9allocatorIS4_EEEEEEvRT_17TransferMetaFlags
vdj:__ZNSt3__24moveIRN14dense_hash_mapI10KeyWrapperINS_4pairIPKcS5_EEEi24NamespaceAndNamePairHashNS7_14EqualsComparerI26NamespaceAndNamePairEqualsEENS_9allocatorINS3_IKS7_iEEEEE9SelectKeyEEEONS_16remove_referenceIT_E4typeEOSK_
POf:_UInt32_Parse_m3371984903
Q2:__ZN12FileAccessorC2Ev
Gej:__ZNSt3__214__split_bufferIPK11Il2CppClassRNS_9allocatorIS3_EEE17__destruct_at_endEPS3_
kjh:_X509CertificateCollection_Compare_m1014334435
dgj:__ZNSt3__217__compressed_pairIPNS_11__tree_nodeINS_12__value_typeIP24Il2CppReflectionAssemblyPvEES5_EENS_22__tree_node_destructorINS_9allocatorIS7_EEEEE6secondEv
aWe:_Collection_1_ClearItems_m1280157591_gshared
dsg:__Z33RuntimeInvoker_TypeTag_t141209596PFvvEPK10MethodInfoPvPS4_
qch:_PatternLinkStack_GetCurrent_m2994645935
VEi:__ZNSt3__27forwardIRKNS_4pairIPK14Il2CppAssemblyP11Il2CppClassEEEEOT_RNS_16remove_referenceISA_E4typeE
w5e:_Comparison_1__ctor_m2929820459_gshared
M5f:__Z59RuntimeInvoker_RuntimeObject_RuntimeObject_SByte_t454417549PFvvEPK10MethodInfoPvPS4_
lmi:__ZNSt3__26__treeIP11Il2CppClassNS_4lessIS2_EENS_9allocatorIS2_EEE3endEv
oah:_AsyncResult__ctor_m1183194429
Wsi:__ZN6il2cpp2vm7Runtime12GetConfigDirEv
yD:__ZN4PPtrI13MonoBehaviourE8TransferI18StreamedBinaryReadILb0EEEEvRT_
gwf:_MethodDictionary_set_Item_m3475146889
Tog:__Z71RuntimeInvoker_Int32_t2071877448_CustomAttributeNamedArgument_t94157543PFvvEPK10MethodInfoPvPS4_
Vpk:__ZL54Tile_t429716126_CustomAttributesCacheGenerator_m_ColorP21CustomAttributesCache
y4j:__ZL62WellKnownObjectMode_t2630225581_CustomAttributesCacheGeneratorP21CustomAttributesCache
$Cg:_Toggle_PlayEffect_m3950629415
x_d:_Array_IndexOf_TisRuntimeObject_m214763038_gshared
$yh:_UnityEvent_1_GetDelegate_m3917909024_gshared
sqg:__Z79RuntimeInvoker_Void_t1841601450_Int32_t2071877448_ParameterModifier_t1820634920PFvvEPK10MethodInfoPvPS4_
lDb:__Z39WriteQueueForTransferSignatureIntoCacheRK31TransferFunctionScriptingTraitsRK24TransferRequestSignature17ScriptingClassPtrR23CachedSerializationDataRb
Z9a:__ZN13RenderManager18UpdateAllRenderersEv
EHk:_Mesh_Clear_m239607636
R9i:__ZNSt3__24pairIK10KeyWrapperIP14Il2CppIUnknownEjEC2IS3_jEEONS0_IT_T0_EEPNS_9enable_ifIXaasr14is_convertibleIS8_S5_EE5valuesr14is_convertibleIS9_jEE5valueEvE4typeE
UQc:__ZN22BaseUnityConnectClient30OnEnteringStatePausedOrStoppedEv
$Xe:_Collection_1_System_Collections_ICollection_get_SyncRoot_m2157752542_gshared
XLi:__ZN15dense_hashtableINSt3__24pairIK10KeyWrapperINS1_IPK12PropertyInfoP11Il2CppClassEEEjEES9_17ReflectionMapHashIS8_EN14dense_hash_mapIS9_jSD_NS9_14EqualsComparerINS0_8equal_toIS8_EEEENS0_9allocatorISB_EEE9SelectKeyESI_SK_E12resize_deltaEjj
Tt:__ZN7mecanim5human12HumanPoseAddERNS0_9HumanPoseERKS1_S4_
Bci:__ZNKSt3__26vectorI6pollfdNS_9allocatorIS1_EEE4dataEv
J8j:__ZL64AssemblyLoadEventArgs_t4233815743_CustomAttributesCacheGeneratorP21CustomAttributesCache
dXe:_Collection_1_IsFixedSize_m218241296_gshared
UYh:__ZNK15dense_hashtableINSt3__24pairIK10KeyWrapperIPKcEP11Il2CppClassEES5_N6il2cpp5utils11StringUtils12StringHasherIS4_EEN14dense_hash_mapIS5_S8_SE_NS5_14EqualsComparerINSB_13VmStringUtils21CaseSensitiveComparerEEENS0_9allocatorIS9_EEE9SelectKeyESJ_SL_E4sizeEv
iEa:__Z24MergeTransformComponentsR9TransformS0_b
Cfk:__ZL98DebugLogHandler_t865810509_CustomAttributesCacheGenerator_DebugLogHandler_Internal_Log_m3333167788P21CustomAttributesCache
Mvj:__ZN6il2cpp2gc16GarbageCollector10StartWorldEv
EFh:_DelegatePInvokeWrapper_AudioConfigurationChangeHandler_t3743753033
Bve:_MonoIO_get_PathSeparator_m2635828107
Ezf:_TypeInfo_get_TypeName_m1722081275
Q0g:_InternalEnumerator_1_get_Current_m889125315_gshared
KAe:_MonoType_get_Name_m865859211
NUd:_CultureInfo__cctor_m2290268677
LSg:_ArrayReadOnlyList_1_System_Collections_IEnumerable_GetEnumerator_m3039869667_gshared
Xnk:__ZL87AudioSource_t1135106623_CustomAttributesCacheGenerator_AudioSource_set_mute_m2903354555P21CustomAttributesCache
Y6c:_String_Trim_m3982520224
Gyf:_RemotingConfiguration__cctor_m2129988840
uVe:_Collection_1_Insert_m44548038_gshared
G1g:_InternalEnumerator_1_MoveNext_m4175772187_AdjustorThunk
nWi:__ZNK6il2cpp8metadata19SZArrayClassCompareclEPK11Il2CppClassS4_
Uok:__ZL87GUIUtility_t3275770671_CustomAttributesCacheGenerator_U3CguiIsExitingU3Ek__BackingFieldP21CustomAttributesCache
kWh:__ZNKSt3__26vectorIN6il2cpp2vm17TypeNameParseInfoENS_9allocatorIS3_EEE5beginEv
gAj:__ZN6il2cpp2vm13ComObjectBase19GetRuntimeClassNameEPP15Il2CppHString__
oAb:__Z35Transfer_Blittable_FixedBufferFieldI18StreamedBinaryReadILb0EEyEvRK29SerializationCommandArgumentsR31RuntimeSerializationCommandInfo
Oj:_emscripten_glVertexAttribPointer
gPk:__ZNSt11logic_errorD0Ev
_La:__ZNK20IntermediateRenderer12GetSceneMaskEv
_8a:__ZN14PreloadManager26UpdatePreloadingSingleStepENS_21UpdatePreloadingFlagsEi
h1c:_SHA512Managed_Initialize_m891287980
W3c:_SecurityException__ctor_m1484114982
V7g:_SinkProviderData_get_Children_m100594762
Rjh:_X509Crl_GetHashName_m183504634
eud:_Array_GetValue_m1507415734
ohc:__Z57Register_UnityEngine_RectTransform_INTERNAL_set_anchorMinv
fle:_Object_MemberwiseClone_m2655589444
vFj:_GC_cond_register_dynamic_libraries
k0e:_ReadOnlyCollection_1_System_Collections_IList_get_Item_m375043207_gshared
Xja:__ZN6prcoreL25inner_stretch_i8_bilinearEPKNS_9InnerInfoE
qbb:__ZL30RegisterFilteredObjectCallbackPP12Il2CppObjectiPv
ete:_DirectoryInfo_ToString_m4208086799
bUi:__ZNSt3__24pairIK10KeyWrapperINS0_IP11Il2CppClassjEEES3_EC2IRS6_S3_vEEOT_OT0_
X0f:_MonoMethod_get_IsGenericMethod_m4276550811
NGg:_Transform_1_BeginInvoke_m3826027984_gshared
PR:__ZN11UnityEngine15CloudWebService16SessionContainer24GetSessionHeaderJsonDataERKN4core12basic_stringIcNS2_20StringStorageDefaultIcEEEERNS2_13StringBuilderE
bJd:_Decimal_op_Implicit_m2149927308
d4:__ZN13RuntimeStaticI21AssetReferenceStorageLb0EE13StaticDestroyEPv
Q7i:__ZN6il2cpp5utils13dynamic_arrayIP12Il2CppObjectLj4EE10deallocateEPS3_
wqj:__ZN6il2cpp6icalls8mscorlib6System9AppDomain22InternalGetProcessGuidEP12Il2CppString
pFc:_cf2_builder_moveTo
Kee:_KeyPairPersistence_get_UseMachineKeyStore_m560802076
ySe:_Collection_1_CopyTo_m1840908033_gshared
c4g:_Enumerator_System_Collections_IDictionaryEnumerator_get_Entry_m345330700_AdjustorThunk
nAa:__ZNK17FileSystemHandler10IsReadOnlyERK13FileEntryData
Rki:__ZNSt3__214__split_bufferIP9FieldInfoRNS_9allocatorIS2_EEEC2EjjS5_
j9c:_AbstractEventData__ctor_m3586111519
etb:__Z18Transfer_BlittableI24GenerateTypeTreeTransferLb1EjEvRK29SerializationCommandArgumentsR31RuntimeSerializationCommandInfo
Ujk:__ZL118AttributeHelperEngine_t958797062_CustomAttributesCacheGenerator_AttributeHelperEngine_GetRequiredComponents_m586474250P21CustomAttributesCache
o9e:_MD2Managed_Padding_m410163267
EKi:__ZNK15dense_hashtableINSt3__24pairIK10KeyWrapperINS1_IPK11Il2CppImageP11Il2CppClassEEEjEES9_17ReflectionMapHashIS8_EN14dense_hash_mapIS9_jSD_NS9_14EqualsComparerINS0_8equal_toIS8_EEEENS0_9allocatorISB_EEE9SelectKeyESI_SK_E10test_emptyERK30dense_hashtable_const_iteratorISB_S9_SD_SM_SI_SK_E
uDg:_Toggle_UnityEngine_UI_ICanvasElement_get_transform_m4177274032
TLa:__ZN11ColorRGBA328TransferI14SafeBinaryReadEEvRT_
aBi:__ZNSt3__216allocator_traitsINS_9allocatorINS_12basic_stringIcNS_11char_traitsIcEENS1_IcEEEEEEE8max_sizeERKS7_
_4i:__ZNSt3__2eqIPK20Il2CppStackFrameInfoS3_EEbRKNS_11__wrap_iterIT_EERKNS4_IT0_EE
gFg:_Enumerator_Dispose_m401572848_AdjustorThunk
fTj:__ZNSt3__26__treeINS_12__value_typeIPFvvEPK10MethodInfoEENS_19__map_value_compareIS3_S7_NS_4lessIS3_EELb1EEENS_9allocatorIS7_EEE28__emplace_unique_extract_keyINS_4pairIS3_S6_EEEENSG_INS_15__tree_iteratorIS7_PNS_11__tree_nodeIS7_PvEEiEEbEEOT_NS_23__extract_key_first_tagE
Jf:_emscripten_glClearDepth
I5b:__ZNK8GUILayer22GetTypeVirtualInternalEv
sUa:__ZN8Playable12SetPlayStateE9PlayState
wQh:__ZNSt3__24swapIbEENS_9enable_ifIXaasr21is_move_constructibleIT_EE5valuesr18is_move_assignableIS2_EE5valueEvE4typeERS2_S5_
o_a:__ZN14SafeBinaryRead21TransferSTLStyleArrayINSt3__26vectorIN15QualitySettings14QualitySettingENS1_9allocatorIS4_EEEEEEvRT_17TransferMetaFlags
v6d:_Array_swap_TisVector2_t2243707579_m3359959735_gshared
tte:_File_OpenText_m4058508963
FOh:__ZL6sub128yyyyPyS_
X5a:__ZNSt3__26vectorINS_4pairIPKN5Unity4TypeE7Hash128EENS_9allocatorIS7_EEE8__appendEj
Fzf:_WellKnownClientTypeEntry__ctor_m670594074
tuk:__ZL61FontData_t2614388407_CustomAttributesCacheGenerator_m_MinSizeP21CustomAttributesCache
kJh:__ZL25UnresolvedVirtualCall_184P12Il2CppObject19DateTime_t693205669S1_PK10MethodInfo
tMd:_DateTime_System_IConvertible_ToSingle_m3927769066_AdjustorThunk
RGc:_cff_font_load
Vgf:_RecordProtocol_SendRecord_m2977889250
abc:__Z13IsPathCreatedRKN4core12basic_stringIcNS_20StringStorageDefaultIcEEEE
Cja:__ZL22stbir__encode_scanlineP11stbir__infoiPvPfiii
mag:__Z136RuntimeInvoker_Void_t1841601450_Byte_t3683104436_RuntimeObject_Int64U26_t763825331_ObjectU26_t597476745_SerializationInfoU26_t4051840202PFvvEPK10MethodInfoPvPS4_
Uvc:__ZN20QuadTreeNodeRenderer13StaticDestroyEPv
LS:__ZN11UnityEngine15CloudWebService20WebRequestRestClient5AbortEv
zXd:_Array_InternalArray__ICollection_Remove_TisUInt32_t2149682021_m4198326168_gshared
P1b:__ZN9Transform12CleanupClassEv
T4f:__Z50RuntimeInvoker_Void_t1841601450_Double_t4078015681PFvvEPK10MethodInfoPvPS4_
zvh:_GUILayoutGroup_CalcWidth_m877887811
Ucf:_ClientContext_set_ClientHelloProtocol_m2246603449
$ph:_Texture_Internal_GetHeight_m3235768354
aha:__ZNSt3__26vectorIN9GfxDevice14SubPassActionsENS_9allocatorIS2_EEE26__swap_out_circular_bufferERNS_14__split_bufferIS2_RS4_EE
Ard:_U3CMouseDragOutsideRectU3Ec__Iterator1_MoveNext_m2845491958
Eeb:__ZNSt3__26vectorIN9ShaderLab19SerializedSubShaderENS_9allocatorIS2_EEE26__swap_out_circular_bufferERNS_14__split_bufferIS2_RS4_EE
Mz:__ZN11UnityEngine9Animation33SetGenericTransformPropertyValuesERKNS0_30AnimatorGenericBindingConstantERKN7mecanim10ValueArrayEP9Transformy
ubi:__ZNSt3__213__vector_baseI6pollfdNS_9allocatorIS1_EEE17__destruct_at_endEPS1_
v6f:__Z116RuntimeInvoker_RuntimeObject_RuntimeObject_Int32_t2071877448_RuntimeObject_RuntimeObject_RuntimeObject_RuntimeObjectPFvvEPK10MethodInfoPvPS4_
oed:_StandaloneInputModule_IsModuleSupported_m623598506
JZi:__ZN6il2cpp2vmL24thread_cleanup_on_cancelEPv
ySj:__ZNSt3__228__libcpp_compressed_pair_impINS_15__tree_end_nodeIPNS_16__tree_node_baseIPvEEEENS_9allocatorINS_11__tree_nodeINS_12__value_typeIPFvvEPK10MethodInfoEES3_EEEELj2EE5firstEv
g7h:__ZNSt3__210unique_ptrINS_11__tree_nodeINS_12__value_typeIP11Il2CppClassS4_EEPvEENS_22__tree_node_destructorINS_9allocatorIS7_EEEEE5resetEPS7_
P4g:_ResourceReader_Close_m3256966401
zDf:_SByte_ToString_m4105923225_AdjustorThunk
LBf:_StreamingContext_t1417235061_marshal_pinvoke_cleanup
RUd:_CultureInfo_ConstructCurrentUICulture_m3363349599
BQf:_UInt64_CompareTo_m2422461804_AdjustorThunk
HAh:_ListPool_1_Release_m1119005941_gshared
bMj:__ZNSt3__212__tuple_leafILj0EONS_12basic_stringIcNS_11char_traitsIcEENS_9allocatorIcEEEELb0EEC2IS6_vEEOT_
hAe:_MonoType_GetEvent_m4160342003
hwg:_RawImage_set_texture_m2400157626
SDh:_PrimeHelper_ToPrime_m1606935350_gshared
oMa:__Z30ProcessDynamicBatchGeometryJobP25DynamicVBOGeometryJobDataj
ZQg:_EqualityComparer_1__ctor_m81618677_gshared
nNb:__ZNSt3__27__sort4IRNS_6__lessI11CulledLightS2_EEPS2_EEjT0_S6_S6_S6_T_
Ewi:__ZN6il2cpp2vm14TypeNameParser26ParseArrayModifierOptionalEv
X9d:_MSCompatUnicodeTable_Level3_m260824928
bsd:_LayoutElement_OnEnable_m3478706401
Z$:__Z26scripting_object_get_class18ScriptingObjectPtr
K6e:_Func_3__ctor_m3917225629_gshared
E8a:__ZNSt3__26vectorIN4core12basic_stringIcNS1_20StringStorageDefaultIcEEEE13stl_allocatorIS5_L18MemLabelIdentifier13ELi16EEE7reserveEj
kOh:_RectTransformUtility_GetTransposed_m1233793627
n1b:__ZNK28MonoBehaviourPropertyBinding15GenerateBindingERKN4core12basic_stringIcNS0_20StringStorageDefaultIcEEEEbRN11UnityEngine9Animation14GenericBindingE
Pne:_Int32_FindExponent_m3187554672
Wee:_KeyPairPersistence_Load_m1355205585
Nyg:_ScrollRect_get_horizontalScrollbarVisibility_m4152068235
Zpe:_Int32_ToString_m2960866144_AdjustorThunk
mnj:__ZNSt3__29addressofINS_12__value_typeIjN6il2cpp2os17SocketHandleEntryEEEEEPT_RS6_
cLh:_Predicate_1_Invoke_m3539717340_gshared
R5c:_Single_CompareTo_m2081476257_AdjustorThunk
bFh:_AudioExtensionManager_AddSpatializerExtension_m1881494443
KJj:__ZNSt3__29allocatorINS_11__list_nodeIPN6il2cpp5utils10MemoryPool6RegionEPvEEEC2Ev
lvj:__ZN6il2cpp6icalls8mscorlib6System11Environment15internalGetHomeEv
PXi:__ZNSt3__27forwardIN6il2cpp8metadata18GenericArrayMethodEEEOT_RNS_16remove_referenceIS4_E4typeE
gnj:__ZNSt3__23mapIjN6il2cpp2os17SocketHandleEntryENS_4lessIjEENS_9allocatorINS_4pairIKjS3_EEEEE3endEv
Lua:__ZNK5Unity9Component7GetNameEv
Rpi:__ZNSt3__214__split_bufferIN6il2cpp6icalls8mscorlib6System12PropertyPairERNS_9allocatorIS5_EEEC2EjjS8_
Z9j:__ZL79Convert_t2607082565_CustomAttributesCacheGenerator_Convert_ToUInt16_m2130758075P21CustomAttributesCache
sBf:__ZN21InterfaceFuncInvoker4IP12Il2CppObjectS1_P28SerializationInfo_t22898743028StreamingContext_t1417235061S1_E6InvokeEjP11Il2CppClassS1_S1_S3_S4_S1_
Vak:__ZL58IFormatProvider_t2849799027_CustomAttributesCacheGeneratorP21CustomAttributesCache
aqg:__Z75RuntimeInvoker_Void_t1841601450_Int32_t2071877448_KeyValuePair_2_t888819835PFvvEPK10MethodInfoPvPS4_
PAh:_ObjectPool_1_Get_m3724675538_gshared
hmk:__ZL112PlayerConnection_t3517219175_CustomAttributesCacheGenerator_PlayerConnection_MessageCallbackInternal_m2033215037P21CustomAttributesCache
EXi:__ZNSt3__214__split_bufferIN6il2cpp8metadata18GenericArrayMethodERNS_9allocatorIS3_EEE9__end_capEv
S_a:__ZN13ScreenManagerD0Ev
lDj:__ZN6il2cpp6icalls8mscorlib6System11DiagnosticsL39IsCalledFromSystemDiagnosticsStackTraceERKNSt3__26vectorI20Il2CppStackFrameInfoNS4_9allocatorIS6_EEEE
_A:__ZN7mecanim8skeleton26SkeletonPoseComputeGlobalQEPKNS0_8SkeletonEPKNS0_13SkeletonPoseTIN4math4trsXEEEPS7_ii
yCj:__ZNKSt3__29allocatorIPK14Il2CppAssemblyE8max_sizeEv
TTc:__ZN18UnityConnectClient19RegisterVRCallbacksEv
WKe:_List_1_GetEnumerator_m2672519407_gshared
S_b:__ZN10BootConfig4Data3SetEPKcjS2_j
AA:__ZN9BlobWrite8TransferI22OffsetPtrArrayTransferIiEEEvRT_PKc17TransferMetaFlags
Bag:__Z82RuntimeInvoker_Boolean_t3825574718_SByte_t454417549_RuntimeObject_SByte_t454417549PFvvEPK10MethodInfoPvPS4_
H9d:_ContractionComparer_Compare_m314873025
srb:__Z18Transfer_BlittableI17RemapPPtrTransferLb1EjEvRK29SerializationCommandArgumentsR31RuntimeSerializationCommandInfo
pqe:_Int64_System_IConvertible_ToDouble_m638786774
EJ:__ZN4FMOD6System7releaseEv
LEd:_HashKeys_get_IsSynchronized_m4207641174
cvb:__Z18Transfer_BlittableI19StreamedBinaryWriteILb0EELb1E8BitFieldEvRK29SerializationCommandArgumentsR31RuntimeSerializationCommandInfo
IJi:__ZN15dense_hashtableINSt3__24pairIK10KeyWrapperINS1_IPK10MethodInfoP11Il2CppClassEEEjEES9_17ReflectionMapHashIS8_EN14dense_hash_mapIS9_jSD_NS9_14EqualsComparerINS0_8equal_toIS8_EEEENS0_9allocatorISB_EEE9SelectKeyESI_SK_E21fill_range_with_emptyEPSB_SO_
l2:__Z18PathToAbsolutePathRKN4core12basic_stringIcNS_20StringStorageDefaultIcEEEE
zeg:__Z44RuntimeInvoker_HashAlgorithmType_t1654661965PFvvEPK10MethodInfoPvPS4_
kXi:__ZNSt3__26vectorIN6il2cpp8metadata18GenericArrayMethodENS_9allocatorIS3_EEE24__RAII_IncreaseAnnotator6__doneEv
qDe:_Enumerator_MoveNext_m3078170540_AdjustorThunk
L1c:_SymmetricAlgorithm_get_Padding_m718051685
XHj:__ZN6il2cpp6icalls8mscorlib6System10Reflection16MonoPropertyInfo16GetTypeModifiersEPvb
pBh:_Action_Invoke_m3801112262
d5f:__Z79RuntimeInvoker_Decimal_t724701077_RuntimeObject_Int32_t2071877448_RuntimeObjectPFvvEPK10MethodInfoPvPS4_
eja:__ZL13BlitImageImplR14ImageReferenceiiRKS_NS_10ColorSpaceENS_8BlitModeEb
_6b:__ZN15DirectorManager17AcquireOutputNodeEv
$4i:__ZNKSt3__211__wrap_iterIPK20Il2CppStackFrameInfoE4baseEv
LDb:__ZN10MonoScript23VirtualRedirectTransferER17RemapPPtrTransfer
W8j:__ZL76Convert_t2607082565_CustomAttributesCacheGenerator_Convert_ToChar_m541258017P21CustomAttributesCache
t4f:__Z64RuntimeInvoker_RuntimeObject_Int16_t4041245914_Int16_t4041245914PFvvEPK10MethodInfoPvPS4_
Fra:__ZN16GeometryJobTasks20ScheduleGeometryJobsER9GfxDevicePFvP15GeometryJobDataEPK22GeometryJobInstructionjb
KH:__ZN12AudioManager29ShutdownReinitializeAndReloadEv
shh:_NetscapeCertTypeExtension_Decode_m2210025005
tmg:__Z56RuntimeInvoker_Void_t1841601450_KeyValuePair_2_t38854645PFvvEPK10MethodInfoPvPS4_
$rj:__ZNKSt3__26vectorIN6il2cpp2os10ThreadImpl10APCRequestENS_9allocatorIS4_EEE31__annotate_contiguous_containerEPKvS9_S9_S9_
Ozf:_BaseFixupRecord_DoFixup_m1821597450
LRh:__ZN15dense_hashtableINSt3__24pairIK10KeyWrapperIPK22Il2CppGenericParameterEP11Il2CppClassEES6_N6il2cpp5utils11PointerHashIS4_EEN14dense_hash_mapIS6_S9_SE_NS6_14EqualsComparerINS0_8equal_toIS5_EEEENS0_9allocatorISA_EEE9SelectKeyESJ_SL_E6insertERKSA_
xte:_FileLoadException__ctor_m1356374414
zxh:_InvokableCall_4_Invoke_m1140294390_gshared
Zbf:_TlsStream_Reset_m1504601050
hNj:__ZNSt3__210unique_ptrINS_11__tree_nodeINS_12__value_typeIPvxEES3_EENS_22__tree_node_destructorINS_9allocatorIS5_EEEEE5resetEPS5_
aGe:__ZN23InterfaceActionInvoker2IP23Int32U5BU5D_t3030399641iE6InvokeEjP11Il2CppClassP12Il2CppObjectS1_i
xga:__ZN14DataBufferGLES16RecreateWithDataEjPKv
gva:__Z29GetGlobalAllowNameConversionsv
z3h:__ZNSt3__23getILj0EK10KeyWrapperIN6il2cpp5utils13dynamic_arrayIPK10Il2CppTypeLj4EEEEPFvvEEERNS_13tuple_elementIXT_ENS_4pairIT0_T1_EEE4typeERSH_
vWk:_emscripten_glBlendFunc__wrapper
rXb:__ZN8Material8SetColorEN9ShaderLab16FastPropertyNameERK10ColorRGBAf
k$f:_Module_GetCustomAttributes_m3581287913
yYj:__ZL67Type_t_CustomAttributesCacheGenerator_Type_IsSubclassOf_m2450899481P21CustomAttributesCache
tL:__ZN11AudioSource23VirtualRedirectTransferER18StreamedBinaryReadILb0EE
g4:__ZN21AssetReferenceStorageC2Ev
Jvb:__ZN10RectOffset8TransferI19StreamedBinaryWriteILb0EEEEvRT_
YRj:__ZNSt3__228__libcpp_compressed_pair_impIPNS_12basic_stringIDsNS_11char_traitsIDsEENS_9allocatorIDsEEEENS4_IS6_EELj2EE5firstEv
M_:__ZL41AssemblyNameMatchesWithOrWithoutExtensionPKcS0_
aog:__Z53RuntimeInvoker_Boolean_t3825574718_Color32_t874517518PFvvEPK10MethodInfoPvPS4_
kMi:__ZNK10KeyWrapperINSt3__24pairIPK12PropertyInfoP11Il2CppClassEEE8isNormalEv
dUh:__ZNSt3__213__vector_baseIPK10Il2CppTypeNS_9allocatorIS3_EEE17__destruct_at_endEPS3_
Boa:__ZN14GfxContextGLES43AddRenderSurfaceToDeferredFBOInvalidateListEPK17RenderSurfaceGLES
D3i:__ZN6il2cpp6icalls8mscorlib6System9Threading6Thread15Thread_internalEP12Il2CppThreadP14Il2CppDelegate
hxa:__ZN11NamedObject23VirtualRedirectTransferER14SafeBinaryRead
zXj:__ZL74RuntimeArray_CustomAttributesCacheGenerator_Array_BinarySearch_m3522310993P21CustomAttributesCache
hFh:_AudioListener_GetNumExtensionProperties_m2652400521
dzc:__ZNSt3__26vectorIN20TextRenderingPrivate8FontImpl13CharacterInfoE13stl_allocatorIS3_L18MemLabelIdentifier1ELi16EEE6insertENS_11__wrap_iterIPKS3_EERS9_
bya:__ZN23PreloadManagerOperation6IsDoneEv
PYh:__ZNSt3__24moveIRN10KeyWrapperIPKcE14EqualsComparerIN6il2cpp5utils13VmStringUtils21CaseSensitiveComparerEEEEEONS_16remove_referenceIT_E4typeEOSD_
Bie:_X509Certificate_get_RawData_m3000055075
oUh:__ZNSt3__26vectorIPK10Il2CppTypeNS_9allocatorIS3_EEE21__push_back_slow_pathIRKS3_EEvOT_
P7b:__Z33GetHasChangedDeprecatedSystemMaskv
uzj:__ZN6il2cpp5utils11StringUtils11Utf16ToUtf8ERKNSt3__212basic_stringIDsNS2_11char_traitsIDsEENS2_9allocatorIDsEEEE
Qrg:__Z30RuntimeInvoker_Link_t865133271PFvvEPK10MethodInfoPvPS4_
HEg:_Enumerator_VerifyState_m1165543189_AdjustorThunk
fNd:_DateTime_AddSeconds_m722082155_AdjustorThunk
_Bd:_SynchronizedArrayListWrapper_CopyTo_m956887031
K2g:_Comparer_1__ctor_m1202126643_gshared
xab:__ZN21LightProbeProxyVolume18HasHardwareSupportEv
vni:__ZNSt3__26vectorIPK10MethodInfoNS_9allocatorIS3_EEEC2Ev
INh:_CanvasRenderer_set_materialCount_m1703953120
mQb:__ZN26LightProbeProxyVolumeCacheC2ER13BatchRendererR15RenderLoopStats
Sja:__ZN6prcoreL31inner_stretch_argb8888_bilinearEPKNS_9InnerInfoE
exb:__Z18Transfer_BlittableI18StreamedBinaryReadILb1EELb1E8BitFieldEvRK29SerializationCommandArgumentsR31RuntimeSerializationCommandInfo
Uek:__ZL84Behaviour_t955675639_CustomAttributesCacheGenerator_Behaviour_set_enabled_m602406666P21CustomAttributesCache
z1i:__ZNSt3__216allocator_traitsINS_9allocatorIN6il2cpp2vm22EmbeddedResourceRecordEEEE9constructIS4_JS4_EEEvRS5_PT_DpOT0_
_Ac:_UNITY_FT_Outline_Decompose
eff:_TlsClientCertificate_get_ClientCertificate_m3062440489
s3c:_StrongNamePublicKeyBlob_ToString_m3721281223
v2h:__ZNSt3__24pairIK10KeyWrapperIN6il2cpp5utils13dynamic_arrayIPK10Il2CppTypeLj4EEEEPFvvEEC2ERKSD_
TVg:_InternalEnumerator_1_get_Current_m198513457_AdjustorThunk
h_g:_InternalEnumerator_1__ctor_m1240086835_AdjustorThunk
oJa:__Z20scripting_object_new17ScriptingClassPtr
Mle:_TextInfo__ctor_m2782608694
xUh:__ZNKSt3__214__split_bufferIPK10Il2CppTypeRNS_9allocatorIS3_EEE9__end_capEv
rRe:_Queue_1_System_Collections_ICollection_CopyTo_m772787461_gshared
LFi:__ZN24dense_hashtable_iteratorINSt3__24pairIK10KeyWrapperINS1_IPK9FieldInfoP11Il2CppClassEEEjEES9_17ReflectionMapHashIS8_EN14dense_hash_mapIS9_jSD_NS9_14EqualsComparerINS0_8equal_toIS8_EEEENS0_9allocatorISB_EEE9SelectKeyESI_SK_E30advance_past_empty_and_deletedEv
Vle:_TextInfo_ToUpper_m299550697
grc:__ZN9JSONWrite8TransferI13dynamic_arrayI8BitFieldLj4EEEEvRT_PKc17TransferMetaFlags
iya:__ZN23PreloadManagerOperation21MustCompleteNextFrameEv
uld:_Graphic_OnRectTransformDimensionsChange_m1610753363
_Kd:_Convert_ToUInt16_m3265369225
P:Math_exp
Oze:_MonoEnumInfo_get_Cache_m3551569711
Ao:FUNCTION_TABLE_iiifi
$pj:__ZN6il2cpp2os5posix13PosixAutoLockD2Ev
LWd:_Array_InternalArray__ICollection_Contains_TisVector3_t2243707580_m3625701788_gshared
dpa:__ZNSt3__26vectorINS_4pairIyP17VertexDeclarationEENS_9allocatorIS4_EEE6insertENS_11__wrap_iterIPKS4_EERS9_
o2f:_TypeFilter_BeginInvoke_m2395188690
cvc:__GLOBAL__sub_I_modules_physics2d_public_0_cpp
ZXj:__ZL66RuntimeArray_CustomAttributesCacheGenerator_Array_Sort_m1999601238P21CustomAttributesCache
fRe:_Enumerator__ctor_m1424070651_AdjustorThunk
dFc:_cff_get_advances
ICb:__ZN13MonoBehaviour9SetScriptERK4PPtrI10MonoScriptE18ScriptingObjectPtr
ypi:__ZNSt3__29allocatorIN6il2cpp6icalls8mscorlib6System12PropertyPairEE7destroyEPS5_
BWd:_Array_InternalArray__ICollection_Contains_TisPlayableBinding_t2498078091_m4267109606_gshared
GAc:_UNITY_FT_Create_Class_sfnt_module_class
MCg:_Text_CalculateLayoutInputHorizontal_m1578553982
B9i:__ZNSt3__218uninitialized_copyIPNS_4pairIK10KeyWrapperIP14Il2CppIUnknownEjEES8_EET0_T_SA_S9_
OPd:_Decimal_IsZero_m3557909184_AdjustorThunk
Fzd:_Char_ToString_m1401375624
VZc:_MD5CryptoServiceProvider__cctor_m3309191799
PCa:__ZNK10FileSystem16LastErrorMessageEv
uji:__ZNKSt3__26vectorINS_4pairIPK10MethodInfoP11Il2CppClassEENS_9allocatorIS7_EEE4dataEv
ADj:__ZNK6il2cpp8metadata14Il2CppTypeLessclEPK10Il2CppTypeS4_
ZFi:__ZNSt3__29allocatorINS_4pairIK10KeyWrapperINS1_IPK9FieldInfoP11Il2CppClassEEEjEEE10deallocateEPSB_j
$tf:_InterpreterFactory_get_NamesMapping_m3186583301
Lig:__Z74RuntimeInvoker_Vector2_t2243707579_Vector2_t2243707579_Vector2_t2243707579PFvvEPK10MethodInfoPvPS4_
SEe:_Enumerator_System_Collections_IEnumerator_Reset_m3052395060_gshared
x7e:_Kernel_DwordDivMod_m3728402123
ZBb:__ZN13MonoBehaviour13AwakeFromLoadE17AwakeFromLoadMode
zDj:__ZN6il2cpp8metadataL7CompareIhEEiRKT_S4_
lrb:__ZL26Transfer_SimpleNativeClassI17RemapPPtrTransfer8GradientLb1EEvRK29SerializationCommandArgumentsR31RuntimeSerializationCommandInfo
b8b:__ZN12CachedWriter9InitWriteER15CacheWriterBase
U6b:__Z21UnsignedInt64ToStringy
wIf:_UTF7Decoder__ctor_m549434986
r0g:_InternalEnumerator_1_get_Current_m1025321669_AdjustorThunk
fIk:_Object_t1021602117_marshal_pinvoke
ATh:__ZNSt3__217__compressed_pairIPjNS_9allocatorIjEEEC2ES1_
WIj:__ZNSt3__217__compressed_pairIjNS_9allocatorINS_11__list_nodeIPN6il2cpp5utils10MemoryPool6RegionEPvEEEEE5firstEv
zjc:__Z66Register_UnityEngine_Transform_INTERNAL_CALL_InverseTransformPointv
D6:__ZZN15DirectorManager15InitializeClassEvEN41FixedUpdateDirectorFixedUpdateRegistrator7ForwardEv
kLj:__ZNKSt3__210unique_ptrINS_11__tree_nodeINS_12__value_typeINS_12basic_stringIcNS_11char_traitsIcEENS_9allocatorIcEEEEPFvvEEEPvEENS_22__tree_node_destructorINS6_ISD_EEEEE3getEv
pXg:_InternalEnumerator_1_MoveNext_m2720582493_gshared
$jh:_X509CrlEntry_get_RevocationDate_m1257876856
GFj:_GC_clear_fl_links
_jh:_X509Crl_VerifySignature_m1390212587
Vsf:_Group__ctor_m4103922028
Sgi:__ZNSt3__214__split_bufferI6pollfdRNS_9allocatorIS1_EEEC2EjjS4_
iZk:_glLinkProgram__wrapper
hjb:__ZN18ScriptingArguments8AddInt64Ex
Aka:__ZN6prcoreL12RemapGenericI17TexFormatARGB888815TexFormatBGR888EEvPKNS_9InnerInfoE
yFi:__ZN15dense_hashtableINSt3__24pairIK10KeyWrapperINS1_IPK9FieldInfoP11Il2CppClassEEEjEES9_17ReflectionMapHashIS8_EN14dense_hash_mapIS9_jSD_NS9_14EqualsComparerINS0_8equal_toIS8_EEEENS0_9allocatorISB_EEE9SelectKeyESI_SK_E13clear_deletedER30dense_hashtable_const_iteratorISB_S9_SD_SM_SI_SK_E
Ojb:__ZN12HandlerChain4LockER13FileEntryData12FileLockMode
$Zc:_MD5CryptoServiceProvider_ProcessFinalBlock_m1052610785
oCd:_BitArray_Set_m2878881714
BJh:__ZL25UnresolvedVirtualCall_201P12Il2CppObjectPK10MethodInfo
WUc:__ZN28UnityConnectScriptingClasses23CallSessionStateChangedEixxbP21ScriptingExceptionPtr
xme:_Guid_CompareTo_m2203922782_AdjustorThunk
cAg:_Selectable_get_colors_m3501193396
Saj:__ZN6il2cpp6icalls8mscorlib6System13Globalization11CultureInfo35construct_internal_locale_from_nameEP17Il2CppCultureInfoP12Il2CppString
zOh:__ZL18incMultConstant128PyS_ii
ttb:__ZL22Transfer_ManagedObjectI24GenerateTypeTreeTransferLb1EEvRK29SerializationCommandArgumentsR31RuntimeSerializationCommandInfo
Xik:__ZL72SceneManager_t90660965_CustomAttributesCacheGenerator_activeSceneChangedP21CustomAttributesCache
Ftj:__ZNSt3__26__treeINS_12basic_stringIcNS_11char_traitsIcEENS_9allocatorIcEEEENS_4lessIS6_EENS4_IS6_EEE15__insert_uniqueERKS6_
Y1j:__ZL55COMException_t1790481504_CustomAttributesCacheGeneratorP21CustomAttributesCache
rde:_ASN1_get_Count_m404940548
F9g:_ContextAttribute_Equals_m53324298
Wj:_emscripten_set_main_loop_timing
YAk:_Camera_ScreenToViewportPoint_m3458250415
LRf:_WeakReference_AllocateHandle_m1783929473
sga:__ZN14DataBufferGLES12RecordRenderEv
t5d:_Array_Sort_TisRuntimeObject_m3674422195_gshared
YWb:__ZN14ImageReference10FlipImageYEv
cBi:__ZNSt3__217__compressed_pairIPNS_12basic_stringIcNS_11char_traitsIcEENS_9allocatorIcEEEENS4_IS6_EEEC2ES7_S8_
CIa:__Z32TransferEnumWithNameForceIntSizeI14SafeBinaryRead13TargetEyeMaskEvRT_RT0_PKc17TransferMetaFlags
$lc:__Z14GetDefaultSkini
UUd:_CultureInfo_get_Name_m3316229893
wbi:__ZNSt3__216allocator_traitsINS_9allocatorI6pollfdEEE7destroyIS2_EEvRS3_PT_
XMd:_DateTime_get_Ticks_m310281298_AdjustorThunk
YE:__ZN4FMOD3DSP9setBypassEb
AZe:_Collection_1_System_Collections_IList_get_Item_m287847793_gshared
u_b:__Z19NormalizeWheelInputf
Hsf:_CaptureCollection_CopyTo_m1982767892
wZb:__Z29StdTemplateConversionFunctionIsaEbPvR14SafeBinaryRead
TWd:_Array_InternalArray__ICollection_Remove_TisLink_t865133271_m1984184141_gshared
cki:__ZN6il2cpp5utils10functional6FilterINSt3__212basic_stringIcNS3_11char_traitsIcEENS3_9allocatorIcEEEENS0_13VmStringUtils21CaseSensitiveComparerEED2Ev
Xuc:__Z29Transfer_Blittable_ArrayFieldI8JSONReadhEvRT_R9ArrayInfoRK23StaticTransferFieldInfo
Ksd:_LayoutRebuilder_IsDestroyed_m3442208294
iEg:_Enumerator_VerifyState_m1547102902_AdjustorThunk
$Tj:__ZN6il2cpp2os20ThreadLocalValueImpl8SetValueEPv
RJa:__ZN22RenderingCommandBuffer20CleanupCommandBufferEv
Oag:__Z165RuntimeInvoker_Void_t1841601450_UInt32U26_t2197289955_Int32_t2071877448_UInt32U26_t2197289955_Int32_t2071877448_Int32_t2071877448_Int32_t2071877448_Int32_t2071877448PFvvEPK10MethodInfoPvPS4_
Mqg:__Z99RuntimeInvoker_Void_t1841601450_CustomAttributeTypedArgumentU5BU5DU26_t4216645529_Int32_t2071877448PFvvEPK10MethodInfoPvPS4_
Mpc:__Z18Transfer_BlittableI9JSONWriteLb1EtEvRK29SerializationCommandArgumentsR31RuntimeSerializationCommandInfo
sTh:__ZNKSt3__29allocatorIjE8max_sizeEv
yte:_FileLoadException__ctor_m918124939
cjk:__ZL106SceneManager_t90660965_CustomAttributesCacheGenerator_SceneManager_Internal_ActiveSceneChanged_m1940652884P21CustomAttributesCache
nk:___syscall85
tMi:__ZNK24dense_hashtable_iteratorINSt3__24pairIK10KeyWrapperINS1_IPK12PropertyInfoP11Il2CppClassEEEjEES9_17ReflectionMapHashIS8_EN14dense_hash_mapIS9_jSD_NS9_14EqualsComparerINS0_8equal_toIS8_EEEENS0_9allocatorISB_EEE9SelectKeyESI_SK_EdeEv
d5i:__ZN6il2cpp5utils10StringViewIDsE5EmptyEv
d9:__ZN15dense_hashtableINSt3__24pairIKN4core12basic_stringIcNS2_20StringStorageDefaultIcEEEE13dynamic_arrayI4PPtrI6SpriteELj4EEEES6_20StringHash32FunctionIS6_EN14dense_hash_mapIS6_SC_SF_NS0_8equal_toIS6_EE13stl_allocatorISD_L18MemLabelIdentifier81ELi16EEE9SelectKeyESI_SL_E5clearEv
YKb:__ZNSt3__26__sortIRPFbP10GUIElementS2_EPS2_EEvT0_S7_T_
e8e:_SequentialSearchPrimeGeneratorBase_GenerateSearchBase_m2930465198
O5b:__ZN16GraphicsSettings12CleanupClassEv
zwj:__ZN6il2cpp2os6Thread19DetachCurrentThreadEv
uSh:__ZN6il2cpp2vmL21SetupInterfacesLockedEP11Il2CppClassRKNS_2os12FastAutoLockE
Zlb:__ZN11MonoManager23VirtualRedirectTransferER24GenerateTypeTreeTransfer
p8f:__Z102RuntimeInvoker_Int32_t2071877448_RuntimeObject_Int32_t2071877448_Int32_t2071877448_Int32U26_t455636984PFvvEPK10MethodInfoPvPS4_
VOa:__ZN19StreamedBinaryWriteILb0EE8TransferI13dynamic_arrayI8Vector3fLj4EEEEvRT_PKc17TransferMetaFlags
Jy:__ZN23AnimationPlayableOutput17SetSourcePlayableEP8Playable
vsf:_Capture__ctor_m885749277
Bod:_SubmitEvent__ctor_m222860306
LR:__ZN11UnityEngine15CloudWebService14DataDispatcher15SetupWebRequestEv
Gxe:_TextWriter__cctor_m4047845042
Okj:__ZNSt3__24pairIK10KeyWrapperIP12Il2CppObjectEN6il2cpp2gc9CachedCCWEEC2ILb1EvEEv
qhf:_ReceiveRecordAsyncResult_get_Record_m1336421357
$Rc:__ZN11UnityEngine15PlatformWrapper13GetShaderCapsEv
pIk:_Object_ToString_m2938729670
FSb:__ZNSt3__211__sift_downIR26RenderDeferredObjectSorterP16RenderObjectDataEEvT0_S5_T_NS_15iterator_traitsIS5_E15difference_typeES5_
T8j:__ZL76Convert_t2607082565_CustomAttributesCacheGenerator_Convert_ToByte_m509311047P21CustomAttributesCache
RKg:_Dictionary_2_System_Collections_Generic_IEnumerableU3CSystem_Collections_Generic_KeyValuePairU3CTKeyU2CTValueU3EU3E_GetEnumerator_m1742521661_gshared
Jig:__Z87RuntimeInvoker_Void_t1841601450_RuntimeObject_StringU26_t638738783_StringU26_t638738783PFvvEPK10MethodInfoPvPS4_
Vod:_InputField_CaretBlink_m3960486606
Zj:_emscripten_glGetProgramiv
Cqh:_TouchScreenKeyboard_set_hideInput_m962370792
ufe:_SmallXmlParser_ReadCharacters_m1966365555
$if:_InternalAsyncResult_get_CompletedWithError_m3993955322
w6b:__ZN21FixedBehaviourManager6UpdateEv
Qac:__ZN9Transform9SetParentEPS_NS_15SetParentOptionE
Hmd:_GridLayoutGroup_set_startCorner_m1660251450
YZh:__ZNSt3__24moveIRPNS_4pairIK10KeyWrapperIPK19Il2CppGenericMethodEPK26Il2CppGenericMethodIndicesEEEEONS_16remove_referenceIT_E4typeEOSF_
DHa:__ZN19ShaderPropertySheet8SetFloatEN9ShaderLab16FastPropertyNameEfNS_8SetFlagsE
hvk:__ZL68InputField_t1631627530_CustomAttributesCacheGenerator_m_AsteriskCharP21CustomAttributesCache
m9a:__ZN19RuntimeSceneManager24BeginIntegrateMainThreadEP10UnityScene
NZi:__ZNSt3__228__libcpp_compressed_pair_impIPP12Il2CppThreadN6il2cpp2gc9AllocatorIS2_EELj2EEC2ES3_
rNi:__ZNK30dense_hashtable_const_iteratorINSt3__24pairIK10KeyWrapperINS1_IPK12PropertyInfoP11Il2CppClassEEEjEES9_17ReflectionMapHashIS8_EN14dense_hash_mapIS9_jSD_NS9_14EqualsComparerINS0_8equal_toIS8_EEEENS0_9allocatorISB_EEE9SelectKeyESI_SK_EptEv
ptj:__ZNSt3__2plIcNS_11char_traitsIcEENS_9allocatorIcEEEENS_12basic_stringIT_T0_T1_EERKS9_S6_
xye:_LocalDataStoreSlot__cctor_m1192669356
heb:__ZN9ShaderLab20SerializedSubProgramaSERKS0_
RPk:_roundf
p8c:_String_CreateString_m2556700934
rFa:__ZN18StreamedBinaryReadILb0EE21TransferSTLStyleArrayINSt3__26vectorI17SortingLayerEntryNS2_9allocatorIS4_EEEEEEvRT_17TransferMetaFlags
Aqi:__ZNKSt3__217__compressed_pairIPN6il2cpp6icalls8mscorlib6System12PropertyPairENS_9allocatorIS5_EEE6secondEv
AJj:__ZNSt3__217__compressed_pairIPNS_11__list_nodeIPN6il2cpp5utils10MemoryPool6RegionEPvEENS_22__allocator_destructorINS_9allocatorIS8_EEEEEC2ES9_SD_
iAg:_Selectable_get_targetGraphic_m137842753
ns:__ZN8Animator15SetPrepareStageEv
xBg:_Slider_get_axis_m162140813
Y$f:_MonoEventInfo_t2190036573_marshal_pinvoke
vSh:__ZN6il2cpp2vmL24SetupTypeHierarchyLockedEP11Il2CppClassRKNS_2os12FastAutoLockE
KYh:__ZNSt3__24swapIPNS_4pairIK10KeyWrapperIPKcEP11Il2CppClassEEEENS_9enable_ifIXaasr21is_move_constructibleIT_EE5valuesr18is_move_assignableISC_EE5valueEvE4typeERSC_SF_
Fni:__ZNKSt3__213__vector_baseIPK10MethodInfoNS_9allocatorIS3_EEE9__end_capEv
C_b:__ZL11TextHandleriPK23EmscriptenKeyboardEventPv
Vsd:_LayoutRebuilder_U3Cs_RebuildersU3Em__0_m3768099182
Vzg:_ScrollRect_SetLayoutHorizontal_m3486408020
Dyc:_destroy_face
rzj:__ZNSt3__220back_insert_iteratorINS_12basic_stringIcNS_11char_traitsIcEENS_9allocatorIcEEEEEaSEOc
cGk:_Material_SetIntImpl_m1039479734
RDg:_Enumerator_VerifyState_m1547102902_gshared
F$j:__ZL55StreamWriter_t3858580635_CustomAttributesCacheGeneratorP21CustomAttributesCache
nvc:__ZN5physx19PxAllocatorCallbackD2Ev
oIj:__ZN6il2cpp6icalls8mscorlib6System8Security12Cryptography24RNGCryptoServiceProvider13RngInitializeEP11Il2CppArray
qOe:_List_1_System_Collections_ICollection_get_IsSynchronized_m227393674_gshared
Fmf:_IPAddress__cctor_m3624830012
CL:__ZN20SoundChannelInstance7setMuteEb
GPa:__ZN4PPtrI5LightE8TransferI19StreamedBinaryWriteILb0EEEEvRT_
pof:_AsnEncodedData_EnhancedKeyUsageExtension_m1452131166
Xki:__ZNKSt3__214__split_bufferIP9FieldInfoRNS_9allocatorIS2_EEE8capacityEv
aGj:_set_bits
dyb:__Z19TransferField_ArrayI18StreamedBinaryReadILb1EE27Converter_SimpleNativeClassI17AnimationCurveTplIfEEEvRK23StaticTransferFieldInfoR31RuntimeSerializationCommandInfoRT0_
lph:_SendMouseEvents__cctor_m1448404407
jij:__ZNSt3__2eqIPN6il2cpp2vm5Image20EmbeddedResourceDataES5_EEbRKNS_11__wrap_iterIT_EERKNS6_IT0_EE
atf:_GroupCollection_get_IsSynchronized_m1100663675
gha:__ZN18GfxFramebufferGLES22MakeCurrentFramebufferENS_7BuiltinE
cIj:__ZN6il2cpp2vm12MarshalAlloc4FreeEPv
Btf:_Interpreter_Close_m1500459069
rk:_JS_SystemInfo_GetWidth
N7i:__ZN6il2cpp5utils13dynamic_arrayIP12Il2CppObjectLj4EE8allocateEj
SNj:__ZNSt3__212__tuple_leafILj0ERKPvLb0EEC2IS3_vEEOT_
iDa:__ZN12CachedReader4ReadEPvj
mJi:__ZNSt3__24swapIN10KeyWrapperINS_4pairIPK10MethodInfoP11Il2CppClassEEE14EqualsComparerINS_8equal_toIS8_EEEEEENS_9enable_ifIXaasr21is_move_constructibleIT_EE5valuesr18is_move_assignableISF_EE5valueEvE4typeERSF_SI_
uPj:__ZNSt3__228__libcpp_compressed_pair_impIjNS_4lessIPFvvEEELj2EE5firstEv
yFc:_cf2_blues_init
XVg:_InternalEnumerator_1_System_Collections_IEnumerator_get_Current_m3600601141_gshared
x0c:_SHA1Internal_HashFinal_m3188468925
kzd:_Char_GetHashCode_m2343577184
nPb:__Z24CalculateLightShadowFadeRK6CamerafffR8Vector4f
S_:__ZN19RuntimeSceneManagerD2Ev
Vbk:__ZL55HeaderHandler_t324204131_CustomAttributesCacheGeneratorP21CustomAttributesCache
q7g:_ChannelData_get_CustomProperties_m1470957369
Thk:__ZL99Material_t193706927_CustomAttributesCacheGenerator_Material_Internal_CreateWithMaterial_m1941547384P21CustomAttributesCache
tfj:__ZNK6il2cpp2vm17TypeNameParseInfo2nsEv
F6d:_Dictionary_2_Do_ICollectionCopyTo_TisRuntimeObject_m545661084_gshared
Loj:__ZNSt3__213__vector_baseI20Il2CppStackFrameInfoNS_9allocatorIS1_EEE7__allocEv
$S:__ZN11UnityEngine15CloudWebService25WebRequestDownloadHandler17OnCompleteContentEv
Rja:__ZN6prcore17GetIntegerBlitterE13TextureFormatS0_N14ImageReference8BlitModeE
$Ji:__ZN6il2cpp2gc19AppendOnlyGCHashMapINSt3__24pairIPK11Il2CppImageP11Il2CppClassEEP22Il2CppReflectionModule17ReflectionMapHashIS9_ENS2_8equal_toIS9_EEE11TryGetValueERKS9_PSB_
eFg:_Enumerator_VerifyState_m3173176371_AdjustorThunk
vsk:__ZL109PointerEventData_t1599784723_CustomAttributesCacheGenerator_PointerEventData_get_eligibleForClick_m2497780621P21CustomAttributesCache
Nlf:_TypeConverterAttribute__cctor_m506796812
FFf:_Encoding_get_IsReadOnly_m3729101432
Qcc:__ZN9BlobWrite14ReduceCopyImplERK14ReduceCopyDataj
wY:__ZNSt3__26__treeI19RepeatingLogMessageNS_4lessIS1_EE13stl_allocatorIS1_L18MemLabelIdentifier73ELi16EEE12__find_equalIS1_EERPNS_16__tree_node_baseIPvEESD_RKT_
hP:__ZN11AudioSource18IsPlayingScriptingEv
fRf:_ValueType_t3507792607_marshal_pinvoke_back
Q2g:_Comparer_1_System_Collections_IComparer_Compare_m1790257529_gshared
Xog:__Z55RuntimeInvoker_Int32_t2071877448_ILTokenInfo_t149559338PFvvEPK10MethodInfoPvPS4_
e$f:_MethodInfo_get_ContainsGenericParameters_m572340060
Qzg:_ScrollRect_get_flexibleWidth_m3410614750
nUk:_glShaderSource__wrapper
qBa:__ZN25MultiBlocksMemoryFileData17AdjustBlocksCountEj
G1i:__ZNSt3__214__split_bufferIN6il2cpp2vm22EmbeddedResourceRecordERNS_9allocatorIS3_EEED2Ev
$cf:_TlsClientHello__ctor_m1699671541
Jwc:__ZN13TextRendering4Font8TransferI24GenerateTypeTreeTransferEEvRT_
RJi:__ZNKSt3__29allocatorINS_4pairIK10KeyWrapperINS1_IPK10MethodInfoP11Il2CppClassEEEjEEE8max_sizeEv
_8g:_Context_NotifyGlobalDynamicSinks_m2916447645
hec:__Z27CullingGroup_CUSTOM_DisposeP12Il2CppObject
tVc:__ZNSt3__26vectorIP19BaseConnectSettings13stl_allocatorIS2_L18MemLabelIdentifier6ELi16EEE21__push_back_slow_pathIKS2_EEvRT_
jig:__Z69RuntimeInvoker_Color_t2020392075_Color_t2020392075_Single_t2076509932PFvvEPK10MethodInfoPvPS4_
gKb:__ZN13ComputeShader15SetTextureParamEjRKN9ShaderLab16FastPropertyNameE9TextureID16TextureDimension
OAg:_Shadow_set_effectDistance_m1951993364
IMg:_Dictionary_2_ContainsKey_m416495915_gshared
UWe:_Collection_1_Remove_m1798559666_gshared
xm:_glStencilMask
abg:__Z70RuntimeInvoker_Boolean_t3825574718_Int16_t4041245914_Int32_t2071877448PFvvEPK10MethodInfoPvPS4_
Qsj:__ZN6il2cpp2os10ThreadImpl16GetCurrentThreadEv
qmj:__ZNK30dense_hashtable_const_iteratorINSt3__24pairIK10KeyWrapperIP12Il2CppObjectEN6il2cpp2gc9CachedCCWEEES5_NS7_5utils11PointerHashIS3_EEN14dense_hash_mapIS5_S9_SD_NS5_14EqualsComparerINS0_8equal_toIS4_EEEENS0_9allocatorISA_EEE9SelectKeyESI_SK_EeqERKSN_
UDd:_Hashtable__ctor_m2337481811
LEg:_Enumerator_System_Collections_IEnumerator_get_Current_m2010873149_gshared
pjd:_Resources_t2975512894_marshal_pinvoke_cleanup
DYj:__ZL88Type_t_CustomAttributesCacheGenerator_Type_MakeGenericType_m2765875033____typeArguments0P21CustomAttributesCache
hxk:__ZL74SpriteState_t1353336012_CustomAttributesCacheGenerator_m_HighlightedSpriteP21CustomAttributesCache
nyf:_RealProxy__ctor_m2505535530
Kii:__ZNSt3__29allocatorINS_4pairIPK10MethodInfoP11Il2CppClassEEE10deallocateEPS7_j
zPf:_UInt32_System_IConvertible_ToUInt16_m2798641702_AdjustorThunk
lAf:_BinaryFormatter_get_DefaultSurrogateSelector_m219714691
ev:__ZN21AnimationPosePlayableD0Ev
zB:__ZN12_GLOBAL__N_121ProcessAnimationBeginER35AnimationPlayableEvaluationConstantR32AnimationPlayableEvaluationInputR33AnimationPlayableEvaluationOutput
k7f:__Z136RuntimeInvoker_Void_t1841601450_Int32_t2071877448_RuntimeObject_RuntimeObject_RuntimeObject_RuntimeObject_RuntimeObject_SByte_t454417549PFvvEPK10MethodInfoPvPS4_
C9e:_MD4Managed_Encode_m2097839378
yZe:_Collection_1_System_Collections_IList_get_IsFixedSize_m3252091801_gshared
wid:_FloatTween_get_ignoreTimeScale_m4161298485_AdjustorThunk
A1f:_MonoProperty_GetOptionalCustomModifiers_m3827844355
hMk:_strrchr
p8g:__ZN21InterfaceFuncInvoker1IP8String_tS1_E6InvokeEjP11Il2CppClassP12Il2CppObjectS1_
H2i:__ZNKSt3__26vectorIcNS_9allocatorIcEEE8max_sizeEv
IWh:__ZNSt3__2plIcNS_11char_traitsIcEENS_9allocatorIcEEEENS_12basic_stringIT_T0_T1_EEPKS6_OS9_
Dae:_SimpleCollator_GetSortKey_m2188419329
$xk:__ZL56LayoutElement_t2808691390_CustomAttributesCacheGeneratorP21CustomAttributesCache
mxg:_Scrollbar_Set_m244028386
SPa:__ZN14RenderSettings27UpdateIndirectSpecularColorEv
Ktg:__Z102RuntimeInvoker_RuntimeObject_UILineInfo_t3621277874_UILineInfo_t3621277874_RuntimeObject_RuntimeObjectPFvvEPK10MethodInfoPvPS4_
V6a:__ZN14PlayerSettings8TransferI18StreamedBinaryReadILb0EEEEvRT_
C5g:_FixedBufferAttribute__ctor_m2048050068
rni:__ZN6il2cpp6icalls8mscorlib6System8MonoType16GetMethodsByNameEP20Il2CppReflectionTypeP12Il2CppStringibS5_
RFk:_Logger_Log_m302200299
a6g:_GCHandle__ctor_m2952050298
G7d:_LayoutGroup_SetProperty_TisAxis_t1431825778_m2174054513_gshared
TRj:__ZNKSt3__217__compressed_pairIPNS_12basic_stringIDsNS_11char_traitsIDsEENS_9allocatorIDsEEEENS4_IS6_EEE6secondEv
BZa:__ZN4PPtrI10GameObjectE8TransferI14SafeBinaryReadEEvRT_
Nug:_Mask_IsRaycastLocationValid_m62488857
JGb:__ZNSt3__27__sort3IRNS_4lessIN22BuiltinResourceManager8ResourceEEEPS3_EEjT0_S7_S7_T_
e2g:_DefaultComparer_Compare_m3472472212_gshared
Vrg:__Z31RuntimeInvoker_Slot_t2022531261PFvvEPK10MethodInfoPvPS4_
Wte:_MonoIO_GetLength_m2812344043
kEc:_ps_hints_t2mask
umk:__ZL68UsedByNativeCodeAttribute_t3212052468_CustomAttributesCacheGeneratorP21CustomAttributesCache
uei:__ZNSt3__26vectorIP12Il2CppThreadNS_9allocatorIS2_EEE24__RAII_IncreaseAnnotator6__doneEv
ZTi:__ZN14dense_hash_mapI10KeyWrapperINSt3__24pairIP11Il2CppClassjEEES4_N6il2cpp8metadata14ArrayClassHashENS6_14EqualsComparerINS8_17ArrayClassCompareEEENS1_9allocatorINS2_IKS6_S4_EEEEEC2EjRKS9_RKSC_
x3a:__ZN10BlendShape8TransferI19StreamedBinaryWriteILb0EEEEvRT_
CF:__Z32TransferEnumWithNameForceIntSizeI14SafeBinaryReadN10SampleClip8LoadTypeEEvRT_RT0_PKc17TransferMetaFlags
pre:__Z21il2cpp_codegen_sizeofP11Il2CppClass
Zna:__Z19GetTimeSinceStartupv
Z4c:_SecurityFrame_get_Assembly_m2816566490
Vgj:__ZNSt3__214pointer_traitsIPNS_4pairIKP24Il2CppReflectionAssemblyPvEEE10pointer_toERS6_
trj:__ZN6il2cpp2os10ThreadImpl11SetPriorityENS0_14ThreadPriorityE
GNh:_CanvasRenderer_set_hasPopInstruction_m3302400555
oJc:_TT_Load_Composite_Glyph
bfk:__ZL84Camera_t189460977_CustomAttributesCacheGenerator_Camera_get_targetTexture_m505846373P21CustomAttributesCache
WXj:__ZL66RuntimeArray_CustomAttributesCacheGenerator_Array_Sort_m2323017822P21CustomAttributesCache
Fud:_Array_Sort_m2994254654
epi:__ZNSt3__211__wrap_iterIPKN6il2cpp6icalls8mscorlib6System12PropertyPairEEC2IPS5_EERKNS0_IT_EEPNS_9enable_ifIXsr14is_convertibleISB_S7_EE5valueEvE4typeE
$Pe:_List_1__ctor_m593058937_gshared
nZd:_Array_InternalArray__IEnumerable_GetEnumerator_TisColor32_t874517518_m2198639025_gshared
vlk:__ZL86UnityEvent_1_t4075366602_CustomAttributesCacheGenerator_UnityEvent_1__ctor_m2912839213P21CustomAttributesCache
GNb:__ZN29RenderNodeQueuePrepareContextC2Ev
eO:__ZN10SampleClipC2E18MemLabelIdentifier18ObjectCreationMode
jfb:__ZN9ShaderLab20SerializedSubProgram16TextureParameter8TransferI24GenerateTypeTreeTransferEEvRT_
NSh:__ZNKSt3__228__libcpp_compressed_pair_impIPjNS_9allocatorIjEELj2EE5firstEv
yaa:__ZN9GfxDevice19SaveStereoConstantsEv
rKf:_Thread_set_Name_m1343706609
ZJj:__ZN6il2cpp2os11MutexHandle4WaitEj
Fbc:__ZL34GetComponentsImplementationRecurseILb1ELi1ELi1EEbR10GameObjectbRK17CompareParametersRK39GetComponentsImplementation_ReturnValue
YJj:__ZN6il2cpp2os11MutexHandle4WaitEv
_zd:_ArrayList_set_Capacity_m592558035
HMi:__ZNSt3__24swapIN14dense_hash_mapI10KeyWrapperINS_4pairIPK12PropertyInfoP11Il2CppClassEEEj17ReflectionMapHashIS9_ENSA_14EqualsComparerINS_8equal_toIS9_EEEENS_9allocatorINS3_IKSA_jEEEEE9SelectKeyEEENS_9enable_ifIXaasr21is_move_constructibleIT_EE5valuesr18is_move_assignableISO_EE5valueEvE4typeERSO_SR_
Kla:__ZN6prcoreL17RemapGenericFloatI15TexFormatRGHalf18TexFormatARGBFloatEEvPKNS_9InnerInfoE
L1i:__ZNKSt3__217__compressed_pairIPN6il2cpp2vm22EmbeddedResourceRecordERNS_9allocatorIS3_EEE5firstEv
Gze:_MonoEnumInfo_t2335995564_marshal_pinvoke_cleanup
p0i:__ZN6il2cpp6icalls8mscorlib6SystemL10AssignRealIfEEvNS2_17WidenedValueUnionEPv14Il2CppTypeEnumjj
YQa:__ZNK13RenderTexture13GetDataHeightEv
mFb:__Z18SimulateMouseInputi
AJb:__ZN13RenderManager23AddRemoveCamerasDelayedEv
Rqc:__ZN9JSONWrite8TransferI13dynamic_arrayIdLj8EEEEvRT_PKc17TransferMetaFlags
dya:__ZN23PreloadManagerOperation11GetPriorityEv
uTd:_Exception_get_InnerException_m3722561235
ABk:_Color_op_Multiply_m2110750533
mXd:_Array_InternalArray__ICollection_Remove_TisILTokenInfo_t149559338_m1523907845_gshared
QUg:_InternalEnumerator_1_System_Collections_IEnumerator_Reset_m138745466_AdjustorThunk
Vjg:__Z105RuntimeInvoker_Void_t1841601450_Vector2U26_t3911752445_RuntimeObject_RuntimeObject_Vector2U26_t3911752445PFvvEPK10MethodInfoPvPS4_
QMe:_List_1_GetEnumerator_m4053501645_gshared
sFi:__ZNK14dense_hash_mapI10KeyWrapperINSt3__24pairIPK9FieldInfoP11Il2CppClassEEEj17ReflectionMapHashIS8_ENS9_14EqualsComparerINS1_8equal_toIS8_EEEENS1_9allocatorINS2_IKS9_jEEEEE9SelectKeyclERKSI_
Dbi:__ZN6il2cpp2gc9AllocatorIP17Il2CppAsyncResultE10deallocateEPvj
lEd:_Hashtable_Rehash_m2877670513
Ltg:__Z98RuntimeInvoker_RuntimeObject_UIVertex_t1204258818_UIVertex_t1204258818_RuntimeObject_RuntimeObjectPFvvEPK10MethodInfoPvPS4_
JVb:__ZN13RenderTexture8SetWidthEi
Tqd:_InputField_Insert_m1593238693
B1b:__ZNK28RectTransformPropertyBinding12SetPPtrValueERKN11UnityEngine9Animation10BoundCurveEi
kzb:__Z18Transfer_BlittableI18StreamedBinaryReadILb0EELb0EfEvRK29SerializationCommandArgumentsR31RuntimeSerializationCommandInfo
J3a:__ZN10MeshFilterD0Ev
Ozc:_UNITY_FT_GlyphLoader_CheckSubGlyphs
Rci:__ZN6il2cpp2vm21ThreadPoolCompartment20SpawnNewWorkerThreadEv
x0d:_Array_InternalArray__ICollection_Add_TisCustomAttributeTypedArgument_t1498197914_m3260005285_gshared
SPb:__Z25SetupObjectBakedOcclusionbRK15SharedLightDataRK26SharedLightmapSettingsDataRK15LightmapIndicesR17ShaderPassContext
fbh:__ZN21InterfaceFuncInvoker4IP17Match_t3164245899P17Regex_t1803876613P8String_tiiE6InvokeEjP11Il2CppClassP12Il2CppObjectS3_S5_ii
Ame:_Guid_GetHashCode_m1401300871
wzi:__ZNSt3__216__to_raw_pointerINS_12basic_stringIcNS_11char_traitsIcEENS_9allocatorIcEEEEEEPT_S8_
BAh:_ListPool_1_U3Cs_ListPoolU3Em__0_m1243609651_gshared
g9i:__ZNSt3__24moveIRN6il2cpp5utils11PointerHashI14Il2CppIUnknownEEEEONS_16remove_referenceIT_E4typeEOS8_
x2i:__ZNSt3__2miIPcS1_EENS_11__wrap_iterIT_E15difference_typeERKS4_RKNS2_IT0_EE
Dkd:_FontData__ctor_m3822008992
VFh:__ZL23UnresolvedVirtualCall_5P12Il2CppObjectsPK10MethodInfo
hD:__ZN4PPtrI6AvatarE8TransferI19StreamedBinaryWriteILb0EEEEvRT_
Iyi:__ZNKSt3__211__wrap_iterIPKcEplEi
tLg:_Dictionary_2_System_Collections_IDictionary_set_Item_m115188189_gshared
HY:__ZN9ShaderLab16FastPropertyName4InitEPKc
H0b:__Z13RegisterClassIN2UI13RectTransformEEvv
Cuj:__ZNSt3__228__libcpp_compressed_pair_impINS_15__tree_end_nodeIPNS_16__tree_node_baseIPvEEEENS_9allocatorINS_11__tree_nodeINS_12basic_stringIcNS_11char_traitsIcEENS7_IcEEEES3_EEEELj2EEC2Ev
$9d:_MSCompatUnicodeTable_ToWidthCompat_m2299599532
wBe:_NumberFormatter_get_IsFloatingSource_m2830957202
w4b:__ZL31MeshRendererTransformChangedJobP13BoundsJobDatajPK23TransformAccessReadOnlyPKyj
HRc:__ZN11UnityEngine15PlatformWrapper19GetPhysicalMemoryMBEv
GZi:___cxx_global_var_init_1_13740
h0a:__ZN10VertexData8TransferI17RemapPPtrTransferEEvRT_
CQa:__ZN13RenderTexture9SetMipMapEb
kYh:__ZN15dense_hashtableINSt3__24pairIK10KeyWrapperIPK11Il2CppClassEPKcEES6_N6il2cpp5utils11PointerHashIS3_EEN14dense_hash_mapIS6_S9_SE_NS6_14EqualsComparerINS0_8equal_toIS5_EEEENS0_9allocatorISA_EEE9SelectKeyESJ_SL_E13set_empty_keyERKSA_
Vyg:_ScrollRect_set_verticalScrollbarSpacing_m2356851539
l6:__Z18GetDirectorManagerv
zli:__ZNSt3__216allocator_traitsINS_9allocatorIP9FieldInfoEEE10__max_sizeENS_17integral_constantIbLb1EEERKS4_
Coh:_ResourceRequest_t2560315377_marshal_pinvoke_back
eXh:__ZN14dense_hash_mapI10KeyWrapperIPK11Il2CppClassEPKcN6il2cpp5utils11PointerHashIS1_EENS4_14EqualsComparerINSt3__28equal_toIS3_EEEENSC_9allocatorINSC_4pairIKS4_S6_EEEEEC2EjRKSA_RKSF_
Wic:__Z38Transform_CUSTOM_INTERNAL_get_rotationP12Il2CppObjectP11Quaternionf
lBi:__ZNSt3__26vectorIN6il2cpp2vm17TypeNameParseInfoENS_9allocatorIS3_EEE8allocateEj
xki:__ZNSt3__216allocator_traitsINS_9allocatorIP9FieldInfoEEE10deallocateERS4_PS3_j
bZj:__ZL70InternalsVisibleToAttribute_t1037732567_CustomAttributesCacheGeneratorP21CustomAttributesCache
T1j:__ZL66CriticalFinalizerObject_t1920899984_CustomAttributesCacheGeneratorP21CustomAttributesCache
CJi:__ZNK15dense_hashtableINSt3__24pairIK10KeyWrapperINS1_IPK10MethodInfoP11Il2CppClassEEEjEES9_17ReflectionMapHashIS8_EN14dense_hash_mapIS9_jSD_NS9_14EqualsComparerINS0_8equal_toIS8_EEEENS0_9allocatorISB_EEE9SelectKeyESI_SK_E5beginEv
Pma:__ZN7ApiGLES19UploadBufferSubDataEjN2gl12BufferTargetEllPKv
R8:__ZNSt3__216__rotate_forwardINS_11__wrap_iterIPN4core12basic_stringIcNS2_20StringStorageDefaultIcEEEEEEEET_S9_S9_S9_
w6c:_String_System_IConvertible_ToInt32_m1927223638
JXd:_Array_InternalArray__ICollection_Remove_TisContentType_t1028629049_m3085152315_gshared
CGg:_Transform_1_EndInvoke_m4121732147_gshared
GEk:_FailedToLoadScriptObject_t3605283378_marshal_pinvoke_back
D8c:_ASCIIEncoding__ctor_m4127831672
RBk:_GameObject_GetComponent_m724360550
j5j:__ZL71AsymmetricSignatureFormatter_t4058014248_CustomAttributesCacheGeneratorP21CustomAttributesCache
oob:__Z19TransferField_ArrayI14SafeBinaryRead27Converter_SimpleNativeClassI8GUIStyleEEvRK23StaticTransferFieldInfoR31RuntimeSerializationCommandInfoRT0_
Bdg:__Z63RuntimeInvoker_Void_t1841601450_RuntimeObject_Int16_t4041245914PFvvEPK10MethodInfoPvPS4_
wGf:_UTF8Encoding__ctor_m3336862259
G8i:__ZN15dense_hashtableINSt3__24pairIK10KeyWrapperIP14Il2CppIUnknownEjEES5_N6il2cpp5utils11PointerHashIS3_EEN14dense_hash_mapIS5_jSB_NS5_14EqualsComparerINS0_8equal_toIS4_EEEENS0_9allocatorIS7_EEE9SelectKeyESG_SI_ED2Ev
LJj:__ZN6il2cpp5utils10MemoryPoolC2Ej
Kqf:_X509Chain_GetAuthorityKeyIdentifier_m2607407678
DIj:__ZN6il2cpp5utils10MemoryPoolC2Ev
oPa:__ZN14RenderSettings5ResetEv
x$b:__ZN6Sprite9BindAtlasERK4PPtrI11SpriteAtlasE
Cnc:__ZN5Unity9rapidjson12GenericValueINS0_4UTF8IcEE13JSONAllocatorE10FindMemberIS4_EENS0_21GenericMemberIteratorILb0ES3_S4_EERKNS1_IS3_T_EE
kyi:__ZNKSt3__213__vector_baseIiNS_9allocatorIiEEE7__allocEv
$Wi:__ZNSt3__2eqIPKN6il2cpp8metadata18GenericArrayMethodES5_EEbRKNS_11__wrap_iterIT_EERKNS6_IT0_EE
F6i:__ZNSt3__212basic_stringIDsNS_11char_traitsIDsEENS_9allocatorIDsEEE6appendEPKDsj
Rdd:_RaycastResult_set_gameObject_m1138581891_AdjustorThunk
fgj:__ZNSt3__228__libcpp_compressed_pair_impIPNS_11__tree_nodeINS_12__value_typeIP24Il2CppReflectionAssemblyPvEES5_EENS_22__tree_node_destructorINS_9allocatorIS7_EEEELj0EE6secondEv
boc:__ZN5Unity9rapidjson13GenericReaderINS0_4UTF8IcEES3_13JSONAllocatorE11ParseNumberILj1ENS0_25GenericInsituStringStreamIS3_EENS0_15GenericDocumentIS3_S4_S4_EEEEvRT0_RT1_
Y6d:_Dictionary_2_Do_ICollectionCopyTo_TisKeyValuePair_2_t3716250094_m1740410536_gshared
ZNg:_DefaultComparer__ctor_m580747638_gshared
mrj:__ZN6il2cpp2os10ThreadImplD2Ev
Age:_RSAManaged_Dispose_m3018788098
Uoc:__ZN8Gradient8TransferI9JSONWriteEEvRT_
FJf:_Monitor_Monitor_pulse_m2135582245
iId:_DateTime_ToUniversalTime_m1815024752
jlf:_NameObjectCollectionBase_get_Count_m2353593692
Gtk:__ZL73U3COnFinishSubmitU3Ec__Iterator0_t99135383_CustomAttributesCacheGeneratorP21CustomAttributesCache
Ixa:__ZNK12TLSAllocatorI14StackAllocatorE22GetAllocatedMemorySizeEv
Ydi:__ZNSt3__210__list_impIP17Il2CppAsyncResultN6il2cpp2gc9AllocatorIS2_EEE4__szEv
K0j:__ZL54AssemblyName_t894705941_CustomAttributesCacheGeneratorP21CustomAttributesCache
lLd:_Convert_ToUInt32_m3394039268
Zqh:_Transform_get_forward_m2144220796
Ava:__ZN17RemapPPtrTransfer12PushMetaFlagE17TransferMetaFlags
zM:__ZNK7WeakPtrI20SoundChannelInstanceE10SharedData9GetRawPtrEv
zjb:__ZN12HandlerChain4NameEv
$pb:__Z29Transfer_Blittable_ArrayFieldI14SafeBinaryReadN4math12int3_storageEEvRT_R9ArrayInfoRK23StaticTransferFieldInfo
h5a:__ZNSt3__26vectorI9InputAxisNS_9allocatorIS1_EEE10deallocateEv
yne:_Int16_Equals_m3925135434_AdjustorThunk
hvj:__ZN6il2cpp5utils10StringViewIDsEC2ILj2EEERAT__KDs
JPc:__Z44Register_UnityEngine_CanvasRenderer_get_cullv
fIg:_Enumerator_Dispose_m2532362830_AdjustorThunk
p_j:__ZL60IHashCodeProvider_t1980576455_CustomAttributesCacheGeneratorP21CustomAttributesCache
c1b:__ZN13ProduceHelperI13MonoBehaviourLb0EE7ProduceE18MemLabelIdentifier18ObjectCreationMode
gEe:_Enumerator_VerifyState_m1677639504_AdjustorThunk
YZb:__Z29StdTemplateConversionFunctionIbbEbPvR14SafeBinaryRead
Byj:__ZNK15dense_hashtableINSt3__24pairIK10KeyWrapperIPK19Il2CppGenericMethodEP10MethodInfoEES6_N6il2cpp8metadata23Il2CppGenericMethodHashEN14dense_hash_mapIS6_S9_SD_NS6_14EqualsComparerINSC_26Il2CppGenericMethodCompareEEENS0_9allocatorISA_EEE9SelectKeyESH_SJ_E12test_deletedEj
jcf:_CipherSuiteCollection_get_Item_m280627160
rmb:__Z44InitializeTransferFunctionScriptingTraitsForI17RemapPPtrTransferEvR31TransferFunctionScriptingTraits
tvf:_SerializationInfoEnumerator_MoveNext_m1876990879
XLf:_TimeSpan_Duration_m4205681645
FXb:__ZN14UnityWebStream24UpdateAllUnityWebStreamsEv
r1b:__ZNSt3__26vectorI16MessageForwarder13stl_allocatorIS1_L18MemLabelIdentifier7ELi8EEE6resizeEj
yUe:_Collection_1_System_Collections_IList_get_IsReadOnly_m2329986891_gshared
RYj:__ZL60ObsoleteAttribute_t3878847927_CustomAttributesCacheGeneratorP21CustomAttributesCache
_fh:_Uri_ParseAsWindowsAbsoluteFilePath_m1108586962
YR:__ZN11UnityEngine15CloudWebService14DataErrorEventD2Ev
Z1d:_Array_InternalArray__ICollection_CopyTo_TisRaycastHit2D_t4063908774_m3837098618_gshared
k9a:__ZN18LoadSceneOperation21MustCompleteNextFrameEv
Iph:_DataUtility_GetInnerUV_m593541260
DL:__ZNK12AudioManager16GetAudioListenerEv
d0f:_MonoField_get_FieldType_m598011426
xUe:_Collection_1_System_Collections_IList_get_IsFixedSize_m1624702704_gshared
Tsj:__ZN6il2cpp2osL23CleanupThreadIfCanceledEPv
Wek:__ZL48Camera_t189460977_CustomAttributesCacheGeneratorP21CustomAttributesCache
pVb:__ZNSt3__26vectorI11CameraStackNS_9allocatorIS1_EEE8__appendEj
u2i:__ZNSt3__212basic_stringIcNS_11char_traitsIcEENS_9allocatorIcEEE6__initINS_11__wrap_iterIPcEEEENS_9enable_ifIXsr21__is_forward_iteratorIT_EE5valueEvE4typeESB_SB_
aqd:_InputField_OnDisable_m1865339380
ZHi:__ZNSt3__29addressofINS_4pairIK10KeyWrapperIPK10Il2CppTypeEjEEEEPT_RS9_
wPf:_UInt32_System_IConvertible_ToType_m747769316
Mt:__ZN7mecanim9animation12GetHumanPoseERKNS0_18ClipMuscleConstantEPKNS0_10ValueDeltaERNS_5human9HumanPoseE
Bv:__ZN22AnimationMixerPlayable17ProcessRootMotionEP35AnimationPlayableEvaluationConstantP32AnimationPlayableEvaluationInputP33AnimationPlayableEvaluationOutput
Ovb:__Z29Transfer_Blittable_ArrayFieldI19StreamedBinaryWriteILb0EEjEvRT_R9ArrayInfoRK23StaticTransferFieldInfo
r2:__Z13GetFileSystemv
q5b:__ZZL23RegisterLightPropertiesR22GenericPropertyBindingEN29Wrapper_LightColorTemperature13SetFloatValueEPvf
K3:__ZNK5Unity4Type21FindAllDerivedClassesER13dynamic_arrayIPKS0_Lj4EENS0_17TypeFilterOptionsE
p4:__ZN13RuntimeStaticI15GUIEventManagerLb0EE16StaticInitializeEPv
LSh:__ZNKSt3__213__vector_baseIjNS_9allocatorIjEEE9__end_capEv
vKg:_Dictionary_2_ToTKey_m2900575080_gshared
uAb:__ZL12InvokeMethodI18StreamedBinaryReadILb0EEEvRK29SerializationCommandArgumentsR31RuntimeSerializationCommandInfo
oke:_DaylightTime_get_Delta_m2316831491
Rmi:__ZNSt3__228__libcpp_compressed_pair_impIjNS_4lessIP11Il2CppClassEELj2EE5firstEv
HWd:_Array_InternalArray__ICollection_Contains_TisUILineInfo_t3621277874_m1175659630_gshared
kig:__Z70RuntimeInvoker_Boolean_t3825574718_Color_t2020392075_Color_t2020392075PFvvEPK10MethodInfoPvPS4_
mLf:_WaitHandle_WaitOne_m370363697
ssk:__ZL114PointerEventData_t1599784723_CustomAttributesCacheGenerator_PointerEventData_set_pointerCurrentRaycast_m2431897513P21CustomAttributesCache
Qsf:_FactoryCache_Lookup_m1681894361
INd:_DateTime_Subtract_m698282245_AdjustorThunk
Wcc:__Z7OpenURLRKN4core12basic_stringIcNS_20StringStorageDefaultIcEEEE
o$d:_Array_InternalArray__IndexOf_TisResourceCacheItem_t333236149_m761772858_gshared
w_e:_Collection_1_InsertItem_m724820684_gshared
Bak:__ZL79Convert_t2607082565_CustomAttributesCacheGenerator_Convert_ToUInt64_m1896191125P21CustomAttributesCache
Qpi:__ZNKSt3__26vectorIN6il2cpp6icalls8mscorlib6System12PropertyPairENS_9allocatorIS5_EEE11__recommendEj
tKb:__ZN19ShaderPropertySheet9SetMatrixEN9ShaderLab16FastPropertyNameERK10Matrix4x4fNS_8SetFlagsE
Y_c:_RIPEMD160Managed_Initialize_m3365407578
XWa:__Z29GetTextureSizeAllowedMultiple13TextureFormat
B8h:__ZN6il2cpp2os6Atomic22CompareExchangePointerI21CustomAttributesCacheEEPT_PVS5_S5_S5_
Emf:_IPAddress_HostToNetworkOrder_m1092199707
vYd:_SetPropertyUtility_SetStruct_TisSpriteState_t1353336012_m2898060836_gshared
cAi:__ZNSt3__214__split_bufferIN6il2cpp2vm17TypeNameParseInfoERNS_9allocatorIS3_EEE17__destruct_at_endEPS3_
iIb:__ZZ23InitPlayerLoopCallbacksvEN52InitializationAsyncUploadTimeSlicedUpdateRegistrator7ForwardEv
e3c:_SecurityAttribute__ctor_m3425755778
tAk:_Bounds_set_center_m1010418458
M6b:__ZN21IntermediateRenderers3AddEP20IntermediateRenderer
Oti:_il2cpp_array_element_size
Wf:_glCheckFramebufferStatus
Tmk:__ZL55TextGenerator_t647235000_CustomAttributesCacheGeneratorP21CustomAttributesCache
MZd:_Array_compare_TisInt32_t2071877448_m840310202_gshared
Vcj:__ZN15dense_hashtableINSt3__24pairIK10KeyWrapperINS1_IPKcS4_EEEiEES6_24NamespaceAndNamePairHashN14dense_hash_mapIS6_iS9_NS6_14EqualsComparerI26NamespaceAndNamePairEqualsEENS0_9allocatorIS8_EEE9SelectKeyESD_SF_E12resize_deltaEjj
D1g:_InternalEnumerator_1_System_Collections_IEnumerator_get_Current_m442726479_AdjustorThunk
jU:__ZN19CloudServiceHandler20StartEventDispatcherERKN11UnityEngine15CloudWebService18CloudServiceConfigERNS1_23WebRequestRestHeaderMapE
uFi:__ZN24dense_hashtable_iteratorINSt3__24pairIK10KeyWrapperINS1_IPK9FieldInfoP11Il2CppClassEEEjEES9_17ReflectionMapHashIS8_EN14dense_hash_mapIS9_jSD_NS9_14EqualsComparerINS0_8equal_toIS8_EEEENS0_9allocatorISB_EEE9SelectKeyESI_SK_EC2EPK15dense_hashtableISB_S9_SD_SM_SI_SK_EPSB_SS_b
L$g:_InternalEnumerator_1_System_Collections_IEnumerator_get_Current_m790514740_AdjustorThunk
JQj:__ZNKSt3__217__compressed_pairIPNS_12basic_stringIDsNS_11char_traitsIDsEENS_9allocatorIDsEEEENS4_IS6_EEE5firstEv
BXj:__ZL74RuntimeArray_CustomAttributesCacheGenerator_Array_BinarySearch_m2287427837P21CustomAttributesCache
qng:__Z78RuntimeInvoker_Boolean_t3825574718_TransitionU26_t3012618447_Int32_t2071877448PFvvEPK10MethodInfoPvPS4_
P9d:__Z37il2cpp_codegen_get_executing_assemblyPK10MethodInfo
Spi:__ZNSt3__27forwardIN6il2cpp6icalls8mscorlib6System12PropertyPairEEEOT_RNS_16remove_referenceIS6_E4typeE
Zib:__ZN9Transform23VirtualRedirectTransferER17RemapPPtrTransfer
yhg:__Z72RuntimeInvoker_Boolean_t3825574718_Bounds_t3033363703_Bounds_t3033363703PFvvEPK10MethodInfoPvPS4_
lih:_PKCS12_get_Keys_m1312614820
lZj:__ZL57TypedReference_t1025199857_CustomAttributesCacheGeneratorP21CustomAttributesCache
O_d:_Array_InternalArray__IndexOf_TisByte_t3683104436_m3605266236_gshared
f_e:_Collection_1_System_Collections_IList_Insert_m435904526_gshared
b5b:__ZZL23RegisterLightPropertiesR22GenericPropertyBindingEN22Wrapper_LightIntensity13GetFloatValueEPv
Ywg:_RaycastAllCallback_Invoke_m981876639
iGf:_UnicodeEncoding__ctor_m72484327
o7h:__ZNSt3__228__libcpp_compressed_pair_impIjNS_19__map_value_compareIP11Il2CppClassNS_12__value_typeIS3_S3_EENS_4lessIS3_EELb1EEELj2EE5firstEv
eqh:_Texture_INTERNAL_get_texelSize_m3335010007
apj:__ZNSt3__216allocator_traitsINS_9allocatorI20Il2CppStackFrameInfoEEE7destroyIS2_EEvRS3_PT_
N8i:__ZN14dense_hash_mapI10KeyWrapperIP14Il2CppIUnknownEjN6il2cpp5utils11PointerHashIS1_EENS3_14EqualsComparerINSt3__28equal_toIS2_EEEENS9_9allocatorINS9_4pairIKS3_jEEEEE15set_deleted_keyERSF_
Z3:__ZN22BuiltinResourceManager16StaticInitializeEPv
Joe:_NumberFormatter_ScaleOrder_m1915154678
u_i:__ZN6il2cpp2gc9AllocatorIP12Il2CppThreadE10deallocateEPvj
oei:__ZNKSt3__217__compressed_pairIjN6il2cpp2gc9AllocatorINS_11__list_nodeIP17Il2CppAsyncResultPvEEEEE5firstEv
tTh:__ZNKSt3__213__vector_baseIjNS_9allocatorIjEEE7__allocEv
eef:_ClientSessionInfo_SetContext_m2649357891
blh:_PropertyAttribute__ctor_m1714388149
wpe:_Int32_System_IConvertible_ToInt64_m3790029067_AdjustorThunk
Pad:_RaycasterManager_GetRaycasters_m1154876874
rjf:_SslStreamBase_InternalReadCallback_m2524917586
w1:__ZN8Remapper6RemoveEi
fJe:_List_1_CheckCollection_m2608305187_gshared
SBa:__ZN10MemoryFile4ReadEyPvPy
KNf:_Type_get_ContainsGenericParameters_m505913180
dcc:__ZN9Scripting27CreateArgumentNullExceptionEPKc
kzc:__ZL36CleanupTextRenderingScriptingClassesv
r5f:__Z52RuntimeInvoker_UInt32_t2149682021_Decimal_t724701077PFvvEPK10MethodInfoPvPS4_
y1e:_ReadOnlyCollection_1__ctor_m3532148437_gshared
lud:_Array_BinarySearch_m3270245097
Egc:__Z34Mesh_CUSTOM_SetArrayForChannelImplP12Il2CppObject30InternalScriptingShaderChannel34InternalScriptingVertexChannelTypeiP11Il2CppArrayi
kte:_MonoIO_DeleteFile_m3273821223
Lbe:_BigInteger_GenerateRandom_m2507308768
jMd:_DateTime_System_IConvertible_ToDouble_m1431748426_AdjustorThunk
_Ph:__ZN14dense_hash_mapI10KeyWrapperIPK22Il2CppGenericParameterEP11Il2CppClassN6il2cpp5utils11PointerHashIS2_EENS4_14EqualsComparerINSt3__28equal_toIS3_EEEENSC_9allocatorINSC_4pairIKS4_S6_EEEEED2Ev
uWd:_Array_InternalArray__ICollection_Contains_TisUInt16_t986882611_m510319131_gshared
b3d:_Array_InternalArray__Insert_TisRaycastHit2D_t4063908774_m3174907903_gshared
cQd:_Decimal_ToString_m541380585
Dtf:_RepeatContext_get_Previous_m808449037
Ykg:__Z46RuntimeInvoker_CharacterValidation_t3437478890PFvvEPK10MethodInfoPvPS4_
F_f:_MemberFilter__ctor_m1775909550
eui:_il2cpp_class_is_valuetype
JD:__ZN11UnityEngine9Animation28GenericAnimationBindingCache25RegisterIAnimationBindingEPKN5Unity4TypeEiP17IAnimationBinding
NPc:__Z70RectTransformUtility_CUSTOM_INTERNAL_CALL_RectangleContainsScreenPointP12Il2CppObjectRK13Vector2fIcallS0_
SSd:_Enum_ToObject_m2601523252
Sif:_InternalAsyncResult_get_FromWrite_m2893408424
kSh:__ZN6il2cpp2vm5Class15GetElementClassEP11Il2CppClass
Bsd:_U3CDelayedSetDirtyU3Ec__Iterator0_System_Collections_IEnumerator_get_Current_m851854792
ISj:__ZNKSt3__215__tree_iteratorINS_12__value_typeIPFvvEPK10MethodInfoEEPNS_11__tree_nodeIS7_PvEEiEptEv
gUb:__Z40ProcessCameraIndexListIsNodeVisibleInOutRK22SceneCullingParametersPK9SceneNodePK4AABBR9IndexList
Vtj:__ZNSt3__217__compressed_pairIPNS_11__tree_nodeINS_12basic_stringIcNS_11char_traitsIcEENS_9allocatorIcEEEEPvEENS_22__tree_node_destructorINS5_IS9_EEEEE5firstEv
CLa:__ZN16GraphicsSettings8TransferI17RemapPPtrTransferEEvRT_
Z7e:_BigInteger_op_LessThanOrEqual_m3528380540
pwe:_StreamReader__ctor_m2654332332
pNc:__ZN2UI6Canvas13UpdateBatchesEb
HIk:_Playable__cctor_m3745623656
Gy:__ZNK23AnimationPlayableOutput11DerivesFromE17ScriptingClassPtr
WVa:__ZN7Texture19SupportsAsyncUploadI19StreamedBinaryWriteILb0EEEEbRT_
wBk:_Color_op_Implicit_m3487763211
lHe:_List_1_CheckCollection_m3968030679_gshared
LKh:_Predicate_1_BeginInvoke_m3556950370_gshared
ZQi:__ZNSt3__27forwardIPK22Il2CppMonoAssemblyNameEEOT_RNS_16remove_referenceIS4_E4typeE
cHf:_StringBuilder_ToString_m617673931
laa:__ZNK13GfxDeviceGLES12GetWireframeEv
bJf:_UTF8Encoding_GetString_m1836344205
hCi:__ZNSt3__214__split_bufferINS_12basic_stringIcNS_11char_traitsIcEENS_9allocatorIcEEEERNS4_IS6_EEE7__allocEv
Xoj:__ZNSt3__217__compressed_pairIP20Il2CppStackFrameInfoRNS_9allocatorIS1_EEE6secondEv
mMi:__ZNSt3__2eqIPK12PropertyInfoP11Il2CppClassEEbRKNS_4pairIT_T0_EESB_
s2e:_ReadOnlyCollection_1_System_Collections_ICollection_get_IsSynchronized_m3127987432_gshared
BSc:__ZN11UnityEngine7Connect13ConfigHandler12GetListenersERKN4core12basic_stringIcNS2_20StringStorageDefaultIcEEEE
Znk:__ZL110AudioSource_t1135106623_CustomAttributesCacheGenerator_AudioSource_INTERNAL_CALL_ReadExtensionName_m3515549821P21CustomAttributesCache
Qba:__ZN9GfxDevice18AllocRenderSurfaceEb
Nwg:_GetRayIntersectionAllNonAllocCallback_BeginInvoke_m273046189
r$b:__ZN10TagManager32GetSortingLayerUniqueIDFromValueEi
kdi:__ZNKSt3__26vectorIP12Il2CppThreadNS_9allocatorIS2_EEE8capacityEv
$dh:_AnchorInfo_get_IsComplete_m1247624133
Xjd:_Dropdown_Show_m324374589
u_:__ZL27CleanupCoreScriptingClassesv
B7f:__Z68RuntimeInvoker_RuntimeObject_RuntimeObject_DSAParameters_t1872138834PFvvEPK10MethodInfoPvPS4_
F$e:_ReadOnlyCollection_1_System_Collections_ICollection_get_SyncRoot_m769863805_gshared
_lg:__Z101RuntimeInvoker_Void_t1841601450_RuntimeObject_Int32_t2071877448_Single_t2076509932_Single_t2076509932PFvvEPK10MethodInfoPvPS4_
vEi:__ZNSt3__24pairIPK14Il2CppAssemblyP11Il2CppClassEC2ILb1EvEEv
Wqi:__ZN6il2cpp6icalls8mscorlib6SystemL16CheckMemberMatchI12PropertyInfoNS_5utils10functional6FilterINSt3__212basic_stringIcNS8_11char_traitsIcEENS8_9allocatorIcEEEENS5_13VmStringUtils23CaseInsensitiveComparerEEEEEbPKT_PK11Il2CppClassSN_iRKT0_
idd:_RaycastResult_get_isValid_m2482925612
ygc:__Z26AnimationCurve_CUSTOM_InitP12Il2CppObjectP11Il2CppArray
QXk:_glUniform1uiv__wrapper
rPi:__ZN6il2cpp2vm10Reflection7IsEventEP12Il2CppObject
kTj:__ZNSt3__26__treeINS_12__value_typeIPFvvEPK10MethodInfoEENS_19__map_value_compareIS3_S7_NS_4lessIS3_EELb1EEENS_9allocatorIS7_EEE16__insert_node_atEPNS_16__tree_node_baseIPvEERSI_SI_
D$:__ZN17PersistentManager26GetStreamNameSpaceInternalEi
mmh:_Rect_set_y_m3273335367
LF:__ZN4FMOD6System11createSoundEPKcjP22FMOD_CREATESOUNDEXINFOPPNS_5SoundE
ysg:__Z72RuntimeInvoker_Int32_t2071877448_Vector2_t2243707579_Vector2_t2243707579PFvvEPK10MethodInfoPvPS4_
lUk:_glRenderbufferStorage__wrapper
TWe:__ZN23InterfaceActionInvoker2Ii22UICharInfo_t3056636800E6InvokeEjP11Il2CppClassP12Il2CppObjectiS0_
Vn:FUNCTION_TABLE_iiifiiii
Coi:__ZNKSt3__26vectorIPK10MethodInfoNS_9allocatorIS3_EEE8max_sizeEv
ZCi:__ZN6il2cpp2vm4Type14IsSystemDBNullEPK10Il2CppType
C6i:__ZN6il2cpp2vm9Exception11FromNameMsgEPK11Il2CppImagePKcS6_RKNS_5utils10StringViewIDsEEi
BZ:__ZN9ShaderLab19CommonPropertyNames13StaticCleanupEPv
$ji:__ZN6il2cpp5utils10functional6FilterINSt3__212basic_stringIcNS3_11char_traitsIcEENS3_9allocatorIcEEEENS0_13VmStringUtils23CaseInsensitiveComparerEED2Ev
O0:__Z31scripting_method_get_returntype18ScriptingMethodPtr
bzg:_ScrollRect_UpdateBounds_m3266596336
kYa:__ZN15SerializeTraitsI12LightmapDataE8TransferI24GenerateTypeTreeTransferEEvRS0_RT_
krh:_Transform_INTERNAL_set_localScale_m1610244689
bhi:__ZNSt3__228__libcpp_compressed_pair_impIP6pollfdRNS_9allocatorIS1_EELj0EE6secondEv
Ahd:_ColorBlock_GetHashCode_m649325222
pUk:_glStencilOpSeparate__wrapper
_8b:__ZN4Mesh5SetUvEiPKfjj
H_a:__ZN7Texture13SetAnisoLimitENS_20AnisotropicFilteringE
iab:__ZN28LightProbeProxyVolumeManager25UpdateSHCoeffsTextureDataER21LightProbeProxyVolume
mCa:__Z18CreateDecompressor15CompressionType18MemLabelIdentifier
vN:__ZN11AudioModule16SetListenerPauseEb
NJk:_Level2Start_Update_m2576990518
Ph:_emscripten_glCompressedTexSubImage2D
qoa:__ZN13GfxDeviceGLES22MemoryBarrierImmediateEyN2gl17MemoryBarrierTypeE
C8:__ZZN18SpriteAtlasManagerC1EvEN46EarlyUpdateSpriteAtlasManagerUpdateRegistrator7ForwardEv
Yla:__ZN6prcoreL26RemapGenericFloatToIntegerI18TexFormatARGBFloat17TexFormatARGB8888EEvPKNS_9InnerInfoE
zbc:__Z46GetShaderModelNumericValueFromRequirementsMask18ShaderRequirements
f_i:__ZNKSt3__26vectorIP12Il2CppThreadN6il2cpp2gc9AllocatorIS2_EEE31__annotate_contiguous_containerEPKvS9_S9_S9_
BHc:_cff_ps_has_glyph_names
cHg:_Transform_1_EndInvoke_m1025924012_gshared
o3e:_ReadOnlyCollection_1_System_Collections_Generic_ICollectionU3CTU3E_get_IsReadOnly_m2873538493_gshared
Pbh:_PatternCompiler_EmitPosition_m3013268572
msf:_X509SubjectKeyIdentifierExtension__ctor_m1109455121
HGh:__ZL24UnresolvedVirtualCall_45P12Il2CppObject19DateTime_t693205669PK10MethodInfo
hmd:_Graphic_CreateColorFromAlpha_m2614574534
QHf:_UnicodeEncoding_GetHashCode_m2443440683
onc:__Z44Register_UnityEngine_GUIStyle_SetDefaultFontv
jXf:_GenericTypeParameterBuilder_GetPropertyImpl_m3566422383
mwb:__Z18Transfer_BlittableI18StreamedBinaryReadILb1EELb1EiEvRK29SerializationCommandArgumentsR31RuntimeSerializationCommandInfo
yA:__ZN9BlobWrite8TransferI22OffsetPtrArrayTransferIKN4math7_float3EEEEvRT_PKc17TransferMetaFlags
a2c:_TripleDES_IsWeakKey_m483013953
Bpf:_X509Certificate2_get_PrivateKey_m2662162956
wrj:__ZNSt3__26vectorIN6il2cpp2os10ThreadImpl10APCRequestENS_9allocatorIS4_EEE9push_backEOS4_
agi:__ZNKSt3__217__compressed_pairIPP17Il2CppAsyncResultRN6il2cpp2gc9AllocatorIS2_EEE5firstEv
lIg:_Enumerator__ctor_m3819430617_AdjustorThunk
yMi:__ZN15dense_hashtableINSt3__24pairIK10KeyWrapperINS1_IPK12PropertyInfoP11Il2CppClassEEEjEES9_17ReflectionMapHashIS8_EN14dense_hash_mapIS9_jSD_NS9_14EqualsComparerINS0_8equal_toIS8_EEEENS0_9allocatorISB_EEE9SelectKeyESI_SK_E12maybe_shrinkEv
Rdg:__Z75RuntimeInvoker_RuntimeObject_RuntimeObject_Single_t2076509932_RuntimeObjectPFvvEPK10MethodInfoPvPS4_
wpj:__ZNSt3__27forwardIRNS_9allocatorI20Il2CppStackFrameInfoEEEEOT_RNS_16remove_referenceIS5_E4typeE
Nwb:__Z18Transfer_BlittableI18StreamedBinaryReadILb1EELb1EsEvRK29SerializationCommandArgumentsR31RuntimeSerializationCommandInfo
xlg:__Z54RuntimeInvoker_Void_t1841601450_ColorBlock_t2652774230PFvvEPK10MethodInfoPvPS4_
B5c:_Single_System_IConvertible_ToSByte_m3757385387
$qh:_Vector3_get_forward_m1316319684
iue:_StreamAsyncResult_SetComplete_m2141125667
L_a:__ZL21SetAnisoLimitEnumImplN7Texture20AnisotropicFilteringEb
RQc:__ZN22BaseUnityConnectClient17OnEnterStateReadyEv
P_:__Z21GetManagerFromContexti
PJa:__ZN14GrowableBufferD2Ev
ovh:_GUIStyle_get_stretchWidth_m813991504
FGi:__ZNSt3__27forwardINS_4pairIPK9FieldInfoP11Il2CppClassEEEEOT_RNS_16remove_referenceIS8_E4typeE
Pfc:__Z29Input_CUSTOM_GetMouseButtonUpi
_qi:__ZN6il2cpp6icalls8mscorlib6System8MonoType16InternalGetEventEP20Il2CppReflectionTypeP12Il2CppStringi
APf:_UInt32_System_IConvertible_ToUInt32_m1257480358_AdjustorThunk
Nrg:__Z55RuntimeInvoker_CustomAttributeTypedArgument_t1498197914PFvvEPK10MethodInfoPvPS4_
CJf:_Interlocked_CompareExchange_m3339239614
tBc:_UNITY_tt_face_load_maxp
bgc:__Z46Input_CUSTOM_INTERNAL_set_compositionCursorPosRK13Vector2fIcall
Ps:__ZN7mecanim5human12FullBodyMaskEv
u8j:__ZL98Activator_t1850728717_CustomAttributesCacheGenerator_Activator_CreateInstance_m1465989661____args1P21CustomAttributesCache
coi:__ZNKSt3__214__split_bufferIPK10MethodInfoRNS_9allocatorIS3_EEE9__end_capEv
Tqh:_Transform_set_position_m2942701431
C4a:__ZN19ShaderPropertySheet11ComputeHashEv
W0h:__ZN30dense_hashtable_const_iteratorI10KeyWrapperIPK19Il2CppGenericMethodES4_N6il2cpp8metadata23Il2CppGenericMethodHashEN14dense_hash_setIS4_S7_NS4_14EqualsComparerINS6_26Il2CppGenericMethodCompareEEENSt3__29allocatorIS4_EEE8IdentityESB_SE_EppEv
wti:__ZL18UnityPalExchange64PVxx
Jxb:__ZN4PPtrI6ObjectE8TransferI18StreamedBinaryReadILb1EEEEvRT_
KS:__ZN11UnityEngine15CloudWebService20WebRequestRestClient6IsDoneEv
Tnk:__ZL93AudioSource_t1135106623_CustomAttributesCacheGenerator_AudioSource_Play_m1385529671____delay0P21CustomAttributesCache
Whd:_ColorTween_get_tweenMode_m2919867230_AdjustorThunk
N4i:__ZNKSt3__26__treeINS_12basic_stringIcNS_11char_traitsIcEENS_9allocatorIcEEEENS_4lessIS6_EENS4_IS6_EEE5beginEv
Li:_llvm_fabs_f32
Egd:_CanvasScaler_HandleScaleWithScreenSize_m80056230
Zpk:__ZL51TileBase_t4130003429_CustomAttributesCacheGeneratorP21CustomAttributesCache
nS:__ZN11UnityEngine15CloudWebService16SessionContainer16GetJsonDataBlockEjRKN4core12basic_stringIcNS2_20StringStorageDefaultIcEEEERS6_PjSA_
kDf:_SByte_System_IConvertible_ToUInt64_m2174352876_AdjustorThunk
Qfj:__ZNSt3__29addressofINS_12__value_typeIP24Il2CppReflectionAssemblyPvEEEEPT_RS6_
wXf:_GenericTypeParameterBuilder_get_AssemblyQualifiedName_m902593295
_Qi:__ZN15dense_hashtableINSt3__24pairIK10KeyWrapperIPK14Il2CppAssemblyEPK22Il2CppMonoAssemblyNameEES6_N6il2cpp5utils11PointerHashIS4_EEN14dense_hash_mapIS6_SA_SF_NS6_14EqualsComparerINS0_8equal_toIS5_EEEENS0_9allocatorISB_EEE9SelectKeyESK_SM_E13set_empty_keyERKSB_
rnj:__ZNSt3__2neERKNS_15__tree_iteratorINS_12__value_typeIjN6il2cpp2os17SocketHandleEntryEEEPNS_11__tree_nodeIS5_PvEEiEESC_
nIf:_UTF7Encoding_InternalGetBytes_m2772055844
rRg:_EqualityComparer_1__ctor_m831468288_gshared
FKg:_Dictionary_2_System_Collections_IDictionary_set_Item_m2290664072_gshared
I9f:__Z76RuntimeInvoker_Void_t1841601450_Int64_t909078037_ResourceInfoU26_t3126209420PFvvEPK10MethodInfoPvPS4_
lae:_SimpleCollator__cctor_m2693747668
fJj:__ZNSt3__222__allocator_destructorINS_9allocatorINS_11__list_nodeIPN6il2cpp5utils10MemoryPool6RegionEPvEEEEEC2ERSA_j
XPd:_Decimal_CompareTo_m2454501434_AdjustorThunk
T$:__ZN14SafeBinaryReadD2Ev
hOf:_UInt16_System_IConvertible_ToChar_m4055364664
A0b:__Z13RegisterClassI7TextureEvv
dfh:_ExpressionCollection_OnValidate_m1703610065
T8d:_Component_GetComponentInChildren_TisRuntimeObject_m2461586036_gshared
byb:__ZN8Gradient8TransferI18StreamedBinaryReadILb1EEEEvRT_
AHg:_Enumerator_Dispose_m2369319718_AdjustorThunk
X9j:__ZL79Convert_t2607082565_CustomAttributesCacheGenerator_Convert_ToUInt16_m3991499696P21CustomAttributesCache
qfi:__ZNKSt3__210unique_ptrINS_11__list_nodeIP17Il2CppAsyncResultPvEENS_22__allocator_destructorIN6il2cpp2gc9AllocatorIS5_EEEEEptEv
voc:__ZN5Unity9rapidjson8internal6Grisu2EdPcPiS3_
OPf:_UInt32_ToString_m554020223_AdjustorThunk
RRe:_Enumerator_Dispose_m1520016780_AdjustorThunk
VEk:_GameObject_SendMessage_m3423113156
$2h:__ZNSt3__24swapIN6il2cpp8metadata19Il2CppSignatureHashEEENS_9enable_ifIXaasr21is_move_constructibleIT_EE5valuesr18is_move_assignableIS5_EE5valueEvE4typeERS5_S8_
kj:_SDL_PauseAudio
jui:_il2cpp_class_from_type
Tud:_Array_Sort_m2323017822
Fxg:_Scrollbar_UpdateDrag_m3839695926
AZ:__ZN9ShaderLab19CommonPropertyNames16StaticInitializeEPv
Vye:_MissingMemberException__ctor_m3710131950
ubb:__ZN13MemoryManager31DisallowAllocationsOnThisThreadEv
_lh:_Ray_get_direction_m4136268940_AdjustorThunk
AC:__ZN7mecanim9animation18CreateAvatarOutputEPKNS0_14AvatarConstantEbbRNS_6memory9AllocatorE
uIi:__ZN14dense_hash_mapI10KeyWrapperINSt3__24pairIPK10MethodInfoP11Il2CppClassEEEj17ReflectionMapHashIS8_ENS9_14EqualsComparerINS1_8equal_toIS8_EEEENS1_9allocatorINS2_IKS9_jEEEEE4findERSH_
Heg:__Z91RuntimeInvoker_Void_t1841601450_RuntimeObject_Int32_t2071877448_RuntimeObject_RuntimeObjectPFvvEPK10MethodInfoPvPS4_
jEf:_CspParameters__ctor_m2546931874
Cfj:__ZN6il2cpp2vmL14FindNestedTypeEP11Il2CppClassPKc
vL:__ZN11AudioSource23VirtualRedirectTransferER24GenerateTypeTreeTransfer
M8b:__ZN7Texture11SetWrapModeE15TextureWrapMode
f1a:__ZN14Texture2DArray23VirtualRedirectTransferER14SafeBinaryRead
iPb:__ZNK6Camera21CalculateCanDoShadowsEv
qNg:_Dictionary_2_make_pair_m2631942124_gshared
t1i:__ZNSt3__216allocator_traitsINS_9allocatorIcEEE7destroyIcEEvRS2_PT_
lmd:_Graphic__cctor_m1643894470
rwj:__ZN6il2cpp2os6Thread12SetStackSizeEj
b4f:__Z99RuntimeInvoker_Void_t1841601450_Int32_t2071877448_RuntimeObject_Int32_t2071877448_Int32_t2071877448PFvvEPK10MethodInfoPvPS4_
Xpf:_X509ChainElementEnumerator_get_Current_m2232618221
TCk:_DebugLogHandler_LogFormat_m2866699703
C9f:__Z54RuntimeInvoker_CallingConventions_t1097349142_IntPtr_tPFvvEPK10MethodInfoPvPS4_
OMi:__ZNSt3__24moveIRN14dense_hash_mapI10KeyWrapperINS_4pairIPK12PropertyInfoP11Il2CppClassEEEj17ReflectionMapHashIS9_ENSA_14EqualsComparerINS_8equal_toIS9_EEEENS_9allocatorINS3_IKSA_jEEEEE9SelectKeyEEEONS_16remove_referenceIT_E4typeEOSP_
agd:_U3COnFinishSubmitU3Ec__Iterator0_Reset_m2080388334
F8b:__ZNK8Renderer16IsVisibleInSceneEv
Xyg:_ScrollRect_set_onValueChanged_m3957749575
EX:__Z13VFormatBufferPciPKcz
izb:__Z18Transfer_BlittableI18StreamedBinaryReadILb0EELb1EhEvRK29SerializationCommandArgumentsR31RuntimeSerializationCommandInfo
oKh:_U3CCreateWhereIteratorU3Ec__Iterator1D_1_Dispose_m1879652802_gshared
UDi:__ZNK10KeyWrapperINSt3__24pairIPK14Il2CppAssemblyP11Il2CppClassEEE8isNormalEv
v2j:__ZL90SafeHandle_t2733794115_CustomAttributesCacheGenerator_SafeHandle_get_IsInvalid_m3910183075P21CustomAttributesCache
eod:_Image_GenerateSimpleSprite_m4275440988
nqj:__ZNSt3__26vectorIPK14Il2CppAssemblyNS_9allocatorIS3_EEE3endEv
YOf:_UInt16_ToString_m3280699191
ama:__ZN6prcoreL27StretchGenericFloatBilinearI15TexFormatRFloatEEvPKNS_9InnerInfoE
tRi:__ZNSt3__24moveIRPNS_4pairIK10KeyWrapperIPK22Il2CppGenericParameterEPK24MonoGenericParameterInfoEEEEONS_16remove_referenceIT_E4typeEOSF_
V2j:__ZL56_PropertyInfo_t1567586598_CustomAttributesCacheGeneratorP21CustomAttributesCache
AYd:_Array_InternalArray__IEnumerable_GetEnumerator_TisBoolean_t3825574718_m798244337_gshared
JNe:_List_1_CopyTo_m158925060_gshared
Ev:__Z24ProcessAnimationMixBeginP35AnimationPlayableEvaluationConstantP32AnimationPlayableEvaluationInputP33AnimationPlayableEvaluationOutput
z_d:_Array_IndexOf_TisCustomAttributeNamedArgument_t94157543_m745056346_gshared
dja:__Z14PadImageBorderR14ImageReferenceii
VJi:__ZN15dense_hashtableINSt3__24pairIK10KeyWrapperINS1_IPK10MethodInfoP11Il2CppClassEEEjEES9_17ReflectionMapHashIS8_EN14dense_hash_mapIS9_jSD_NS9_14EqualsComparerINS0_8equal_toIS8_EEEENS0_9allocatorISB_EEE9SelectKeyESI_SK_E4findERSA_
o8h:__ZN6il2cpp2vm13MetadataCache28GetFieldDefaultValueForFieldEPK9FieldInfo
JSg:_ArrayReadOnlyList_1_ReadOnlyError_m2289309720_gshared
gw:__ZN27AnimationLayerMixerPlayableD2Ev
Dsi:__ZN6il2cpp2vm8basepathEPKc
bPg:_DefaultComparer_GetHashCode_m320514092_gshared
hhk:__ZL99Input_t1785128008_CustomAttributesCacheGenerator_Input_INTERNAL_set_compositionCursorPos_m144787813P21CustomAttributesCache
QH:__ZN12AudioManager39HandlePendingAudioConfigurationCallbackEv
a7f:__Z119RuntimeInvoker_Int32_t2071877448_RuntimeObject_RuntimeObject_Int32_t2071877448_Int32_t2071877448_BooleanU26_t3168250738PFvvEPK10MethodInfoPvPS4_
aVj:__ZL79RuntimeObject_CustomAttributesCacheGenerator_Object_ReferenceEquals_m3900584722P21CustomAttributesCache
gk:_emscripten_glIsFramebuffer
tGa:__ZN12_GLOBAL__N_16qAtan2Eff
vKd:_Convert_ToInt64_m954367741
HIh:__ZL25UnresolvedVirtualCall_153P12Il2CppObject40CustomAttributeTypedArgument_t1498197914S1_PK10MethodInfo
kk:_JS_Sound_SetLoopPoints
lsj:__ZNSt3__216allocator_traitsINS_9allocatorIN6il2cpp2os10ThreadImpl10APCRequestEEEE8max_sizeERKS6_
Szd:_ArrayList__ctor_m1467563650
HM:__ZN12AudioManager17ShouldSourcePauseEb
eKj:__ZN6il2cpp2vm26MetadataAllocGenericMethodEv
Gra:__ZN19ConstantBuffersGLES12RecordRenderEv
Kqc:__ZN9JSONWrite8TransferI10RectOffsetEEvRT_PKc17TransferMetaFlags
Kia:__ZN4crnd12symbol_codec11decode_bitsEj
Pjh:_X509Crl_get_Extensions_m1795830276
GNj:__ZNSt3__27forwardIPNS_11__tree_nodeINS_12__value_typeIPvxEES3_EEEEOT_RNS_16remove_referenceIS7_E4typeE
ZFc:_cf2_doFlex
Fej:__ZNSt3__228__libcpp_compressed_pair_impIPPK11Il2CppClassRNS_9allocatorIS3_EELj0EE6secondEv
G5d:_Array_Sort_TisRaycastResult_t21186376_TisRaycastResult_t21186376_m38820193_gshared
v6b:__ZN21FixedBehaviourManagerD0Ev
Wrh:_Vector2__ctor_m847450945_AdjustorThunk
Gmk:__ZL55RaycastHit2D_t4063908774_CustomAttributesCacheGeneratorP21CustomAttributesCache
DOa:__ZN10Matrix3x4f8TransferI24GenerateTypeTreeTransferEEvRT_
ute:_StreamReader__ctor_m3454466728
UH:__ZN4FMOD6System12createReverbEPPNS_6ReverbE
Ufi:__ZNKSt3__26vectorIP17Il2CppAsyncResultN6il2cpp2gc9AllocatorIS2_EEE11__recommendEj
Dnh:_RectTransform_get_anchorMin_m3466802567
hci:__ZNKSt3__26vectorIP17Il2CppAsyncResultN6il2cpp2gc9AllocatorIS2_EEE4sizeEv
Zv:__ZN7mecanim19ValueArrayBlendNodeILb1EEEvRKNS_10ValueArrayERKNS_14ValueArrayMaskERS1_RS4_RNS_16ValueArrayWeightEf
wbb:__Z16MarkDependenciesR27GarbageCollectorThreadStatej
Prf:_X509ChainElementEnumerator_Reset_m3832280427
nsj:__ZNKSt3__217__compressed_pairIPN6il2cpp2os10ThreadImpl10APCRequestENS_9allocatorIS4_EEE6secondEv
$Ae:_MulticastDelegate_RemoveImpl_m2024746777
Ogd:_CanvasUpdateRegistry_ParentCount_m2367607495
VAe:_MulticastDelegate_Equals_m3064081489
uje:_Activator_CreateInstance_m1465989661
y9:__ZNK9Transform11GetPositionEv
Afh:_PositionAssertion_GetWidth_m2294218483
EMa:__ZN23SharedMeshRenderingData18UnloadVertexStreamEi
L6b:__ZN31CanvasBatchIntermediateRenderer11AddSubBatchERK16DrawBuffersRangePK19ShaderPropertySheet
Osk:__ZL104PointerEventData_t1599784723_CustomAttributesCacheGenerator_PointerEventData_set_scrollDelta_m4002219844P21CustomAttributesCache
t5b:__ZN19RenderEventsContextC2Ei
BQ:__Z6simd4fRKf
U1d:_Array_InternalArray__ICollection_CopyTo_TisColor32_t874517518_m379086718_gshared
vBg:_Slider_ClampValue_m2851810895
Ok:_emscripten_glEnable
Hlj:__ZN6il2cpp2gc16GarbageCollector29RegisterFinalizerForNewObjectEP12Il2CppObject
WEa:__ZN10TagManager23VirtualRedirectTransferER14SafeBinaryRead
x6g:_MarshalAsAttribute__ctor_m1892084128
PAc:_UNITY_FT_Init_Class_ft_grays_raster
n6:__ZN14PlayableOutput26ClearInvalidSourcePlayableEv
XRb:__Z15InitLightMeshesv
q8j:__ZL97WaitHandle_t677569169_CustomAttributesCacheGenerator_WaitHandle_t677569169____Handle_PropertyInfoP21CustomAttributesCache
tCe:_KeyValuePair_2_ToString_m1391611625_AdjustorThunk
yn:FUNCTION_TABLE_iifiii
Cri:__ZNSt3__26vectorIP11Il2CppClassNS_9allocatorIS2_EEE24__RAII_IncreaseAnnotatorC2ERKS5_j
mr:__ZN7mecanim9animation14HasHumanCurvesERKNS0_18ClipMuscleConstantE
zJd:_Double_Parse_m1617409931
ROa:__Z13TransferArrayILi4Ei19StreamedBinaryWriteILb0EEEjRAT__T0_PKcRT1_
C_a:__ZN15QualitySettings8TransferI19StreamedBinaryWriteILb0EEEEvRT_
zIe:_List_1_System_Collections_Generic_IEnumerableU3CTU3E_GetEnumerator_m1503548298_gshared
zub:__Z18Transfer_BlittableI19StreamedBinaryWriteILb0EELb1E8Vector2fEvRK29SerializationCommandArgumentsR31RuntimeSerializationCommandInfo
FFc:_cf2_arrstack_init
Vki:__ZNSt3__214__split_bufferIP9FieldInfoRNS_9allocatorIS2_EEE5clearEv
$1j:__ZL65ClassInterfaceAttribute_t910653559_CustomAttributesCacheGeneratorP21CustomAttributesCache
GDi:__ZN15dense_hashtableINSt3__24pairIK10KeyWrapperINS1_IPK14Il2CppAssemblyP11Il2CppClassEEEjEES9_17ReflectionMapHashIS8_EN14dense_hash_mapIS9_jSD_NS9_14EqualsComparerINS0_8equal_toIS8_EEEENS0_9allocatorISB_EEE9SelectKeyESI_SK_E15insert_noresizeERKSB_
vW:__Z15CleanLogHandler7LogTypePKcz
Nfb:__ZN9ShaderLab19SerializedSubShader8TransferI19StreamedBinaryWriteILb0EEEEvRT_
oH:__ZN14AudioBehaviour15ThreadedCleanupEv
UHf:_UTF32Encoding_GetBytes_m2290150495
tCb:__ZN6Camera17RemoveImageFilterERK11ImageFilter
Ena:__ZNSt3__218__insertion_sort_3IR25ValueParameterArraySorterPN20GpuProgramParameters14ValueParameterEEEvT0_S6_T_
HCd:_CaseInsensitiveHashCodeProvider_AreEqual_m2456617355
vig:__Z74RuntimeInvoker_Boolean_t3825574718_HitInfo_t1761367055_HitInfo_t1761367055PFvvEPK10MethodInfoPvPS4_
gOc:__ZZN2UI11CanvasGroup15InitializeClassEvEN38FunctorImpl_117kTransformParentChanged4CallEPviR11MessageData
kug:_LayoutUtility_GetLayoutProperty_m4052007472
yqa:__ZNSt3__214__split_bufferI20ComputeShaderVariantRNS_9allocatorIS1_EEED2Ev
OQj:__ZNSt3__216__to_raw_pointerINS_12basic_stringIDsNS_11char_traitsIDsEENS_9allocatorIDsEEEEEEPT_S8_
FHh:__ZL24UnresolvedVirtualCall_97P12Il2CppObjectS0_iS0_iPK10MethodInfo
Ezb:__Z18Transfer_BlittableI18StreamedBinaryReadILb0EELb1E9BoundsIntEvRK29SerializationCommandArgumentsR31RuntimeSerializationCommandInfo
Cef:_Context_set_WriteSequenceNumber_m3356252710
WNc:__ZN2UI26InitializeDeviceForOverlayEi
yme:_Guid_Equals_m2389236871
uY:__Z27LogRepeatingStringWithFlagsRKN4core12basic_stringIcNS_20StringStorageDefaultIcEEEE15LogMessageFlagsi
iFe:_Enumerator_MoveNext_m3483405135_gshared
pt:__ZN17AnimationPlayable28ComputeNeedsBindingRebuildedEv
vs:__ZN17AnimationPlayable23RequestAllocateBindingsEv
hai:__ZNSt3__29allocatorIN6il2cpp2os19SocketHandleWrapperEE9constructIS3_JRKS3_EEEvPT_DpOT0_
j2g:_DefaultComparer__ctor_m2859550749_gshared
B0d:_Array_InternalArray__ICollection_Add_TisMonoResource_t3127387157_m2070096275_gshared
nGe:_List_1_CheckIndex_m3609163576_gshared
Umi:__ZNSt3__216allocator_traitsINS_9allocatorINS_11__tree_nodeIP11Il2CppClassPvEEEEE8allocateERS7_j
Rik:__ZL62PlayableOutputHandle_t551742311_CustomAttributesCacheGeneratorP21CustomAttributesCache
$Kb:__ZNSt3__227__insertion_sort_incompleteIRPFbP10GUIElementS2_EPS2_EEbT0_S7_T_
egc:__Z41Register_UnityEngine_Input_GetMouseButtonv
LTc:__ZN18UnityConnectClient33OnPlayerSessionStateChangedStaticEPS_jyy
VZj:__ZL74CaseInsensitiveHashCodeProvider_t2307530285_CustomAttributesCacheGeneratorP21CustomAttributesCache
PQf:_UIntPtr__ctor_m3900568171_AdjustorThunk
igj:__ZNSt3__217__compressed_pairIjNS_19__map_value_compareIP24Il2CppReflectionAssemblyNS_12__value_typeIS3_PvEENS_4lessIS3_EELb1EEEE5firstEv
wqk:__ZL103UISystemProfilerApi_t845863050_CustomAttributesCacheGenerator_UISystemProfilerApi_EndSample_m3264820872P21CustomAttributesCache
sT:__ZNK11UnityEngine15CloudWebService23WebRequestUploadHandler11GetProgressEv
MQi:__ZN15dense_hashtableINSt3__24pairIK10KeyWrapperIPK14Il2CppAssemblyEPK22Il2CppMonoAssemblyNameEES6_N6il2cpp5utils11PointerHashIS4_EEN14dense_hash_mapIS6_SA_SF_NS6_14EqualsComparerINS0_8equal_toIS5_EEEENS0_9allocatorISB_EEE9SelectKeyESK_SM_E21fill_range_with_emptyEPSB_SQ_
Ifa:__ZN7ApiGLES4LoadE16GfxDeviceLevelGL
yYa:__ZN18StreamedBinaryReadILb0EE21TransferSTLStyleArrayI13dynamic_arrayI31EnlightenSystemAtlasInformationLj8EEEEvRT_17TransferMetaFlags
Dia:__ZN4crnd12crn_unpacker22decode_color_endpointsEv
Gjj:__ZN15dense_hashtableI10KeyWrapperIP18Il2CppGenericClassES3_N6il2cpp8metadata22Il2CppGenericClassHashEN14dense_hash_setIS3_S6_NS3_14EqualsComparerINS5_25Il2CppGenericClassCompareEEENSt3__29allocatorIS3_EEE8IdentityESA_SD_E15insert_noresizeERKS3_
E0e:_ReadOnlyCollection_1_System_Collections_IList_Clear_m3006875897_gshared
R3b:__ZZL31RegisterOtherRendererPropertiesR22GenericPropertyBindingEN30Wrapper_RendererReceiveShadows13GetFloatValueEPv
jgk:__ZL80GameObject_t1756533147_CustomAttributesCacheGenerator_GameObject_Find_m279709565P21CustomAttributesCache
P7f:__Z130RuntimeInvoker_Void_t1841601450_RuntimeObject_Int32U26_t455636984_ByteU26_t1147306860_Int32U26_t455636984_ByteU5BU5DU26_t790777611PFvvEPK10MethodInfoPvPS4_
AFe:_Enumerator_System_Collections_IEnumerator_get_Current_m3866069145_gshared
ybe:_PreviousInfo_t581002487_marshal_pinvoke_cleanup
FFb:__ZN8Material11SetPassFastEPN9ShaderLab4PassER17ShaderPassContextP6Shaderib
$_a:__ZNK13ScreenManager13GetLockCursorEv
JTc:__ZN11UnityEngine7Connect20BasePersistentValues10SaveValuesER9JSONWrite
cFh:_AudioListener_AddExtension_m2954727157
Pbd:_ExecuteEvents_get_pointerDownHandler_m1172742772
vai:__ZNKSt3__228__libcpp_compressed_pair_impIPN6il2cpp2os19SocketHandleWrapperENS_9allocatorIS3_EELj2EE6secondEv
L9b:__Z14ScaleCurveTimeR17AnimationCurveTplIfEf
v4:__ZN22VirtualJoystickManagerC2Ev
eMb:__Z12SetupLODFadeR9GfxDeviceR17ShaderPassContextf
MUa:__ZNK14PlayableOutput7GetTypeEv
g7f:__Z203RuntimeInvoker_Boolean_t3825574718_RuntimeObject_Int32U26_t455636984_Int32_t2071877448_Int32_t2071877448_RuntimeObject_SByte_t454417549_Int32_t2071877448_ContractionU26_t2019974048_ContextU26_t3131521781PFvvEPK10MethodInfoPvPS4_
Eih:_X501_ToString_m3328169518
KRb:__ZL24CollectForwardObjectsJobP27CollectForwardObjectsHeader
b4g:_Enumerator_System_Collections_IDictionaryEnumerator_get_Entry_m345330700_gshared
x5h:__ZNK15dense_hashtableINSt3__24pairIK10KeyWrapperIPK11Il2CppClassEPKcEES6_N6il2cpp5utils11PointerHashIS3_EEN14dense_hash_mapIS6_S9_SE_NS6_14EqualsComparerINS0_8equal_toIS5_EEEENS0_9allocatorISA_EEE9SelectKeyESJ_SL_E12test_deletedERK24dense_hashtable_iteratorISA_S6_SE_SN_SJ_SL_E
D5j:__ZL53HMACSHA256_t2622794722_CustomAttributesCacheGeneratorP21CustomAttributesCache
hVb:__ZNK25CameraStackRenderingState24ResolveTempToEyeTexturesEv
HTb:__Z13IsNodeVisibleRK9SceneNodeRK4AABBRK22SceneCullingParameters
J5h:__ZN15dense_hashtableINSt3__24pairIK10KeyWrapperIPKcEP11Il2CppClassEES5_N6il2cpp5utils11StringUtils12StringHasherIS4_EEN14dense_hash_mapIS5_S8_SE_NS5_14EqualsComparerINSB_13VmStringUtils21CaseSensitiveComparerEEENS0_9allocatorIS9_EEE9SelectKeyESJ_SL_E13clear_deletedER30dense_hashtable_const_iteratorIS9_S5_SE_SN_SJ_SL_E
o_f:_EventInfo__ctor_m1190141300
BUg:_InternalEnumerator_1_MoveNext_m3585886944_gshared
PPc:__Z57RectTransformUtility_CUSTOM_INTERNAL_CALL_PixelAdjustRectP12Il2CppObjectS0_R5RectTIfE
Poi:__ZNSt3__213__vector_baseIPK10MethodInfoNS_9allocatorIS3_EEEC2Ev
xzi:__ZNSt3__216allocator_traitsINS_9allocatorINS_12basic_stringIcNS_11char_traitsIcEENS1_IcEEEEEEE7destroyIS6_EEvRS7_PT_
FUb:__Z24ScheduleCullingAllGroupsR8JobFenceRK22SceneCullingParametersiRK13CullingOutputRK13dynamic_arrayIP12CullingGroupLj4EERKS_
Tzf:_DelayedFixupRecord_FixupImpl_m4249966635
MZk:_emscripten_glStencilMask__wrapper
D0h:__ZN15dense_hashtableI10KeyWrapperIPK19Il2CppGenericMethodES4_N6il2cpp8metadata23Il2CppGenericMethodHashEN14dense_hash_setIS4_S7_NS4_14EqualsComparerINS6_26Il2CppGenericMethodCompareEEENSt3__29allocatorIS4_EEE8IdentityESB_SE_EC2ERKSH_j
Xbe:_BigInteger_ToString_m3837784224
VPd:_Decimal_decimalCompare_m26009298
$za:__ZNK17ArchiveFileSystem8PositionERK13FileEntryData
pvc:__ZN16NovodexAllocator8allocateEjPKcS1_i
hRd:_DllNotFoundException__ctor_m267198482
jRb:__Z17PrepareShadowMapsRK11CullResultsRK11ActiveLightRK10MinMaxAABB
Png:__Z75RuntimeInvoker_Boolean_t3825574718_CustomAttributeTypedArgument_t1498197914PFvvEPK10MethodInfoPvPS4_
pJf:_NativeEventCalls_CreateEvent_internal_m1605829321
fHe:_List_1_GetIndex_m3409004147_gshared
pkk:__ZL73RuntimePlatform_t1869584967_CustomAttributesCacheGenerator_MetroPlayerX64P21CustomAttributesCache
bGh:__ZL24UnresolvedVirtualCall_13P12Il2CppObjectaPK10MethodInfo
tYg:_InternalEnumerator_1_System_Collections_IEnumerator_get_Current_m3239681450_AdjustorThunk
Cdb:__ZNSt3__26vectorIN9ShaderLab20SerializedSubProgram15VectorParameterENS_9allocatorIS3_EEEC2ERKS6_
HRb:__ZN9ShaderLab10GrabPassesD2Ev
pSi:__ZN10KeyWrapperINSt3__24pairIPK10MethodInfoP11Il2CppClassEEEC2ENS8_11KeyTypeEnumE
q1a:__ZN14Texture2DArray13UploadTextureEv
P4c:_SecurityFrame_t1002202659_marshal_pinvoke
cDc:_tt_cmap14_done
n9a:__ZN18AwakeFromLoadQueue25RegisterObjectInstanceIDsEv
gfk:__ZL75Camera_t189460977_CustomAttributesCacheGenerator_Camera_get_main_m881971336P21CustomAttributesCache
jxd:_Buffer_BlockCopy_m1586717258
b5j:__ZL93X509Certificate_t283079845_CustomAttributesCacheGenerator_X509Certificate_GetName_m2354987368P21CustomAttributesCache
lw:__ZNK27AnimationLayerMixerPlayable11DerivesFromE17ScriptingClassPtr
txc:__ZN20TextRenderingPrivate19NativeTextGenerator15InsertCharacterEiPj
CYi:__ZN10KeyWrapperINSt3__24pairIP11Il2CppClassjEEEC2ERKS4_
xWg:_InternalEnumerator_1__ctor_m3589241961_AdjustorThunk
yUd:_CompareInfo_GetSortKey_m3691382873
MUg:_InternalEnumerator_1_MoveNext_m1791963761_AdjustorThunk
ROd:_DBNull_ToString_m3228904745
amc:__ZN5IMGUI20MoveWindowFromLayoutER8GUIStateiRK5RectTIfE
D0c:_SHA1Managed_HashCore_m2658295635
chi:__ZNSt3__214__split_bufferI6pollfdRNS_9allocatorIS1_EEE17__destruct_at_endEPS1_
Uu:__ZN17AnimationPlayableD0Ev
raf:_RC4_get_IV_m506011366
Mjh:_X509Crl__ctor_m2469408229
rvb:__Z18Transfer_BlittableI19StreamedBinaryWriteILb0EELb0EyEvRK29SerializationCommandArgumentsR31RuntimeSerializationCommandInfo
n2j:__ZL82SafeHandle_t2733794115_CustomAttributesCacheGenerator_SafeHandle_Close_m1146946803P21CustomAttributesCache
o4g:_Enumerator_get_CurrentValue_m3562053380_AdjustorThunk
iJh:__ZL25UnresolvedVirtualCall_182P12Il2CppObject6Guid_tPK10MethodInfo
ssf:_X509SubjectKeyIdentifierExtension_CopyFrom_m136762226
cmk:__ZL86Logger_t3328995178_CustomAttributesCacheGenerator_Logger_get_filterLogType_m3137240955P21CustomAttributesCache
IDe:_Enumerator_System_Collections_IEnumerator_Reset_m610822832_AdjustorThunk
nzc:__ZN20TextRenderingPrivate15DynamicFontData21GetFontMetricsForFaceERK13dynamic_arrayIN4core17string_with_labelILi35EEELj4EEiRKS1_I4PPtrIN13TextRendering4FontEELj4EEPfSF_
nyc:_UNITY_FT_Open_Face
ffj:__ZNSt3__228__libcpp_compressed_pair_impIPPK11Il2CppClassRNS_9allocatorIS3_EELj0EEC2ES4_S7_
EVk:_glGenRenderbuffers__wrapper
MKi:__ZNK17ReflectionMapHashINSt3__24pairIPK11Il2CppImageP11Il2CppClassEEEclERKS7_
Sce:_BigInteger_op_Division_m1581119694
fBf:_CallbackHandler_Invoke_m1498072969
_Xc:_DSACryptoServiceProvider__ctor_m701823690
uqg:__Z74RuntimeInvoker_Void_t1841601450_Int32_t2071877448_ResourceInfo_t3933049236PFvvEPK10MethodInfoPvPS4_
DTf:_CustomAttributeData_GetCustomAttributes_m2421330738
Ohf:_SecurityParameters_set_ClientWriteMAC_m1970377285
vMh:_TextGenerator_GetVerticesInternal_m514005870
cuj:__ZNSt3__210unique_ptrINS_11__tree_nodeINS_12basic_stringIcNS_11char_traitsIcEENS_9allocatorIcEEEEPvEENS_22__tree_node_destructorINS5_IS9_EEEEEC2EPS9_OSC_
Edj:__ZN30dense_hashtable_const_iteratorINSt3__24pairIK10KeyWrapperINS1_IPKcS4_EEEiEES6_24NamespaceAndNamePairHashN14dense_hash_mapIS6_iS9_NS6_14EqualsComparerI26NamespaceAndNamePairEqualsEENS0_9allocatorIS8_EEE9SelectKeyESD_SF_EppEv
TMf:_Type_get_IsEnum_m313908919
eec:__Z44Register_UnityEngine_Component_get_transformv
WNe:_List_1_Reverse_m3395936565_gshared
eci:__ZNSt3__26vectorIP17Il2CppAsyncResultN6il2cpp2gc9AllocatorIS2_EEE11__make_iterEPS2_
_Ue:_Collection_1_System_Collections_ICollection_CopyTo_m1335644572_gshared
CB:__ZN12_GLOBAL__N_120ProcessPlayableGraphERN8Animator11AnimatorJobER35AnimationPlayableEvaluationConstantR32AnimationPlayableEvaluationInputR33AnimationPlayableEvaluationOutputPFvS4_R17AnimationPlayableEPFvS4_S6_S8_EPFvS8_S4_S6_S8_fESE_MS9_FvPS3_PS5_PS7_E
RLe:_List_1_CheckMatch_m2830747427_gshared
SQj:__ZNSt3__27forwardIPNS_12basic_stringIDsNS_11char_traitsIDsEENS_9allocatorIDsEEEEEEOT_RNS_16remove_referenceIS8_E4typeE
RHb:__ZN17ArchiveFileSystem12MountArchiveEPKcS1_
UQd:_StackFrame_GetMethod_m72881026
qYh:__ZNSt3__29allocatorINS_4pairIK10KeyWrapperIPKcEP11Il2CppClassEEE10deallocateEPS9_j
Ppc:__Z18Transfer_BlittableI9JSONWriteLb1E8Vector4fEvRK29SerializationCommandArgumentsR31RuntimeSerializationCommandInfo
un:FUNCTION_TABLE_viififiii
NFa:__Z30GetScriptableCullingParametersR6CameraR27ScriptableCullingParameters
qEg:_Enumerator_System_Collections_IEnumerator_Reset_m70453843_gshared
eZa:__ZThn32_NK8Renderer14GetSubsetIndexEi
N9f:__Z58RuntimeInvoker_Byte_t3683104436_IntPtr_t_Int32_t2071877448PFvvEPK10MethodInfoPvPS4_
Q6d:_Dictionary_2_Do_CopyTo_TisKeyValuePair_2_t1174980068_TisRuntimeObject_m3279061992_gshared
oFj:_GC_find_header
cxk:__ZL59Slider_t297367283_CustomAttributesCacheGenerator_m_MinValueP21CustomAttributesCache
C2b:__ZN13ProduceHelperI15ResourceManagerLb0EE7ProduceE18MemLabelIdentifier18ObjectCreationMode
Jca:__ZN9GfxDevice15ImmediateVertexEfff
i0b:__Z13RegisterClassI8MaterialEvv
w6j:__ZL51Evidence_t1407710183_CustomAttributesCacheGeneratorP21CustomAttributesCache
NXa:__ZNK16LightmapSettings22GetTypeVirtualInternalEv
Quh:_WindowFunction_BeginInvoke_m87819360
mKa:__ZN16GraphicsSettings13AwakeFromLoadE17AwakeFromLoadMode
FTd:_FieldAccessException__ctor_m3893881490
ouc:__ZN8JSONRead21TransferSTLStyleArrayI13dynamic_arrayItLj2EEEEvRT_17TransferMetaFlags
Sp:__ZN6Object13AwakeFromLoadE17AwakeFromLoadMode
eaa:__ZN13GfxDeviceGLES15SetStencilStateEPK18DeviceStencilStatei
Odi:__ZN6il2cpp2os6Atomic13MemoryBarrierEv
jhg:__Z107RuntimeInvoker_Void_t1841601450_Single_t2076509932_Single_t2076509932_Single_t2076509932_Single_t2076509932PFvvEPK10MethodInfoPvPS4_
kLk:_cycle
Ymj:__ZNSt3__217__compressed_pairIjNS_19__map_value_compareIjNS_12__value_typeIjN6il2cpp2os17SocketHandleEntryEEENS_4lessIjEELb1EEEE5firstEv
c1h:__ZNSt3__218uninitialized_fillIP10KeyWrapperIPK19Il2CppGenericMethodES5_EEvT_S7_RKT0_
rck:__ZL72PKCS12_t1362584795_CustomAttributesCacheGenerator_U3CU3Ef__switchU24map5P21CustomAttributesCache
Ed:_emscripten_glUniform1iv
SCg:_Text_get_preferredHeight_m452532789
tPh:_AnimationOffsetPlayable_Equals_m1510591175
Cjj:__ZNSt3__24pairI30dense_hashtable_const_iteratorI10KeyWrapperIP18Il2CppGenericClassES5_N6il2cpp8metadata22Il2CppGenericClassHashEN14dense_hash_setIS5_S8_NS5_14EqualsComparerINS7_25Il2CppGenericClassCompareEEENS_9allocatorIS5_EEE8IdentityESC_SE_EbEC2IR24dense_hashtable_iteratorIS5_S5_S8_SG_SC_SE_ERbvEEOT_OT0_
u6c:_String_System_IConvertible_ToDouble_m3860911722
Vkb:__ZN16MemoryFileSystemD2Ev
L0g:_InternalEnumerator_1_get_Current_m3732458101_AdjustorThunk
ALg:_Dictionary_2_System_Collections_Generic_ICollectionU3CSystem_Collections_Generic_KeyValuePairU3CTKeyU2CTValueU3EU3E_Contains_m842343255_gshared
L8e:_ARC4Managed__ctor_m2922048522
Exc:__Z17dynamic_pptr_castIP9Texture2D7TextureET_RK4PPtrIT0_E
r1e:_ReadOnlyCollection_1_System_Collections_IList_set_Item_m1272038804_gshared
NTg:_InternalEnumerator_1_System_Collections_IEnumerator_get_Current_m1931522460_AdjustorThunk
a3c:_SecurityPermission_IsEmpty_m1869313067
drf:_X509CertificateCollection__ctor_m3709509050
Pdc:__Z37Register_UnityEngine_Camera_get_depthv
dge:_EncryptedPrivateKeyInfo_get_Salt_m2734354394
cph:_UsedByNativeCodeAttribute__ctor_m3185822159
n3e:_ReadOnlyCollection_1_System_Collections_Generic_IListU3CTU3E_set_Item_m1918537449_gshared
nUe:_Collection_1_System_Collections_ICollection_CopyTo_m3896480607_gshared
vcd:_PointerEventData_set_position_m794507622
ROj:__ZNSt3__26__treeIPFvvENS_4lessIS2_EENS_9allocatorIS2_EEE15__insert_uniqueERKS2_
lEk:_UnityEvent_GetDelegate_m1261032859
H$b:__ZN15ApplicationInfo16GetInstallerNameEv
_Zb:__Z23ConvertIntegerToTypePtrItEbPvR14SafeBinaryRead
gJj:__ZNSt3__210unique_ptrINS_11__list_nodeIPN6il2cpp5utils10MemoryPool6RegionEPvEENS_22__allocator_destructorINS_9allocatorIS8_EEEEEC2EPS8_OSC_
eC:__ZN7mecanim5human29HumanGetGoalOrientationOffsetENS0_4GoalE
Vd:_emscripten_glStencilFunc
WFh:__ZL23UnresolvedVirtualCall_6P12Il2CppObjectiPK10MethodInfo
BTh:__ZNSt3__27forwardIPjEEOT_RNS_16remove_referenceIS2_E4typeE
bOg:_DefaultComparer_GetHashCode_m3315096533_gshared
U0f:_MonoMethod_MakeGenericMethod_impl_m2063853616
Q4c:__Z46il2cpp_codegen_get_marshal_directive_exceptionPKc
Ygb:__ZN9ShaderLab20SerializedSubProgram14AddMatrixParamEPKcii15ShaderParamTypei
COa:__ZN24GenerateTypeTreeTransfer8TransferI13dynamic_arrayI8Vector3fLj4EEEEvRT_PKc17TransferMetaFlags
$d:_glGetActiveUniformBlockName
_kd:_FontData_set_verticalOverflow_m4211463083
dJk:_FacebookManager__ctor_m2540566802
Kf:_emscripten_glUniform1fv
Gme:_Guid_AppendByte_m2890893073
xxj:__ZNK14dense_hash_mapI10KeyWrapperIPK19Il2CppGenericMethodEP10MethodInfoN6il2cpp8metadata23Il2CppGenericMethodHashENS4_14EqualsComparerINS8_26Il2CppGenericMethodCompareEEENSt3__29allocatorINSD_4pairIKS4_S6_EEEEE9SelectKeyclERKSH_
m3i:__ZNSt3__2eqINS_9allocatorIcEEEEbRKNS_12basic_stringIcNS_11char_traitsIcEET_EES9_
vyd:_Char_System_IConvertible_ToType_m3106771703_AdjustorThunk
vuf:_Interval_Intersects_m3480157390_AdjustorThunk
sgc:__Z39Quaternion_CUSTOM_INTERNAL_CALL_InverseRK11QuaternionfRS_
h6g:_GCHandle_Alloc_m1063472408
OI:__ZN4FMOD7Channel20set3DConeOrientationEP11FMOD_VECTOR
btk:__ZL86StandaloneInputModule_t70867863_CustomAttributesCacheGenerator_m_InputActionsPerSecondP21CustomAttributesCache
ln:FUNCTION_TABLE_iiifii
snk:__ZL54SkeletonBone_t345082847_CustomAttributesCacheGeneratorP21CustomAttributesCache
YDf:_CryptoConfig_CreateFromName_m391442950
eOh:_RectTransformUtility_INTERNAL_CALL_PixelAdjustRect_m3338747528
uoj:__ZN6il2cpp2vm12GenericClass11SetupEventsEP11Il2CppClass
ZIc:_tt_delta_interpolate
XCc:_tt_cmap12_get_info
vkd:_U3CDelayedDestroyDropdownListU3Ec__Iterator0_Dispose_m3973609370
kaj:__ZN6il2cpp2vm15ReboxIReferenceEP14Il2CppIUnknownP11Il2CppClass
Uwe:_StreamWriter_LowLevelWrite_m4205372900
e_h:__ZNK15dense_hashtableINSt3__24pairIK10KeyWrapperIPK19Il2CppGenericMethodEPK26Il2CppGenericMethodIndicesEES6_N6il2cpp8metadata23Il2CppGenericMethodHashEN14dense_hash_mapIS6_SA_SE_NS6_14EqualsComparerINSD_26Il2CppGenericMethodCompareEEENS0_9allocatorISB_EEE9SelectKeyESI_SK_E4sizeEv
BOh:__ZN6il2cpp6icalls8mscorlib6System7Decimal14decimalCompareEP19il2cpp_decimal_reprS5_
WCj:__ZThn4_N6il2cpp2vm13CachedCCWBaseINS0_13ManagedObjectEE7ReleaseEv
h$f:_Module__ctor_m3853650010
_Cd:_CollectionBase_System_Collections_IList_get_Item_m2370387510
r4j:__ZL59RemotingException_t109604560_CustomAttributesCacheGeneratorP21CustomAttributesCache
S4h:__ZL29ConvertPackingSizeEnumToValue11PackingSize
IEi:__ZNSt3__29allocatorINS_4pairIK10KeyWrapperINS1_IPK14Il2CppAssemblyP11Il2CppClassEEEjEEE8allocateEjPKv
y5d:_Array_Sort_TisCustomAttributeNamedArgument_t94157543_m3436077809_gshared
QWk:_glCopyTexImage2D__wrapper
Jrd:_LayoutElement__ctor_m789941073
Drk:__ZL77ExecuteEvents_t1693084770_CustomAttributesCacheGenerator_U3CU3Ef__mgU24cache9P21CustomAttributesCache
E1j:__ZL68TargetInvocationException_t4098620458_CustomAttributesCacheGeneratorP21CustomAttributesCache
xbk:__ZL56RankException_t1539875949_CustomAttributesCacheGeneratorP21CustomAttributesCache
XW:__GLOBAL__sub_I_runtime_graphics_billboard_0_cpp
e$i:__ZNSt3__26vectorIP12Il2CppThreadN6il2cpp2gc9AllocatorIS2_EEE26__invalidate_all_iteratorsEv
MFb:__Z18ClearByDrawingQuad13GfxClearFlagsRK10ColorRGBAffjR17ShaderPassContext
U8g:_DynamicPropertyCollection_FindProperty_m1233265924
zla:__ZN6prcoreL17RemapGenericFloatI14TexFormatRHalf15TexFormatRFloatEEvPKNS_9InnerInfoE
VLb:__Z16ShouldUseShadowsb
g6:__ZN15DirectorManager21RebuildStageCallbacksEv
ZFb:__ZN19RuntimeSceneManager9LoadSceneERKN4core12basic_stringIcNS0_20StringStorageDefaultIcEEEES6_S6_RK9UnityGUIDiNS_11LoadingModeE
tGh:__ZL24UnresolvedVirtualCall_31P12Il2CppObjectiS0_S0_PK10MethodInfo
Fqk:__ZL115CanvasRenderer_t261436805_CustomAttributesCacheGenerator_CanvasRenderer_INTERNAL_CALL_EnableRectClipping_m610385697P21CustomAttributesCache
Jma:__ZN7ApiGLES10DrawArraysE16GfxPrimitiveTypejjj
V4i:__ZNKSt3__26vectorI20Il2CppStackFrameInfoNS_9allocatorIS1_EEE3endEv
mG:__ZN10SampleClip13LoadBaseSoundEv
pnh:_RectOffset_get_left_m1496351507
$9f:__Z49RuntimeInvoker_TimeSpan_t3430258949_RuntimeObjectPFvvEPK10MethodInfoPvPS4_
HP:__Z57AudioSource_CUSTOM_INTERNAL_CALL_ClearExtensionPropertiesP12Il2CppObjectRK12PropertyName
fmj:__ZN15dense_hashtableINSt3__24pairIK10KeyWrapperIP12Il2CppObjectEN6il2cpp2gc9CachedCCWEEES5_NS7_5utils11PointerHashIS3_EEN14dense_hash_mapIS5_S9_SD_NS5_14EqualsComparerINS0_8equal_toIS4_EEEENS0_9allocatorISA_EEE9SelectKeyESI_SK_E15insert_noresizeERKSA_
iYe:_Collection_1_Contains_m643401393_gshared
hUa:__ZN22DeviceMVPMatricesStateC2ER9GfxDevice
Eik:__ZL111Object_t1021602117_CustomAttributesCacheGenerator_Object_DestroyImmediate_m3250094537____allowDestroyingAssets1P21CustomAttributesCache
m6c:_String__ctor_m372528291
Xm:FUNCTION_TABLE_iifii
xfi:__ZNSt3__210unique_ptrINS_11__list_nodeIP17Il2CppAsyncResultPvEENS_22__allocator_destructorIN6il2cpp2gc9AllocatorIS5_EEEEE5resetEPS5_
hFi:__ZN14dense_hash_mapI10KeyWrapperINSt3__24pairIPK9FieldInfoP11Il2CppClassEEEj17ReflectionMapHashIS8_ENS9_14EqualsComparerINS1_8equal_toIS8_EEEENS1_9allocatorINS2_IKS9_jEEEEE4findERSH_
Kki:__ZNSt3__26vectorIP9FieldInfoNS_9allocatorIS2_EEE9push_backERKS2_
K$a:__ZNSt3__26vectorI13dynamic_arrayI8Vector2fLj4EENS_9allocatorIS3_EEE6assignINS_11__wrap_iterIPS3_EEEENS_9enable_ifIXaasr21__is_forward_iteratorIT_EE5valuesr16is_constructibleIS3_NS_15iterator_traitsISC_E9referenceEEE5valueEvE4typeESC_SC_
SG:__GLOBAL__sub_I_runtime_video_0_cpp
JFf:_Encoding_SetFallbackInternal_m1682842442
MTi:__ZN6il2cpp2vm10Reflection12HasAttributeEP9FieldInfoP11Il2CppClass
Lya:__ZNSt3__26__treeIiNS_4lessIiEE13stl_allocatorIiL18MemLabelIdentifier1ELi16EEE7destroyEPNS_11__tree_nodeIiPvEE
gc:invoke_viiifi
Hki:__ZNSt3__216allocator_traitsINS_9allocatorIP9FieldInfoEEE9__destroyIS3_EEvNS_17integral_constantIbLb1EEERS4_PT_
Tjk:__ZL139AttributeHelperEngine_t958797062_CustomAttributesCacheGenerator_AttributeHelperEngine_GetParentTypeDisallowingMultipleInclusion_m3087158272P21CustomAttributesCache
Sze:_LongComparer_Compare_m3981323622
Hri:__ZNSt3__214__split_bufferIP11Il2CppClassRNS_9allocatorIS2_EEEC2EjjS5_
Dhd:_ContentSizeFitter_get_horizontalFit_m892469688
Tyk:__ZL109LayoutUtility_t4076838048_CustomAttributesCacheGenerator_LayoutUtility_U3CGetFlexibleHeightU3Em__7_m947156537P21CustomAttributesCache
tfe:__ZN23InterfaceActionInvoker2IP8String_tP12Il2CppObjectE6InvokeEjP11Il2CppClassS3_S1_S3_
HBg:_Slider_FindSelectableOnUp_m15474611
Mya:__ZNK11AssetBundle14GetPreloadDataEiR13dynamic_arrayIiLj4EE
lhe:_EncryptedData_get_EncryptedContent_m2732115576
sik:__ZL70Time_t31991979_CustomAttributesCacheGenerator_Time_get_time_m518788937P21CustomAttributesCache
qBj:__ZNSt3__211__wrap_iterIPPK11Il2CppClassEC2ES4_
qsh:_Vector3__ctor_m2761639014
jf:_JS_Sound_SetPosition
ddh:_Assertion_set_FalseExpression_m1781616372
osf:_X509SubjectKeyIdentifierExtension_FromHexChars_m2515150420
qQa:__ZN19RenderBufferManager13GetTempBufferEii17DepthBufferFormat19RenderTextureFormatj22RenderTextureReadWrite14VRTextureUsagei23RenderTextureMemoryless
N7h:__ZL13GetSharedInstPK17Il2CppGenericInst
HYj:__ZL51IReflect_t3412036974_CustomAttributesCacheGeneratorP21CustomAttributesCache
ved:_StandaloneInputModule_SendSubmitEventToSelectedObject_m3421155293
Glh:_Quaternion_Equals_m798965363_AdjustorThunk
eTb:__Z17PrepareSceneNodesP11CullResults
fNh:_Canvas_get_sortingLayerID_m137448982
Gah:_CallContextRemotingData_Clone_m2226242476
q$:__Z63ThreadAndSerializationSafeCheckSetMonoBehaviourBeingTransferredP13MonoBehaviour
T0h:__ZNK30dense_hashtable_const_iteratorI10KeyWrapperIPK19Il2CppGenericMethodES4_N6il2cpp8metadata23Il2CppGenericMethodHashEN14dense_hash_setIS4_S7_NS4_14EqualsComparerINS6_26Il2CppGenericMethodCompareEEENSt3__29allocatorIS4_EEE8IdentityESB_SE_EneERKSH_
xjj:__ZN10KeyWrapperIP18Il2CppGenericClassEC2ERKS1_
GQj:__ZNSt3__216allocator_traitsINS_9allocatorINS_12basic_stringIDsNS_11char_traitsIDsEENS1_IDsEEEEEEE10deallocateERS7_PS6_j
NRb:__Z24SetupActiveLightsContextR21ActiveLightingContextRK12ActiveLightsRK11CullResultsP14ShadowMapCacheRK10MinMaxAABB
pMg:_Dictionary_2_System_Collections_Generic_ICollectionU3CSystem_Collections_Generic_KeyValuePairU3CTKeyU2CTValueU3EU3E_Contains_m3400497673_gshared
aic:__Z38Sprite_CUSTOM_INTERNAL_get_textureRectP12Il2CppObjectP5RectTIfE
OOd:_DBNull_System_IConvertible_ToUInt32_m2681284284
dcj:__ZNSt3__29addressofIK20Il2CppStackFrameInfoEEPT_RS3_
DRi:__ZNK15dense_hashtableINSt3__24pairIK10KeyWrapperIPK22Il2CppGenericParameterEPK24MonoGenericParameterInfoEES6_N6il2cpp5utils11PointerHashIS4_EEN14dense_hash_mapIS6_SA_SF_NS6_14EqualsComparerINS0_8equal_toIS5_EEEENS0_9allocatorISB_EEE9SelectKeyESK_SM_E3endEv
wbc:__ZN9TextAsset7SetTextERKN4core12basic_stringIcNS0_20StringStorageDefaultIcEEEE
DIa:__ZN6Camera8TransferI24GenerateTypeTreeTransferEEvRT_
VQg:_EqualityComparer_1__cctor_m416314417_gshared
Ha:invoke_iiiiiiif
Ea:invoke_iiiiiiii
Hqf:_X509ChainElementCollection_Contains_m3599995067
eVb:__ZN8Renderer17PendingAddToSceneEv
K_k:b123
J_k:b122
M_k:b125
L_k:b124
SIk:_BreakPoint_share_m806091185
O_k:b126
Y_k:b129
mhc:__Z52Register_UnityEngine_RectTransform_INTERNAL_get_rectv
h_:__Z21PostprocessStacktracePKcRN4core12basic_stringIcNS1_20StringStorageDefaultIcEEEE
aNe:_List_1_ToArray_m2390522926_gshared
w2j:__ZL70TypeLibImportClassAttribute_t2390314680_CustomAttributesCacheGeneratorP21CustomAttributesCache
$6a:__ZN18StreamedBinaryReadILb0EE21TransferSTLStyleArrayI13dynamic_arrayI16SplashScreenLogoLj4EEEEvRT_17TransferMetaFlags
sgb:__ZNSt3__26vectorIPN9ShaderLab9SubShaderENS_9allocatorIS3_EEE21__push_back_slow_pathIKS3_EEvRT_
uXd:_Array_InternalArray__ICollection_Remove_TisX509ChainStatus_t4278378721_m4127982424_gshared
Zdc:__Z47Register_UnityEngine_Camera_get_allCamerasCountv
Coj:___cxx_global_var_init_14828
sqk:__ZL92Canvas_t209405766_CustomAttributesCacheGenerator_Canvas_GetDefaultCanvasMaterial_m4265316988P21CustomAttributesCache
YXc:___clang_call_terminate
Kx:__ZThn148_NK26AnimatorControllerPlayable24HasStateMachineBehaviourEv
aRc:__ZN22BaseUnityConnectClient20StartEventDispatcherEv
c9b:__ZNSt3__26vectorIj13stl_allocatorIjL18MemLabelIdentifier1ELi16EEE6assignIPKtEENS_9enable_ifIXaasr21__is_forward_iteratorIT_EE5valuesr16is_constructibleIjNS_15iterator_traitsIS9_E9referenceEEE5valueEvE4typeES9_S9_
UA:__ZN7mecanim9animation16EvaluateAvatarIKEPKNS0_14AvatarConstantEPKNS0_11AvatarInputEPNS0_12AvatarOutputEPNS0_12AvatarMemoryEPNS0_15AvatarWorkspaceEb
hna:__ZL25ProgramUniformMatrix4x3fvPK7ApiGLESjiihPKv
rZb:__Z29StdTemplateConversionFunctionIsiEbPvR14SafeBinaryRead
cJb:__ZN12InputManager13InputEndFrameEv
ZEd:_SyncHashtable__ctor_m2029869827
Ami:__ZNSt3__26__treeIP11Il2CppClassNS_4lessIS2_EENS_9allocatorIS2_EEE25__emplace_unique_key_argsIS2_JRKS2_EEENS_4pairINS_15__tree_iteratorIS2_PNS_11__tree_nodeIS2_PvEEiEEbEERKT_DpOT0_
jSj:__ZNSt3__29allocatorINS_11__tree_nodeINS_12__value_typeIPFvvEPK10MethodInfoEEPvEEE10deallocateEPSA_j
y_i:__ZN6il2cpp2vm6Thread5SetupEP12Il2CppThread
C4e:_ReadOnlyCollection_1_System_Collections_IList_Remove_m2200089035_gshared
iUe:_Collection_1_CheckWritable_m2756357359_gshared
pMk:___munmap
cpd:_InputField_get_characterLimit_m2386380888
Ptk:__ZL68ColorBlock_t2652774230_CustomAttributesCacheGenerator_m_PressedColorP21CustomAttributesCache
hKd:_Convert_ToInt64_m1722087499
ag:_localtime_r
x8j:__ZL81AppDomain_t2719102437_CustomAttributesCacheGenerator_assembly_resolve_in_progressP21CustomAttributesCache
i2j:__ZL65InterfaceTypeAttribute_t4113096249_CustomAttributesCacheGeneratorP21CustomAttributesCache
dg:_strftime
zpa:__ZN7Texture33SetStoredColorSpaceNoDirtyNoApplyE17TextureColorSpace
R2:__ZN12FileAccessorD2Ev
GIa:__ZN10ColorRGBAf8TransferI18StreamedBinaryReadILb0EEEEvRT_
SMa:__ZN14VertexDataInfoC2Ev
yvj:__ZN6il2cpp2gc16GarbageCollector14CollectALittleEv
cXg:_InternalEnumerator_1_get_Current_m2415979394_gshared
Axb:__ZL17Transfer_GUIStyleI18StreamedBinaryReadILb1EELb1EEvRK29SerializationCommandArgumentsR31RuntimeSerializationCommandInfo
Hyg:_ScrollRect_SetDirtyCaching_m1491302821
Nqi:__ZN6il2cpp6icalls8mscorlib6SystemL9IsPrivateEPK12PropertyInfo
Vcg:__Z72RuntimeInvoker_DateTime_t693205669_DateTime_t693205669_Int32_t2071877448PFvvEPK10MethodInfoPvPS4_
FTf:_CustomAttributeData_GetCustomAttributes_m3258419955
KGk:_Matrix4x4_GetColumn_m83396621
xZ:__ZN9shadertag10InitializeEv
gMb:__ZN13BatchRenderer20RenderSingleWithPassER17ShaderPassContextPK18SharedMaterialDataP6ShaderPN9ShaderLab4PassEiPKNS7_10GrabPassesEjib15BatchBreakCause
org:__Z71RuntimeInvoker_CustomAttributeNamedArgument_t94157543_Int32_t2071877448PFvvEPK10MethodInfoPvPS4_
ZEf:_EncoderFallback__ctor_m1639180960
Z1g:_InternalEnumerator_1_MoveNext_m1441038493_gshared
z_a:__ZN15QualitySettings14QualitySetting8TransferI24GenerateTypeTreeTransferEEvRT_
OIi:__ZN10KeyWrapperINSt3__24pairIPK10MethodInfoP11Il2CppClassEEEC2ERKS8_
H1d:_Array_InternalArray__ICollection_CopyTo_TisParameterModifier_t1820634920_m4127516211_gshared
OEf:_DecoderReplacementFallback__ctor_m2344783488
iCe:_OutOfMemoryException__ctor_m239206850
yph:_Sprite_get_rect_m3985037234
xld:_GraphicRegistry_UnregisterGraphicForCanvas_m820096873
tKc:__Z28Font_Get_Custom_PropMaterialP12Il2CppObject
Feg:__Z88RuntimeInvoker_RuntimeObject_RuntimeObject_RuntimeObject_RuntimeObject_Int32_t2071877448PFvvEPK10MethodInfoPvPS4_
xVe:_Collection_1_Remove_m4136193368_gshared
hbd:_EventTrigger_OnPointerUp_m2791622548
erg:__Z60RuntimeInvoker_DictionaryEntry_t3048875398_Int32_t2071877448PFvvEPK10MethodInfoPvPS4_
QAg:_Shadow_set_useGraphicAlpha_m141905402
j8b:__ZN22BlockMemoryCacheWriter14LockCacheBlockEjPPhS1_
swj:__ZN6il2cpp2os6Thread10RunWrapperEPv
Hlc:__ZNSt3__218__insertion_sort_3IRPFbPKN5IMGUI9GUIWindowES4_EPPS2_EEvT0_SA_T_
vDh:_GenericEqualityComparer_1_Equals_m1109000020_gshared
_Nk:__ZNKSt3__212basic_stringIcNS_11char_traitsIcEENS_9allocatorIcEEE8capacityEv
tpk:__ZL61GUISkin_t1436893342_CustomAttributesCacheGenerator_m_textAreaP21CustomAttributesCache
kXf:_GenericTypeParameterBuilder_HasElementTypeImpl_m2592272488
ztc:__Z22TransferField_NonArrayI8JSONRead27Converter_SimpleNativeClassI8GUIStyleEEvRK23StaticTransferFieldInfoR31RuntimeSerializationCommandInfoRT0_
H0h:__ZN15dense_hashtableI10KeyWrapperIPK19Il2CppGenericMethodES4_N6il2cpp8metadata23Il2CppGenericMethodHashEN14dense_hash_setIS4_S7_NS4_14EqualsComparerINS6_26Il2CppGenericMethodCompareEEENSt3__29allocatorIS4_EEE8IdentityESB_SE_E16reset_thresholdsEv
YGe:__ZN23InterfaceActionInvoker2IP24ObjectU5BU5D_t3614634134iE6InvokeEjP11Il2CppClassP12Il2CppObjectS1_i
Jg:_llvm_eh_typeid_for
Z$b:__Z13RegisterClassI10GameObjectEvv
p3h:__ZNK15dense_hashtableINSt3__24pairIK10KeyWrapperIN6il2cpp5utils13dynamic_arrayIPK10Il2CppTypeLj4EEEEPFvvEEESA_NS3_8metadata19Il2CppSignatureHashEN14dense_hash_mapISA_SD_SG_NSA_14EqualsComparerINSF_22Il2CppSignatureCompareEEENS0_9allocatorISE_EEE9SelectKeyESK_SM_E5beginEv
Ngi:__ZNSt3__26vectorI6pollfdNS_9allocatorIS1_EEE24__RAII_IncreaseAnnotatorC2ERKS4_j
rpf:_X509BasicConstraintsExtension_get_PathLengthConstraint_m3004531343
Fy:__ZNK23AnimationPlayableOutput7GetTypeEv
V$j:__ZL125GenericTypeParameterBuilder_t1370236603_CustomAttributesCacheGenerator_GenericTypeParameterBuilder_GetConstructors_m103067670P21CustomAttributesCache
qwh:_GUIUtility_BeginGUI_m2381890998
$ye:_MissingMemberException__ctor_m4277447068
dHe:_List_1_Find_m1881447651_gshared
K$h:__ZN10KeyWrapperIPK17Il2CppGenericInstEC2ERKS2_
nac:__Z26scripting_class_has_parent17ScriptingClassPtrS_
Pzb:__Z18Transfer_BlittableI18StreamedBinaryReadILb0EELb1E8Vector4fEvRK29SerializationCommandArgumentsR31RuntimeSerializationCommandInfo
DCh:_EqualityComparer_1__ctor_m3155445483_gshared
atj:__ZN6il2cpp2vm6Method8GetParamEPK10MethodInfoj
Jqe:_Int64_CompareTo_m1953686218
SCh:_GenericComparer_1__ctor_m221205314_gshared
mlg:__Z31RuntimeInvoker_Axis_t2427050347PFvvEPK10MethodInfoPvPS4_
mZk:_glBindVertexArray__wrapper
NXc:_DSA_Create_m3450041777
vSa:__ZN8Material8TransferI14SafeBinaryReadEEvRT_
uVa:__ZN12CubemapArray17UploadToGfxDeviceEv
hzg:_ScrollRect_AdjustBounds_m1033723448
WXb:__ZN18ScreenManagerWebGL13SetShowCursorEb
eZe:_Collection_1_get_Item_m3791221403_gshared
awi:_SessionStateChanged_EndInvoke_m2606584272
bZi:__ZN24dense_hashtable_iteratorINSt3__24pairIK10KeyWrapperIP11Il2CppClassES4_EES5_N6il2cpp8metadata16SZArrayClassHashEN14dense_hash_mapIS5_S4_SA_NS5_14EqualsComparerINS9_19SZArrayClassCompareEEENS0_9allocatorIS7_EEE9SelectKeyESE_SG_E30advance_past_empty_and_deletedEv
c4:__ZN13RuntimeStaticI21AssetReferenceStorageLb0EE16StaticInitializeEPv
dqf:_X509Chain_CheckRevocationOnChain_m2441901351
PCj:__ZN6il2cpp2vm13ManagedObject14QueryInterfaceERK10Il2CppGuidPPv
vNf:_Type_GetMethod_m3650909507
KG:__ZN11AudioSource4StopEb
RKk:_frexp
upb:__ZN14SafeBinaryRead21TransferSTLStyleArrayI13dynamic_arrayI10Matrix4x4fLj4EEEEvRT_17TransferMetaFlags
jZe:_Collection_1_CheckWritable_m732350052_gshared
sJa:__ZN15LODGroupManager26CollectAllLODGroupManagersERK16CoreCameraValuesR13dynamic_arrayIPS_Lj4EEb
wxd:_Byte_System_IConvertible_ToDecimal_m1036493607
o8j:__ZL47Timer_t791717973_CustomAttributesCacheGeneratorP21CustomAttributesCache
uFb:__Z25GetSplashScreenBackgroundRK5RectTIfE
jVg:_InternalEnumerator_1_System_Collections_IEnumerator_get_Current_m1679297177_gshared
Wuk:__ZL65Image_t2042527209_CustomAttributesCacheGenerator_m_PreserveAspectP21CustomAttributesCache
v2g:_DefaultComparer_Compare_m1247109616_gshared
A4g:_ResourceManager__ctor_m498829021
nsa:__ZN18GlslGpuProgramGLESD2Ev
uXb:__ZN13RenderTexture14SetVolumeDepthEi
sog:__Z88RuntimeInvoker_Int32_t2071877448_UIVertex_t1204258818_UIVertex_t1204258818_RuntimeObjectPFvvEPK10MethodInfoPvPS4_
gBf:_SerializationCallbacks__ctor_m722356782
duc:__ZN10Matrix4x4f8TransferI8JSONReadEEvRT_
rwc:__ZN14SafeBinaryRead21TransferSTLStyleArrayI13dynamic_arrayIN4core17string_with_labelILi35EEELj4EEEEvRT_17TransferMetaFlags
Dmh:_Rect_set_width_m2294291744
j2j:__ZL49Marshal_t785896760_CustomAttributesCacheGeneratorP21CustomAttributesCache
e$:__ZN17PersistentManager18ReadObjectThreadedEi
Vbi:__ZNSt3__26__moveIPN6il2cpp2os19SocketHandleWrapperES4_EET0_T_S6_S5_
zea:__ZN25TransformFeedbackSkinning31CleanupTransformFeedbackShadersEv
hJa:__Z22scripting_object_unbox18ScriptingObjectPtr
vxc:__ZNK20TextRenderingPrivate8FontImpl19GetCharacterAdvanceEjijfPj
tOj:__ZN6il2cpp6icalls8mscorlib4Mono8Security12Cryptography18KeyPairPersistence16_IsUserProtectedEP12Il2CppString
y2e:_ReadOnlyCollection_1_Contains_m3936562733_gshared
Rlf:_DefaultUriParser__ctor_m4218024811
cVf:_DerivedType_GetField_m3960169619
oPd:_Decimal_System_IConvertible_ToInt16_m3159038792_AdjustorThunk
k3f:__Z59RuntimeInvoker_Int64_t909078037_RuntimeObject_RuntimeObjectPFvvEPK10MethodInfoPvPS4_
Trg:__Z41RuntimeInvoker_KeyValuePair_2_t3716250094PFvvEPK10MethodInfoPvPS4_
n0a:__ZN10VertexData8TransferI18StreamedBinaryReadILb0EEEEvRT_
Rig:__Z73RuntimeInvoker_Single_t2076509932_Vector4_t2243707581_Vector4_t2243707581PFvvEPK10MethodInfoPvPS4_
Qhe:_PKCS12_GetExistingParameters_m2413397265
uKh:_Nullable_1_get_Value_m1743067844_gshared
wXe:_Collection_1_ClearItems_m4268731177_gshared
Z8a:__ZN14PreloadManager16UpdatePreloadingEv
xFa:__ZN12BaseRendererD2Ev
jOa:__ZN14SafeBinaryRead21TransferSTLStyleArrayI19StaticArrayTransferIiLi4EEEEvRT_17TransferMetaFlags
Bhh:_X509CertificateCollection__ctor_m858704242
wFe:_Enumerator__ctor_m425576865_AdjustorThunk
z4e:_ReadOnlyCollection_1_System_Collections_IList_Contains_m1545447998_gshared
sxj:__ZN14dense_hash_mapI10KeyWrapperIPK19Il2CppGenericMethodEP10MethodInfoN6il2cpp8metadata23Il2CppGenericMethodHashENS4_14EqualsComparerINS8_26Il2CppGenericMethodCompareEEENSt3__29allocatorINSD_4pairIKS4_S6_EEEEEC2EjRKS9_RKSC_
KBk:_Color32_op_Implicit_m3337994915
iV:__ZNK21UnityDefaultAllocatorI17LowLevelAllocatorE8ContainsEPKv
jbi:__ZNSt3__213__vector_baseI6pollfdNS_9allocatorIS1_EEED2Ev
Zdf:_ClientSessionInfo_get_Id_m3046630969
Th:_emscripten_get_main_loop_timing
ate:_DirectoryInfo__ctor_m3750996792
Mfd:_BaseMeshEffect_ModifyMesh_m2134816219
J4d:_Array_qsort_TisVector2_t2243707579_m3527759534_gshared
yOi:__ZNSt3__24moveIRN14dense_hash_mapI10KeyWrapperINS_4pairIPK9EventInfoP11Il2CppClassEEEj17ReflectionMapHashIS9_ENSA_14EqualsComparerINS_8equal_toIS9_EEEENS_9allocatorINS3_IKSA_jEEEEE9SelectKeyEEEONS_16remove_referenceIT_E4typeEOSP_
y_a:__ZN24GenerateTypeTreeTransfer21TransferSTLStyleArrayINSt3__26vectorIN15QualitySettings14QualitySettingENS1_9allocatorIS4_EEEEEEvRT_17TransferMetaFlags
Doh:_ResourceRequest_t2560315377_marshal_pinvoke_cleanup
zhj:__ZNSt3__214__split_bufferIN6il2cpp2vm5Image20EmbeddedResourceDataERNS_9allocatorIS4_EEE17__destruct_at_endEPS4_NS_17integral_constantIbLb0EEE
kNe:_List_1_System_Collections_Generic_IEnumerableU3CTU3E_GetEnumerator_m166627113_gshared
d5a:__ZNSt3__26vectorI9InputAxisNS_9allocatorIS1_EEE6resizeEj
h_d:__ZN21InterfaceFuncInvoker2Ii19Vector2_t2243707579S0_E6InvokeEjP11Il2CppClassP12Il2CppObjectS0_S0_
nMb:__ZN13BatchRendererC2ER15RenderLoopStatsRK15RenderNodeQueuebbb
h3c:_SecurityElement_IsValidAttributeValue_m483287146
qph:_FormerlySerializedAsAttribute__ctor_m3044655632
mib:__ZNK2UI13RectTransform22GetTypeVirtualInternalEv
B8j:__ZL56AppDomainSetup_t611332832_CustomAttributesCacheGeneratorP21CustomAttributesCache
cp:getTempRet0
sHk:_Mesh_get_uv_m1990385212
ctd:_ArithmeticException__ctor_m104771799
hng:__Z79RuntimeInvoker_Boolean_t3825574718_ContentTypeU26_t1802785839_Int32_t2071877448PFvvEPK10MethodInfoPvPS4_
XSf:_AssemblyTitleAttribute__ctor_m1696431446
vEj:_GC_min
Lyh:_UnityEvent_1_RemoveListener_m2146288709_gshared
mod:_Image_AddQuad_m1603575622
Eyj:__ZN24dense_hashtable_iteratorINSt3__24pairIK10KeyWrapperIPK19Il2CppGenericMethodEP10MethodInfoEES6_N6il2cpp8metadata23Il2CppGenericMethodHashEN14dense_hash_mapIS6_S9_SD_NS6_14EqualsComparerINSC_26Il2CppGenericMethodCompareEEENS0_9allocatorISA_EEE9SelectKeyESH_SJ_E30advance_past_empty_and_deletedEv
maf:_PrivateKeyInfo_RemoveLeadingZero_m3396807048
S_e:_ReadOnlyCollection_1_System_Collections_Generic_ICollectionU3CTU3E_get_IsReadOnly_m1251192075_gshared
WGe:_List_1_GrowIfNeeded_m185971996_gshared
I3i:__ZN6il2cpp6icalls8mscorlib6System9ThreadingL21lookup_cached_cultureEP12Il2CppThreadi
GSb:__ZN18DeferredRenderLoopD2Ev
hXf:_GenericTypeParameterBuilder_GetMethods_m1243855818
cva:__ZNK16TypeTreeIterator4NameEv
wEh:_PCMReaderCallback_Invoke_m877950113
Nlk:__ZL90PlayableBinding_t2498078091_CustomAttributesCacheGenerator_U3CstreamTypeU3Ek__BackingFieldP21CustomAttributesCache
p2:__ZN15FileSystemEntry3SetEPKc
y1g:_InternalEnumerator_1__ctor_m2808001655_gshared
HZc:_MACTripleDES__ctor_m884945242
zoh:_RenderTexture_get_height_m428170183
Dvh:_GUILayoutGroup_SetHorizontal_m4089360220
xI:__ZN20SoundChannelInstance15ParameterBuffer5ApplyEPN4FMOD7ChannelE
_ei:__ZNSt3__27forwardIPP12Il2CppThreadEEOT_RNS_16remove_referenceIS4_E4typeE
$fj:__ZNSt3__24pairINS_15__tree_iteratorINS_12__value_typeIP24Il2CppReflectionAssemblyPvEEPNS_11__tree_nodeIS6_S5_EEiEEbEC2ISA_RbvEEOT_OT0_
sxc:__ZN20TextRenderingPrivate19NativeTextGenerator9InsertTabEv
WNj:__ZNSt3__2neERKNS_14__map_iteratorINS_15__tree_iteratorINS_12__value_typeIPvxEEPNS_11__tree_nodeIS4_S3_EEiEEEESB_
F2a:__ZN14SafeBinaryRead21TransferSTLStyleArrayI13dynamic_arrayI16BlendShapeVertexLj4EEEEvRT_17TransferMetaFlags
ksj:__ZNKSt3__213__vector_baseIN6il2cpp2os10ThreadImpl10APCRequestENS_9allocatorIS4_EEE7__allocEv
BRc:__ZN11UnityEngine15PlatformWrapper24GetRuntimePlatformStringEv
Ci:_glIsEnabled
Ybb:__ZN15CacheWriterBaseD2Ev
fxk:__ZL56Slider_t297367283_CustomAttributesCacheGenerator_m_ValueP21CustomAttributesCache
kob:__Z25scripting_class_get_image17ScriptingClassPtr
wkh:_PlayableAsset_Internal_CreatePlayable_m2166162235
H8a:__ZNSt3__26vectorIN4core12basic_stringIcNS1_20StringStorageDefaultIcEEEE13stl_allocatorIS5_L18MemLabelIdentifier13ELi16EEEC2INS_11__wrap_iterIPS5_EEEET_SE_RKS8_PNS_9enable_ifIXaasr21__is_forward_iteratorISE_EE5valuesr16is_constructibleIS5_NS_15iterator_traitsISE_E9referenceEEE5valueEvE4typeE
Gi:_emscripten_glDrawElementsInstanced
vx:__ZN26AnimatorControllerPlayable27SetupStateMachineBehavioursEv
O8e:_ARC4Managed_Dispose_m4102232694
g9e:_HMAC_Initialize_m3052649104
Eof:_OidCollection_get_Item_m1091387424
hib:__ZN9Transform17MainThreadCleanupEv
CNj:__ZNSt3__23getILj0EJRKPvEEERNS_13tuple_elementIXT_ENS_5tupleIJDpT0_EEEE4typeERS8_
jGj:_GC_clear_hdr_marks
mUk:_glScissor__wrapper
h_k:_emscripten_glCreateShader__wrapper
Qod:_InputField_get_caretSelectPositionInternal_m3523572533
jFc:_cff_fd_select_get
P1j:__ZL73CompilationRelaxationsAttribute_t238494011_CustomAttributesCacheGeneratorP21CustomAttributesCache
_Ji:__ZNSt3__24pairIPK11Il2CppImageP11Il2CppClassEC2IRS3_S5_vEEOT_OT0_
Rhk:__ZL86Material_t193706927_CustomAttributesCacheGenerator_Material_GetTextureImpl_m2799453342P21CustomAttributesCache
RCg:_Text_get_minHeight_m1562513104
R9d:_MSCompatUnicodeTable_GetTailoringInfo_m2792223347
qei:__ZNSt3__26vectorIP12Il2CppThreadNS_9allocatorIS2_EEE9push_backERKS2_
flf:_NameObjectCollectionBase_get_Keys_m446053925
Ri:_emscripten_glGetShaderiv
XGg:_Transform_1__ctor_m353209818_gshared
Flg:__Z30RuntimeInvoker_Axis_t375128448PFvvEPK10MethodInfoPvPS4_
xJ:__ZN4FMOD6System10getVersionEPj
r$d:_Array_InternalArray__IndexOf_TisSByte_t454417549_m1427585061_gshared
cLc:__ZN2UI6Canvas23VirtualRedirectTransferER24GenerateTypeTreeTransfer
cHd:_Decimal_u64_m3991988111
xth:_YieldInstruction_t3462875981_marshal_pinvoke
XKh:_Predicate_1_BeginInvoke_m2959352225_gshared
Vhh:_X509Certificate_Parse_m1764345628
Hrc:__ZN9JSONWrite8TransferIN4math12int2_storageEEEvRT_PKc17TransferMetaFlags
dwc:__ZN13TextRendering4Font13AwakeFromLoadE17AwakeFromLoadMode
sGk:_Mathf_Pow_m1117712374
_ig:__Z70RuntimeInvoker_Void_t1841601450_Guid_t_RuntimeObject_Int32_t2071877448PFvvEPK10MethodInfoPvPS4_
rrh:_Transform_Rotate_m474267874
oba:__ZN9GfxDevice21ReleaseSharedMeshDataEP14SharedMeshData
cje:_SmallXmlParser_Peek_m2814840810
U5a:__ZNSt3__27__sort5IRNS_6__lessINS_4pairIPKN5Unity4TypeE7Hash128EES8_EEPS8_EEjT0_SC_SC_SC_SC_T_
qWe:_Collection_1_ConvertItem_m3168406667_gshared
lIi:__ZNK30dense_hashtable_const_iteratorINSt3__24pairIK10KeyWrapperIPK10Il2CppTypeEjEES6_N6il2cpp8metadata14Il2CppTypeHashEN14dense_hash_mapIS6_jSB_NS6_14EqualsComparerINSA_26Il2CppTypeEqualityComparerEEENS0_9allocatorIS8_EEE9SelectKeyESF_SH_EptEv
vth:_WaitForSecondsRealtime_get_keepWaiting_m4138104467
Xlg:__Z70RuntimeInvoker_Single_t2076509932_Int32_t2071877448_Single_t2076509932PFvvEPK10MethodInfoPvPS4_
jng:__Z77RuntimeInvoker_Boolean_t3825574718_InputTypeU26_t4050577942_Int32_t2071877448PFvvEPK10MethodInfoPvPS4_
hVe:_Collection_1_System_Collections_ICollection_get_SyncRoot_m2547259708_gshared
ehc:__Z43RectTransform_CUSTOM_INTERNAL_get_anchorMaxP12Il2CppObjectP13Vector2fIcall
S4f:__Z50RuntimeInvoker_Void_t1841601450_Single_t2076509932PFvvEPK10MethodInfoPvPS4_
nOd:_DateTimeOffset_get_DateTime_m229084964_AdjustorThunk
ZRh:__ZNSt3__24pairIjjEC2IRKjRjvEEOT_OT0_
_Xi:__ZNKSt3__26vectorIN6il2cpp8metadata18GenericArrayMethodENS_9allocatorIS3_EEE8max_sizeEv
FXa:__ZN8Material28UpdateHashesOnPropertyChangeEN9ShaderLab16FastPropertyNameE
Uhc:__Z53Register_UnityEngine_SortingLayer_GetLayerValueFromIDv
wse:_DirectoryInfo_get_Parent_m1198766078
ORg:_EqualityComparer_1_System_Collections_IEqualityComparer_Equals_m349194518_gshared
ECd:_CaseInsensitiveComparer_Compare_m1192858479
cnb:__Z18Transfer_BlittableI14SafeBinaryReadLb1E8Vector4fEvRK29SerializationCommandArgumentsR31RuntimeSerializationCommandInfo
hwe:_StreamAsyncResult_set_Done_m4272090534
Hsd:_LayoutRebuilder_Clear_m2390054824
CWe:_Collection_1_System_Collections_IList_Insert_m2968289909_gshared
Ada:__ZN13GfxDeviceGLES20SetComputeBufferDataE15ComputeBufferIDPKvjj
pTf:_Default_SelectMethod_m622251293
zL:__ZN11AudioSource12AddToManagerEv
ybd:_ExecuteEvents_Execute_m1429058057
tni:__ZN6il2cpp6icalls8mscorlib6SystemL20GetMethodsByNameImplINS_5utils10functional6FilterINSt3__212basic_stringIcNS7_11char_traitsIcEENS7_9allocatorIcEEEENS4_13VmStringUtils21CaseSensitiveComparerEEEEEP11Il2CppArrayPK10Il2CppTypejRKT_
az:__ZN11UnityEngine9Animation32CreateAnimatorGenericBindingsOptERKNS0_20AnimationSetBindingsER9TransformPKN7mecanim9animation14AvatarConstantEPKNS0_21AvatarBindingConstantEbRNS6_6memory9AllocatorER8Animator
lcj:__ZN6il2cpp2vm5Image13ClassFromNameEPK11Il2CppImagePKcS6_
wQk:dynCall_vdddddd
Zeb:__ZN24GenerateTypeTreeTransfer21TransferSTLStyleArrayINSt3__26vectorIN9ShaderLab14SerializedPassENS1_9allocatorIS4_EEEEEEvRT_17TransferMetaFlags
XZ:__ZL32MarkLevelGameManagerDependenciesR27GarbageCollectorThreadState
Hda:__ZNK13GfxDeviceGLES26HasActiveRandomWriteTargetEv
dVk:_glGetActiveUniformsiv__wrapper
tPj:__ZNSt3__217__compressed_pairIjNS_4lessIPFvvEEEE5firstEv
zii:__ZNSt3__26vectorINS_4pairIPK10MethodInfoP11Il2CppClassEENS_9allocatorIS7_EEEC2Ev
Rhc:__Z43Register_UnityEngine_Material_EnableKeywordv
m0:__ZN13MonoBehaviour19SetupScriptingCacheE17ScriptingClassPtrP10MonoScript
vWh:__ZNKSt3__211__wrap_iterIPKN6il2cpp2vm17TypeNameParseInfoEE4baseEv
Aei:__ZNSt3__214__split_bufferIP12Il2CppThreadRNS_9allocatorIS2_EEED2Ev
hr:__Z20AnimationEventToMonoRK14AnimationEventR18MonoAnimationEvent
R_:__ZNK15dense_hashtableINSt3__24pairIKiiEEi21InstanceIDHashFunctorN14dense_hash_mapIiiS4_NS0_8equal_toIiEE13stl_allocatorIS3_L18MemLabelIdentifier1ELi16EEE9SelectKeyES7_SA_E13find_positionERS2_
C$:__ZN17PersistentManager29ReadAndActivateObjectThreadedEiRK26SerializedObjectIdentifierP14SerializedFilebb
SFg:_ShimEnumerator_get_Current_m3610131784_gshared
OQe:_List_1_Sort_m2158253314_gshared
Jli:__ZNSt3__228__libcpp_compressed_pair_impIPP9FieldInfoNS_9allocatorIS2_EELj2EEC2ES3_
slk:__ZL74UnityEventBase_t828812576_CustomAttributesCacheGenerator_m_PersistentCallsP21CustomAttributesCache
J6:__ZZN15DirectorManager15InitializeClassEvEN52PreLateUpdateDirectorUpdateAnimationBeginRegistrator7ForwardEv
WNg:_DefaultComparer__ctor_m2265472997_gshared
e8i:__ZN6il2cpp2vm13LivenessState18ShouldProcessValueEP12Il2CppObjectP11Il2CppClass
Iwa:__ZN4PPtrI6SpriteE8TransferI14SafeBinaryReadEEvRT_
xtg:__Z49RuntimeInvoker_UIVertex_t1204258818_RuntimeObjectPFvvEPK10MethodInfoPvPS4_
eCj:__ZNKSt3__228__libcpp_compressed_pair_impIPPK14Il2CppAssemblyRNS_9allocatorIS3_EELj0EE5firstEv
V9f:__Z52RuntimeInvoker_Void_t1841601450_TimeSpan_t3430258949PFvvEPK10MethodInfoPvPS4_
ehi:__ZNKSt3__26vectorI6pollfdNS_9allocatorIS1_EEE17__annotate_deleteEv
JGk:_Matrix4x4_GetHashCode_m375571566
Ewh:_InvokableCall_1__ctor_m1584932671_gshared
ueb:__ZNSt3__26vectorIN9ShaderLab14SerializedPassENS_9allocatorIS2_EEE8__appendEj
Ldb:__ZNSt3__26vectorIN9ShaderLab20SerializedSubProgram13BufferBindingENS_9allocatorIS3_EEEC2INS_11__wrap_iterIPS3_EEEET_SB_RKS5_PNS_9enable_ifIXaasr21__is_forward_iteratorISB_EE5valuesr16is_constructibleIS3_NS_15iterator_traitsISB_E9referenceEEE5valueEvE4typeE
npi:__ZNSt3__216allocator_traitsINS_9allocatorIN6il2cpp6icalls8mscorlib6System12PropertyPairEEEE10deallocateERS7_PS6_j
zef:_Context_get_SupportedCiphers_m2172827298
V4b:__ZZL23RegisterLightPropertiesR22GenericPropertyBindingEN20Wrapper_LightColorb213GetFloatValueEPv
NAk:_Camera__ctor_m2624089815
n$a:__ZNK13ScreenManager21IsMultiDisplayEnabledEv
VJk:_Shake_Start_m225329643
fmg:__Z133RuntimeInvoker_RuntimeObject_Vector2_t2243707579_Vector2_t2243707579_Single_t2076509932_Int32_t2071877448_RuntimeObject_RuntimeObjectPFvvEPK10MethodInfoPvPS4_
mXa:__ZN9Texture2D23VirtualRedirectTransferER18StreamedBinaryReadILb0EE
IPh:_Animator_get_hasBoundPlayables_m2257984562
Ggj:__ZNSt3__26__treeINS_12__value_typeIP24Il2CppReflectionAssemblyPvEENS_19__map_value_compareIS3_S5_NS_4lessIS3_EELb1EEENS_9allocatorIS5_EEE10value_compEv
HRd:_Double_System_IConvertible_ToUInt16_m286326038_AdjustorThunk
sOi:__ZNSt3__24pairIK10KeyWrapperINS0_IPK9EventInfoP11Il2CppClassEEEjEC2ILb1EvEEv
ozf:_TypeInfo__ctor_m1475908211
eZh:__ZN30dense_hashtable_const_iteratorINSt3__24pairIK10KeyWrapperIPKcEP11Il2CppClassEES5_N6il2cpp5utils11StringUtils12StringHasherIS4_EEN14dense_hash_mapIS5_S8_SE_NS5_14EqualsComparerINSB_13VmStringUtils21CaseSensitiveComparerEEENS0_9allocatorIS9_EEE9SelectKeyESJ_SL_E30advance_past_empty_and_deletedEv
Hmk:__ZL73g_UnityEngine_TextRenderingModule_Assembly_CustomAttributesCacheGeneratorP21CustomAttributesCache
V0:__ZN16ScriptingManager27NativeTypeForScriptingClassE17ScriptingClassPtr
eqf:_X509Chain_WrapUp_m1072032285
ojh:_X509CertificateEnumerator_System_Collections_IEnumerator_MoveNext_m1448966539
pCc:_get_sfnt_table
Ndf:_TlsServerHelloDone__ctor_m2125611008
m1i:__ZNKSt3__213__vector_baseIcNS_9allocatorIcEEE9__end_capEv
BIj:__ZN6il2cpp5utilsL9ReadFloatEPKc
f0b:__Z13RegisterClassI5LightEvv
xcd:_PointerEventData_set_pressPosition_m2094137883
TYa:__ZN8Renderer20RendererAddedToSceneEv
uEf:_DES_get_Key_m2584608215
$Tb:__ZL22ScheduleSceneNodesJobsP25ScheduleSceneNodesJobDataj
Fk:_emscripten_set_canvas_size
A7e:_BigInteger_op_Subtraction_m972393015
dYh:__ZNSt3__27forwardIRPKcEEOT_RNS_16remove_referenceIS4_E4typeE
beb:__ZNSt3__26vectorIN9ShaderLab20SerializedSubProgramENS_9allocatorIS2_EEE8__appendEj
SV:__ZN20DynamicHeapAllocatorI17LowLevelAllocatorE8AllocateEji
OMb:__ZN20DynamicPropertySheet15SetVectorQueuedERKN9ShaderLab16FastPropertyNameERK8Vector4fN19ShaderPropertySheet8SetFlagsE
U7c:_String_Format_m1263743648
yuj:__ZNSt3__217__compressed_pairINS_15__tree_end_nodeIPNS_16__tree_node_baseIPvEEEENS_9allocatorINS_11__tree_nodeINS_12basic_stringIcNS_11char_traitsIcEENS7_IcEEEES3_EEEEEC2Ev
OXj:__ZL69RuntimeArray_CustomAttributesCacheGenerator_Array_Reverse_m3883292526P21CustomAttributesCache
k2e:_ReadOnlyCollection_1_System_Collections_IEnumerable_GetEnumerator_m4248982967_gshared
cA:__ZN7mecanim9animation22EvaluateAvatarRetargetEPKNS0_14AvatarConstantEPKNS0_11AvatarInputEPNS0_12AvatarOutputEPNS0_12AvatarMemoryEPNS0_15AvatarWorkspaceEb
Ssd:_LayoutRebuilder_GetHashCode_m2745108660
qPa:__ZN14RenderSettings23VirtualRedirectTransferER19StreamedBinaryWriteILb0EE
eqc:__ZL26Transfer_SimpleNativeClassI9JSONWrite10RectOffsetLb0EEvRK29SerializationCommandArgumentsR31RuntimeSerializationCommandInfo
r2a:__ZN14SafeBinaryRead21TransferSTLStyleArrayI13dynamic_arrayI12BoneWeights4Lj16EEEEvRT_17TransferMetaFlags
BFj:_GC_push_conditional
Iha:__ZN17GenericDynamicVBO10AllocateVBEjR21DynamicVBOChunkHandle
uIe:_List_1_get_Item_m1547593893_gshared
G2j:__ZL66_CustomAttributeBuilder_t3917123293_CustomAttributesCacheGeneratorP21CustomAttributesCache
Nse:_Path_GetPathRoot_m1269357080
ejj:__ZN30dense_hashtable_const_iteratorI10KeyWrapperIP18Il2CppGenericClassES3_N6il2cpp8metadata22Il2CppGenericClassHashEN14dense_hash_setIS3_S6_NS3_14EqualsComparerINS5_25Il2CppGenericClassCompareEEENSt3__29allocatorIS3_EEE8IdentityESA_SD_EppEv
DDd:_KeyNotFoundException__ctor_m264393096
uZi:__ZNSt3__27forwardI10KeyWrapperINS_4pairIP11Il2CppClassjEEEEEOT_RNS_16remove_referenceIS7_E4typeE
Mad:_EventSystem_SetSelectedGameObject_m2211816110
hHg:_Transform_1__ctor_m4161450529_gshared
dl:_glMapBufferRange
eXa:__ZN9Texture2D8TransferI18StreamedBinaryReadILb0EEEEvRT_
Ofc:__Z31Input_CUSTOM_GetMouseButtonDowni
Leg:__Z41RuntimeInvoker_HandshakeState_t1820731088PFvvEPK10MethodInfoPvPS4_
Zgc:__Z75Register_UnityEngine_Playables_PlayableHandle_INTERNAL_CALL_IsValidInternalv
e7b:__ZN13PlayableGraph4PlayEv
nEa:__ZNK9Transform16GetLocalPositionEv
ttd:_Array_System_Collections_ICollection_get_Count_m2897196527
gya:__ZN13LoadOperation19IntegrateTimeSlicedEi
wSg:_ArrayReadOnlyList_1_get_Item_m176001975_gshared
Utf:_InterpreterFactory__ctor_m3331468903
vie:_X501__cctor_m3795360380
Sda:__ZN13GfxDeviceGLES22DispatchComputeProgramE12ObjectHandleI18ComputeProgram_TagPvE15ComputeBufferIDj
Ixj:__ZNSt3__24moveIRN14dense_hash_mapI10KeyWrapperIPK19Il2CppGenericMethodEP10MethodInfoN6il2cpp8metadata23Il2CppGenericMethodHashENS6_14EqualsComparerINSA_26Il2CppGenericMethodCompareEEENS_9allocatorINS_4pairIKS6_S8_EEEEE9SelectKeyEEEONS_16remove_referenceIT_E4typeEOSO_
CHb:__ZN20DefaultGfxDeviceImpl32InitStereoGlobalsBuffersPlatformEiijPKv
Eag:__Z60RuntimeInvoker_Void_t1841601450_StreamingContext_t1417235061PFvvEPK10MethodInfoPvPS4_
aKd:_Convert_ToInt32_m2297793940
wab:__Z17TransformAABBSlowRK4AABBRK10Matrix4x4fRS_
vyi:__ZNSt3__2eqIPiS1_EEbRKNS_11__wrap_iterIT_EERKNS2_IT0_EE
lTi:__ZN13Il2CppHashMapINSt3__24pairIPK9FieldInfoP11Il2CppClassEEj17ReflectionMapHashIS7_ENS0_8equal_toIS7_EENS0_9allocatorINS1_IK10KeyWrapperIS7_EjEEEEEC2EjRKS9_RKSB_
Mcb:__ZN9ShaderLab21SerializedShaderState8TransferI14SafeBinaryReadEEvRT_
XMk:_ftruncate
k0c:_RSAPKCS1SignatureFormatter_SetKey_m2365816458
zne:_Int16_GetHashCode_m304503362_AdjustorThunk
eGc:_cf2_stack_pushInt
pD:__ZN7mecanim9animation20DestroyLayerConstantEPNS0_13LayerConstantERNS_6memory9AllocatorE
elh:_PropertyName__ctor_m4147171238_AdjustorThunk
mHi:__ZNSt3__27forwardI24dense_hashtable_iteratorINS_4pairIK10KeyWrapperIPK10Il2CppTypeEjEES7_N6il2cpp8metadata14Il2CppTypeHashEN14dense_hash_mapIS7_jSC_NS7_14EqualsComparerINSB_26Il2CppTypeEqualityComparerEEENS_9allocatorIS9_EEE9SelectKeyESG_SI_EEEOT_RNS_16remove_referenceISM_E4typeE
eJf:_CompressedStack__ctor_m276924800
$bd:_ExecuteEvents_get_cancelHandler_m1964324668
iTa:__ZN15SerializeTraitsINSt3__24pairIN4core12basic_stringIcNS2_20StringStorageDefaultIcEEEES6_EEE8TransferI24GenerateTypeTreeTransferEEvRS7_RT_
DXk:b89
CXk:b88
kGk:_Mathf_Sin_m712860563
Gok:__ZL70GUISettings_t622856320_CustomAttributesCacheGenerator_m_SelectionColorP21CustomAttributesCache
Dsh:_Vector3_Dot_m827632793
cXk:b81
ZOh:__ZL6add192yyyyyyPyS_S_
Ppa:__ZN7ApiGLES19CreateSparseTextureEjj14GraphicsFormatiiiiRiS1_S1_
F1:__ZN18ResourceImageGroup7CleanupEv
o0i:__ZN6il2cpp6icalls8mscorlib6SystemL12AssignSignedIxEEvNS2_17WidenedValueUnionEPv14Il2CppTypeEnumjj
uXk:b84
xXk:b87
wXk:b86
yp:__ZN11Quaternionf8TransferI24GenerateTypeTreeTransferEEvRT_
jqg:__Z68RuntimeInvoker_Void_t1841601450_Int32_t2071877448_Double_t4078015681PFvvEPK10MethodInfoPvPS4_
B4b:__ZN13ProduceHelperI4MeshLb0EE7ProduceE18MemLabelIdentifier18ObjectCreationMode
kaf:_PrivateKeyInfo_Decode_m1053025782
Krf:_X509ChainElementCollection_System_Collections_ICollection_CopyTo_m1467895312
yhe:_PKCS12_Decrypt_m2457743414
AUa:__ZN8Playable19SetOutputConnectionEPS_i
qXh:__ZN15dense_hashtableINSt3__24pairIK10KeyWrapperIPK11Il2CppClassEPKcEES6_N6il2cpp5utils11PointerHashIS3_EEN14dense_hash_mapIS6_S9_SE_NS6_14EqualsComparerINS0_8equal_toIS5_EEEENS0_9allocatorISA_EEE9SelectKeyESJ_SL_EC2ERKSO_j
Sl:_glDeleteShader
yhk:__ZL88Mesh_t1356156583_CustomAttributesCacheGenerator_Mesh_Internal_Create_m384282753____mono0P21CustomAttributesCache
xTd:_Exception_GetType_m3898489832
Hla:__ZN6prcoreL17RemapGenericFloatI15TexFormatRGHalf16TexFormatRGFloatEEvPKNS_9InnerInfoE
$Re:_Stack_1_Peek_m1548778538_gshared
Bvh:_GUILayoutUtility_get_spaceStyle_m4248899869
NAg:_Shadow_set_effectColor_m3110056844
Cbc:__Z27scripting_add_internal_callPKcPKv
X2d:_Array_InternalArray__Insert_TisUriScheme_t1876590943_m2728325409_gshared
ypk:__ZL72GUISkin_t1436893342_CustomAttributesCacheGenerator_m_verticalSliderThumbP21CustomAttributesCache
NSi:__ZN13Il2CppHashMapINSt3__24pairIPK9EventInfoP11Il2CppClassEEj17ReflectionMapHashIS7_ENS0_8equal_toIS7_EENS0_9allocatorINS1_IK10KeyWrapperIS7_EjEEEEEC2EjRKS9_RKSB_
okj:__GLOBAL__sub_I_GarbageCollector_cpp
Fpa:__Z17GetPlayerSettingsv
DA:__ZN34BlobWriteTransferSTLStyleArrayImplI22OffsetPtrArrayTransferIiEEclERS1_17TransferMetaFlagsR9BlobWrite
Bjh:_X509Store_CheckStore_m1027496478
nzk:_AddComponentMenu__ctor_m686408932
j1j:__ZL82MethodBase_t904190842_CustomAttributesCacheGenerator_MethodBase_Invoke_m1075809207P21CustomAttributesCache
ys:__ZN26AnimatorControllerPlayable18SetLayerAutoWeightEv
uQc:__Z44Register_UnityEngine_Canvas_get_pixelPerfectv
D7c:_String_Contains_m4017059963
f6d:_Array_swap_TisCustomAttributeNamedArgument_t94157543_TisCustomAttributeNamedArgument_t94157543_m3600072996_gshared
b2g:_DefaultComparer_Compare_m1606207039_gshared
HNc:__ZN2UI14CanvasRenderer12SyncMaterialENS0_8SyncFlagE
lOj:__ZN6il2cpp2vm9Parameter30GetDefaultParameterValueObjectEPK10MethodInfoPK13ParameterInfoPb
rBh:_Action_EndInvoke_m4281032350
K3d:_Array_InternalArray__set_Item_TisLabelData_t3712112744_m2253365137_gshared
A$f:_MonoCMethod_get_Attributes_m3914742834
HUf:_ConstructorBuilder_get_DeclaringType_m4264602248
bhf:_RecordProtocol_InternalReceiveRecordCallback_m2228921492
$we:_StringReader__ctor_m643998729
vGi:__ZN15dense_hashtableINSt3__24pairIK10KeyWrapperINS1_IPK9FieldInfoP11Il2CppClassEEEjEES9_17ReflectionMapHashIS8_EN14dense_hash_mapIS9_jSD_NS9_14EqualsComparerINS0_8equal_toIS8_EEEENS0_9allocatorISB_EEE9SelectKeyESI_SK_E21fill_range_with_emptyEPSB_SO_
Imf:_IPv6Address_TryParse_m2220524278
CEh:_PCMReaderCallback_EndInvoke_m4163012370
Asd:_U3CDelayedSetDirtyU3Ec__Iterator0_System_Collections_Generic_IEnumeratorU3CobjectU3E_get_Current_m2210283424
E2i:__ZNSt3__26vectorIcNS_9allocatorIcEEE24__RAII_IncreaseAnnotator6__doneEv
fCc:_UNITY_tt_face_done_kern
L8g:_Context_get_DefaultContext_m2211922324
BTf:_CustomAttributeData_get_NamedArguments_m708818174
V2a:__ZN12BoneWeights48TransferI24GenerateTypeTreeTransferEEvRT_
usi:__ZNSt3__228__libcpp_compressed_pair_impIPP11Il2CppClassNS_9allocatorIS2_EELj2EE5firstEv
Baf:_RSAManaged_GetPaddedValue_m2972141669
wzg:_ScrollRect_OnDrag_m1424848249
Tff:_TlsServerCertificate_ProcessAsSsl3_m277089231
jZd:_Array_InternalArray__IEnumerable_GetEnumerator_TisUInt16_t986882611_m3665860884_gshared
PEb:__Z19scripting_gc_enablev
jIb:__ZZ23InitPlayerLoopCallbacksvEN41InitializationPlayerUpdateTimeRegistrator7ForwardEv
Wdh:_AnchorInfo__ctor_m617409099
wmi:__ZNSt3__26__treeIP11Il2CppClassNS_4lessIS2_EENS_9allocatorIS2_EEE15__insert_uniqueERKS2_
WYb:__Z29StdTemplateConversionFunctionIihEbPvR14SafeBinaryRead
iXf:_GenericTypeParameterBuilder_GetMethodImpl_m528545634
vPc:__Z55Register_UnityEngine_CanvasRenderer_DisableRectClippingv
zuf:_Interval_CompareTo_m2909556284_AdjustorThunk
s2a:__ZN14SafeBinaryRead21TransferSTLStyleArrayI13dynamic_arrayI11ColorRGBA32Lj4EEEEvRT_17TransferMetaFlags
yta:__ZN9GfxDevice22UploadTextureCubeArrayE9TextureIDPKhjii14GraphicsFormati18TextureUploadFlags
uXj:__ZL87RuntimeArray_CustomAttributesCacheGenerator_Array_CreateInstance_m679102425____lengths1P21CustomAttributesCache
xvg:_Navigation_t1571958496_marshal_pinvoke
qtf:_Interpreter_GetLastDefined_m2450713313
xOi:__ZNSt3__24pairIPK9EventInfoP11Il2CppClassEC2ILb1EvEEv
ndh:_Parser_ParseAssertionType_m3316669790
Hgb:__ZN9ShaderLab7Program27CreateFromSerializedProgramERKNS_17SerializedProgramE10ShaderTypeiP16PropertyNamesSetPK6Shader
Ibj:__ZNKSt3__213__vector_baseIN6il2cpp2vm5Image20EmbeddedResourceDataENS_9allocatorIS4_EEE9__end_capEv
oAg:_Selectable_get_isPointerDown_m774209881
ZWj:__ZL73Enum_t2459695545_CustomAttributesCacheGenerator_Enum_ToObject_m2460371738P21CustomAttributesCache
bib:__ZNSt3__27__sort4IRNS_6__lessIN4core12basic_stringIcNS2_20StringStorageDefaultIcEEEES6_EEPS6_EEjT0_SA_SA_SA_T_
aRk:dynCall_viiiifii
yzf:_TypeInfo__ctor_m1219583114
ySi:__ZN6il2cpp2gc19AppendOnlyGCHashMapINSt3__24pairIPK11Il2CppImageP11Il2CppClassEEP22Il2CppReflectionModule17ReflectionMapHashIS9_ENS2_8equal_toIS9_EEEC2Ev
b$:__Z20GetPersistentManagerv
jJc:_UNITY_TT_Set_Var_Design
K8g:_Context_Finalize_m1386439645
IX:__ZN21SystemInfoStringCache16StaticInitializeEPv
Ybf:_TlsStream__ctor_m4117943603
uHi:__ZN15dense_hashtableINSt3__24pairIK10KeyWrapperIPK10Il2CppTypeEjEES6_N6il2cpp8metadata14Il2CppTypeHashEN14dense_hash_mapIS6_jSB_NS6_14EqualsComparerINSA_26Il2CppTypeEqualityComparerEEENS0_9allocatorIS8_EEE9SelectKeyESF_SH_E12maybe_shrinkEv
TAi:__ZNSt3__29allocatorINS_12basic_stringIcNS_11char_traitsIcEENS0_IcEEEEE9constructIS5_JRS5_EEEvPT_DpOT0_
dCg:_Text_FontTextureChanged_m4236993972
Ivj:__ZN6il2cpp2gc16GarbageCollector23MakeDescriptorForObjectEPji
Ekj:__ZNK10KeyWrapperIP12Il2CppObjectE14EqualsComparerINSt3__28equal_toIS1_EEEclERKS2_S9_
Z1f:_ParameterModifier_t1820634920_marshal_pinvoke
bCb:__ZNK13MonoBehaviour7GetNameEv
Cbb:__ZN19ScriptingInvocation28AdjustArgumentsToMatchMethodEv
Bjj:__ZN15dense_hashtableI10KeyWrapperIP18Il2CppGenericClassES3_N6il2cpp8metadata22Il2CppGenericClassHashEN14dense_hash_setIS3_S6_NS3_14EqualsComparerINS5_25Il2CppGenericClassCompareEEENSt3__29allocatorIS3_EEE8IdentityESA_SD_E6insertERKS3_
R5h:__ZNSt3__24pairIPKcP11Il2CppClassEC2IRS2_S4_vEEOT_OT0_
lG:__Z15_CheckFMODError11FMOD_RESULTPKciS1_
l9c:_AbstractEventData_Use_m1797212290
cMa:__Z20RenderMultipleMeshesRK15RenderNodeQueueRK18RenderMultipleData17ShaderChannelMask
dCi:__ZNSt3__27forwardINS_12basic_stringIcNS_11char_traitsIcEENS_9allocatorIcEEEEEEOT_RNS_16remove_referenceIS7_E4typeE
ouk:__ZL150U3CDelayedDestroyDropdownListU3Ec__Iterator0_t3461999471_CustomAttributesCacheGenerator_U3CDelayedDestroyDropdownListU3Ec__Iterator0_Reset_m3485957852P21CustomAttributesCache
T3f:__Z199RuntimeInvoker_Void_t1841601450_ByteU2AU26_t3544685828_ByteU2AU26_t3544685828_DoubleU2AU26_t3349029_UInt16U2AU26_t1636670495_UInt16U2AU26_t1636670495_UInt16U2AU26_t1636670495_UInt16U2AU26_t1636670495PFvvEPK10MethodInfoPvPS4_
GCi:__ZN6il2cpp2vm4Type19GetGenericParameterEPK10Il2CppType
XOc:__Z51Register_UnityEngine_CanvasGroup_get_blocksRaycastsv
w0g:_InternalEnumerator_1_get_Current_m2826780083_gshared
iXd:_Array_InternalArray__ICollection_Remove_TisCustomAttributeNamedArgument_t94157543_m2838387005_gshared
Qyk:__ZL105LayoutUtility_t4076838048_CustomAttributesCacheGenerator_LayoutUtility_U3CGetMinHeightU3Em__4_m1769295917P21CustomAttributesCache
f0h:__ZNSt3__217__compressed_pairIjNS_19__map_value_compareIP11Il2CppClassNS_12__value_typeIS3_S3_EENS_4lessIS3_EELb1EEEEC2EjS8_
FNg:_Dictionary_2_GetEnumerator_m1752238884_gshared
J1g:_InternalEnumerator_1__ctor_m2782443954_AdjustorThunk
K4j:__ZL62IFormatterConverter_t1473156697_CustomAttributesCacheGeneratorP21CustomAttributesCache
sd:_glBeginQuery
jSf:_Assembly_GetCustomAttributes_m95309865
N2i:__ZNSt3__217__compressed_pairIPcNS_9allocatorIcEEE5firstEv
OJi:__ZNSt3__23getILj1EK10KeyWrapperINS_4pairIPK10MethodInfoP11Il2CppClassEEEjEERNS_13tuple_elementIXT_ENS2_IT0_T1_EEE4typeERSE_
HJb:__ZN6Camera12RenderStereoENS_10RenderFlagE8CullFlagPNS_24PerformEyeRenderFunctionE
Ici:__ZNKSt3__26vectorI6pollfdNS_9allocatorIS1_EEE5beginEv
qkb:__ZN20LocalFileSystemPosix10ToAbsoluteEPKc
Emd:_GridLayoutGroup__ctor_m1099847132
bX:__GLOBAL__sub_I_runtime_input_0_cpp
TGd:_Convert_ToBoolean_m48997236
QSd:_Enum_ToObject_m275924358
zm:f0
pwa:__ZN9BehaviourD0Ev
KAd:_ArrayListWrapper_set_Capacity_m2792463350
MJi:__ZNSt3__23getILj0EK10KeyWrapperINS_4pairIPK10MethodInfoP11Il2CppClassEEEjEERNS_13tuple_elementIXT_ENS2_IT0_T1_EEE4typeERSE_
mLa:__Z32TransferEnumWithNameForceIntSizeI14SafeBinaryRead7HDRModeEvRT_RT0_PKc17TransferMetaFlags
NLk:_getcwd
iHf:_StringBuilder_Append_m1128243247
Xdh:_AnchorInfo_get_Offset_m142119297
qxa:__ZN25ThreadsafeLinearAllocatorD2Ev
QLd:_DateTime_get_Year_m1985210972
R9a:__Z21SendMessageToEveryoneRK17MessageIdentifier11MessageData
Yxh:_UnityAction_1_EndInvoke_m902670333_gshared
M4:__ZN21BillboardBatchManager16StaticInitializeEPv
$Y:__ZN12_GLOBAL__N_138ArchiveRedirectFileSystemStaticDestroyEPv
oTd:_EventHandler_Invoke_m1137722757
zfg:__Z70RuntimeInvoker_Boolean_t3825574718_Int32_t2071877448_Int16_t4041245914PFvvEPK10MethodInfoPvPS4_
rVa:__ZN12CubemapArray34UpdateFileTextureUploadInstructionEP26FileAssetUploadInstructionj
wAe:_MonoType_IsSubclassOf_m2211166238
p2f:_TypeFilter_EndInvoke_m997625354
LVe:_Collection_1_System_Collections_ICollection_CopyTo_m2859266050_gshared
Opa:__Z23CreateSparseTextureGLES9TextureIDii14GraphicsFormati
qWh:__ZN6il2cpp2vmL33resolve_generic_instance_internalERKNS0_17TypeNameParseInfoEP11Il2CppClassRNSt3__26vectorIPK10Il2CppTypeNS6_9allocatorISA_EEEEb
S2g:_Comparer_1__ctor_m2876014041_gshared
uGj:_GC_continue_reclaim
Jre:_InvalidCastException__ctor_m2730571470
Lrf:_X509ChainElementCollection_System_Collections_IEnumerable_GetEnumerator_m2559704689
lck:__ZL86BigInteger_t925946153_CustomAttributesCacheGenerator_BigInteger_op_Implicit_m622924526P21CustomAttributesCache
Ztk:__ZL59Dropdown_t1985816271_CustomAttributesCacheGenerator_m_ValueP21CustomAttributesCache
Ytf:_InterpreterFactory_set_Gap_m2761943153
$of:_PublicKey_get_Key_m126090744
vrj:__ZN6il2cpp2os10ThreadImpl10APCRequestC2EPFvPvES3_
lyc:__ZNSt3__23mapIN20TextRenderingPrivate7FontRefEP11FT_FaceRec_NS_4lessIS2_EENS_9allocatorINS_4pairIKS2_S4_EEEEEixERS9_
Fza:__ZN17ArchiveFileSystem10AddStorageEP20ArchiveStorageReader
MHh:__ZL25UnresolvedVirtualCall_104P12Il2CppObjectS0_S0_S0_iPK10MethodInfo
LKd:_Convert_ToSingle_m690748777
q8h:__ZN6il2cpp2vm13MetadataCache37GetParameterDefaultValueDataFromIndexEi
VPg:_EqualityComparer_1_System_Collections_IEqualityComparer_GetHashCode_m1203798961_gshared
lSh:__ZN6il2cpp2vm5Class15GetEnumBaseTypeEP11Il2CppClass
Zse:_DirectoryNotFoundException__ctor_m3713860966
UUj:___cxx_global_var_init_17176
Ngj:__ZNSt3__25tupleIJRKP24Il2CppReflectionAssemblyEEC2ILb1ELb0EEES4_
uWa:__ZNK9Texture2D16GetNpotTexelSizeEv
cWg:_InternalEnumerator_1__ctor_m245588437_gshared
Bsf:_Capture_get_Text_m3472127896
Cug:_Mask_get_rectTransform_m3304369086
ndj:__ZNSt3__24swapIN10KeyWrapperINS_4pairIPKcS4_EEE14EqualsComparerI26NamespaceAndNamePairEqualsEEEENS_9enable_ifIXaasr21is_move_constructibleIT_EE5valuesr18is_move_assignableISB_EE5valueEvE4typeERSB_SE_
$ig:__Z78RuntimeInvoker_Void_t1841601450_ScriptableRenderContext_t4271526_RuntimeObjectPFvvEPK10MethodInfoPvPS4_
aSi:__ZN10KeyWrapperIPK10Il2CppTypeE14EqualsComparerIN6il2cpp8metadata26Il2CppTypeEqualityComparerEEC2ES7_
bYh:__ZNSt3__27forwardIRK10KeyWrapperIPK11Il2CppClassEEEOT_RNS_16remove_referenceIS8_E4typeE
Nha:__ZN9GfxDevice22GetDefaultVertexBufferE26GfxDefaultVertexBufferTypej
$gk:__ZL83Input_t1785128008_CustomAttributesCacheGenerator_Input_get_mousePresent_m1100327283P21CustomAttributesCache
H1e:_ReadOnlyCollection_1_System_Collections_ICollection_CopyTo_m1129689124_gshared
Whi:__ZNSt3__24listIP17Il2CppAsyncResultN6il2cpp2gc9AllocatorIS2_EEEC2Ev
YWk:_glGetActiveUniform__wrapper
XLk:_sscanf
VYe:_Collection_1_Contains_m1999290510_gshared
eWh:__ZNSt3__211__wrap_iterIPKiEC2ES2_
H2a:__ZN14SafeBinaryRead21TransferSTLStyleArrayINSt3__26vectorI17BlendShapeChannelNS1_9allocatorIS3_EEEEEEvRT_17TransferMetaFlags
PFb:__Z17BeginSplashScreenv
Lfb:__ZN9ShaderLab16SerializedShader8TransferI19StreamedBinaryWriteILb0EEEEvRT_
QOf:_UInt32_Parse_m2400360707
xC:__ZN7mecanim9animation18CreateAvatarMemoryEPKNS0_14AvatarConstantERNS_6memory9AllocatorE
pGd:_Stack_Pop_m3788808882
r4g:_Enumerator_VerifyCurrent_m4246196125_AdjustorThunk
DMg:_Dictionary_2_pick_value_m3484897877_gshared
qDk:_ArgumentCache__ctor_m1191928438
jbj:__ZNSt3__29allocatorINS_11__tree_nodeINS_12__value_typeIP24Il2CppReflectionAssemblyPvEES5_EEE10deallocateEPS7_j
PNd:_DateTime_op_Equality_m1867073872
mB:__ZN7mecanim8skeleton16SkeletonPoseCopyIN4math4trsXENS2_7affineXEEEvPKNS0_13SkeletonPoseTIT_EEPNS5_IT0_EE
lvb:__Z18Transfer_BlittableI19StreamedBinaryWriteILb0EELb0EaEvRK29SerializationCommandArgumentsR31RuntimeSerializationCommandInfo
sha:__ZN18GfxFramebufferGLES18GetFramebufferNameERK20GfxRenderTargetSetup
tcj:__ZNK30dense_hashtable_const_iteratorINSt3__24pairIK10KeyWrapperINS1_IPKcS4_EEEiEES6_24NamespaceAndNamePairHashN14dense_hash_mapIS6_iS9_NS6_14EqualsComparerI26NamespaceAndNamePairEqualsEENS0_9allocatorIS8_EEE9SelectKeyESD_SF_EneERKSI_
vmc:__Z30Event_Get_Custom_PropCharacterP12Il2CppObject
c6:__ZN13PlayableGraph27SchedulePlayableDestructionERK9HPlayable
gUk:_glGetFramebufferAttachmentParameteriv__wrapper
zVc:__Z13RegisterClassI20UnityConnectSettingsEvv
hob:__Z22scripting_array_length17ScriptingArrayPtr
d3c:_SecurityElement_GetAttribute_m4288291176
Ogh:_UriParser_get_DefaultPort_m1377931533
Fzh:_IndexedSet_1_get_Count_m2839545138_gshared
FVa:__ZN14SafeBinaryRead20TransferTypelessDataEjPvi
S1j:__ZL66StringFreezingAttribute_t2691375565_CustomAttributesCacheGeneratorP21CustomAttributesCache
MBi:__ZNSt3__213__vector_baseINS_12basic_stringIcNS_11char_traitsIcEENS_9allocatorIcEEEENS4_IS6_EEEC2Ev
EMe:_List_1_AddCollection_m3284813601_gshared
v$i:__ZNK6il2cpp2gc9AllocatorIP12Il2CppThreadE8max_sizeEv
PDc:_Horizontal_Sweep_Init
wxk:__ZL102ToggleGroup_t1030026315_CustomAttributesCacheGenerator_ToggleGroup_U3CActiveTogglesU3Em__1_m4052653494P21CustomAttributesCache
QM:__ZN13dynamic_arrayI12SoundChannelLj4EE9push_backERKS0_
npa:__Z19GetActiveColorSpacev
mQg:_EqualityComparer_1__cctor_m1672307556_gshared
Mxf:_SoapTypeAttribute_get_IsInteropXmlElement_m2941294827
yBc:_UNITY_tt_face_load_kern
eFe:_Enumerator_System_Collections_IEnumerator_get_Current_m3542273247_gshared
$yd:_Char_System_IConvertible_ToUInt32_m1557991717_AdjustorThunk
nGf:_Encoding_get_UTF8Unmarked_m628720656
Boe:_NumberFormatter_RoundBits_m1545255255
tY:__Z6StrCmpPKcS0_
oag:__Z119RuntimeInvoker_Void_t1841601450_RuntimeObject_Int64U26_t763825331_ObjectU26_t597476745_SerializationInfoU26_t4051840202PFvvEPK10MethodInfoPvPS4_
phb:__Z21CheckGpuProgramUsable20ShaderGpuProgramType
_Sf:_Binder__cctor_m3736115807
jtj:__ZN6il2cpp2os9Directory20GetFileSystemEntriesERKNSt3__212basic_stringIcNS2_11char_traitsIcEENS2_9allocatorIcEEEESA_iiPi
oog:__Z84RuntimeInvoker_Int32_t2071877448_Color32_t874517518_Color32_t874517518_RuntimeObjectPFvvEPK10MethodInfoPvPS4_
yNg:_Dictionary_2_OnDeserialization_m2160537783_gshared
uvd:_Attribute_GetHashCode_m2653962112
kxc:__ZN20TextRenderingPrivate19NativeTextGenerator5SetupEv
yah:_AsyncResult_GetReplyMessage_m262842621
_ji:__ZN6il2cpp6icalls8mscorlib6SystemL12GetFieldImplINS_5utils10functional6FilterINSt3__212basic_stringIcNS7_11char_traitsIcEENS7_9allocatorIcEEEENS4_13VmStringUtils23CaseInsensitiveComparerEEEEEP21Il2CppReflectionFieldP11Il2CppClassiRKT_
mRb:__ZNK15SharedLightData24GetFinalShadowResolutionEv
FDe:_Enumerator__ctor_m3021143890_AdjustorThunk
Y6a:__ZN12AspectRatios8TransferI18StreamedBinaryReadILb0EEEEvRT_
Zwj:__ZNSt3__214__split_bufferIjRNS_9allocatorIjEEE17__destruct_at_endEPjNS_17integral_constantIbLb0EEE
CZj:__ZL66X509ExtensionCollection_t1640144839_CustomAttributesCacheGeneratorP21CustomAttributesCache
F6b:__ZN10GameObject14CopyPropertiesERS_
VIh:__ZL25UnresolvedVirtualCall_167P12Il2CppObject19Vector3_t2243707580S1_PK10MethodInfo
jnc:__Z44Register_UnityEngine_GUIStyle_get_fixedWidthv
K$c:_RSACryptoServiceProvider_Common_m2581564813
bih:_X509CertificateEnumerator_MoveNext_m4060814498
foh:_Vector2_Scale_m2260641886
$ue:_MemoryStream_CheckIfClosedThrowDisposed_m2253054610
USg:_ArrayReadOnlyList_1_GetEnumerator_m634288642_gshared
l$a:__ZNK13ScreenManager12IsFullScreenEv
yMk:_rand
JUk:_emscripten_glFramebufferRenderbuffer__wrapper
wig:__Z72RuntimeInvoker_Boolean_t3825574718_Ray_t2469606224_SingleU26_t4173844468PFvvEPK10MethodInfoPvPS4_
qvj:__ZN6il2cpp5utils9PathUtils7CombineIcEENSt3__212basic_stringIT_NS3_11char_traitsIS5_EENS3_9allocatorIS5_EEEERKNS0_10StringViewIS5_EERKSA_
M4e:_ReadOnlyCollection_1_GetEnumerator_m2481390116_gshared
I7f:__Z77RuntimeInvoker_Void_t1841601450_RuntimeObject_Int32_t2071877448_RuntimeObjectPFvvEPK10MethodInfoPvPS4_
dpb:__ZN14SafeBinaryRead21TransferSTLStyleArrayINSt3__26vectorI17AnimationCurveTplIfE13stl_allocatorIS4_L18MemLabelIdentifier1ELi16EEEEEEvRT_17TransferMetaFlags
nXh:__ZN15dense_hashtableINSt3__24pairIK10KeyWrapperIPK11Il2CppClassEPKcEES6_N6il2cpp5utils11PointerHashIS3_EEN14dense_hash_mapIS6_S9_SE_NS6_14EqualsComparerINS0_8equal_toIS5_EEEENS0_9allocatorISA_EEE9SelectKeyESJ_SL_E9set_valueEPSA_RKSA_
FSj:__ZNSt3__23mapIPFvvEPK10MethodInfoNS_4lessIS2_EENS_9allocatorINS_4pairIKS2_S5_EEEEE3endEv
jLi:__ZN15dense_hashtableINSt3__24pairIK10KeyWrapperINS1_IPK11Il2CppImageP11Il2CppClassEEEjEES9_17ReflectionMapHashIS8_EN14dense_hash_mapIS9_jSD_NS9_14EqualsComparerINS0_8equal_toIS8_EEEENS0_9allocatorISB_EEE9SelectKeyESI_SK_E12expand_arrayEjN21dense_hash_map_traits17integral_constantIbLb0EEE
CAf:_ObjectManager_RegisterObject_m872610295
KTb:__Z22PrepareOptimizedPlanesPK5PlaneiPKN4math7_float4E
Yoi:__ZN6il2cpp6icalls8mscorlib6SystemL23GetPropertiesByNameImplINS_5utils10functional6FilterINSt3__212basic_stringIcNS7_11char_traitsIcEENS7_9allocatorIcEEEENS4_13VmStringUtils23CaseInsensitiveComparerEEEEEP11Il2CppArrayPK10Il2CppTypejRKT_
inh:_RectOffset_t3387826427_marshal_pinvoke
sld:_Graphic_SetVerticesDirty_m1607014370
GU:__ZN11UnityEngine15CloudWebService17WebFileDownloaderINS0_20WebRequestRestClientENS0_23WebRequestRestHeaderMapEE10InitializeERKN4core12basic_stringIcNS5_20StringStorageDefaultIcEEEE
K4:__ZN17UniqueIDGenerator15CreatePureIndexEv
j9e:_MD2__ctor_m3133818738
Rr:__ZN11UnityEngine9Animation28GenericAnimationBindingCache15DidReloadDomainEv
Ije:_AppDomain_InternalGetProcessGuid_m1278588156
Hqd:_InputField_MoveRight_m386206014
h6i:__ZNSt3__212basic_stringIDsNS_11char_traitsIDsEENS_9allocatorIDsEEE26__invalidate_all_iteratorsEv
PEd:_HashValues_get_Count_m234926373
N7a:__ZNSt3__26vectorIN15ResourceManager10DependencyE13stl_allocatorIS2_L18MemLabelIdentifier52ELi16EEE6assignINS_11__wrap_iterIPS2_EEEENS_9enable_ifIXaasr21__is_forward_iteratorIT_EE5valuesr16is_constructibleIS2_NS_15iterator_traitsISC_E9referenceEEE5valueEvE4typeESC_SC_
R5f:__Z116RuntimeInvoker_Boolean_t3825574718_RuntimeObject_Int32_t2071877448_RuntimeObject_Int32_t2071877448_Int32_t2071877448PFvvEPK10MethodInfoPvPS4_
dse:_BinaryReader_ReadBoolean_m2892291883
mQh:__ZN15dense_hashtableINSt3__24pairIK10KeyWrapperIPK22Il2CppGenericParameterEP11Il2CppClassEES6_N6il2cpp5utils11PointerHashIS4_EEN14dense_hash_mapIS6_S9_SE_NS6_14EqualsComparerINS0_8equal_toIS5_EEEENS0_9allocatorISA_EEE9SelectKeyESJ_SL_E14squash_deletedEv
BSg:_ArrayReadOnlyList_1_Clear_m2539474626_gshared
y3i:__ZN6il2cpp6icalls8mscorlib6System9Threading6Thread22CurrentThread_internalEv
pqk:__ZL85Canvas_t209405766_CustomAttributesCacheGenerator_Canvas_get_sortingLayerID_m137448982P21CustomAttributesCache
e5b:__ZZL23RegisterLightPropertiesR22GenericPropertyBindingEN18Wrapper_LightRange13SetFloatValueEPvf
fGi:__ZN10KeyWrapperINSt3__24pairIPK9FieldInfoP11Il2CppClassEEEC2Ev
i5j:__ZL73AsymmetricSignatureDeformatter_t3580832979_CustomAttributesCacheGeneratorP21CustomAttributesCache
nna:__ZNSt3__26vectorI27ComputeShaderBuiltinSamplerNS_9allocatorIS1_EEE21__push_back_slow_pathIKS1_EEvRT_
Wff:_TlsServerCertificate_validateCertificates_m1988583701
IXi:__ZNKSt3__26vectorIN6il2cpp8metadata18GenericArrayMethodENS_9allocatorIS3_EEE8capacityEv
SYj:__ZL61DllImportAttribute_t3000813225_CustomAttributesCacheGeneratorP21CustomAttributesCache
Xwj:__ZNSt3__228__libcpp_compressed_pair_impIPjRNS_9allocatorIjEELj0EE6secondEv
A4f:__Z66RuntimeInvoker_Int32_t2071877448_RuntimeObject_Int32U26_t455636984PFvvEPK10MethodInfoPvPS4_
xIh:__ZL25UnresolvedVirtualCall_143P12Il2CppObjectaaPK10MethodInfo
bGa:__ZNK9Transform18TransformDirectionERK8Vector3f
BAa:__ZNK17ArchiveFileSystem12GetAssetGUIDERK13FileEntryData
ghb:__ZNSt3__26vectorIN9ShaderLab20SerializedSubProgram15MatrixParameterENS_9allocatorIS3_EEE21__push_back_slow_pathIKS3_EEvRT_
KZk:_emscripten_glClearStencil__wrapper
Lpg:__Z60RuntimeInvoker_Void_t1841601450_ResourceCacheItem_t333236149PFvvEPK10MethodInfoPvPS4_
JQg:_EqualityComparer_1_get_Default_m1852501307_gshared
n5h:__ZN15dense_hashtableINSt3__24pairIK10KeyWrapperIPK11Il2CppClassEPKcEES6_N6il2cpp5utils11PointerHashIS3_EEN14dense_hash_mapIS6_S9_SE_NS6_14EqualsComparerINS0_8equal_toIS5_EEEENS0_9allocatorISA_EEE9SelectKeyESJ_SL_E12resize_deltaEjj
Rgj:__ZNSt3__23mapIP24Il2CppReflectionAssemblyPvNS_4lessIS2_EENS_9allocatorINS_4pairIKS2_S3_EEEEE4findERS8_
Zke:_NumberFormatInfo_get_PercentNegativePattern_m1162448153
k_j:__ZL56SyncHashtable_t1343674558_CustomAttributesCacheGeneratorP21CustomAttributesCache
wSk:_glTexSubImage3D__wrapper
Nsf:_FactoryCache_Add_m2602974721
Mha:__Z30AddDefaultStreamsToMeshBuffersR9GfxDeviceR11MeshBuffersj17ShaderChannelMaskS3_
DY:__ZL16GetInterfaceImpl18UnityInterfaceGUID
kle:_RegionInfo_construct_internal_region_from_name_m3316088619
LTh:__ZN6il2cpp2vmL17SetupFieldOffsetsENS0_15FieldLayoutKindEP11Il2CppClassjRKNSt3__26vectorIjNS4_9allocatorIjEEEE
d1i:__ZNSt3__212basic_stringIcNS_11char_traitsIcEENS_9allocatorIcEEEC2INS_11__wrap_iterIPcEEEET_SA_
TGe:_List_1_System_Collections_IList_get_Item_m936612973_gshared
XRj:__ZNSt3__217__compressed_pairIPNS_12basic_stringIDsNS_11char_traitsIDsEENS_9allocatorIDsEEEENS4_IS6_EEE5firstEv
cAj:__ZN6il2cpp6icalls8mscorlib6System15MonoCustomAttrs27GetCustomAttributesInternalEP12Il2CppObjectP20Il2CppReflectionTypeb
qJc:_UNITY_TT_Set_MM_Blend
rfa:__Z24PluginsSetGraphicsDevicePvi18GfxDeviceEventType
eX:__GLOBAL__sub_I_runtime_math_random_0_cpp
g_i:__ZNKSt3__213__vector_baseIP12Il2CppThreadN6il2cpp2gc9AllocatorIS2_EEE8capacityEv
MAf:_ObjectReader_ReadAssembly_m869834280
Eph:_Sprite_INTERNAL_get_textureRect_m127050026
_Fb:__ZN14PreloadManager35WaitForAllAsyncOperationsToCompleteEv
Mpi:__ZNSt3__24moveIRN6il2cpp6icalls8mscorlib6System12PropertyPairEEEONS_16remove_referenceIT_E4typeEOS8_
e4e:_ReadOnlyCollection_1_System_Collections_IList_get_Item_m1831743662_gshared
XZe:_Collection_1_IsSynchronized_m971497175_gshared
l_:__ZNK18ScriptingObjectPtr17ToScriptingStringEv
Lbd:_ExecuteEvents_Execute_m1617536317
aCg:_Text_get_cachedTextGeneratorForLayout_m1357670532
SH:__ZL31InitializeAudioScriptingClassesv
tgk:__ZL75Screen_t786852042_CustomAttributesCacheGenerator_Screen_get_dpi_m2147924568P21CustomAttributesCache
XKb:__Z14SortGUIByDepthP10GUIElementS0_
dpe:_NumberFormatter_NumberToString_m126384393
kWk:_emscripten_glVertexAttrib4fv__wrapper
_X:__ZN13RuntimeStaticI13dynamic_arrayIPK31TransferFunctionScriptingTraitsLj4EELb0EE16StaticInitializeEPv
pvf:_LogicalCallContext__ctor_m3173272863
WB:__ZN12_GLOBAL__N_120ProcessRootMotionMixER33AnimationPlayableEvaluationOutputR35AnimationPlayableEvaluationConstantR32AnimationPlayableEvaluationInputS1_f
hze:_MonoCustomAttrs__cctor_m2608447972
Lne:_Int32_FindSign_m3803672540
Ngk:__ZL98TouchScreenKeyboard_t601950206_CustomAttributesCacheGenerator_TouchScreenKeyboard_Open_m4126304679P21CustomAttributesCache
smg:__Z95RuntimeInvoker_Void_t1841601450_ObjectU5BU5DU26_t3223402458_Int32_t2071877448_Int32_t2071877448PFvvEPK10MethodInfoPvPS4_
Skb:__ZNK20LocalFileSystemPosix21GetAvailableDiskSpaceEPKcRy
MX:__ZNSt3__26__treeIiNS_4lessIiEENS_9allocatorIiEEE7destroyEPNS_11__tree_nodeIiPvEE
vLh:_Predicate_1__ctor_m2995226103_gshared
Obf:_CipherSuite_InitializeCipher_m229247572
upf:_X509Certificate2__ctor_m1095336775
juj:__ZNSt3__217__compressed_pairIPNS_11__tree_nodeINS_12basic_stringIcNS_11char_traitsIcEENS_9allocatorIcEEEEPvEENS_22__tree_node_destructorINS5_IS9_EEEEEC2ESA_SD_
Baa:__ZNK9GfxDevice14GetWorldMatrixEv
AIi:__ZNSt3__24pairIK10KeyWrapperINS0_IPK10MethodInfoP11Il2CppClassEEEjEC2IS7_jEEONS0_IT_T0_EEPNS_9enable_ifIXaasr14is_convertibleISC_S9_EE5valuesr14is_convertibleISD_jEE5valueEvE4typeE
o1f:_MonoProperty_GetGetMethod_m1100580870
eMg:_Dictionary_2__ctor_m1950568359_gshared
Pfj:__ZNSt3__214pointer_traitsIPNS_12__value_typeIP24Il2CppReflectionAssemblyPvEEE10pointer_toERS5_
gjb:__Z19scripting_array_new17ScriptingClassPtrjj
EM:__ZN11SoundHandle13CreateChannelEb
L9f:__Z90RuntimeInvoker_Void_t1841601450_IntPtr_t_Int32_t2071877448_RuntimeObject_Int32_t2071877448PFvvEPK10MethodInfoPvPS4_
zAk:_Bounds_get_extents_m1552628777_AdjustorThunk
WXa:__ZN14SafeBinaryRead21TransferSTLStyleArrayI13dynamic_arrayI12LightmapDataLj4EEEEvRT_17TransferMetaFlags
Clj:__ZNSt3__27forwardIN6il2cpp2gc9CachedCCWEEEOT_RNS_16remove_referenceIS4_E4typeE
$je:_ArgumentException__ctor_m3312963299
ieb:__ZNSt3__26vectorIN9ShaderLab20SerializedSubProgram16TextureParameterENS_9allocatorIS3_EEE6assignIPS3_EENS_9enable_ifIXaasr21__is_forward_iteratorIT_EE5valuesr16is_constructibleIS3_NS_15iterator_traitsISA_E9referenceEEE5valueEvE4typeESA_SA_
f3e:_ReadOnlyCollection_1_get_Item_m1696267180_gshared
T1h:__ZN13Il2CppHashMapIN6il2cpp5utils13dynamic_arrayIPK10Il2CppTypeLj4EEEPFvvENS0_8metadata19Il2CppSignatureHashENS9_22Il2CppSignatureCompareENSt3__29allocatorINSC_4pairIK10KeyWrapperIS6_ES8_EEEEEC2EjRKSA_RKSB_
nKh:_U3CCreateWhereIteratorU3Ec__Iterator1D_1_MoveNext_m3533253043_gshared
iRi:__ZN15dense_hashtableINSt3__24pairIK10KeyWrapperIPK22Il2CppGenericParameterEPK24MonoGenericParameterInfoEES6_N6il2cpp5utils11PointerHashIS4_EEN14dense_hash_mapIS6_SA_SF_NS6_14EqualsComparerINS0_8equal_toIS5_EEEENS0_9allocatorISB_EEE9SelectKeyESK_SM_E15set_deleted_keyERKSB_
SWg:_InternalEnumerator_1_System_Collections_IEnumerator_Reset_m2726857860_AdjustorThunk
d$b:__ZN6prcoreL11inner_clearILj2EEEvPhjjj
q1h:__ZNSt3__24swapI17Il2CppInteropDataEENS_9enable_ifIXaasr21is_move_constructibleIT_EE5valuesr18is_move_assignableIS3_EE5valueEvE4typeERS3_S6_
fq:__Z14resize_trimmedINSt3__26vectorIN4core12basic_stringIcNS2_20StringStorageDefaultIcEEEENS0_9allocatorIS6_EEEEEvRT_j
xDe:_Enumerator_System_Collections_IEnumerator_get_Current_m2853089017_AdjustorThunk
I0h:__ZNSt3__24moveIRP10KeyWrapperIPK19Il2CppGenericMethodEEEONS_16remove_referenceIT_E4typeEOS9_
Hg:_emscripten_exit_fullscreen
Fod:_InputField_get_mesh_m3276583786
k6g:_GCHandle_Free_m1639542352_AdjustorThunk
qTj:__ZNSt3__217__compressed_pairIPNS_11__tree_nodeINS_12__value_typeIPFvvEPK10MethodInfoEEPvEENS_22__tree_node_destructorINS_9allocatorISA_EEEEE6secondEv
Gef:_Context_set_ClientRandom_m631392719
Jqj:__ZN6il2cpp6icalls8mscorlib6System6String19InternalAllocateStrEi
ZZi:__ZNKSt3__26vectorIP12Il2CppThreadN6il2cpp2gc9AllocatorIS2_EEE6cbeginEv
Fuc:__Z29Transfer_Blittable_ArrayFieldI8JSONRead11QuaternionfEvRT_R9ArrayInfoRK23StaticTransferFieldInfo
Y3j:__ZL65SoapParameterAttribute_t2780084514_CustomAttributesCacheGeneratorP21CustomAttributesCache
zkb:__ZN20LocalFileSystemPosix8SetFlagsER13FileEntryDatajj
r6i:__ZNKSt3__217__compressed_pairINS_12basic_stringIDsNS_11char_traitsIDsEENS_9allocatorIDsEEE5__repES5_E6secondEv
Vdc:__Z45Register_UnityEngine_Camera_get_targetDisplayv
h4b:__ZNK24RendererAnimationBinding15GenerateBindingERKN4core12basic_stringIcNS0_20StringStorageDefaultIcEEEEbRN11UnityEngine9Animation14GenericBindingE
HKa:__Z15GetFlareManagerv
F$b:__ZN15ApplicationInfo24GetApplicationIdentifierEv
R2e:_ReadOnlyCollection_1_System_Collections_IList_Contains_m927375828_gshared
Dva:__ZN9Behaviour8TransferI18StreamedBinaryReadILb0EEEEvRT_
_y:__ZN8Animator13GetAvatarRootEv
Mki:__ZNSt3__26vectorIP9FieldInfoNS_9allocatorIS2_EEE24__RAII_IncreaseAnnotatorC2ERKS5_j
S$e:_ReadOnlyCollection_1_System_Collections_Generic_ICollectionU3CTU3E_Clear_m388357963_gshared
wKk:___toread
gEb:__ZNSt3__26vectorI10vector_mapIiiNS_4lessIiEE13stl_allocatorINS_4pairIiiEEL18MemLabelIdentifier38ELi16EEES4_IS9_LS7_38ELi16EEE26__swap_out_circular_bufferERNS_14__split_bufferIS9_RSA_EE
xPk:___cxa_is_pointer_type
V7c:_String_Concat_m56707527
YB:__ZN7mecanim9animation16EvaluateAvatarDXEPKNS0_14AvatarConstantEPKNS0_11AvatarInputEPNS0_12AvatarMemoryEPNS0_15AvatarWorkspaceEPNS0_12AvatarOutputE
Doa:__ZN4gles20DestroyRenderSurfaceEP7ApiGLESP17RenderSurfaceGLES
JHj:__ZN6il2cpp2os11EventHandle3GetEv
wDe:_Enumerator_System_Collections_IEnumerator_get_Current_m2853089017_gshared
Idi:__ZNSt3__2eqIPP12Il2CppThreadS3_EEbRKNS_11__wrap_iterIT_EERKNS4_IT0_EE
hjc:__Z34Transform_CUSTOM_SetAsFirstSiblingP12Il2CppObject
fEi:__ZNK15dense_hashtableINSt3__24pairIK10KeyWrapperINS1_IPK14Il2CppAssemblyP11Il2CppClassEEEjEES9_17ReflectionMapHashIS8_EN14dense_hash_mapIS9_jSD_NS9_14EqualsComparerINS0_8equal_toIS8_EEEENS0_9allocatorISB_EEE9SelectKeyESI_SK_E10test_emptyEj
nfi:__ZNSt3__216allocator_traitsIN6il2cpp2gc9AllocatorINS_11__list_nodeIP17Il2CppAsyncResultPvEEEEE8allocateERS9_j
vFe:_Enumerator_get_Current_m827571811_AdjustorThunk
Imk:__ZL62Font_t4239498691_CustomAttributesCacheGenerator_textureRebuiltP21CustomAttributesCache
J8i:__ZN10KeyWrapperIP14Il2CppIUnknownE14EqualsComparerINSt3__28equal_toIS1_EEEC2ES6_
Sva:__ZN17PersistentManager40GlobalToLocalSerializedFileIndexInternalERK26SerializedObjectIdentifier
HR:__ZN11UnityEngine15CloudWebService17SessionEventQueue14ParseEventDataERKN4core12basic_stringIcNS2_20StringStorageDefaultIcEEEE
v9c:_BaseEventData_get_selectedObject_m3551206992
Pae:_SimpleCollator_CompareOrdinal_m2176988387
Cej:__ZNKSt3__217__compressed_pairIPPK11Il2CppClassRNS_9allocatorIS3_EEE5firstEv
Nkk:__ZL47Rect_t3681755626_CustomAttributesCacheGeneratorP21CustomAttributesCache
_Td:_CCGregorianCalendar_GetYear_m1289900195
bpe:_Int16_ToString_m2592645088
zfk:__ZL90CullingGroup_t1091689465_CustomAttributesCacheGenerator_CullingGroup_SendEvents_m386073533P21CustomAttributesCache
Kfa:__ZN13TranslateGLES4InitERK12GraphicsCaps16GfxDeviceLevelGL
kBb:__Z29Transfer_Blittable_ArrayFieldI18StreamedBinaryReadILb0EE10ColorRGBAfEvRT_R9ArrayInfoRK23StaticTransferFieldInfo
fCf:_SerializationInfoEnumerator_Reset_m2206466680
HUk:_emscripten_glGetShaderPrecisionFormat__wrapper
BDh:_GenericEqualityComparer_1_Equals_m1934771410_gshared
w_j:__ZL57DebuggingModes_t2073970606_CustomAttributesCacheGeneratorP21CustomAttributesCache
mOj:__ZN6il2cpp5utils9Exception26FormatInvalidCastExceptionEPK11Il2CppClassS4_
GWe:_Collection_1_System_Collections_IList_get_IsFixedSize_m993584401_gshared
p2b:__ZN13ProduceHelperI10TagManagerLb0EE7ProduceE18MemLabelIdentifier18ObjectCreationMode
nQj:__ZN6il2cpp2os6Memory12AlignedAllocEjj
K_g:_InternalEnumerator_1__ctor_m691972083_gshared
qVi:__ZNK14dense_hash_mapI10KeyWrapperIP11Il2CppClassES2_N6il2cpp8metadata16SZArrayClassHashENS3_14EqualsComparerINS5_19SZArrayClassCompareEEENSt3__29allocatorINSA_4pairIKS3_S2_EEEEE9SelectKeyclERKSE_
crb:__Z18Transfer_BlittableI17RemapPPtrTransferLb0E11ColorRGBA32EvRK29SerializationCommandArgumentsR31RuntimeSerializationCommandInfo
zUf:_TypeBuilder_get_is_created_m736553860
N1i:__ZNSt3__217__compressed_pairIPN6il2cpp2vm22EmbeddedResourceRecordERNS_9allocatorIS3_EEE6secondEv
taf:_RSAManaged__ctor_m1370411656
Azb:__Z18Transfer_BlittableI18StreamedBinaryReadILb0EELb1E10ColorRGBAfEvRK29SerializationCommandArgumentsR31RuntimeSerializationCommandInfo
jVa:__ZN12CubemapArray23VirtualRedirectTransferER17RemapPPtrTransfer
hlh:_PropertyName_op_Equality_m112228798
Ibc:__ZL27GetComponentsImplementationILb0ELi0EEbR10GameObjectbRK17CompareParametersRK39GetComponentsImplementation_ReturnValue
OCb:__ZN9Scripting36IsSystemCollectionsGenericDictionaryE17ScriptingClassPtr
Wwg:_Raycast3DCallback_EndInvoke_m3234280377
Bjg:__Z34RuntimeInvoker_KeyCode_t2283395152PFvvEPK10MethodInfoPvPS4_
Lkh:_PlayableHandle_op_Equality_m2854547329
gid:_ColorTweenCallback__ctor_m3619686788
j2:__ZL16ReadTypeTreeImplILb0EEbR8TypeTreeRK16TypeTreeIteratorRPKhS6_i
Yx:__ZN27AnimationLayerMixerPlayable16SetLayerMaskCopyEjRKN7mecanim6bitsetILj70EEEPKNS0_8skeleton12SkeletonMaskE
HPa:__ZNK22BuiltinResourceManager21GetResourceInstanceIDEPKN5Unity4TypeERKN4core12basic_stringIcNS4_20StringStorageDefaultIcEEEE
Hfc:__Z42Register_UnityEngine_RectOffset_set_bottomv
UAd:_ArrayListWrapper_IndexOf_m3574835167
Umc:__Z28GUIStyleState_CUSTOM_CleanupP12Il2CppObject
aNb:__ZN28LightProbeProxyVolumeContext8CopyFromERKS_
Zfd:_U3COnFinishSubmitU3Ec__Iterator0_System_Collections_Generic_IEnumeratorU3CobjectU3E_get_Current_m1823105495
FEa:__ZN23TransformChangeDispatch32QueueTransformChangeIfHasChangedER18TransformHierarchy
D1c:_SymmetricAlgorithm_get_FeedbackSize_m544664262
Eoa:__ZN7ApiGLES18DeleteRenderbufferERj
cei:__ZNSt3__216allocator_traitsIN6il2cpp2gc9AllocatorINS_11__list_nodeIP17Il2CppAsyncResultPvEEEEE9__destroyIS6_EEvNS_17integral_constantIbLb0EEERS9_PT_
ina:__ZL23ProgramUniformMatrix4fvPK7ApiGLESjiihPKv
Qoa:__ZN7ApiGLES13CreateTextureEjj14GraphicsFormatiiiii
K4b:__ZN13ProduceHelperI11LightProbesLb0EE7ProduceE18MemLabelIdentifier18ObjectCreationMode
Alg:__Z41RuntimeInvoker_SelectionState_t3187567897PFvvEPK10MethodInfoPvPS4_
j$g:_InternalEnumerator_1_MoveNext_m3629145604_gshared
Sdb:__ZN9ShaderLab20SerializedSubProgram15MatrixParameter8TransferI14SafeBinaryReadEEvRT_
G4f:__Z51RuntimeInvoker_Int32_t2071877448_Single_t2076509932PFvvEPK10MethodInfoPvPS4_
Hvd:_BitConverter_AmILittleEndian_m2716658112
Kbc:__ZL27GetComponentsImplementationILb0ELi1EEbR10GameObjectbRK17CompareParametersRK39GetComponentsImplementation_ReturnValue
xIc:_Round_Down_To_Grid
YIf:_UTF8Decoder__ctor_m1460357288
Qea:__ZN13RenderTexture7ReleaseEv
csc:__Z18Transfer_BlittableI8JSONReadLb1EN4math12int3_storageEEvRK29SerializationCommandArgumentsR31RuntimeSerializationCommandInfo
Q3a:__ZN10MeshFilter23VirtualRedirectTransferER14SafeBinaryRead
gEk:_UnityAction_BeginInvoke_m1146054769
iHd:_Convert_ToByte_m1201588964
_3a:__ZN12MeshRenderer17MainThreadCleanupEv
$ra:__ZN22CreateGpuProgramOutput12CreateParamsEv
aJ:__ZN10ObjectPoolIN4FMOD7ChannelENS0_8ChannelIEE7GetFreeEi
R$j:__ZL55EventBuilder_t2927243889_CustomAttributesCacheGeneratorP21CustomAttributesCache
CCf:_RuntimeMethodHandle_GetHashCode_m2682236001_AdjustorThunk
mFh:_AudioListenerExtension_get_audioListener_m2614481031
Wpg:__Z54RuntimeInvoker_Void_t1841601450_UILineInfo_t3621277874PFvvEPK10MethodInfoPvPS4_
sxi:__ZNSt3__26vectorIiNS_9allocatorIiEEE21__push_back_slow_pathIiEEvOT_
Dkg:__Z45RuntimeInvoker_HorizontalWrapMode_t2027154177PFvvEPK10MethodInfoPvPS4_
Afa:__ZNK14GfxContextGLES13GetDefaultFBOEv
tXd:_Array_InternalArray__ICollection_Remove_TisSByte_t454417549_m2474211570_gshared
TDj:_GC_unix_get_mem
A3c:_Evidence_get_IsSynchronized_m1427392003
Jnh:_RectTransform_set_anchorMax_m1168582032
Ukj:__ZNSt3__24moveIRN10KeyWrapperIP12Il2CppObjectE14EqualsComparerINS_8equal_toIS3_EEEEEEONS_16remove_referenceIT_E4typeEOSB_
x8b:__Z13GetImagePixelI10ColorRGBAfET_PKhii13TextureFormat15TextureWrapModeS5_ii
mui:_il2cpp_class_is_enum
E_i:__ZN6il2cpp2vm6Thread49CheckCurrentThreadForInterruptAndThrowIfNecessaryEv
NHa:__ZNSt3__23mapIN9ShaderLab16FastPropertyNameEN18UnityPropertySheet11UnityTexEnvENS_4lessIS2_EENS_9allocatorINS_4pairIKS2_S4_EEEEEixERS9_
Una:__ZNK13TranslateGLES25GetTextureTargetDimensionEj
tej:__ZNSt3__27forwardIRKPK11Il2CppClassEEOT_RNS_16remove_referenceIS6_E4typeE
_Ti:__ZN10KeyWrapperINSt3__24pairIP11Il2CppClassjEEEC2ENS5_11KeyTypeEnumE
ZZh:__ZN10KeyWrapperIPK19Il2CppGenericMethodEC2Ev
JBj:__ZNSt3__29allocatorIPK14Il2CppAssemblyE7destroyEPS3_
o3d:_Array_InternalArray__set_Item_TisByte_t3683104436_m1694926640_gshared
jXe:_Collection_1_System_Collections_IList_Contains_m1897568526_gshared
OWf:_FieldBuilder_get_FieldType_m2267463269
cvd:_SimpleEnumerator_Clone_m3032847657
gch:_PatternCompiler_EmitInfo_m597931026
K7e:_ModulusRing_Multiply_m3113924743
xic:__Z47Texture2D_CUSTOM_INTERNAL_CALL_GetPixelBilinearP12Il2CppObjectffR10ColorRGBAf
c_:__ZN9Scripting12LogExceptionE21ScriptingExceptionPtriPKcb
tef:_Context_get_ServerSettings_m225713600
Hi:_emscripten_glVertexAttrib4f
w$e:_ReadOnlyCollection_1_System_Collections_IEnumerable_GetEnumerator_m531171980_gshared
m3a:__ZN10Matrix4x4f8TransferI19StreamedBinaryWriteILb0EEEEvRT_
nnh:_RectOffset__ctor_m976836251
Q5d:_Array_Sort_TisUILineInfo_t3621277874_m3105833015_gshared
RPi:__ZN10KeyWrapperIPK14Il2CppAssemblyEC2ENS3_11KeyTypeEnumE
RAe:_MonoType_GetGenericArguments_m2708198481
mOb:__ZN11HaloManager21ReleaseGeometryJobMemEP25DynamicVBOGeometryJobData
ZGe:_List_1_AddEnumerable_m2489692396_gshared
Hkg:__Z51RuntimeInvoker_Color_t2020392075_Single_t2076509932PFvvEPK10MethodInfoPvPS4_
VCh:_GenericEqualityComparer_1_GetHashCode_m3450627064_gshared
oJf:_WaitHandle__ctor_m1256161634
Zw:__ZN7mecanim12statemachine24CreateStateMachineMemoryEPKNS0_20StateMachineConstantERNS_6memory9AllocatorE
PHg:_Enumerator_get_Current_m419581838_AdjustorThunk
cda:__ZN9GfxDevice18SetGlobalDepthBiasEff
oii:__ZN6il2cpp6icalls8mscorlib6System8MonoType12get_AssemblyEP20Il2CppReflectionType
Slh:_Vector3_get_normalized_m1057036856
Zsf:_Group_get_Success_m2001463544
J4c:_SecurityException_get_PermissionType_m3543350822
Vi:_emscripten_glGetPointerv
MB:__ZN8Animator22ApplyBuiltinRootMotionEv
jWi:__ZNSt3__210__get_pairILj1EE3getIK10KeyWrapperIP11Il2CppClassES5_EERT0_RNS_4pairIT_S8_EE
GFb:__Z26ApplyMaterialPassWithCacheRK18SharedMaterialDataR17ShaderPassContextP6ShaderPN9ShaderLab4PassEibPKNS6_10GrabPassesEPNS6_11SubProgramsEPK22DeviceRenderStateBlock
xpj:__ZNSt3__228__libcpp_compressed_pair_impIP20Il2CppStackFrameInfoRNS_9allocatorIS1_EELj0EEC2ES2_S5_
XWd:_Array_InternalArray__ICollection_Remove_TisKeyValuePair_2_t3716250094_m2566517826_gshared
v9i:__ZN30dense_hashtable_const_iteratorINSt3__24pairIK10KeyWrapperIP14Il2CppIUnknownEjEES5_N6il2cpp5utils11PointerHashIS3_EEN14dense_hash_mapIS5_jSB_NS5_14EqualsComparerINS0_8equal_toIS4_EEEENS0_9allocatorIS7_EEE9SelectKeyESG_SI_EppEv
_Za:__ZN8Renderer23VirtualRedirectTransferER14SafeBinaryRead
DVf:_DerivedType_get_UnderlyingSystemType_m3904230233
Gcd:_PointerEventData_get_rawPointerPress_m448871540
DMa:__Z27ConvertSubMeshesToTrianglesR13dynamic_arrayI7SubMeshLj4EERS_ItLj2EE
ESh:__ZN6il2cpp2vmL15GetBitmapNoInitEP11Il2CppClassPjRjj
v6h:__ZNSt3__26__treeINS_12__value_typeIP11Il2CppClassS3_EENS_19__map_value_compareIS3_S4_NS_4lessIS3_EELb1EEENS_9allocatorIS4_EEE10value_compEv
Iej:__ZNSt3__216allocator_traitsINS_9allocatorIPK11Il2CppClassEEE7destroyIS4_EEvRS5_PT_
s_b:__ZL13MotionHandleriPK27EmscriptenDeviceMotionEventPv
Uqf:_X509Certificate2Collection__ctor_m819526826
yH:__ZN12AudioManager5ResetEv
$tg:__Z75RuntimeInvoker_RuntimeObject_Single_t2076509932_RuntimeObject_RuntimeObjectPFvvEPK10MethodInfoPvPS4_
X8e:_KeyBuilder_Key_m3814433741
ake:_ArgumentException__ctor_m158205422
UBi:__ZNSt3__213__vector_baseIiNS_9allocatorIiEEEC2Ev
j_d:_Array_compare_TisVector3_t2243707580_m3709184876_gshared
ind:_HorizontalLayoutGroup_SetLayoutHorizontal_m3237355818
wB:__ZN7mecanim5human14RetargetToTDoFEPKNS0_5HumanEPNS0_9HumanPoseEPNS_8skeleton13SkeletonPoseTIN4math4trsXEEESB_
Sii:__ZNSt3__216allocator_traitsINS_9allocatorINS_4pairIPK10MethodInfoP11Il2CppClassEEEEE7destroyIS8_EEvRS9_PT_
EQi:__ZNK15dense_hashtableINSt3__24pairIK10KeyWrapperIPK14Il2CppAssemblyEPK22Il2CppMonoAssemblyNameEES6_N6il2cpp5utils11PointerHashIS4_EEN14dense_hash_mapIS6_SA_SF_NS6_14EqualsComparerINS0_8equal_toIS5_EEEENS0_9allocatorISB_EEE9SelectKeyESK_SM_E10test_emptyEj
kvj:__ZN6il2cpp6icalls8mscorlib6System11Environment20GetWindowsFolderPathEi
__g:_InternalEnumerator_1_Dispose_m3642485841_AdjustorThunk
Nv:__ZN7mecanim5human18HumanPoseBlendNodeERNS0_9HumanPoseEPS1_f
Bzc:_UNITY_FT_RoundFix
Zgb:__ZN9ShaderLab20SerializedSubProgram15AddTextureParamEPKcii16TextureDimension
TQ:__ZN23CloudWebServicesManager23VirtualRedirectTransferER17RemapPPtrTransfer
rUe:__ZN21InterfaceFuncInvoker1Ib40CustomAttributeTypedArgument_t1498197914E6InvokeEjP11Il2CppClassP12Il2CppObjectS0_
fgh:_Uri_get_Parser_m2250631932
a4a:__ZNK12MeshRenderer22GetTypeVirtualInternalEv
fzi:__ZNSt3__228__libcpp_compressed_pair_impIPN6il2cpp2vm17TypeNameParseInfoENS_9allocatorIS3_EELj2EE6secondEv
wqh:_Touch_get_type_m1491424279_AdjustorThunk
lld:_Graphic_set_color_m646149893
$Mg:_Dictionary_2_System_Collections_ICollection_get_IsSynchronized_m960517203_gshared
wSa:__ZN14SafeBinaryRead19TransferSTLStyleMapINSt3__23mapIN4core12basic_stringIcNS3_20StringStorageDefaultIcEEEES7_NS1_4lessIS7_EE13stl_allocatorINS1_4pairIKS7_S7_EEL18MemLabelIdentifier1ELi16EEEEEEvRT_17TransferMetaFlags
VNf:_Type_MakeByRefType_m1323101575
jNc:__ZN2UI6Canvas27UpdateEventIndexesRecursiveERi
NR:__ZN11UnityEngine15CloudWebService16SessionContainer21PrepareDataErrorEventERN4core12basic_stringIcNS2_20StringStorageDefaultIcEEEE
bAc:_UNITY_FT_Outline_New
vok:__ZL98Event_t3028476042_CustomAttributesCacheGenerator_Event_Internal_MakeMasterEventCurrent_m3691313142P21CustomAttributesCache
$xj:__ZNSt3__218uninitialized_copyIPNS_4pairIK10KeyWrapperIPK19Il2CppGenericMethodEP10MethodInfoEESB_EET0_T_SD_SC_
Hvb:__Z19TransferField_ArrayI19StreamedBinaryWriteILb0EE27Converter_SimpleNativeClassI8GUIStyleEEvRK23StaticTransferFieldInfoR31RuntimeSerializationCommandInfoRT0_
gyg:_Scrollbar_SetDirection_m3264558284
Pdj:__ZNSt3__210__get_pairILj1EE3getIK10KeyWrapperINS_4pairIPKcS6_EEEiEERT0_RNS4_IT_SA_EE
UWk:_emscripten_glCopyTexSubImage2D__wrapper
f$a:__ZNK13ScreenManager12GetIsFocusedEv
VGj:_maybe_finalize
Gkh:_PlayableHandle_IsValidInternal_m3315870994
dzf:_RemotingServices_RegisterInternalChannels_m1827304423
Src:__Z35Transfer_Blittable_FixedBufferFieldI8JSONReadiEvRK29SerializationCommandArgumentsR31RuntimeSerializationCommandInfo
h9h:__ZNSt3__213__vector_baseIN6il2cpp2os19SocketHandleWrapperENS_9allocatorIS3_EEED2Ev
tde:_ASN1_get_Length_m3359111015
Ehg:__Z66RuntimeInvoker_InternalShaderChannel_t3331827198_Int32_t2071877448PFvvEPK10MethodInfoPvPS4_
ifg:__Z77RuntimeInvoker_RuntimeObject_Int32_t2071877448_RuntimeObject_SByte_t454417549PFvvEPK10MethodInfoPvPS4_
cc:invoke_viiffi
Kv:__ZN7mecanim18ValueArrayBlendEndILb0EEEvPKNS_10ValueArrayERKNS_14ValueArrayMaskERKNS_16ValueArrayWeightERS1_
jYb:__ZN13sorted_vectorINSt3__24pairIN4core12basic_stringIcNS2_20StringStorageDefaultIcEEEEPK17MessageIdentifierEEN10vector_mapIS6_S9_NS0_4lessIS6_EENS0_9allocatorISA_EEE13value_compareESF_E10insert_oneERKSA_
LB:__ZNSt3__227__insertion_sort_incompleteIRPFbPKN8Animator11AnimatorJobES4_EPS4_EEbT0_S9_T_
yR:__ZNSt3__26__treeINS_12__value_typeIN4core12basic_stringIcNS2_20StringStorageDefaultIcEEEEjEENS_19__map_value_compareIS6_S7_NS_4lessIS6_EELb1EEE13stl_allocatorIS7_L18MemLabelIdentifier88ELi16EEE4findIS6_EENS_15__tree_iteratorIS7_PNS_11__tree_nodeIS7_PvEEiEERKT_
q6i:__ZNSt3__216allocator_traitsINS_9allocatorIDsEEE10__max_sizeENS_17integral_constantIbLb1EEERKS2_
iKf:_Thread_GetCachedCurrentUICulture_m5590127
vhg:__Z36RuntimeInvoker_Matrix4x4_t2933234003PFvvEPK10MethodInfoPvPS4_
gVa:__ZNK12CubemapArray20GetRuntimeMemorySizeEv
evh:_GUILayoutEntry_get_margin_m3913640621
T7g:_CrossAppDomainSink_get_TargetDomainId_m775204051
Keb:__Z14resize_trimmedINSt3__26vectorIN9ShaderLab18SerializedPropertyENS0_9allocatorIS3_EEEEEvRT_j
FPe:_List_1_CheckMatch_m4018158235_gshared
zqb:__Z18Transfer_BlittableI17RemapPPtrTransferLb0EN4math12int3_storageEEvRK29SerializationCommandArgumentsR31RuntimeSerializationCommandInfo
qbe:_Context_t2636657155_marshal_pinvoke_back
r4h:__ZN6il2cpp2vm13MetadataCache38GetMethodInfoFromMethodDefinitionIndexEi
uxd:_Byte_System_IConvertible_ToDateTime_m1583041031
cHh:__ZL24UnresolvedVirtualCall_68P12Il2CppObjectS0_iS0_S0_S0_S0_S0_S0_PK10MethodInfo
e0a:__ZN10VertexData8TransferI24GenerateTypeTreeTransferEEvRT_
Wqk:__ZL100CanvasRenderer_t261436805_CustomAttributesCacheGenerator_CanvasRenderer_get_absoluteDepth_m606892957P21CustomAttributesCache
nxj:__ZN13Il2CppHashMapIPK19Il2CppGenericMethodP10MethodInfoN6il2cpp8metadata23Il2CppGenericMethodHashENS6_26Il2CppGenericMethodCompareENSt3__29allocatorINS9_4pairIK10KeyWrapperIS2_ES4_EEEEEC2EjRKS7_RKS8_
khe:_EncryptedData_get_EncryptionAlgorithm_m1301274243
zjk:__ZL68DrivenTransformProperties_t2488747555_CustomAttributesCacheGeneratorP21CustomAttributesCache
fTb:__ZL10CullLightsRK22SceneCullingParametersR11CullResults
rkd:_Dropdown__cctor_m264401557
vud:_Array_IndexOf_m2819632474
bmh:_Ray_GetPoint_m2427899009_AdjustorThunk
B3g:_Comparer_1__cctor_m3996541505_gshared
Uw:__ZN7mecanim12statemachine20GetBlendTreeConstantERKNS0_13StateConstantEi
TSj:__ZNSt3__26__treeINS_12__value_typeIPFvvEPK10MethodInfoEENS_19__map_value_compareIS3_S7_NS_4lessIS3_EELb1EEENS_9allocatorIS7_EEE10value_compEv
Z_b:__Z40GetTemporaryCachePathApplicationSpecificv
jba:__ZN9GfxDevice16EndAsyncJobFrameEv
qod:_Image_get_minWidth_m1809071077
oMi:__ZNK15dense_hashtableINSt3__24pairIK10KeyWrapperINS1_IPK12PropertyInfoP11Il2CppClassEEEjEES9_17ReflectionMapHashIS8_EN14dense_hash_mapIS9_jSD_NS9_14EqualsComparerINS0_8equal_toIS8_EEEENS0_9allocatorISB_EEE9SelectKeyESI_SK_E10test_emptyERK30dense_hashtable_const_iteratorISB_S9_SD_SM_SI_SK_E
rBc:_UNITY_tt_face_load_hhea
TIi:__ZNKSt3__28equal_toINS_4pairIPK10MethodInfoP11Il2CppClassEEEclERKS7_SA_
K9g:_ContextAttribute_IsNewContextOK_m2186905629
IGd:_Convert_ToBase64String_m1936815455
Pk:___syscall3
Sk:___syscall6
Fca:__ZN9GfxDevice15GetNextCPUFenceEv
Uk:___syscall4
eQd:_Decimal_ToString_m759431975
aYe:_Collection_1_System_Collections_IList_get_IsFixedSize_m2204750039_gshared
oXi:__ZNSt3__27forwardIRKN6il2cpp8metadata18GenericArrayMethodEEEOT_RNS_16remove_referenceIS6_E4typeE
h3h:__ZNSt3__24moveIRN14dense_hash_mapI10KeyWrapperIN6il2cpp5utils13dynamic_arrayIPK10Il2CppTypeLj4EEEEPFvvENS3_8metadata19Il2CppSignatureHashENSA_14EqualsComparerINSD_22Il2CppSignatureCompareEEENS_9allocatorINS_4pairIKSA_SC_EEEEE9SelectKeyEEEONS_16remove_referenceIT_E4typeEOSR_
Nlb:__ZNSt3__26__treeINS_12__value_typeIN4core12basic_stringIcNS2_20StringStorageDefaultIcEEEEPN16MemoryFileSystem4NodeEEENS_19__map_value_compareIS6_SA_NS_4lessIS6_EELb1EEE13stl_allocatorISA_L18MemLabelIdentifier55ELi16EEE7destroyEPNS_11__tree_nodeISA_PvEE
Yfd:_ColorBlock_get_fadeDuration_m987725262
Kvk:__ZL195U3CMouseDragOutsideRectU3Ec__Iterator1_t2599668326_CustomAttributesCacheGenerator_U3CMouseDragOutsideRectU3Ec__Iterator1_System_Collections_Generic_IEnumeratorU3CobjectU3E_get_Current_m2602955272P21CustomAttributesCache
Agg:__Z86RuntimeInvoker_Void_t1841601450_RuntimeObject_Vector3U26_t425862308_RayU26_t3651946800PFvvEPK10MethodInfoPvPS4_
PDf:_CryptographicException__ctor_m2415891459
Pmi:__ZNSt3__26__treeIP11Il2CppClassNS_4lessIS2_EENS_9allocatorIS2_EEE4sizeEv
xij:__ZN10KeyWrapperIP18Il2CppGenericClassEC2ENS2_11KeyTypeEnumE
bqi:__ZNSt3__214__split_bufferIN6il2cpp6icalls8mscorlib6System12PropertyPairERNS_9allocatorIS5_EEE17__destruct_at_endEPS5_
wba:__ZN9GfxDevice27UpdateComputeSkinPoseBufferE15ComputeBufferIDP12SkinMeshInfo
NJe:_List_1_AddCollection_m3266731889_gshared
c4j:__ZL59ITrackingHandler_t2759960940_CustomAttributesCacheGeneratorP21CustomAttributesCache
il:_emscripten_glShaderBinary
FKf:_DelegatePInvokeWrapper_ThreadStart_t3437517264
I4d:_Array_qsort_TisVector2_t2243707579_TisVector2_t2243707579_m3308480721_gshared
_S:__ZN15DownloadHandler19OnFinishReceiveDataEv
Kkb:__ZNK20LocalFileSystemPosix6ExistsERK13FileEntryData
SXg:_InternalEnumerator_1_Dispose_m4038440306_AdjustorThunk
Adg:__Z21RuntimeInvoker_Guid_tPFvvEPK10MethodInfoPvPS4_
tuh:_GUI_CallWindowDelegate_m2603162942
Ykf:_DictionaryNodeEnumerator_get_DictionaryNode_m3521889822
Ut:__ZN7mecanim5human19MaskHasLeftFootGoalERKNS_6bitsetILj70EEE
Aog:__Z101RuntimeInvoker_Int32_t2071877448_RuntimeObject_Color32_t874517518_Int32_t2071877448_Int32_t2071877448PFvvEPK10MethodInfoPvPS4_
FQc:__Z58Register_UnityEngine_Canvas_GetETC1SupportedCanvasMaterialv
eyb:__ZN17AnimationCurveTplIfE8TransferI18StreamedBinaryReadILb1EEEEvRT_
gOd:_DateTimeOffset_GetHashCode_m3312197462_AdjustorThunk
WSc:__ZN18UnityConnectClientD2Ev
vnf:_ServicePoint_set_UseNagleAlgorithm_m2618011464
Dti:_il2cpp_set_data_dir
agh:_Uri_get_IsUnc_m2111738174
uak:__ZL79Convert_t2607082565_CustomAttributesCacheGenerator_Convert_ToUInt64_m1691869628P21CustomAttributesCache
nDa:__ZN16LevelGameManager23VirtualRedirectTransferER19StreamedBinaryWriteILb0EE
$$a:__Z32TransferEnumWithNameForceIntSizeI14SafeBinaryRead16GfxPrimitiveTypeEvRT_RT0_PKc17TransferMetaFlags
p2g:_DefaultComparer__ctor_m1961329658_gshared
lZf:_ParameterBuilder_get_Attributes_m2421099277
Lmg:__Z66RuntimeInvoker_Void_t1841601450_ObjectU26_t597476745_RuntimeObjectPFvvEPK10MethodInfoPvPS4_
pgi:__ZNSt3__216move_if_noexceptIP17Il2CppAsyncResultEENS_11conditionalIXaantsr29is_nothrow_move_constructibleIT_EE5valuesr21is_copy_constructibleIS4_EE5valueERKS4_OS4_E4typeERS4_
a_f:_TypeBuilder_IsValueTypeImpl_m1499671481
_Rc:__ZN11UnityEngine15PlatformWrapper30GetGraphicsDriverLibraryStringEv
DFg:_Enumerator_VerifyState_m262343092_AdjustorThunk
uPi:__ZN6il2cpp2vm10Reflection27GetCustomAttributesCacheForEPK12PropertyInfo
nKe:_List_1_get_Count_m1752597149_gshared
daf:_EncryptedPrivateKeyInfo_Decode_m1706190306
JJg:_ValueCollection_GetEnumerator_m401908452_gshared
Bzb:__Z18Transfer_BlittableI18StreamedBinaryReadILb0EELb0E4AABBEvRK29SerializationCommandArgumentsR31RuntimeSerializationCommandInfo
nFh:_AudioListener_ClearExtensionProperties_m2267088681
ED:__ZN16MecanimAnimation24DeleteAnimatedPropertiesERP26IAnimatedPropertyEvaluator
Iag:__Z42RuntimeInvoker_CspProviderFlags_t105264000PFvvEPK10MethodInfoPvPS4_
aLd:_Convert_ToUInt16_m1665900934
s6e:_Converter_2_BeginInvoke_m898151494_gshared
hle:_RegionInfo__ctor_m2058831971
oJb:__Z14DrawGUITextureRK5RectTIfEP7Texture11ColorRGBA32P8Materiali
hCg:_Text_get_supportRichText_m3291105891
zA:__ZN9BlobWrite8TransferI22OffsetPtrArrayTransferIKN4math7_float4EEEEvRT_PKc17TransferMetaFlags
k4e:_ReadOnlyCollection_1_get_Count_m336636247_gshared
kwh:_GUIUtility_set_systemCopyBuffer_m3458871692
nRa:__ZN15TextureSettings8TransferI24GenerateTypeTreeTransferEEvRT_
qbh:_MatchCollection_GetEnumerator_m3516985966
Brc:__ZN9JSONWrite8TransferI4AABBEEvRT_PKc17TransferMetaFlags
lGf:_UTF7Encoding__ctor_m2365939916
nBa:__ZN25MultiBlocksMemoryFileData9SetLengthEy
EPh:_Animator_SetTrigger_m2003713590
efj:__ZNSt3__27forwardIRNS_9allocatorIPK11Il2CppClassEEEEOT_RNS_16remove_referenceIS7_E4typeE
sCk:_DelegatePInvokeWrapper_StateChanged_t2480912210
Tug:_MatEntry__ctor_m3650167335
pAh:_ListPool_1_U3Cs_ListPoolU3Em__0_m441310157_gshared
kWa:__ZNK9Texture2D20GetRuntimeMemorySizeEv
$Nf:_TypeInitializationException__ctor_m2993591639
$Yd:_Array_InternalArray__IEnumerable_GetEnumerator_TisRefEmitPermissionSet_t2708608433_m3450905212_gshared
Lnc:__ZN5Unity9rapidjson13GenericReaderINS0_4UTF8IcEES3_13JSONAllocatorE9ParseTrueILj0ENS0_19GenericStringStreamIS3_EENS0_15GenericDocumentIS3_S4_S4_EEEEvRT0_RT1_
qm:_emscripten_glUniform2iv
r5j:__ZL46DES_t1353513560_CustomAttributesCacheGeneratorP21CustomAttributesCache
hne:_Int16_System_IConvertible_ToInt64_m733340257
L9j:__ZL79Convert_t2607082565_CustomAttributesCacheGenerator_Convert_ToSingle_m2156102599P21CustomAttributesCache
czi:__ZNKSt3__217__compressed_pairIPN6il2cpp2vm17TypeNameParseInfoENS_9allocatorIS3_EEE5firstEv
Yxc:_UNITY_FT_Outline_Transform
ric:__Z60Register_UnityEngine_Sprites_DataUtility_Internal_GetMinSizev
qVh:__ZN6il2cpp2vm5Class10GetMethodsEP11Il2CppClassPPv
VVc:__ZNK25UnityWebRequestJavaScript17GetUploadProgressEv
WOb:__Z30AddDefaultStreamsToMeshBuffersR9GfxDeviceR11MeshBuffersRK16DrawBuffersRange17ShaderChannelMaskS6_
Zei:__ZNKSt3__29allocatorIP12Il2CppThreadE8max_sizeEv
tog:__Z86RuntimeInvoker_Int32_t2071877448_Vector2_t2243707579_Vector2_t2243707579_RuntimeObjectPFvvEPK10MethodInfoPvPS4_
BLj:__ZNKSt3__228__libcpp_compressed_pair_impIPNS_11__tree_nodeINS_12__value_typeINS_12basic_stringIcNS_11char_traitsIcEENS_9allocatorIcEEEEPFvvEEEPvEENS_22__tree_node_destructorINS6_ISD_EEEELj0EE5firstEv
hoa:__ZN7ApiGLES17DeleteFramebufferERN2gl6HandleILNS0_10ObjectTypeE9EEES3_
cra:__ZN15UniformTFMethod13MapBoneBufferEj
qdf:_RecordProtocol_SendAlert_m2816808523
aMc:__ZN2UI14CanvasRendererD2Ev
Epj:__ZNSt3__213__vector_baseI20Il2CppStackFrameInfoNS_9allocatorIS1_EEEC2Ev
Zoi:__ZN6il2cpp6icalls8mscorlib6SystemL23GetPropertiesByNameImplINS_5utils10functional6FilterINSt3__212basic_stringIcNS7_11char_traitsIcEENS7_9allocatorIcEEEENS4_13VmStringUtils21CaseSensitiveComparerEEEEEP11Il2CppArrayPK10Il2CppTypejRKT_
Svf:_MethodCall_get_LogicalCallContext_m3769562079
a0i:__ZN6il2cpp6icalls8mscorlib6System5Array8SetValueEP11Il2CppArrayP12Il2CppObjectS5_
mxe:_SynchronizedReader_Read_m1399666181
T$f:_MonoEvent_get_Name_m2796714646
AEb:__Z9SetupArgviPPKc
qPh:_AnimationOffsetPlayable__ctor_m1644499845
Fpg:__Z53RuntimeInvoker_Void_t1841601450_LabelData_t3712112744PFvvEPK10MethodInfoPvPS4_
tZd:_Array_InternalArray__IEnumerable_GetEnumerator_TisHitInfo_t1761367055_m2486283755_gshared
Vcd:_PointerEventData_set_worldNormal_m2025727441
qrh:_Transform_INTERNAL_get_worldToLocalMatrix_m2822011810
xef:_Context_get_SentConnectionEnd_m3114190867
Pva:__ZN12ImmediatePtrI10GameObjectE8TransferI19StreamedBinaryWriteILb0EEEEvRT_
kVa:__ZN12CubemapArray23VirtualRedirectTransferER24GenerateTypeTreeTransfer
kGh:__ZL24UnresolvedVirtualCall_22P12Il2CppObjectS0_iS0_S0_S0_PK10MethodInfo
P2:__ZN12FileAccessor4OpenER15FileSystemEntry14FilePermission16FileAutoBehavior
vLa:__ZNSt3__26vectorI4PPtrI6ShaderE13stl_allocatorIS3_L18MemLabelIdentifier53ELi16EEE8__appendEj
KEh:_AudioSource_get_spatializeInternal_m4243931620
vZh:__ZNK10KeyWrapperIPKcE8isNormalEv
GLa:__ZN4PPtrI6ShaderE8TransferI18StreamedBinaryReadILb0EEEEvRT_
pZa:__ZN23TransformChangeDispatch32QueueTransformChangeIfHasChangedERK15TransformAccess
ycd:_PointerEventData_set_clickTime_m3931922487
U1:__ZN15dense_hashtableINSt3__24pairIKiP4RTTIEEiN11TypeManager27HashFunctorPersistentTypeIDEN14dense_hash_mapIiS4_S7_NS0_8equal_toIiEE13stl_allocatorIS5_L18MemLabelIdentifier7ELi16EEE9SelectKeyESA_SD_E12maybe_shrinkEv
toe:_NumberFormatter_AppendNonNegativeNumber_m629862866
RTa:__ZNSt3__26vectorINS_4pairIN9ShaderLab16FastPropertyNameEN18UnityPropertySheet11UnityTexEnvEEENS_9allocatorIS6_EEE21__push_back_slow_pathIKS6_EEvRT_
TTk:_glTexImage3D__wrapper
YAa:__ZN15ArchiveReadFile5WriteEyPKvPy
e5g:_ResourceInfo__ctor_m2401359321_AdjustorThunk
Suj:__ZN6il2cpp2os26LibraryNamePrefixAndSuffixC2EPKcS3_
N3d:_Array_InternalArray__set_Item_TisMonoResource_t3127387157_m732733855_gshared
Pyh:_UnityEvent_1_Invoke_m1599856953_gshared
QDd:_Hashtable__ctor_m392789568
iIf:_UTF7Encoding__cctor_m4192443836
Eii:__ZNSt3__26vectorINS_4pairIPK10MethodInfoP11Il2CppClassEENS_9allocatorIS7_EEEixEj
B:tempValue
JZb:__Z29StdTemplateConversionFunctionIaiEbPvR14SafeBinaryRead
rAi:__ZNKSt3__29allocatorIN6il2cpp2vm17TypeNameParseInfoEE8max_sizeEv
Ipk:__ZL65GUISkin_t1436893342_CustomAttributesCacheGenerator_m_CustomStylesP21CustomAttributesCache
kHe:_List_1_Insert_m4101600027_gshared
lne:_Int16_System_IConvertible_ToSingle_m3277935657
G_:__Z29scripting_class_from_fullnamePKcS0_S0_
Hsh:_Vector3_get_sqrMagnitude_m1445517847_AdjustorThunk
Uwg:_Raycast3DCallback_Invoke_m2271859924
tx:__ZN26AnimatorControllerPlayable18DeallocateBindingsEv
YUj:__ZL50g_mscorlib_Assembly_CustomAttributesCacheGeneratorP21CustomAttributesCache
tbj:__ZNSt3__217__compressed_pairINS_15__tree_end_nodeIPNS_16__tree_node_baseIPvEEEENS_9allocatorINS_11__tree_nodeINS_12__value_typeIP24Il2CppReflectionAssemblyS3_EES3_EEEEEC2Ev
VM:__ZN11AudioSource19CreateOpenALRolloffEfff
eCc:_UNITY_FT_Stream_ReadAt
kQh:__ZNK14dense_hash_mapI10KeyWrapperIPK22Il2CppGenericParameterEP11Il2CppClassN6il2cpp5utils11PointerHashIS2_EENS4_14EqualsComparerINSt3__28equal_toIS3_EEEENSC_9allocatorINSC_4pairIKS4_S6_EEEEE9SelectKeyclERKSJ_
o6f:__Z38RuntimeInvoker_MemberTypes_t3343038963PFvvEPK10MethodInfoPvPS4_
EHi:__ZNSt3__24pairIK10KeyWrapperIPK10Il2CppTypeEjEC2ILb1EvEEv
fEg:_Enumerator_get_CurrentKey_m2387752419_AdjustorThunk
u2h:__ZN15dense_hashtableINSt3__24pairIK10KeyWrapperIN6il2cpp5utils13dynamic_arrayIPK10Il2CppTypeLj4EEEEPFvvEEESA_NS3_8metadata19Il2CppSignatureHashEN14dense_hash_mapISA_SD_SG_NSA_14EqualsComparerINSF_22Il2CppSignatureCompareEEENS0_9allocatorISE_EEE9SelectKeyESK_SM_E9set_valueEPSE_RKSE_
_Dk:_UnityEventBase_FindMethod_m2780816114
dOf:_UInt16_System_IConvertible_ToBoolean_m887616848
HN:__ZN11AudioModule22CreateAudioClipFromWWWEP10IWWWStreamPKcbbi
Ppj:__ZNKSt3__26vectorI20Il2CppStackFrameInfoNS_9allocatorIS1_EEEixEj
ZGf:_StringBuilder_set_Length_m3039225444
Nlg:__Z37RuntimeInvoker_AspectMode_t1166448724PFvvEPK10MethodInfoPvPS4_
VXe:_Collection_1_System_Collections_IList_Contains_m3870109702_gshared
zWd:_Array_InternalArray__ICollection_Contains_TisRaycastResult_t21186376_m3188614988_gshared
$Xi:__ZNKSt3__213__vector_baseIN6il2cpp8metadata18GenericArrayMethodENS_9allocatorIS3_EEE7__allocEv
LLd:_CultureAwareComparer_GetHashCode_m3681260951
jOc:__Z13RegisterClassIN2UI11CanvasGroupEEvv
xek:__ZL90Application_t354826772_CustomAttributesCacheGenerator_Application_get_platform_m1727035749P21CustomAttributesCache
Uzh:_U3CStartU3Ec__Iterator0__ctor_m951808111_gshared
f$b:__ZN6prcoreL11inner_clearILj4EEEvPhjjj
bxg:_Selectable__ctor_m1440593935
h$i:__ZNSt3__216move_if_noexceptIP12Il2CppThreadEENS_11conditionalIXaantsr29is_nothrow_move_constructibleIT_EE5valuesr21is_copy_constructibleIS4_EE5valueERKS4_OS4_E4typeERS4_
mIh:__ZL25UnresolvedVirtualCall_132P12Il2CppObject17Color_t2020392075faaaPK10MethodInfo
b6:__ZNK8Playable6HandleEv
uPk:___cxa_guard_abort
WTf:_CustomAttributeTypedArgument_t1498197914_marshal_pinvoke_back
R0:__ZN14MessageHandler28MessageIDToMessageIdentifierEi
mmf:_HttpRequestCreator_Create_m3607509610
mpk:__ZL50GUISkin_t1436893342_CustomAttributesCacheGeneratorP21CustomAttributesCache
A0a:__ZNK11SpriteAtlas20GetRuntimeRenderDataEPK6Sprite
GQe:_List_1_Shift_m3824049528_gshared
Lzf:_ArrayFixupRecord__ctor_m3659990982
sRj:__ZNKSt3__26vectorINS_12basic_stringIDsNS_11char_traitsIDsEENS_9allocatorIDsEEEENS4_IS6_EEE17__annotate_deleteEv
Jef:_Context_get_RandomCS_m3946020109
FWj:__ZL72IntPtr_t_CustomAttributesCacheGenerator_IntPtr_op_Inequality_m3044532593P21CustomAttributesCache
Djd:_Dropdown_get_onValueChanged_m3334401942
uIj:__ZN6il2cpp2vm10WaitHandle19NewManualResetEventEb
L1e:_ReadOnlyCollection_1_System_Collections_IList_Contains_m3707723158_gshared
H1i:__ZNSt3__214__split_bufferIN6il2cpp2vm22EmbeddedResourceRecordERNS_9allocatorIS3_EEE5clearEv
Qqi:__ZNSt3__217__compressed_pairIPN6il2cpp6icalls8mscorlib6System12PropertyPairENS_9allocatorIS5_EEEC2ES6_
eyc:__ZN20TextRenderingPrivate15DynamicFontData36GetFaceForCharacterIfAvailableInFontERKNS_7FontRefERK13dynamic_arrayI4PPtrIN13TextRendering4FontEELj4EEj
vFh:_AudioExtensionManager_GetReadyToPlay_m3272224102
pv:__ZN7mecanim14ValueArrayCopyILb0EEEvPKNS_10ValueArrayEPS1_
VE:__Z51Register_UnityEngine_Animator_get_hasBoundPlayablesv
EKh:_Nullable_1_ToString_m1238126148_AdjustorThunk
Ook:__ZL87GUIStyle_t1799908754_CustomAttributesCacheGenerator_GUIStyle_get_fixedWidth_m2528231637P21CustomAttributesCache
Fd:emscriptenWebGLGetUniform
ro:FUNCTION_TABLE_iiiiiiiiiii
CVa:__Z32TransferEnumWithNameForceIntSizeI14SafeBinaryRead13TextureFormatEvRT_RT0_PKc17TransferMetaFlags
kwk:__ZL86Scrollbar_t3248359358_CustomAttributesCacheGenerator_Scrollbar_ClickRepeat_m3403943364P21CustomAttributesCache
MUb:__ZL10CleanUpJobP20CullingGroupsJobData
ezd:_Char_CompareTo_m3044885427_AdjustorThunk
qte:_FileStream_GetSecureFileName_m508045384
VOb:__Z20IsRunningNativeTestsv
l_g:_InternalEnumerator_1_System_Collections_IEnumerator_get_Current_m2035754659_AdjustorThunk
v5a:__ZN11TimeManager23VirtualRedirectTransferER17RemapPPtrTransfer
fJb:__ZN13RenderManager15BatchModeUpdateEv
aLh:_Predicate_1_EndInvoke_m973058386_gshared
ihk:__ZL52LayerMask_t3188175821_CustomAttributesCacheGeneratorP21CustomAttributesCache
I$a:__ZN14SafeBinaryRead21TransferSTLStyleArrayI13dynamic_arrayI8Vector2fLj4EEEEvRT_17TransferMetaFlags
Rva:__ZN17PersistentManager51InstanceIDToLocalSerializedObjectIdentifierInternalEiR31LocalSerializedObjectIdentifier
iJ:__ZL16FMOD_ErrorString11FMOD_RESULT_658
i2f:_StrongNameKeyPair_System_Runtime_Serialization_IDeserializationCallback_OnDeserialization_m2330221363
$Gc:_UNITY_FT_Create_Class_cff_services
n2g:_DefaultComparer__ctor_m1661558765_gshared
hd:_glVertexAttribIPointer
LFk:_Logger_set_filterLogType_m3982626604
dRf:_UnhandledExceptionEventHandler_EndInvoke_m2207457167
TJg:_Dictionary_2_System_Collections_ICollection_get_IsSynchronized_m304009368_gshared
VYc:_HMAC_set_HashName_m457235014
J8b:__ZNK6Sprite10GetPaddingE20SpriteRenderDataMode
JVd:_Array_InternalArray__ICollection_Contains_TisTableRange_t2011406615_m605506746_gshared
nKg:_Dictionary_2_Add_m1296007576_gshared
KKd:_Decimal_op_Explicit_m729046406
ZDf:_CryptoConfig_CreateFromName_m2169102076
Lld:_Graphic_OnEnable_m2900261811
aEf:_CryptographicUnexpectedOperationException__ctor_m3552441227
RMb:__ZN14qsort_internal5QSortIP15RODataDepthPassi17ROSorterDepthPassEEvT_S4_T0_T1_
QAd:_ArrayListWrapper_Clear_m321161741
Lqd:_InputField_LineDownCharacterPosition_m2690468785
dCc:_UNITY_ft_glyphslot_alloc_bitmap
U5d:_Array_Sort_TisVector2_t2243707579_TisVector2_t2243707579_m2582252549_gshared
dQf:_UInt64_System_IConvertible_ToDouble_m2828923873
g$h:__ZN15dense_hashtableI10KeyWrapperIPK17Il2CppGenericInstES4_N6il2cpp8metadata21Il2CppGenericInstHashEN14dense_hash_setIS4_S7_NS4_14EqualsComparerINS6_24Il2CppGenericInstCompareEEENSt3__29allocatorIS4_EEE8IdentityESB_SE_E16reset_thresholdsEv
g6i:__ZNSt3__212basic_stringIDsNS_11char_traitsIDsEENS_9allocatorIDsEEE16__set_short_sizeEj
ELe:_List_1_System_Collections_IList_set_Item_m1129584681_gshared
QJf:_SendOrPostCallback__ctor_m107067079
ADc:_ft_raster1_render
ckc:__Z47Register_UnityEngine_Mesh_RecalculateBoundsImplv
udi:__ZNSt3__29allocatorIP12Il2CppThreadE7destroyEPS2_
vHe:_List_1_set_Capacity_m491101164_gshared
tNk:__ZNKSt3__221__basic_string_commonILb1EE20__throw_length_errorEv
wHf:_StringBuilder_Insert_m1733097906
E3g:_Comparer_1__ctor_m1157133632_gshared
ejf:_SslStreamBase_get_HashStrength_m480059173
l6e:_Comparison_1_EndInvoke_m2678763282_gshared
noc:__ZN5Unity9rapidjson6WriterI16TempBufferWriterNS0_4UTF8IcEES4_13JSONAllocatorE11WriteStringEPKcj
xIg:_ValueCollection_System_Collections_Generic_ICollectionU3CTValueU3E_Clear_m3271993638_gshared
kgg:__Z35RuntimeInvoker_Position_t3781184359PFvvEPK10MethodInfoPvPS4_
tGd:_Enumerator_MoveNext_m1419609883
KI:__ZN4FMOD7Channel19setReverbPropertiesEPK29FMOD_REVERB_CHANNELPROPERTIES
p0:__ZN13MonoBehaviour22GetScriptFullClassNameEv
Zui:_il2cpp_object_get_class
fLi:__ZNSt3__29allocatorINS_4pairIK10KeyWrapperINS1_IPK11Il2CppImageP11Il2CppClassEEEjEEEC2Ev
O$j:__ZL111DerivedType_t1016359113_CustomAttributesCacheGenerator_DerivedType_MakeGenericType_m742223168____typeArguments0P21CustomAttributesCache
Plh:_RangeInt_get_end_m480861812
g4e:_ReadOnlyCollection_1_Contains_m1816350632_gshared
vmf:_ServicePointManager_FindServicePoint_m3137356168
xCb:__ZN13MonoBehaviour9CallAwakeEv
nFi:__ZNSt3__24pairIK10KeyWrapperINS0_IPK9FieldInfoP11Il2CppClassEEEjEC2IS7_jEEONS0_IT_T0_EEPNS_9enable_ifIXaasr14is_convertibleISC_S9_EE5valuesr14is_convertibleISD_jEE5valueEvE4typeE
iEk:_UnityEvent__ctor_m3488719202
$Pa:__ZN20SphericalHarmonicsL211AddWeightedERKS_f
Esk:__ZL106PointerEventData_t1599784723_CustomAttributesCacheGenerator_PointerEventData_set_pressPosition_m2094137883P21CustomAttributesCache
ldd:_PointerInputModule_GetPointerData_m1695674453
Lag:__Z90RuntimeInvoker_Void_t1841601450_RuntimeObject_RuntimeObject_RuntimeObject_SByte_t454417549PFvvEPK10MethodInfoPvPS4_
Mrb:__Z19TransferField_ArrayI17RemapPPtrTransfer27Converter_SimpleNativeClassI8GUIStyleEEvRK23StaticTransferFieldInfoR31RuntimeSerializationCommandInfoRT0_
MZ:__ZL22StaticInitializeShaderPv
GLd:_Convert_ToUInt64_m345450801
HKh:_Predicate_1_BeginInvoke_m2559992383_gshared
Voc:__ZN9JSONWrite8TransferI10ColorRGBAfEEvRT_PKc17TransferMetaFlags
KNe:_List_1_Find_m1270109362_gshared
L0:__Z25scripting_method_get_name18ScriptingMethodPtr
dqb:__Z19TransferField_ArrayI14SafeBinaryRead16Converter_StringEvRK23StaticTransferFieldInfoR31RuntimeSerializationCommandInfoRT0_
Fdj:__ZNSt3__29allocatorINS_4pairIK10KeyWrapperINS1_IPKcS4_EEEiEEE8allocateEjPKv
OMk:_rename
MGj:_GC_exit_check
gBe:_NotSupportedException__ctor_m3232764727
ewj:__GLOBAL__sub_I_Thread_cpp_15466
Olf:_TypeConverterAttribute_Equals_m2330345916
Kfg:__Z90RuntimeInvoker_Boolean_t3825574718_Int32_t2071877448_Int32U26_t455636984_Int32_t2071877448PFvvEPK10MethodInfoPvPS4_
oJh:__ZL25UnresolvedVirtualCall_188P12Il2CppObjectiPK10MethodInfo
k$:__Z20UnlockObjectCreationv
ahk:__ZL89Input_t1785128008_CustomAttributesCacheGenerator_Input_INTERNAL_CALL_GetTouch_m1374677231P21CustomAttributesCache
LYg:_InternalEnumerator_1_System_Collections_IEnumerator_get_Current_m1038263751_gshared
$gg:__Z54RuntimeInvoker_Int32_t2071877448_LayerMask_t3188175821PFvvEPK10MethodInfoPvPS4_
Sse:_MonoIO_CreateDirectory_m379525469
yYb:__ZNSt3__26vectorINS_4pairIN4core12basic_stringIcNS2_20StringStorageDefaultIcEEEES6_EE13stl_allocatorIS7_L18MemLabelIdentifier38ELi16EEE6insertENS_11__wrap_iterIPKS7_EERSD_
c_d:__ZN21InterfaceFuncInvoker2Ii22UILineInfo_t3621277874S0_E6InvokeEjP11Il2CppClassP12Il2CppObjectS0_S0_
qA:__ZN9BlobWrite8TransferI22OffsetPtrArrayTransferI9OffsetPtrIN7mecanim12statemachine18StateMachineMemoryEEEEEvRT_PKc17TransferMetaFlags
SWc:__ZNK14TransportProtoI12HeaderHelper15DownloadHandler13UploadHandler14ResponseHelperE13IsSynchronousEv
nAc:_UNITY_ft_smooth_renderer_class_pic_free
oOe:_List_1_System_Collections_IList_Remove_m3763718607_gshared
aif:_SslClientStream_remove_PrivateKeySelection_m427666577
Q6c:_String_Concat_m2000667605
VRh:__ZN24dense_hashtable_iteratorINSt3__24pairIK10KeyWrapperIPK22Il2CppGenericParameterEP11Il2CppClassEES6_N6il2cpp5utils11PointerHashIS4_EEN14dense_hash_mapIS6_S9_SE_NS6_14EqualsComparerINS0_8equal_toIS5_EEEENS0_9allocatorISA_EEE9SelectKeyESJ_SL_E30advance_past_empty_and_deletedEv
Xyj:__ZN6il2cpp2vm6String8NewUtf16EPKDsi
Ypk:__ZL61Tile_t429716126_CustomAttributesCacheGenerator_m_ColliderTypeP21CustomAttributesCache
urj:__ZN6il2cpp2os10ThreadImpl12QueueUserAPCEPFvPvES2_
DF:__Z32TransferEnumWithNameForceIntSizeI14SafeBinaryReadN10SampleClip17CompressionFormatEEvRT_RT0_PKc17TransferMetaFlags
MSc:__ZN22BaseUnityConnectClient10QueueEventERN11UnityEngine15CloudWebService17CloudServiceEventEPKcjb
tlg:__Z71RuntimeInvoker_Bounds_t3033363703_RuntimeObject_Matrix4x4U26_t266301477PFvvEPK10MethodInfoPvPS4_
u9d:_ExecuteEvents_GetEventHandler_TisRuntimeObject_m3333041576_gshared
ILe:__ZN23InterfaceActionInvoker2IP28UICharInfoU5BU5D_t2749705857iE6InvokeEjP11Il2CppClassP12Il2CppObjectS1_i
Xsh:_Vector4__ctor_m3879980823_AdjustorThunk
Fmi:__ZNSt3__26__treeIP11Il2CppClassNS_4lessIS2_EENS_9allocatorIS2_EEE16__insert_node_atEPNS_16__tree_node_baseIPvEERSB_SB_
b1c:_SHA384Managed_unpackWord_m2501009050
Dzc:_UNITY_FT_Hypot
Kvd:_BitConverter_ToInt64_m1329623425
b2b:__ZN8RendererC2E12RendererType18MemLabelIdentifier18ObjectCreationMode
Dfi:__ZNKSt3__210__list_impIP17Il2CppAsyncResultN6il2cpp2gc9AllocatorIS2_EEE13__end_as_linkEv
a7j:__ZL95ASCIIEncoding_t3022927988_CustomAttributesCacheGenerator_ASCIIEncoding_GetByteCount_m1396020051P21CustomAttributesCache
gui:_il2cpp_class_is_abstract
Vrk:__ZL92PointerEventData_t1599784723_CustomAttributesCacheGenerator_U3CpointerDragU3Ek__BackingFieldP21CustomAttributesCache
yf:_emscripten_glGetError
aQi:__ZN15dense_hashtableINSt3__24pairIK10KeyWrapperIPK14Il2CppAssemblyEPK22Il2CppMonoAssemblyNameEES6_N6il2cpp5utils11PointerHashIS4_EEN14dense_hash_mapIS6_SA_SF_NS6_14EqualsComparerINS0_8equal_toIS5_EEEENS0_9allocatorISB_EEE9SelectKeyESK_SM_E14squash_deletedEv
y3f:__Z70RuntimeInvoker_Boolean_t3825574718_RuntimeObject_UInt64U26_t1611942494PFvvEPK10MethodInfoPvPS4_
vJ:__Z14FMOD_FILE_SeekPvjS_
Vvf:_MethodCall_get_Properties_m1893707917
WWj:__ZL72Enum_t2459695545_CustomAttributesCacheGenerator_Enum_ToObject_m604645223P21CustomAttributesCache
IFg:_ShimEnumerator_get_Entry_m2387156530_gshared
lXj:__ZL82RuntimeArray_CustomAttributesCacheGenerator_Array_SetValue_m2421438042____indices1P21CustomAttributesCache
M3h:__ZN14dense_hash_mapI10KeyWrapperIN6il2cpp5utils13dynamic_arrayIPK10Il2CppTypeLj4EEEEPFvvENS1_8metadata19Il2CppSignatureHashENS8_14EqualsComparerINSB_22Il2CppSignatureCompareEEENSt3__29allocatorINSG_4pairIKS8_SA_EEEEEC2EjRKSC_RKSF_
nck:__ZL87BigInteger_t925946153_CustomAttributesCacheGenerator_BigInteger_op_Equality_m2683055762P21CustomAttributesCache
ixj:__ZNSt3__228__libcpp_compressed_pair_impIPjRNS_9allocatorIjEELj0EEC2ES1_S4_
WIh:__ZL25UnresolvedVirtualCall_168P12Il2CppObject19Vector3_t2243707580PK10MethodInfo
PVb:__ZNK13RenderTexture32CalculateNeedsInvertedProjectionEv
H_b:__ZN10systeminfo18GetOperatingSystemEv
Gf:emscriptenWebGLGet
$dj:__ZN14dense_hash_mapI10KeyWrapperINSt3__24pairIPKcS4_EEEi24NamespaceAndNamePairHashNS6_14EqualsComparerI26NamespaceAndNamePairEqualsEENS1_9allocatorINS2_IKS6_iEEEEED2Ev
c3:__Z19CanReplaceComponentRN5Unity9ComponentEPKNS_4TypeEPN4core12basic_stringIcNS5_20StringStorageDefaultIcEEEE
kYj:__ZL77RuntimeArray_CustomAttributesCacheGenerator_Array_ConstrainedCopy_m1922927602P21CustomAttributesCache
nei:__ZNKSt3__210__list_impIP17Il2CppAsyncResultN6il2cpp2gc9AllocatorIS2_EEE4__szEv
l3b:__ZN12CubemapArray11InitTextureEiii13TextureFormatb
DMe:_List_1_GrowIfNeeded_m2433342921_gshared
Dac:__Z17GetSceneBuildInfoRKN4core12basic_stringIcNS_20StringStorageDefaultIcEEEEiR14SceneBuildInfo
rCa:__ZNK15Lz4Decompressor20DecompressStreamInitEPPv
nHi:__ZN24dense_hashtable_iteratorINSt3__24pairIK10KeyWrapperIPK10Il2CppTypeEjEES6_N6il2cpp8metadata14Il2CppTypeHashEN14dense_hash_mapIS6_jSB_NS6_14EqualsComparerINSA_26Il2CppTypeEqualityComparerEEENS0_9allocatorIS8_EEE9SelectKeyESF_SH_E30advance_past_empty_and_deletedEv
RUe:_Collection_1_set_Item_m3803272710_gshared
$0f:_MonoMethodInfo_t3646562144_marshal_pinvoke_cleanup
xri:__ZNSt3__216__to_raw_pointerIP11Il2CppClassEEPT_S4_
Epf:_X509Certificate2_get_SignatureAlgorithm_m3069898012
lmf:_HttpRequestCreator__ctor_m2513916021
zqe:_Int64_System_IConvertible_ToSingle_m1678482180
iQi:__ZNSt3__24swapIN14dense_hash_mapI10KeyWrapperIPK14Il2CppAssemblyEPK22Il2CppMonoAssemblyNameN6il2cpp5utils11PointerHashIS4_EENS6_14EqualsComparerINS_8equal_toIS5_EEEENS_9allocatorINS_4pairIKS6_S9_EEEEE9SelectKeyEEENS_9enable_ifIXaasr21is_move_constructibleIT_EE5valuesr18is_move_assignableISQ_EE5valueEvE4typeERSQ_ST_
ZA:__ZN7mecanim5human13HumanFixTwistEPKNS0_5HumanEPNS_8skeleton13SkeletonPoseTIN4math4trsXEEES9_iiRKf
GPb:__ZL24AssignProjectorQueuesJobP30AssignProjectorQueuesJobHeader
CCi:__ZNSt3__29allocatorINS_12basic_stringIcNS_11char_traitsIcEENS0_IcEEEEE9constructIS5_JS5_EEEvPT_DpOT0_
ALf:_TimeSpan_get_Hours_m3804628138
Ukd:_FontData_set_alignByGeometry_m2819509290
xkj:__ZN14dense_hash_mapI10KeyWrapperIP12Il2CppObjectEN6il2cpp2gc9CachedCCWENS4_5utils11PointerHashIS1_EENS3_14EqualsComparerINSt3__28equal_toIS2_EEEENSB_9allocatorINSB_4pairIKS3_S6_EEEEEC2EjRKS9_RKSE_
zch:_Regex__ctor_m3250610064
X2h:__ZN15dense_hashtableINSt3__24pairIK10KeyWrapperIN6il2cpp5utils13dynamic_arrayIPK10Il2CppTypeLj4EEEEPFvvEEESA_NS3_8metadata19Il2CppSignatureHashEN14dense_hash_mapISA_SD_SG_NSA_14EqualsComparerINSF_22Il2CppSignatureCompareEEENS0_9allocatorISE_EEE9SelectKeyESK_SM_E4swapERSP_
Wgb:__ZN9ShaderLab20SerializedSubProgram14SetConstBufferEPKci
dke:_ArgumentNullException__ctor_m911049464
w$f:_TargetParameterCountException__ctor_m2760108938
oxf:_SoapAttribute_SetReflectionObject_m2774156012
N5e:_Comparison_1_Invoke_m345024424_gshared
vFc:_cf2_getStdVW
T2e:_ReadOnlyCollection_1_System_Collections_IList_Insert_m3936197025_gshared
pTd:_EventHandler_BeginInvoke_m3027583606
tW:__Z40DebugStringToFilePostprocessedStacktraceRK21DebugStringToFileData
BBj:__ZNKSt3__213__vector_baseIPK14Il2CppAssemblyNS_9allocatorIS3_EEE9__end_capEv
Htc:__Z29Transfer_Blittable_ArrayFieldI8JSONReadjEvRT_R9ArrayInfoRK23StaticTransferFieldInfo
D9g:_ContextAttribute__ctor_m4006843177
NZg:_InternalEnumerator_1_get_Current_m314017974_AdjustorThunk
mg:__setLetterbox
wue:_MemoryStream__ctor_m1043059966
cUa:__ZNSt3__26__treeINS_12__value_typeIN9ShaderLab16FastPropertyNameEfEENS_19__map_value_compareIS3_S4_NS_4lessIS3_EELb1EEENS_9allocatorIS4_EEE12__find_equalIS3_EERPNS_16__tree_node_baseIPvEENS_21__tree_const_iteratorIS4_PNS_11__tree_nodeIS4_SE_EEiEESH_RKT_
WZj:__ZL57CollectionBase_t1101587467_CustomAttributesCacheGeneratorP21CustomAttributesCache
Mii:__ZNKSt3__217__compressed_pairIPNS_4pairIPK10MethodInfoP11Il2CppClassEENS_9allocatorIS7_EEE5firstEv
Yni:__ZNSt3__27forwardIRKPK10MethodInfoEEOT_RNS_16remove_referenceIS6_E4typeE
Rwf:__ZN21InterfaceFuncInvoker3IP12Il2CppObjectP6Type_t28StreamingContext_t1417235061PS1_E6InvokeEjP11Il2CppClassS1_S3_S4_S5_
M2a:__ZNSt3__26vectorI17BlendShapeChannelNS_9allocatorIS1_EEE6assignINS_11__wrap_iterIPS1_EEEENS_9enable_ifIXaasr21__is_forward_iteratorIT_EE5valuesr16is_constructibleIS1_NS_15iterator_traitsISA_E9referenceEEE5valueEvE4typeESA_SA_
Urd:_LayoutElement_set_preferredWidth_m3072758716
XGb:__Z12SetGfxDeviceP9GfxDevice
nof:_AsnEncodedData_ToString_m724151831
EDk:_Object_CompareBaseObjects_m1461253683
A_b:__ZN11TimeManager11GetRealtimeEv
MTe:_Collection_1_System_Collections_IList_get_IsFixedSize_m2408637569_gshared
aJf:_UTF8Encoding_GetByteCount_m1469571127
G9h:__ZNSt3__27forwardIN6il2cpp2os19SocketHandleWrapperEEEOT_RNS_16remove_referenceIS4_E4typeE
PJ:__ZN29AudioEffectInternalDefinitionC2EP26UnityAudioEffectDefinitionb
G$f:_MonoMethodInfo_GetDeclaringType_m4186531677
Oxf:_SoapTypeAttribute_SetReflectionObject_m1566293812
vOg:_DefaultComparer__ctor_m418731767_gshared
eD:__ZN4PPtrI6AvatarE8TransferI18StreamedBinaryReadILb0EEEEvRT_
HDh:_Enumerator_System_Collections_IEnumerator_Reset_m2573763156_AdjustorThunk
hzf:_RemotingServices_CreateClientProxy_m1631035355
JQf:_UInt64_ToString_m2892887310
gSj:__ZNSt3__222__tree_key_value_typesINS_12__value_typeIPFvvEPK10MethodInfoEEE9__get_ptrERS7_
c$i:__ZNSt3__214__split_bufferIP12Il2CppThreadRN6il2cpp2gc9AllocatorIS2_EEE9__end_capEv
vja:_stbir_resize
Bxj:__ZN15dense_hashtableINSt3__24pairIK10KeyWrapperIPK19Il2CppGenericMethodEP10MethodInfoEES6_N6il2cpp8metadata23Il2CppGenericMethodHashEN14dense_hash_mapIS6_S9_SD_NS6_14EqualsComparerINSC_26Il2CppGenericMethodCompareEEENS0_9allocatorISA_EEE9SelectKeyESH_SJ_EC2ERKSM_j
y6i:__ZN6il2cpp2vmL33GetMessageFromRestrictedErrorInfoEP26Il2CppIRestrictedErrorInfo
V3a:__ZN4PPtrI4MeshE8TransferI14SafeBinaryReadEEvRT_
oYj:__ZL74U3CGetEnumeratorU3Ec__Iterator0_t1667190089_CustomAttributesCacheGeneratorP21CustomAttributesCache
ZNk:__ZNKSt3__212basic_stringIcNS_11char_traitsIcEENS_9allocatorIcEEE8max_sizeEv
tBa:__Z37ReadDirectoryInfo_UnityWebAndUnityRawR12FileAccessorRKN20ArchiveStorageHeader6HeaderERNS1_13DirectoryInfoE
SYd:_Array_InternalArray__IEnumerable_GetEnumerator_TisInt64_t909078037_m1219751804_gshared
vZ:__ZNSt3__26__treeINS_12__value_typeIPKciEENS_19__map_value_compareIS3_S4_15compare_tstringIS3_ELb1EEENS_9allocatorIS4_EEE7destroyEPNS_11__tree_nodeIS4_PvEE
OYj:__ZL96RuntimeTypeHandle_t2330101084_CustomAttributesCacheGenerator_RuntimeTypeHandle_Equals_m452760426P21CustomAttributesCache
Gni:__ZNKSt3__217__compressed_pairIPPK10MethodInfoNS_9allocatorIS3_EEE5firstEv
boi:__ZNKSt3__214__split_bufferIPK10MethodInfoRNS_9allocatorIS3_EEE8capacityEv
DNg:_Dictionary_2_ToTValue_m1381983709_gshared
_Ae:_MulticastDelegate_KPM_m1592985119
QJh:__ZL25UnresolvedVirtualCall_216P12Il2CppObjectiPK10MethodInfo
qTc:__ZN13dynamic_arrayIN4core12basic_stringIcNS0_20StringStorageDefaultIcEEEELj4EE6assignEPKS4_S7_
G_e:_Collection_1_ConvertItem_m3941916604_gshared
Oza:__ZN15dense_hashtableINSt3__24pairIKN4core12basic_stringIcNS2_20StringStorageDefaultIcEEEEP20ArchiveStorageReaderEES6_20StringHash32FunctionIS6_EN14dense_hash_mapIS6_S9_SC_NS0_8equal_toIS6_EE13stl_allocatorISA_L18MemLabelIdentifier55ELi16EEE9SelectKeyESF_SI_E5clearEv
VMc:__ZN2UI6Canvas26MarkAllNestedCanvasesDirtyEv
jaj:__ZN6il2cpp2vm12ReboxIfBoxedEP14Il2CppIUnknownP11Il2CppClass
_Db:__ZN25PathNamePersistentManagerD2Ev
d$:__ZN17PersistentManager48IntegrateObjectAndUnlockIntegrationMutexInternalEi
B3e:_ReadOnlyCollection_1_System_Collections_IList_get_IsReadOnly_m3872065502_gshared
t0j:__ZL112TypeBuilder_t3308873219_CustomAttributesCacheGenerator_TypeBuilder_MakeGenericType_m4282022646____typeArguments0P21CustomAttributesCache
w9:__ZZ29InitializeSortingGroupManagerPvEN44PostLateUpdateSortingGroupsUpdateRegistrator7ForwardEv
kp:__ZN6Object12SetHideFlagsENS_9HideFlagsE
KUk:_emscripten_glGetFramebufferAttachmentParameteriv__wrapper
FJb:__ZN13RendererScene15InitializeUmbraEv
VNa:__Z28CalculateGlobalMatrixInverse23TransformAccessReadOnly
XYj:__ZL60SecurityAttribute_t2016950496_CustomAttributesCacheGeneratorP21CustomAttributesCache
gdd:_PointerEventData_ToString_m1218584363
Byd:_Char_System_IConvertible_ToChar_m1489061093_AdjustorThunk
qIf:_UTF7Encoding_GetCharCount_m2589913583
M1i:__ZNKSt3__228__libcpp_compressed_pair_impIPN6il2cpp2vm22EmbeddedResourceRecordERNS_9allocatorIS3_EELj0EE5firstEv
Xvi:_AnalyticsSessionInfo_CallSessionStateChanged_m2293069762
mve:_MemoryStream_CalculateNewCapacity_m3533542025
YTj:__ZN6il2cpp6icalls8mscorlib6System6Object7GetTypeEP12Il2CppObject
dgh:_Uri_Reduce_m2577728307
_Lf:_TimeSpan_Equals_m4102942751_AdjustorThunk
wIg:_ValueCollection_System_Collections_Generic_ICollectionU3CTValueU3E_Add_m1903672223_gshared
Ofj:__ZNKSt3__215__tree_iteratorINS_12__value_typeIP24Il2CppReflectionAssemblyPvEEPNS_11__tree_nodeIS5_S4_EEiEptEv
gWc:__ZN12HeaderHelper14SetUnvalidatedERKN4core12basic_stringIcNS0_20StringStorageDefaultIcEEEES6_b
QF:__ZN4FMOD6SoundI7releaseEv
ZGj:_GC_get_oom_fn
qXj:__ZL70RuntimeArray_CustomAttributesCacheGenerator_Array_SetValue_m1489959987P21CustomAttributesCache
Hdd:_MouseButtonEventData__ctor_m618518000
PUh:__ZNSt3__24moveIRPPK10Il2CppTypeEEONS_16remove_referenceIT_E4typeEOS7_
Efj:__ZNSt3__2eqIPKNS_12basic_stringIcNS_11char_traitsIcEENS_9allocatorIcEEEES8_EEbRKNS_11__wrap_iterIT_EERKNS9_IT0_EE
XBa:__ZN10MemoryFile9SetLengthEy
VOf:_UInt16_ToString_m2038947049_AdjustorThunk
Rtb:__ZN5RectTIiE8TransferI24GenerateTypeTreeTransferEEvRT_
aYa:__ZN14SafeBinaryRead21TransferSTLStyleArrayI13dynamic_arrayI7Hash128Lj8EEEEvRT_17TransferMetaFlags
ZCb:__Z28scripting_class_is_interface17ScriptingClassPtr
Ch:_glTexStorage2D
_Ra:__ZNK9ShaderLab10SubProgram14EnsureCompiledEv
B2f:__Z79RuntimeInvoker_Boolean_t3825574718_RuntimeObject_RuntimeObject_SByte_t454417549PFvvEPK10MethodInfoPvPS4_
FBf:_ObjectManager_RecordFixup_m3572285566
O_j:__ZL55DaylightTime_t3800227331_CustomAttributesCacheGeneratorP21CustomAttributesCache
qFd:_SortedList_InitTable_m460350503
B0:__Z18BuildScriptClassId17ScriptingClassPtr
lWg:_InternalEnumerator_1_get_Current_m4279678504_AdjustorThunk
nq:__ZNK16LevelGameManager7GetNameEv
wqi:__ZNKSt3__26vectorIN6il2cpp6icalls8mscorlib6System12PropertyPairENS_9allocatorIS5_EEE8max_sizeEv
OTe:_Collection_1_System_Collections_IList_get_Item_m2415649949_gshared
aYf:_ILTokenInfo_t149559338_marshal_pinvoke_cleanup
fCj:__ZNSt3__217__compressed_pairIPPK14Il2CppAssemblyRNS_9allocatorIS3_EEE6secondEv
PAa:__ZL31DeleteLastPathNameComponentImplRKN4core12basic_stringIcNS_20StringStorageDefaultIcEEEEPKc
W$b:__Z13RegisterClassI18DelayedCallManagerEvv
_Sc:__ZN18UnityConnectClient15GetCloudServiceEv
_rb:__Z18Transfer_BlittableI24GenerateTypeTreeTransferLb0EiEvRK29SerializationCommandArgumentsR31RuntimeSerializationCommandInfo
Y8h:__ZN6il2cpp2os19SocketHandleWrapperD2Ev
TCb:__ZL28SerializationCommandGroupForRK31TransferFunctionScriptingTraits17ScriptingClassPtr17ScriptingFieldPtrRK20CoreScriptingClasses
YEa:__ZN10TagManager32RegisterDefaultTagsAndLayerMasksEv
hAh:_TweenRunner_1_StopTween_m2135918118_gshared
wJg:_ValueCollection_get_Count_m4142113966_gshared
Ufk:__ZL99GameObject_t1756533147_CustomAttributesCacheGenerator_GameObject_GetComponentInChildren_m2459662209P21CustomAttributesCache
xRh:__ZN6il2cpp2vm5Class20GetBoundedArrayClassEP11Il2CppClassjb
XJf:_SynchronizationLockException__ctor_m549086841
mAd:_ArrayList_InsertRange_m1478230997
rqi:__ZNSt3__29allocatorIN6il2cpp6icalls8mscorlib6System12PropertyPairEE8allocateEjPKv
Jfa:__ZN4gles8InitCapsEP7ApiGLESP12GraphicsCapsR16GfxDeviceLevelGL
Pja:__ZN6prcore14BlitImageFloatERK14ImageReferenceRS0_NS0_8BlitModeE
fvd:_Swapper_EndInvoke_m677693941
fLa:__Z24CalculateVertexLightDataRK15SharedLightDataR14GfxVertexLight
FBk:_Color_get_black_m455352838
ki:_glEnable
mbb:__ZN15dense_hashtableINSt3__24pairIKiiEEi21InstanceIDHashFunctorN14dense_hash_mapIiiS4_NS0_8equal_toIiEE13stl_allocatorIS3_L18MemLabelIdentifier1ELi16EEE9SelectKeyES7_SA_E12maybe_shrinkEv
WRa:__ZNK9ShaderLab7Program28BeginReadUnsupportedVariantsEv
oLb:__ZNK25CameraStackRenderingState21GetImageEffectTextureEb
FZi:___cxx_global_var_init_13739
yCf:_RuntimeMethodHandle__ctor_m2437574937_AdjustorThunk
z8a:__ZNSt3__26vectorIN30RuntimeInitializeOnLoadManager9ClassInfoE13stl_allocatorIS2_L18MemLabelIdentifier13ELi16EEE7reserveEj
fXj:__ZL72RuntimeArray_CustomAttributesCacheGenerator_Array_get_Length_m1498215565P21CustomAttributesCache
gpc:__Z35Transfer_Blittable_FixedBufferFieldI9JSONWriteiEvRK29SerializationCommandArgumentsR31RuntimeSerializationCommandInfo
oxj:__ZN14dense_hash_mapI10KeyWrapperIPK19Il2CppGenericMethodEP10MethodInfoN6il2cpp8metadata23Il2CppGenericMethodHashENS4_14EqualsComparerINS8_26Il2CppGenericMethodCompareEEENSt3__29allocatorINSD_4pairIKS4_S6_EEEEED2Ev
uOf:_UInt16_System_IConvertible_ToInt64_m2835280558_AdjustorThunk
irk:__ZL53g_UnityEngine_Assembly_CustomAttributesCacheGeneratorP21CustomAttributesCache
lLh:_Predicate_1_BeginInvoke_m3926587117_gshared
YD:__ZZN8Animator15InitializeClassEvEN31FunctorImpl_427kDidModifyAvatar4CallEPviR11MessageData
k1e:_ReadOnlyCollection_1_System_Collections_IList_Remove_m2779327941_gshared
lx:__ZN26AnimatorControllerPlayable17ProcessRootMotionEP35AnimationPlayableEvaluationConstantP32AnimationPlayableEvaluationInputP33AnimationPlayableEvaluationOutput
T2f:__Z94RuntimeInvoker_Boolean_t3825574718_Int32_t2071877448_SByte_t454417549_ExceptionU26_t1467204777PFvvEPK10MethodInfoPvPS4_
Wid:_DefaultControls_CreateToggle_m1568873127
ngj:__ZNSt3__222__tree_node_destructorINS_9allocatorINS_11__tree_nodeINS_12__value_typeIP24Il2CppReflectionAssemblyPvEES6_EEEEEC2ERS9_b
aQe:_List_1__cctor_m1022807427_gshared
KZj:__ZL63KeyNotFoundException_t1722175009_CustomAttributesCacheGeneratorP21CustomAttributesCache
oNg:_Dictionary_2_InitArrays_m2270022740_gshared
VGd:_Convert_ToBoolean_m2188088811
ARc:__ZN11UnityEngine7Connect15DeviceInfoEvent16CollectExtraInfoEv
HHf:_UnicodeEncoding_GetChars_m3765282346
mre:_IntPtr__ctor_m4104029105
C4j:__ZL114BinaryFormatter_t1866979105_CustomAttributesCacheGenerator_BinaryFormatter_get_DefaultSurrogateSelector_m219714691P21CustomAttributesCache
Z_g:_InternalEnumerator_1_System_Collections_IEnumerator_get_Current_m771161214_AdjustorThunk
_ze:_MonoType_get_attributes_m1493788675
SCa:__ZN20ArchiveStorageReader10InitializeER15FileSystemEntryyb
RMk:_atol
YCj:__ZThn8_N6il2cpp2vm13CachedCCWBaseINS0_13ManagedObjectEE6AddRefEv
DJd:_Convert_ToDouble_m4236754739
jif:_SslClientStream_get_PrivateKeyCertSelectionDelegate_m3715949545
xZh:__ZN15dense_hashtableINSt3__24pairIK10KeyWrapperIPKcEP11Il2CppClassEES5_N6il2cpp5utils11StringUtils12StringHasherIS4_EEN14dense_hash_mapIS5_S8_SE_NS5_14EqualsComparerINSB_13VmStringUtils21CaseSensitiveComparerEEENS0_9allocatorIS9_EEE9SelectKeyESJ_SL_EC2EjRKSE_RKSJ_RKSN_
kkd:_Dropdown_CreateItem_m2702141380
N4e:_ReadOnlyCollection_1_IndexOf_m224962127_gshared
r_j:__ZL48Stack_t1043988394_CustomAttributesCacheGeneratorP21CustomAttributesCache
wo:FUNCTION_TABLE_viifi
Xng:__Z59RuntimeInvoker_Boolean_t3825574718_ResourceInfo_t3933049236PFvvEPK10MethodInfoPvPS4_
Q$f:_MonoEvent_GetAddMethod_m4289563120
xYj:__ZL37Type_t_CustomAttributesCacheGeneratorP21CustomAttributesCache
aJc:_UNITY_tt_face_free_hdmx
zUi:__ZN15dense_hashtableINSt3__24pairIK10KeyWrapperINS1_IP11Il2CppClassjEEES4_EES6_N6il2cpp8metadata14ArrayClassHashEN14dense_hash_mapIS6_S4_SB_NS6_14EqualsComparerINSA_17ArrayClassCompareEEENS0_9allocatorIS8_EEE9SelectKeyESF_SH_E5clearEv
XXh:__ZNSt3__218uninitialized_copyIPNS_4pairIK10KeyWrapperIPK11Il2CppClassEPKcEESB_EET0_T_SD_SC_
xwi:__ZN6il2cpp2vm14TypeNameParser5ParseEb
Awg:_ReflectionMethodsCache__ctor_m1835220
RZj:__ZL71SynchronizedArrayListWrapper_t3317806524_CustomAttributesCacheGeneratorP21CustomAttributesCache
xVc:__ZN23UnityPurchasingSettingsC2Ev
WRd:_Double_ToString_m1864290157
cPk:__ZNSt9bad_allocD0Ev
Dbg:__Z50RuntimeInvoker_Int64_t909078037_Double_t4078015681PFvvEPK10MethodInfoPvPS4_
ekk:__ZL120NativeClassAttribute_t1576243993_CustomAttributesCacheGenerator_NativeClassAttribute_set_QualifiedNativeName_m4139686864P21CustomAttributesCache
iTh:__ZNSt3__26vectorIjNS_9allocatorIjEEE24__RAII_IncreaseAnnotator6__doneEv
QVb:__ZL10RenderFaceR9GfxDeviceR18MaterialStateCacheP13RenderTextureiif
Hrh:_SpriteAtlasManager__cctor_m453260161
Bja:__ZL37stbir__resample_horizontal_downsampleP11stbir__infoiPf
cVe:__ZN21InterfaceFuncInvoker1Ib18Color32_t874517518E6InvokeEjP11Il2CppClassP12Il2CppObjectS0_
Hbb:__ZNK5Unity9Component38MarkGameObjectAndComponentDependenciesER27GarbageCollectorThreadState
DX:__ZL16OutOfMemoryErrorjj18MemLabelIdentifieriPKc
AWc:__ZN20UnityWebRequestProtoI24UnityWebRequestTransport16AtomicRefCounter14RedirectHelper14ResponseHelper15DownloadHandler13UploadHandler12HeaderHelper14AsyncOperationED0Ev
rdf:_RecordProtocol_SendRecord_m132002114
jN:__ZNK7Texture21GetShadowSamplingModeEv
a1:__ZNK11TypeManager15ClassNameToRTTIEPKcb
s$a:__ZN13ScreenManager21OnWindowRegainedFocusEv
qAb:__Z18Transfer_BlittableI18StreamedBinaryReadILb0EELb1EdEvRK29SerializationCommandArgumentsR31RuntimeSerializationCommandInfo
f6h:__ZNSt3__23mapIP11Il2CppClassS2_NS_4lessIS2_EENS_9allocatorINS_4pairIKS2_S2_EEEEE3endEv
iWk:_emscripten_glVertexAttrib2fv__wrapper
bme:_Guid__ctor_m2599802704
Ote:_FileStream_get_CanRead_m4148920720
rXc:__ZN13RuntimeStaticINSt3__26vectorIPN5physx15PxVehicleWheelsENS0_9allocatorIS4_EEEELb0EE13StaticDestroyEPv
Urg:__Z31RuntimeInvoker_Link_t2723257478PFvvEPK10MethodInfoPvPS4_
Stj:__ZNSt3__215__tree_iteratorINS_12basic_stringIcNS_11char_traitsIcEENS_9allocatorIcEEEEPNS_11__tree_nodeIS6_PvEEiEC2ESA_
Hia:__ZN4crnd12symbol_codec32decode_receive_static_data_modelERNS_25static_huffman_data_modelE
Y_b:__ZN18ScriptingArguments8AddFloatEf
ske:_GregorianCalendar_set_CalendarType_m2438362222
qid:_FloatTween_get_targetValue_m2120061648_AdjustorThunk
p6f:__Z44RuntimeInvoker_RuntimeTypeHandle_t2330101084PFvvEPK10MethodInfoPvPS4_
Tvj:__ZN6il2cpp2vmL24HexValueToLowercaseAsciiEh
KWd:_Array_InternalArray__ICollection_Contains_TisVector2_t2243707579_m3625698589_gshared
qRc:__ZN11UnityEngine15PlatformWrapper16GetVRRenderScaleEv
gqc:__Z18Transfer_BlittableI9JSONWriteLb0EaEvRK29SerializationCommandArgumentsR31RuntimeSerializationCommandInfo
J2f:__Z45RuntimeInvoker_SByte_t454417549_RuntimeObjectPFvvEPK10MethodInfoPvPS4_
hR:__ZN11UnityEngine15CloudWebService14DataDispatcher34OnSessionContainerArchivedAndReadyERNS0_16SessionContainerE
bOh:_RectTransformUtility_PixelAdjustPoint_m1375786599
dle:_NumberFormatInfo_GetFormat_m3247563525
S8j:__ZL77Convert_t2607082565_CustomAttributesCacheGenerator_Convert_ToByte_m2303223565P21CustomAttributesCache
xxh:_InvokableCall_3_Find_m1268604653_gshared
uub:__Z18Transfer_BlittableI19StreamedBinaryWriteILb0EELb0E8Vector3fEvRK29SerializationCommandArgumentsR31RuntimeSerializationCommandInfo
Kcb:__ZN14SafeBinaryRead19TransferSTLStyleMapINSt3__23mapIN4core12basic_stringIcNS3_20StringStorageDefaultIcEEEEiNS1_4lessIS7_EENS1_9allocatorINS1_4pairIKS7_iEEEEEEEEvRT_17TransferMetaFlags
N9i:__ZNKSt3__28equal_toIP14Il2CppIUnknownEclERKS2_S5_
SKi:__ZN15dense_hashtableINSt3__24pairIK10KeyWrapperINS1_IPK11Il2CppImageP11Il2CppClassEEEjEES9_17ReflectionMapHashIS8_EN14dense_hash_mapIS9_jSD_NS9_14EqualsComparerINS0_8equal_toIS8_EEEENS0_9allocatorISB_EEE9SelectKeyESI_SK_ED2Ev
WAc:_gray_move_to
nYc:_DSAParameters_t1872138834_marshal_pinvoke
Yeg:__Z37RuntimeInvoker_ContentType_t859870085PFvvEPK10MethodInfoPvPS4_
a_e:_Collection_1_System_Collections_IEnumerable_GetEnumerator_m4174600764_gshared
Iah:_ConstructionCall_InitDictionary_m4046452035
tNi:__ZN6il2cpp2vm10Reflection14GetEventObjectEP11Il2CppClassPK9EventInfo
Adf:_TlsStream_Write_m2271546135
zcc:__Z30RegisterValidateMethodCallbackiPF18ScriptingMethodPtrS_17ScriptingClassPtrP6ObjectEPKc
fkb:__ZN20LocalFileSystemPosixD0Ev
QUd:_CultureInfo_ConstructInternalLocaleFromCurrentLocale_m1342751405
BDi:__ZNSt3__29make_pairIRKNS_4pairIPK14Il2CppAssemblyP11Il2CppClassEERjEENS1_INS_18__make_pair_returnIT_E4typeENSB_IT0_E4typeEEEOSC_OSF_
Xpk:__ZL54Tile_t429716126_CustomAttributesCacheGenerator_m_FlagsP21CustomAttributesCache
NGf:_Latin1Encoding_GetString_m3553289597
Mwg:_GetRayIntersectionAllNonAllocCallback_Invoke_m1247446986
tCc:_tt_cmap_init
yuc:__ZN8JSONRead8TransferI9BoundsIntEEvRT_PKc17TransferMetaFlagsb
Ia:invoke_viidi
DEg:_Enumerator_get_Current_m1020413567_AdjustorThunk
NHe:_List_1_System_Collections_IList_get_IsFixedSize_m1122077912_gshared
Rjj:__ZN15dense_hashtableI10KeyWrapperIP18Il2CppGenericClassES3_N6il2cpp8metadata22Il2CppGenericClassHashEN14dense_hash_setIS3_S6_NS3_14EqualsComparerINS5_25Il2CppGenericClassCompareEEENSt3__29allocatorIS3_EEE8IdentityESA_SD_E12maybe_shrinkEv
Uxb:__Z29Transfer_Blittable_ArrayFieldI18StreamedBinaryReadILb1EEdEvRT_R9ArrayInfoRK23StaticTransferFieldInfo
oI:__ZN9AudioClip7CleanupEv
Hyj:__ZNK24dense_hashtable_iteratorINSt3__24pairIK10KeyWrapperIPK19Il2CppGenericMethodEP10MethodInfoEES6_N6il2cpp8metadata23Il2CppGenericMethodHashEN14dense_hash_mapIS6_S9_SD_NS6_14EqualsComparerINSC_26Il2CppGenericMethodCompareEEENS0_9allocatorISA_EEE9SelectKeyESH_SJ_EdeEv
zMi:__ZN15dense_hashtableINSt3__24pairIK10KeyWrapperINS1_IPK12PropertyInfoP11Il2CppClassEEEjEES9_17ReflectionMapHashIS8_EN14dense_hash_mapIS9_jSD_NS9_14EqualsComparerINS0_8equal_toIS8_EEEENS0_9allocatorISB_EEE9SelectKeyESI_SK_E8min_sizeEjj
tak:__ZL79Convert_t2607082565_CustomAttributesCacheGenerator_Convert_ToUInt64_m2215781574P21CustomAttributesCache
$sh:_Vector4_set_Item_m1525226067_AdjustorThunk
l_k:_emscripten_glCheckFramebufferStatus__wrapper
_Yi:__ZNK15dense_hashtableINSt3__24pairIK10KeyWrapperIP11Il2CppClassES4_EES5_N6il2cpp8metadata16SZArrayClassHashEN14dense_hash_mapIS5_S4_SA_NS5_14EqualsComparerINS9_19SZArrayClassCompareEEENS0_9allocatorIS7_EEE9SelectKeyESE_SG_E12test_deletedEj
zPj:__ZNSt3__26__treeIPFvvENS_4lessIS2_EENS_9allocatorIS2_EEE12__node_allocEv
$sc:__Z18Transfer_BlittableI8JSONReadLb0EdEvRK29SerializationCommandArgumentsR31RuntimeSerializationCommandInfo
KCi:__ZNSt3__28distanceIPKcEENS_15iterator_traitsIT_E15difference_typeES4_S4_
Iuk:__ZL98Graphic_t2426225576_CustomAttributesCacheGenerator_Graphic_get_useLegacyMeshGeneration_m1366444625P21CustomAttributesCache
png:__Z83RuntimeInvoker_Boolean_t3825574718_NavigationU26_t3929175072_Navigation_t1571958496PFvvEPK10MethodInfoPvPS4_
tli:__ZNSt3__27forwardIPP9FieldInfoEEOT_RNS_16remove_referenceIS4_E4typeE
eMe:_List_1_TrimExcess_m2004514756_gshared
pKf:_Thread_ClrState_m822263449
Mok:__ZL81GUIStyle_t1799908754_CustomAttributesCacheGenerator_GUIStyle_get_name_m3609546529P21CustomAttributesCache
bbe:_SimpleCollator_LastIndexOfOrdinalIgnoreCase_m550798345
fai:__ZNSt3__27forwardIRKN6il2cpp2os19SocketHandleWrapperEEEOT_RNS_16remove_referenceIS6_E4typeE
Caa:__ZNK9GfxDevice13GetViewMatrixEv
JAk:_Bounds_Encapsulate_m17114941
Fab:__ZN17RemapPPtrTransferC2E24TransferInstructionFlagsb
c2:__ZN8TypeTree8BlobReadERPKhS1_ib
sUi:__ZN10KeyWrapperINSt3__24pairIP11Il2CppClassjEEEC2Ev
lqj:__ZNSt3__26vectorIPK14Il2CppAssemblyNS_9allocatorIS3_EEE5beginEv
OKg:_Dictionary_2_System_Collections_Generic_ICollectionU3CSystem_Collections_Generic_KeyValuePairU3CTKeyU2CTValueU3EU3E_Remove_m3080541539_gshared
G$e:_ReadOnlyCollection_1_System_Collections_IList_get_IsFixedSize_m942145650_gshared
eIa:__ZN6CameraD0Ev
Hvh:_GUILayoutUtility_Begin_m659595645
Cce:_ModulusRing_Multiply_m386339435
A7:__ZN31CanvasBatchIntermediateRenderer16StaticInitializeEPv
Cmd:_GraphicRaycaster_U3CRaycastU3Em__0_m3971200721
l1e:_ReadOnlyCollection_1_System_Collections_IList_RemoveAt_m3004588099_gshared
Bw:__ZN7mecanim12AndValueMaskILb0EEEvPKNS_14ValueArrayMaskEPS1_
n8a:__ZN14SafeBinaryRead21TransferSTLStyleArrayINSt3__26vectorIi13stl_allocatorIiL18MemLabelIdentifier13ELi16EEEEEEvRT_17TransferMetaFlags
jJd:_Decimal_op_Implicit_m4246329390
fke:_ArgumentNullException__ctor_m2252076819
QWb:__ZN10GameObjectC2E18MemLabelIdentifier18ObjectCreationMode
EJc:_raccess_guess_apple_double
Dpg:__Z70RuntimeInvoker_Void_t1841601450_CustomAttributeNamedArgument_t94157543PFvvEPK10MethodInfoPvPS4_
bAe:_MonoType_GetAttributeFlagsImpl_m250699879
QVf:_TypeBuilder_get_FullName_m1626507516
bBf:_SerializationInfo__ctor_m4016423422
Qma:__ZL18ProgramUniform1uivPK7ApiGLESjiihPKv
Gxj:__ZN15dense_hashtableINSt3__24pairIK10KeyWrapperIPK19Il2CppGenericMethodEP10MethodInfoEES6_N6il2cpp8metadata23Il2CppGenericMethodHashEN14dense_hash_mapIS6_S9_SD_NS6_14EqualsComparerINSC_26Il2CppGenericMethodCompareEEENS0_9allocatorISA_EEE9SelectKeyESH_SJ_E16reset_thresholdsEv
v3b:__ZN14Texture2DArray13RebuildMipMapEv
K_h:__ZN13Il2CppHashSetIPK17Il2CppGenericInstN6il2cpp8metadata21Il2CppGenericInstHashENS4_24Il2CppGenericInstCompareENSt3__29allocatorI10KeyWrapperIS2_EEEEC2EjRKS5_RKS6_
DUe:_Collection_1_Clear_m2734620236_gshared
Fvj:__ZN6il2cpp2gc16GarbageCollector14RemoveWeakLinkEPPv
Xgb:__ZN9ShaderLab20SerializedSubProgram14AddVectorParamEPKcii15ShaderParamTypei
uEj:_GC_max
DOc:__ZN2UI14CanvasRenderer12CleanupClassEv
U3e:_ReadOnlyCollection_1_System_Collections_IEnumerable_GetEnumerator_m1734360860_gshared
ZOg:_DefaultComparer__ctor_m1052417779_gshared
F4c:_SystemException__ctor_m2688248668
q5g:_ResourceSet_ReadResources_m1669023823
rie:_PKCS12_RemoveCertificate_m1590055870
I$i:__ZN6il2cpp2vm6Thread7SetNameEP12Il2CppThreadP12Il2CppString
eRj:__ZNSt3__214__split_bufferINS_12basic_stringIDsNS_11char_traitsIDsEENS_9allocatorIDsEEEERNS4_IS6_EEEC2EjjS8_
gFb:__ZN13ScreenManager18SetAllowCursorLockEb
BS:__ZN11UnityEngine15CloudWebService10RestClientINS0_23WebRequestRestHeaderMapEE16SetRequestHeaderERKN4core12basic_stringIcNS4_20StringStorageDefaultIcEEEESA_
s8a:__ZN30RuntimeInitializeOnLoadManager15ClassMethodInfo8TransferI14SafeBinaryReadEEvRT_
Fxk:__ZL73CanvasScaler_t2574720772_CustomAttributesCacheGenerator_m_ScreenMatchModeP21CustomAttributesCache
YO:__ZL22InitializeModule_Audiov
N3i:__ZN6il2cpp6icalls8mscorlib6System9Threading6Thread27GetSerializedCurrentCultureEP12Il2CppThread
rlb:__ZN16MemoryFileSystem8IsLockedERK13FileEntryData
j4i:__ZN6il2cpp6icalls8mscorlib6System2IO6MonoIO5WriteEiP11Il2CppArrayiiPi
y$f:_MonoCMethod_Invoke_m931478014
r4f:__Z86RuntimeInvoker_Int32_t2071877448_Int16_t4041245914_Int32_t2071877448_Int32_t2071877448PFvvEPK10MethodInfoPvPS4_
x5g:_SatelliteContractVersionAttribute__ctor_m2605651717
Vk:_emscripten_glBindRenderbuffer
ikk:__ZL77RuntimePlatform_t1869584967_CustomAttributesCacheGenerator_OSXDashboardPlayerP21CustomAttributesCache
d9c:_DecoderExceptionFallbackBuffer_GetNextChar_m1727394816
VXh:__ZN30dense_hashtable_const_iteratorINSt3__24pairIK10KeyWrapperIPK11Il2CppClassEPKcEES6_N6il2cpp5utils11PointerHashIS3_EEN14dense_hash_mapIS6_S9_SE_NS6_14EqualsComparerINS0_8equal_toIS5_EEEENS0_9allocatorISA_EEE9SelectKeyESJ_SL_EC2EPK15dense_hashtableISA_S6_SE_SN_SJ_SL_EPKSA_SU_b
EGj:_GC_dirty_init
rud:_Array_Copy_m1969461849
vAf:_MessageFormatter_ReadMethodResponse_m4134629501
Pnj:__ZN6il2cpp2vm5Field14GetValueObjectEP9FieldInfoP12Il2CppObject
_Nc:__ZNK2UI6Canvas16GetTargetDisplayEv
cTd:_Environment_get_OSVersion_m1247315981
r5:__ZN6Object17FindObjectsOfTypeEPKN5Unity4TypeER13dynamic_arrayIPS_Lj4EEb
I7b:__ZNSt3__26vectorINS_4pairIiiEE13stl_allocatorIS2_L18MemLabelIdentifier1ELi16EEE21__push_back_slow_pathIKS2_EEvRT_
ysf:_Capture_get_Length_m1952322390
Oqc:__ZN9JSONWrite8TransferI4PPtrI9Texture2DEEEvRT_PKc17TransferMetaFlags
rCb:__ZN13MonoBehaviour17RemoveFromManagerEv
QIa:__ZN12ImageFilters14AddImageFilterERK11ImageFilter
MOc:__ZL23RegisterModuleICalls_UIv
Q_a:__ZL11DecodeValuePPKcS0_
hGg:_ShimEnumerator_MoveNext_m2013866013_gshared
IV:__ZN13MemoryManagerC2Ev
lqa:__ZN12SkinMeshInfo10DeallocateEPS_
gnk:__ZL66AnimationOffsetPlayable_t1019600543_CustomAttributesCacheGeneratorP21CustomAttributesCache
Hwj:__ZN6il2cpp8metadataL7AlignToEjj
sOk:__ZNKSt3__212basic_stringIcNS_11char_traitsIcEENS_9allocatorIcEEE6substrEjj
kCa:__ZN20ArchiveStorageReader28AcquireAndPrefillUnusedBlockEjPNS_11CacheResultE
p3b:__Z12NHxRoughnessIA4_tEvP9Texture2DPT_iiii
NHh:__ZL25UnresolvedVirtualCall_105P12Il2CppObjecthPK10MethodInfo
mwf:_MethodDictionary_get_SyncRoot_m673971424
N5:__ZN18AsyncUploadManagerD2Ev
V_j:__ZL112RegionInfo_t3784626978_CustomAttributesCacheGenerator_RegionInfo_t3784626978____CurrencyEnglishName_PropertyInfoP21CustomAttributesCache
Vib:__ZN9Transform5ResetEv
fub:__Z22TransferField_NonArrayI24GenerateTypeTreeTransfer16Converter_StringEvRK23StaticTransferFieldInfoR31RuntimeSerializationCommandInfoRT0_
afk:__ZL90Camera_t189460977_CustomAttributesCacheGenerator_Camera_INTERNAL_get_pixelRect_m4124985255P21CustomAttributesCache
jCc:_UNITY_FT_CMap_New
sBi:__ZNSt3__217__compressed_pairIPN6il2cpp2vm17TypeNameParseInfoENS_9allocatorIS3_EEEC2ES4_S6_
$Eb:__Z17MainLoopKeepalivePv
ibh:_MatchCollection__ctor_m1944681790
yZc:_HMACSHA512__ctor_m1667460019
r$h:__ZN15dense_hashtableI10KeyWrapperIPK17Il2CppGenericInstES4_N6il2cpp8metadata21Il2CppGenericInstHashEN14dense_hash_setIS4_S7_NS4_14EqualsComparerINS6_24Il2CppGenericInstCompareEEENSt3__29allocatorIS4_EEE8IdentityESB_SE_E12expand_arrayEjN21dense_hash_map_traits17integral_constantIbLb0EEE
wUi:__ZNSt3__24moveIRN6il2cpp8metadata14ArrayClassHashEEEONS_16remove_referenceIT_E4typeEOS6_
F8i:__ZN14dense_hash_mapI10KeyWrapperIP14Il2CppIUnknownEjN6il2cpp5utils11PointerHashIS1_EENS3_14EqualsComparerINSt3__28equal_toIS2_EEEENS9_9allocatorINS9_4pairIKS3_jEEEEED2Ev
kxh:_InvokableCall_1_Find_m1347741199_gshared
U1c:_ToBase64Transform_get_OutputBlockSize_m949275583
QAe:_MonoType_ToString_m473949831
YTb:__Z14CalcHullBoundsPK8Vector3fPKhhRK5PlaneRK10Matrix4x4fR10MinMaxAABB
tyf:_RealProxy__ctor_m2147093603
VIj:__ZNSt3__29addressofINS_16__list_node_baseIPN6il2cpp5utils10MemoryPool6RegionEPvEEEEPT_RS9_
eOe:_List_1__ctor_m3511181530_gshared
KMb:__Z19SetupLODFadeKeywordR17ShaderPassContexti
w1e:_ReadOnlyCollection_1_get_Count_m2180604490_gshared
Vub:__Z18Transfer_BlittableI19StreamedBinaryWriteILb0EELb0E5RectTIfEEvRK29SerializationCommandArgumentsR31RuntimeSerializationCommandInfo
uxk:__ZL75ToggleGroup_t1030026315_CustomAttributesCacheGenerator_U3CU3Ef__amU24cache1P21CustomAttributesCache
Qpa:__ZL25CheckCopyTextureArgumentsRK7ApiGLESP11GLESTextureS3_
ENi:__ZNSt3__24pairIK10KeyWrapperINS0_IPK9EventInfoP11Il2CppClassEEEjEC2IS7_jEEONS0_IT_T0_EEPNS_9enable_ifIXaasr14is_convertibleISC_S9_EE5valuesr14is_convertibleISD_jEE5valueEvE4typeE
J9a:__ZN13dynamic_arrayI26EnlightenSystemInformationLj8EE6insertEPS0_PKS0_S4_
PBc:_tt_name_entry_ascii_from_utf16
aBe:_MulticastNotSupportedException__ctor_m2164514827
eMd:_DateTime_System_IConvertible_ToChar_m2489529194_AdjustorThunk
Etb:__Z29Transfer_Blittable_ArrayFieldI24GenerateTypeTreeTransferyEvRT_R9ArrayInfoRK23StaticTransferFieldInfo
$I:__ZN4FMOD7SystemI9playSoundE17FMOD_CHANNELINDEXPNS_5SoundEbPPNS_7ChannelE
gzh:_UnityEvent_1_GetDelegate_m1805195420_gshared
ffi:__ZNKSt3__217__compressed_pairIPP12Il2CppThreadNS_9allocatorIS2_EEE6secondEv
AXj:__ZL74RuntimeArray_CustomAttributesCacheGenerator_Array_BinarySearch_m1368352453P21CustomAttributesCache
Bdh:_Regex_GetGroupIndex_m1686599756
Rkk:__ZL68PreferBinarySerialization_t2472773525_CustomAttributesCacheGeneratorP21CustomAttributesCache
B9j:__ZL78Convert_t2607082565_CustomAttributesCacheGenerator_Convert_ToSByte_m1183867428P21CustomAttributesCache
Aw:__ZN27AnimationLayerMixerPlayable17LayerMixerProcessEP35AnimationPlayableEvaluationConstantP32AnimationPlayableEvaluationInputP33AnimationPlayableEvaluationOutputM17AnimationPlayableFvS1_S3_S5_EMS_FvS1_S3_S5_ESA_MS_FvS5_S1_S3_S5_ifE
Vvi:__ZN6il2cpp2os4File4ReadEPNS0_10FileHandleEPciPi
BH:__ZN12AudioManager23VirtualRedirectTransferER18StreamedBinaryReadILb0EE
qGe:_List_1_Remove_m2616693989_gshared
NSj:__ZNSt3__26__treeINS_12__value_typeIPFvvEPK10MethodInfoEENS_19__map_value_compareIS3_S7_NS_4lessIS3_EELb1EEENS_9allocatorIS7_EEE3endEv
cNk:_realloc
qjc:__Z57Register_UnityEngine_Transform_INTERNAL_get_localRotationv
Wzg:_ScrollRect_SetLayoutVertical_m1225848090
BIk:_Plane_ToString_m4267831659_AdjustorThunk
QMf:_Type_get_IsInterface_m3583817465
f8a:__ZN30RuntimeInitializeOnLoadManager23VirtualRedirectTransferER17RemapPPtrTransfer
IRk:dynCall_viif
g0f:_MonoField_get_DeclaringType_m1591666235
zTg:_InternalEnumerator_1__ctor_m2111763266_AdjustorThunk
Tuf:_Enumerator_MoveNext_m4234629003
Fqj:__ZNK6il2cpp2os10SocketImpl12GetLastErrorEv
vGc:_cf2_hint_lock
krb:__ZL26Transfer_SimpleNativeClassI17RemapPPtrTransfer8GradientLb0EEvRK29SerializationCommandArgumentsR31RuntimeSerializationCommandInfo
ky:__ZN17AnimationPlayable26DisconnectNoTopologyChangeEPS_i
oXj:__ZL69RuntimeArray_CustomAttributesCacheGenerator_Array_GetValue_m518505780P21CustomAttributesCache
Kcg:__Z52RuntimeInvoker_UInt64_t2909196914_Single_t2076509932PFvvEPK10MethodInfoPvPS4_
fog:__Z59RuntimeInvoker_Boolean_t3825574718_RaycastHit2D_t4063908774PFvvEPK10MethodInfoPvPS4_
H9j:__ZL78Convert_t2607082565_CustomAttributesCacheGenerator_Convert_ToSByte_m1880147062P21CustomAttributesCache
$ze:_MonoType_GetDefaultConstructor_m925465120
BNf:_Type_IsArrayImpl_m3073208555
gSk:dynCall_viifffi
jT:__ZN13UploadHandlerD2Ev
eQk:dynCall_viiiiiffi
zc:_emscripten_glBlendFuncSeparate
qXf:_GenericTypeParameterBuilder_IsPrimitiveImpl_m1198748291
m_:__Z20scripting_string_newPKc
Jhc:__Z43Material_CUSTOM_Internal_CreateWithMaterialP12Il2CppObjectS0_
Lse:_Directory_GetCurrentDirectory_m44486537
Lcj:__ZNK24NamespaceAndNamePairHashclERKNSt3__24pairIPKcS3_EE
$nk:__ZL105AudioSource_t1135106623_CustomAttributesCacheGenerator_AudioSource_ReadExtensionPropertyValue_m4251175592P21CustomAttributesCache
gSe:_Collection_1_System_Collections_ICollection_CopyTo_m1047946700_gshared
hzh:_UnityEvent_1_GetDelegate_m4072848279_gshared
Eoc:__ZN9JSONWrite12AppendToNodeEPN5Unity9rapidjson12GenericValueINS1_4UTF8IcEE13JSONAllocatorEEPKcRS6_
sKd:_Convert_ToInt64_m4057339019
rei:__ZNSt3__213__vector_baseIP12Il2CppThreadNS_9allocatorIS2_EEE9__end_capEv
TKi:__ZN15dense_hashtableINSt3__24pairIK10KeyWrapperINS1_IPK11Il2CppImageP11Il2CppClassEEEjEES9_17ReflectionMapHashIS8_EN14dense_hash_mapIS9_jSD_NS9_14EqualsComparerINS0_8equal_toIS8_EEEENS0_9allocatorISB_EEE9SelectKeyESI_SK_E15destroy_bucketsEjj
bWi:__ZNSt3__218uninitialized_copyIPNS_4pairIK10KeyWrapperIP11Il2CppClassES4_EES8_EET0_T_SA_S9_
HB:__ZNSt3__26__sortIRPFbPKN8Animator11AnimatorJobES4_EPS4_EEvT0_S9_T_
IG:__ZN17AudioCustomFilterD2Ev
kmc:__ZN11IMGUIModule26SetDeveloperConsoleVisibleEb
ajb:__ZN9Transform16ResetReplacementEv
JMi:__ZNSt3__24swapIPNS_4pairIK10KeyWrapperINS1_IPK12PropertyInfoP11Il2CppClassEEEjEEEENS_9enable_ifIXaasr21is_move_constructibleIT_EE5valuesr18is_move_assignableISE_EE5valueEvE4typeERSE_SH_
Aoa:__ZN18GfxFramebufferGLES18ReleaseFramebufferEP17RenderSurfaceBaseP14GfxContextGLES
S8g:_Context_GetDynamicPropertyCollection_m1987747444
Hpf:_X509Certificate2_get_Version_m1927399907
c6b:__ZN13ProduceHelperI6CameraLb0EE7ProduceE18MemLabelIdentifier18ObjectCreationMode
iod:_Image_RadialCut_m3229543088
HU:__ZN19CloudServiceHandler34HandleSaveFileWebRequestPlayerLoopEv
Xx:__ZN7mecanim21ValueArrayReverseCopyEPKNS_18ValueArrayConstantEPKNS_10ValueArrayES2_PS3_PKi
qG:__Z31GetParentSampleClipFromInstancePN11SoundHandle8InstanceE
z1b:__ZNK28RectTransformPropertyBinding13GetFloatValueERKN11UnityEngine9Animation10BoundCurveE
lWb:__ZN6Camera22StandaloneCustomRenderENS_10RenderFlagEP6ShaderRKN4core12basic_stringIcNS3_20StringStorageDefaultIcEEEEPNS_21PerformRenderFunctionE
K7a:__ZNSt3__26vectorI4PPtrI6ObjectE13stl_allocatorIS3_L18MemLabelIdentifier52ELi16EEE6assignINS_11__wrap_iterIPS3_EEEENS_9enable_ifIXaasr21__is_forward_iteratorIT_EE5valuesr16is_constructibleIS3_NS_15iterator_traitsISD_E9referenceEEE5valueEvE4typeESD_SD_
nUj:__ZN6il2cpp2os16ThreadLocalValue8GetValueEPPv
W5h:__ZN6il2cpp2vm13MetadataCache14GetGenericInstEPKPK10Il2CppTypej
V0c:_SHA384Managed_Initialize_m712692291
uUg:_InternalEnumerator_1__ctor_m2688327768_gshared
$O:__ZN13AudioListener17ReadExtensionNameEi
s7g:_ChannelInfo__ctor_m2502026239
E_h:__ZNSt3__210__get_pairILj0EE3getIK10KeyWrapperIPK19Il2CppGenericMethodEPK26Il2CppGenericMethodIndicesEERT_RNS_4pairISC_T0_EE
Lb:invoke_iiidii
Z1j:__ZL60CallingConvention_t3354538265_CustomAttributesCacheGeneratorP21CustomAttributesCache
EO:__ZN9AudioClip15InitializeClassEv
ap:setThrew
h3b:__ZL21BuildEmptyCubeTexturePKci11ColorRGBA3217TextureColorSpace
Sth:_Event_get_modifiers_m3267430607
Ncb:__ZN14SafeBinaryRead21TransferSTLStyleArrayINSt3__26vectorIN9ShaderLab20SerializedSubProgramENS1_9allocatorIS4_EEEEEEvRT_17TransferMetaFlags
Ung:__Z67RuntimeInvoker_Boolean_t3825574718_RefEmitPermissionSet_t2708608433PFvvEPK10MethodInfoPvPS4_
led:_StandaloneInputModule_set_cancelButton_m2642677329
_rc:__Z15Transfer_StringI8JSONReadLb1EEvRK29SerializationCommandArgumentsR31RuntimeSerializationCommandInfo
hkf:_BasicConstraintsExtension_Encode_m3738782306
aOb:__Z25DoForwardShaderRenderLoopR17RenderLoopContextR13dynamic_arrayI16RenderObjectDataLj4EERK11CullResultsbbbN6Camera10RenderFlagE
Y8d:_GameObject_GetComponent_TisRuntimeObject_m2812611596_gshared
nBc:_sfnt_load_face
Ahe:_PKCS12_GetSymmetricAlgorithm_m1812022677
GIf:_UTF8Encoding_GetByteCount_m2372933408
P8g:_Context_get_NeedsContextSink_m1907794755
qKi:__ZNSt3__24pairI24dense_hashtable_iteratorINS0_IK10KeyWrapperINS0_IPK11Il2CppImageP11Il2CppClassEEEjEES9_17ReflectionMapHashIS8_EN14dense_hash_mapIS9_jSD_NS9_14EqualsComparerINS_8equal_toIS8_EEEENS_9allocatorISB_EEE9SelectKeyESI_SK_EbEC2ISN_bvEEOT_OT0_
eBc:_UNITY_ft_service_list_lookup
hrh:_Transform_get_localScale_m46214814
W8e:_ARC4Managed_GenerateKey_m716135508
drb:__Z18Transfer_BlittableI17RemapPPtrTransferLb1E11ColorRGBA32EvRK29SerializationCommandArgumentsR31RuntimeSerializationCommandInfo
Jlc:__ZN5IMGUI21SelectReceivingWindowER8GUIStateb
E_g:_InternalEnumerator_1_get_Current_m3179981210_gshared
hV:__ZN13BaseAllocator13TryDeallocateEPv
iwb:__Z29Transfer_Blittable_ArrayFieldI19StreamedBinaryWriteILb0EEfEvRT_R9ArrayInfoRK23StaticTransferFieldInfo
wNj:__ZNSt3__216allocator_traitsINS_9allocatorINS_11__tree_nodeINS_12__value_typeIPvxEES4_EEEEE9constructINS_4pairIKS4_xEEJRKNS_21piecewise_construct_tENS_5tupleIJRSB_EEENSG_IJEEEEEEvRS7_PT_DpOT0_
bud:_Array_CreateInstance_m1054139389
Tzh:_U3CStartU3Ec__Iterator0_Reset_m2580847683_gshared
ZUg:_InternalEnumerator_1__ctor_m967618647_AdjustorThunk
$kb:__ZN16MemoryFileSystem5WriteER13FileEntryDatayPvPy
Sig:__Z74RuntimeInvoker_Vector4_t2243707581_Vector4_t2243707581_Vector4_t2243707581PFvvEPK10MethodInfoPvPS4_
IKg:_Dictionary_2_System_Collections_ICollection_get_IsSynchronized_m1738433079_gshared
YJa:__ZNSt3__26vectorIN12FlareManager10FlareEntryENS_9allocatorIS2_EEE21__push_back_slow_pathIKS2_EEvRT_
rTf:_Default_check_arguments_with_score_m1714931543
tYc:_SHA1_Create_m4086509717
Q0f:_MonoMethodInfo_GetMethodInfo_m3298558752
iH:__ZN13AudioListener17RemoveFromManagerEv
td:_glAttachShader
okd:_Dropdown_SetAlpha_m2769981009
vGa:__ZNK6Camera19GetProjectionMatrixEv
TKh:_Predicate_1_BeginInvoke_m1856151290_gshared
VIk:_CircleRotate_Update_m2785340121
YQd:_StackTrace__ctor_m2404985356
i0:__Z38PreallocateObjectFromPersistentManagerib
sMd:_DateTime_System_IConvertible_ToSingle_m3927769066
rWa:__ZNK9Texture2D20GetUnscaledTextureIDEv
Enk:__ZL72AudioClip_t1932558630_CustomAttributesCacheGenerator_m_PCMReaderCallbackP21CustomAttributesCache
DKd:_Convert_ToSByte_m883113940
aNi:__ZN15dense_hashtableINSt3__24pairIK10KeyWrapperINS1_IPK12PropertyInfoP11Il2CppClassEEEjEES9_17ReflectionMapHashIS8_EN14dense_hash_mapIS9_jSD_NS9_14EqualsComparerINS0_8equal_toIS8_EEEENS0_9allocatorISB_EEE9SelectKeyESI_SK_E21fill_range_with_emptyEPSB_SO_
$Mh:_Canvas_get_renderOrder_m2592588836
Dhk:__ZL77Mesh_t1356156583_CustomAttributesCacheGenerator_Mesh_GetIndicesImpl_m50468169P21CustomAttributesCache
SAe:_MonoType_get_ContainsGenericParameters_m3229732653
xRe:_Queue_1_Peek_m1463479953_gshared
HPh:_Animator_ResetTriggerString_m946167554
cvk:__ZL53InputField_t1631627530_CustomAttributesCacheGeneratorP21CustomAttributesCache
juh:_GUI_set_skin_m929513544
Pfd:_ButtonClickedEvent__ctor_m938038541
jBb:__ZN18StreamedBinaryReadILb0EE21TransferSTLStyleArrayI13dynamic_arrayI4AABBLj4EEEEvRT_17TransferMetaFlags
kbg:__Z119RuntimeInvoker_Int32_t2071877448_RuntimeObject_Int32_t2071877448_Int32_t2071877448_CharU26_t1894467670_SByte_t454417549PFvvEPK10MethodInfoPvPS4_
oOf:_UInt16_System_IConvertible_ToDouble_m4100549304_AdjustorThunk
W9a:__Z29ClearRepeatingLogMessageStatev
Whj:__ZNSt3__216allocator_traitsINS_9allocatorIN6il2cpp2vm5Image20EmbeddedResourceDataEEEE10__max_sizeENS_17integral_constantIbLb1EEERKS6_
v5c:_Single_System_IConvertible_ToInt16_m962677079
e5:__ZN21EnlightenSceneMappingaSERKS_
gZe:_Collection_1_SetItem_m546457615_gshared
FUj:__ZNK6il2cpp8metadata21Il2CppGenericInstHashclEPK17Il2CppGenericInst
J5c:_Single_System_IConvertible_ToUInt32_m2447833283
uua:__ZN7ApiGLESD2Ev
qEa:__ZN9Transform47ClearTransformHierarchyAndApplyToSerializedDataEv
$Yg:_InternalEnumerator_1_get_Current_m4083613828_AdjustorThunk
ntc:__ZN8JSONRead21TransferSTLStyleArrayINSt3__26vectorI8MonoPPtr13stl_allocatorIS3_L18MemLabelIdentifier1ELi16EEEEEEvRT_17TransferMetaFlags
gqj:__ZN6il2cpp6icalls8mscorlib6SystemL16write_enum_valueEPcP11Il2CppClassy
C_c:_RijndaelManaged_GenerateKey_m3366247933
rse:_BinaryReader_ReadUInt64_m1893783375
kIa:__ZN6Camera23VirtualRedirectTransferER19StreamedBinaryWriteILb0EE
YRk:dynCall_fidi
qFi:__ZN15dense_hashtableINSt3__24pairIK10KeyWrapperINS1_IPK9FieldInfoP11Il2CppClassEEEjEES9_17ReflectionMapHashIS8_EN14dense_hash_mapIS9_jSD_NS9_14EqualsComparerINS0_8equal_toIS8_EEEENS0_9allocatorISB_EEE9SelectKeyESI_SK_E12resize_deltaEjj
wyg:_ScrollRect_set_movementType_m3292965850
K8j:__ZL59AttributeTargets_t1984597432_CustomAttributesCacheGeneratorP21CustomAttributesCache
NT:__ZN11UnityEngine15CloudWebService14RestDownloaderD2Ev
dZb:__Z29StdTemplateConversionFunctionIjhEbPvR14SafeBinaryRead
DIh:__ZL25UnresolvedVirtualCall_149P12Il2CppObject23SpriteState_t1353336012S1_PK10MethodInfo
mHa:__ZN15dense_hashtableINSt3__24pairIKN9ShaderLab7Program23ShaderKeywordSetAndHashEPKNS2_10SubProgramEEES4_NS3_24ShaderKeywordHashFunctorEN14dense_hash_mapIS4_S8_SA_NS0_8equal_toIS4_EE13stl_allocatorIS9_L18MemLabelIdentifier67ELi16EEE9SelectKeyESD_SG_E15insert_noresizeERKS9_
_Fe:_List_1_GrowIfNeeded_m2986672263_gshared
XSg:_ArrayReadOnlyList_1_Remove_m2325516426_gshared
bEd:_Hashtable_get_Count_m830088216
fsi:__ZNSt3__216allocator_traitsINS_9allocatorIP11Il2CppClassEEE8allocateERS4_j
DQa:__ZN13RenderTexture12SetDimensionE16TextureDimension
fbj:__ZNSt3__26__treeINS_12__value_typeIP24Il2CppReflectionAssemblyPvEENS_19__map_value_compareIS3_S5_NS_4lessIS3_EELb1EEENS_9allocatorIS5_EEE12__node_allocEv
je:_SDL_FreeRW
Rfe:_PKCS1_OS2IP_m1273945439
v0c:_SHA1Internal_FillBuff_m891541953
ack:__ZL62ResolveEventHandler_t3842432458_CustomAttributesCacheGeneratorP21CustomAttributesCache
oPc:__Z34CanvasRenderer_Get_Custom_PropCullP12Il2CppObject
zSg:_ArrayReadOnlyList_1_get_IsReadOnly_m2717922212_gshared
KM:__ZN20SoundChannelInstance8getDelayE14FMOD_DELAYTYPEPjS1_
ZMj:__ZNSt3__26__treeINS_12__value_typeIPvxEENS_19__map_value_compareIS2_S3_NS_4lessIS2_EELb1EEENS_9allocatorIS3_EEE12__find_equalIS2_EERPNS_16__tree_node_baseIS2_EESF_RKT_
npd:_InputField_set_customCaretColor_m3534590098
Gyg:_ScrollRect_set_viewport_m323693490
$5j:__ZL66RijndaelManagedTransform_t135163252_CustomAttributesCacheGeneratorP21CustomAttributesCache
Poe:_NumberFormatter_FormatExponential_m3975285307
Hwc:__ZNSt3__26vectorIN20TextRenderingPrivate8FontImpl13CharacterInfoE13stl_allocatorIS3_L18MemLabelIdentifier1ELi16EEE8__appendEj
v:tempBigInt
re:_emscripten_glVertexAttrib1fv
dHk:_Mesh_CheckCanAccessSubmesh_m764012688
sdb:__ZNSt3__26vectorIN9ShaderLab20SerializedSubProgram12UAVParameterENS_9allocatorIS3_EEE7reserveEj
$Ok:__ZSt11__terminatePFvvE
Zpd:_InputField_get_selectionAnchorPosition_m466595604
j8j:__ZL99Thread_t241561612_CustomAttributesCacheGenerator_Thread_t241561612____ExecutionContext_PropertyInfoP21CustomAttributesCache
zJ:__ZN12AudioManager14systemCallbackEP11FMOD_SYSTEM24FMOD_SYSTEM_CALLBACKTYPEPvS3_
dgk:__ZL98GameObject_t1756533147_CustomAttributesCacheGenerator_GameObject_SendMessage_m3423113156____value1P21CustomAttributesCache
Ryk:__ZL111LayoutUtility_t4076838048_CustomAttributesCacheGenerator_LayoutUtility_U3CGetPreferredHeightU3Em__5_m1524880643P21CustomAttributesCache
iXh:__ZNSt3__24pairIK10KeyWrapperIPK11Il2CppClassEPKcEC2IRS6_S8_vEEOT_OT0_
YIi:__ZN24dense_hashtable_iteratorINSt3__24pairIK10KeyWrapperINS1_IPK10MethodInfoP11Il2CppClassEEEjEES9_17ReflectionMapHashIS8_EN14dense_hash_mapIS9_jSD_NS9_14EqualsComparerINS0_8equal_toIS8_EEEENS0_9allocatorISB_EEE9SelectKeyESI_SK_E30advance_past_empty_and_deletedEv
MWh:__ZNSt3__24moveIRNS_12basic_stringIcNS_11char_traitsIcEENS_9allocatorIcEEEEEEONS_16remove_referenceIT_E4typeEOS9_
Iti:_il2cpp_alloc
vJh:__ZL25UnresolvedVirtualCall_195P12Il2CppObjectfPK10MethodInfo
TPa:__ZN16ReflectionProbes16UpdateSampleDataEv
rJj:__ZNSt3__222__allocator_destructorINS_9allocatorINS_11__list_nodeIPN6il2cpp5utils10MemoryPool6RegionEPvEEEEEclEPS9_
pmi:__ZNSt3__217__compressed_pairINS_15__tree_end_nodeIPNS_16__tree_node_baseIPvEEEENS_9allocatorINS_11__tree_nodeIP11Il2CppClassS3_EEEEE5firstEv
Hnk:__ZL107AudioClip_t1932558630_CustomAttributesCacheGenerator_AudioClip_InvokePCMReaderCallback_Internal_m4135619730P21CustomAttributesCache
Ink:__ZL112AudioClip_t1932558630_CustomAttributesCacheGenerator_AudioClip_InvokePCMSetPositionCallback_Internal_m1220105088P21CustomAttributesCache
pQi:__ZNSt3__24moveIRN10KeyWrapperIPK14Il2CppAssemblyE14EqualsComparerINS_8equal_toIS4_EEEEEEONS_16remove_referenceIT_E4typeEOSC_
Kyh:_UnityEvent_1_AddListener_m4113183338_gshared
L6g:_SafeHandle_Finalize_m1839546519
_0a:__ZN14Texture2DArray5ResetEv
K0g:_InternalEnumerator_1_MoveNext_m252820768_AdjustorThunk
y9g:_Context_AllocateNamedDataSlot_m3200404053
JEa:__ZN14BatchAllocator6CommitE18MemLabelIdentifier
Fof:_X509EnhancedKeyUsageExtension_Decode_m3866320499
Loe:_NumberFormatter_AppendIntegerStringWithGroupSeparator_m1401773574
QOe:_List_1_Remove_m1237648310_gshared
wbf:_CipherSuite_get_ServerHMAC_m3566778727
y_j:__ZL64DebuggerBrowsableState_t944457511_CustomAttributesCacheGeneratorP21CustomAttributesCache
Oe:_JS_Sound_Play
aJh:__ZL25UnresolvedVirtualCall_174P12Il2CppObject23RaycastResult_t21186376S1_PK10MethodInfo
xSc:__Z26GetUnityConnectSettingsPtrv
xod:_Image_IsRaycastLocationValid_m864962354
w7f:__Z181RuntimeInvoker_Void_t1841601450_RuntimeObject_Int32_t2071877448_Int32_t2071877448_RuntimeObject_Int32_t2071877448_Int32_t2071877448_RuntimeObject_Int32_t2071877448_Int32_t2071877448PFvvEPK10MethodInfoPvPS4_
ocb:__ZN9ShaderLab16SerializedShader8TransferI14SafeBinaryReadEEvRT_
nya:__ZN5Mutex7TryLockEv
Owh:_InvokableCall_1_remove_Delegate_m3013073467_gshared
$hk:__ZL99Sprite_t309593783_CustomAttributesCacheGenerator_Sprite_get_associatedAlphaSplitTexture_m1902878088P21CustomAttributesCache
$A:__ZN7mecanim8skeleton13SkeletonAlignEPKNS0_8SkeletonERKN4math7_float4ES7_i
$3b:__ZN19ShaderPropertySheet16SetVectorIndexedEN9ShaderLab16FastPropertyNameEifRK8Vector4fNS_8SetFlagsE
gq:__ZN14SafeBinaryRead21TransferSTLStyleArrayIN4core12basic_stringIcNS1_20StringStorageDefaultIcEEEEEEvRT_17TransferMetaFlags
Pyf:_RemotingConfiguration_RegisterWellKnownServiceType_m2491506630
zwg:_RectMask2D_OnCanvasHierarchyChanged_m2610677147
X2j:__ZL55_TypeBuilder_t2783404358_CustomAttributesCacheGeneratorP21CustomAttributesCache
HNj:__ZNSt3__27forwardINS_22__tree_node_destructorINS_9allocatorINS_11__tree_nodeINS_12__value_typeIPvxEES5_EEEEEEEEOT_RNS_16remove_referenceISA_E4typeE
EJh:__ZL25UnresolvedVirtualCall_204P12Il2CppObjectPK10MethodInfo
HZb:__Z29StdTemplateConversionFunctionIayEbPvR14SafeBinaryRead
Gsd:_LayoutRebuilder_Initialize_m2671585490
bJk:_Cut_Update_m4276757078
yKe:_List_1_System_Collections_IList_IndexOf_m4061554721_gshared
oU:__ZN11UnityEngine15CloudWebService14DataDispatcher4StopEv
udb:__ZNSt3__26vectorIN9ShaderLab20SerializedSubProgram12UAVParameterENS_9allocatorIS3_EEE8__appendEj
HUe:_Collection_1_GetEnumerator_m434271983_gshared
cOi:__ZNK15dense_hashtableINSt3__24pairIK10KeyWrapperINS1_IPK9EventInfoP11Il2CppClassEEEjEES9_17ReflectionMapHashIS8_EN14dense_hash_mapIS9_jSD_NS9_14EqualsComparerINS0_8equal_toIS8_EEEENS0_9allocatorISB_EEE9SelectKeyESI_SK_E12test_deletedERK24dense_hashtable_iteratorISB_S9_SD_SM_SI_SK_E
C2c:_X509Certificate_ToString_m1582581274
ZHg:_Enumerator_get_Current_m2986380627_gshared
Aza:__ZN17ScriptingGCHandle7AcquireE18ScriptingObjectPtr25ScriptingGCHandleWeakness
z8g:_LifetimeServices_set_LeaseTime_m1487876644
CUf:_ConstructorBuilder_not_supported_m3687319507
uYj:__ZL48IList_t3321498491_CustomAttributesCacheGeneratorP21CustomAttributesCache
kNc:__ZN2UI14CanvasRenderer14AttachToCanvasER8JobFencePNS_6CanvasENS0_15InstructionTypeE
A5c:_Single_System_IConvertible_ToInt64_m3555853323_AdjustorThunk
SUi:__ZN15dense_hashtableINSt3__24pairIK10KeyWrapperINS1_IP11Il2CppClassjEEES4_EES6_N6il2cpp8metadata14ArrayClassHashEN14dense_hash_mapIS6_S4_SB_NS6_14EqualsComparerINSA_17ArrayClassCompareEEENS0_9allocatorIS8_EEE9SelectKeyESF_SH_E21fill_range_with_emptyEPS8_SL_
VQk:dynCall_iifiii
jja:__Z21HasAlphaTextureFormat13TextureFormat
oO:__ZN12AudioManager6UpdateEv
cja:__ZN14ImageReference9BlitImageERKS_NS_8BlitModeE
F0f:_MonoMethod_get_MethodHandle_m1882915015
ls:__ZN8Animator12AddToManagerEv
W0j:__ZL93ConstructorInfo_t2851816542_CustomAttributesCacheGenerator_ConstructorInfo_Invoke_m2144827141P21CustomAttributesCache
Igi:__ZNSt3__216allocator_traitsIN6il2cpp2gc9AllocatorIP17Il2CppAsyncResultEEE11__constructIS5_JRKS5_EEEvNS_17integral_constantIbLb1EEERS6_PT_DpOT0_
QFg:_ShimEnumerator_get_Key_m1171725158_gshared
kDb:__ZN23CachedSerializationDataD2Ev
lVb:__ZNK25CameraStackRenderingState31CalculateStereoCameraTargetTypeEv
uPa:__ZN14RenderSettings23VirtualRedirectTransferER14SafeBinaryRead
J6i:__ZNSt3__212basic_stringIDsNS_11char_traitsIDsEENS_9allocatorIDsEEE10__set_sizeEj
OYe:_Collection_1_System_Collections_IList_get_IsReadOnly_m4005091053_gshared
yWd:_Array_InternalArray__ICollection_Contains_TisColor32_t874517518_m2818328910_gshared
DLa:__ZN17GlobalGameManager8TransferI17RemapPPtrTransferEEvRT_
Qje:_AppDomainInitializer_EndInvoke_m4003801172
cYj:__ZL66RuntimeArray_CustomAttributesCacheGenerator_Array_Sort_m2544329074P21CustomAttributesCache
zVi:__ZNSt3__24swapIN10KeyWrapperIP11Il2CppClassE14EqualsComparerIN6il2cpp8metadata19SZArrayClassCompareEEEEENS_9enable_ifIXaasr21is_move_constructibleIT_EE5valuesr18is_move_assignableISB_EE5valueEvE4typeERSB_SE_
OEh:_AudioExtensionManager_WriteExtensionProperties_m4015275001
aPa:__ZN16LevelGameManager8TransferI18StreamedBinaryReadILb0EEEEvRT_
fJc:_UNITY_tt_face_load_fpgm
fEa:__Z17IsObjectAvailablei
L4a:__ZN12InputManagerD0Ev
hDi:_RaycastHit2D_get_point_m2962370910
kOj:__ZN6il2cpp6icalls8mscorlib6System11Diagnostics10StackTrace9get_traceEP15Il2CppExceptionib
Iid:_DefaultControls_CreateUIObject_m2810394112
$Ha:__ZNK16LightmapSettings14GetLightProbesEv
Dyg:_ScrollRect_get_scrollSensitivity_m1160815603
BHf:_UnicodeEncoding_GetBytes_m1337660232
Mzb:__Z18Transfer_BlittableI18StreamedBinaryReadILb0EELb1EtEvRK29SerializationCommandArgumentsR31RuntimeSerializationCommandInfo
hNk:_posix_memalign
p4b:__ZN13ProduceHelperI12MeshRendererLb0EE7ProduceE18MemLabelIdentifier18ObjectCreationMode
yek:__ZL85Application_t354826772_CustomAttributesCacheGenerator_Application_OpenURL_m2826628597P21CustomAttributesCache
AWi:__ZNSt3__216__to_raw_pointerIN6il2cpp8metadata18GenericArrayMethodEEEPT_S5_
UQe:_List_1_get_Count_m1249351212_gshared
R1g:_InternalEnumerator_1_get_Current_m747506907_AdjustorThunk
Dzk:_LogCallback_Invoke_m115567905
Wag:__Z38RuntimeInvoker_PaddingMode_t3032142640PFvvEPK10MethodInfoPvPS4_
Z9h:__ZNKSt3__26vectorIN6il2cpp2os19SocketHandleWrapperENS_9allocatorIS3_EEE4dataEv
hif:_SslClientStream_get_ClientCertSelectionDelegate_m2316959461
NBd:_SynchronizedArrayListWrapper_get_SyncRoot_m1466044127
l0:__ZNK15MonoScriptCache7ReleaseEv
GTh:__ZN6il2cpp2vm5Class13HasReferencesEP11Il2CppClass
bg:_glBindTexture
EUe:_Collection_1_ClearItems_m3585785594_gshared
wLk:_snprintf
Wxk:__ZL84HorizontalOrVerticalLayoutGroup_t1968298610_CustomAttributesCacheGenerator_m_SpacingP21CustomAttributesCache
ZSf:_Binder__ctor_m1361613966
Wpd:_InputField_set_caretPosition_m888572237
TXf:_ILGenerator__cctor_m3943061018
cBd:_ArrayListWrapper_Clone_m1506311066
UNh:_CanvasRenderer_CreateUIVertexStream_m2882962535
tbb:__Z36scripting_liveness_calculation_begin17ScriptingClassPtriPFvPP12Il2CppObjectiPvES3_PFvvES7_
uAh:_ListPool_1_Get_m4215629480_gshared
asa:__ZN16UniformCacheGLES6CreateERK20GpuProgramParameters
PIf:_UTF8Encoding_Fallback_m811555654
wQf:_UInt64_CompareTo_m3513742483
D$d:_Array_InternalArray__IndexOf_TisPlayableBinding_t2498078091_m398853908_gshared
Zoh:_ScriptableObject_t1975622470_marshal_pinvoke_cleanup
obe:_SimpleCollator_MatchesForwardCore_m558011650
K1e:_ReadOnlyCollection_1_System_Collections_IList_Clear_m1918003010_gshared
E4f:__Z77RuntimeInvoker_Void_t1841601450_RuntimeObject_RuntimeObject_Int32_t2071877448PFvvEPK10MethodInfoPvPS4_
IUk:_emscripten_glGetProgramInfoLog__wrapper
jrh:_Transform_set_localScale_m1442831667
ID:__ZN25AnimatedPropertyEvaluator29BindCurveToScriptingObjectPtrERKN13AnimationClip10FloatCurveEj18ScriptingObjectPtrb
uuj:__ZNSt3__26__treeINS_12basic_stringIcNS_11char_traitsIcEENS_9allocatorIcEEEENS_4lessIS6_EENS4_IS6_EEE3endEv
TIf:_UTF8Encoding_InternalGetChars_m373801468
v1:__ZN17PersistentManager23DestroyFromFileInternalEi
Tcj:__ZN14dense_hash_mapI10KeyWrapperINSt3__24pairIPKcS4_EEEi24NamespaceAndNamePairHashNS6_14EqualsComparerI26NamespaceAndNamePairEqualsEENS1_9allocatorINS2_IKS6_iEEEEE6insertERKSD_
hPd:_Decimal_System_IConvertible_ToChar_m2425091200_AdjustorThunk
pOb:__Z19SetupMotionMatricesR6CameraR18RPDataMotionVector
WSd:_Enum_ToString_m2112979707
v4j:__ZL55SoapServices_t3397513225_CustomAttributesCacheGeneratorP21CustomAttributesCache
ICi:__ZNSt3__212basic_stringIcNS_11char_traitsIcEENS_9allocatorIcEEEC2IPKcEET_S9_
Bwf:_MonoMethodMessage_get_MethodName_m3580519713
oC:__ZN26AnimatorControllerPlayable18PrepareForPlaybackERN7mecanim6memory9AllocatorE
uXh:__ZNSt3__24swapIN14dense_hash_mapI10KeyWrapperIPK11Il2CppClassEPKcN6il2cpp5utils11PointerHashIS3_EENS6_14EqualsComparerINS_8equal_toIS5_EEEENS_9allocatorINS_4pairIKS6_S8_EEEEE9SelectKeyEEENS_9enable_ifIXaasr21is_move_constructibleIT_EE5valuesr18is_move_assignableISP_EE5valueEvE4typeERSP_SS_
dSd:_Enum_t2459695545_marshal_pinvoke_cleanup
oph:_HitInfo_t1761367055_marshal_pinvoke_cleanup
AZc:_HMACSHA512__cctor_m1167457383
KIf:_UTF8Encoding_GetBytes_m4170182058
_Je:_List_1_IndexOf_m2418862432_gshared
yHa:__ZN22CreateGpuProgramOutputC2Ev
prf:_X509Chain__ctor_m2242540866
Xhi:__ZNSt3__210__list_impIP17Il2CppAsyncResultN6il2cpp2gc9AllocatorIS2_EEEC2Ev
_ue:_MemoryStream_InternalConstructor_m2423667240
Feh:_CapturingGroup_set_Index_m2175936006
wxf:_SoapMethodAttribute_SetReflectionObject_m3431595769
gBg:_Slider_set_maxValue_m2951480075
E5b:__ZN8GUILayer12CleanupClassEv
ird:_InputField_OnSubmit_m2856515494
XSh:__ZN6il2cpp2vm5Class4InitEP11Il2CppClass
ga:invoke_vidi
Ghe:_DeriveBytes_Adjust_m105515328
BNc:__ZN2UI14CanvasRenderer17SyncDirtyElementsER8JobFence
Izb:__Z18Transfer_BlittableI18StreamedBinaryReadILb0EELb0ExEvRK29SerializationCommandArgumentsR31RuntimeSerializationCommandInfo
zhd:_ColorBlock_op_Inequality_m1517672458
Xzj:__ZN6il2cpp5utils11StringUtils15StringDuplicateEPKc
GWb:__Z15CanAddComponentR10GameObjectPKN5Unity4TypeE
rUh:__ZNSt3__27forwardIRKPK10Il2CppTypeEEOT_RNS_16remove_referenceIS6_E4typeE
PGa:__ZNK9ShaderLab21ShaderRasterStateDesc16ToGfxRasterStateEPK19ShaderPropertySheetS3_R14GfxRasterState
fW:_tlsf_memalign
iEf:_CspParameters__ctor_m2480441577
uUj:__ZN6il2cpp2os9EventImplC2Ebb
$8g:_DynamicPropertyCollection_NotifyMessage_m840388347
Pfh:_Uri_ParseUri_m5711497
zD:__ZN4PPtrI13MonoBehaviourE8TransferI19StreamedBinaryWriteILb0EEEEvRT_
Cgg:__Z98RuntimeInvoker_RuntimeObject_RuntimeObject_RayU26_t3651946800_Single_t2076509932_Int32_t2071877448PFvvEPK10MethodInfoPvPS4_
fwj:___cxx_global_var_init_15467
UY:__Z20IsMatrixBuiltinParamPKcPi
Uvk:__ZL108MaskableGraphic_t540192618_CustomAttributesCacheGenerator_MaskableGraphic_ParentMaskStateChanged_m3643747340P21CustomAttributesCache
qJi:__ZN15dense_hashtableINSt3__24pairIK10KeyWrapperINS1_IPK10MethodInfoP11Il2CppClassEEEjEES9_17ReflectionMapHashIS8_EN14dense_hash_mapIS9_jSD_NS9_14EqualsComparerINS0_8equal_toIS8_EEEENS0_9allocatorISB_EEE9SelectKeyESI_SK_E16reset_thresholdsEv
I3b:__ZN8Renderer19PostInitializeClassEv
Lqh:_TrackedReference_t1045890189_marshal_pinvoke_back
RTg:_InternalEnumerator_1_get_Current_m1943362081_AdjustorThunk
YHj:__ZN6il2cpp6icalls8mscorlib6System8Delegate23CreateDelegate_internalEP20Il2CppReflectionTypeP12Il2CppObjectP22Il2CppReflectionMethodb
wXj:__ZL82RuntimeArray_CustomAttributesCacheGenerator_Array_GetValue_m1507415734____indices0P21CustomAttributesCache
lTf:_Default_check_type_m2363631305
FCb:__ZN18DelayedCallManager18CancelCallDelayed2E4PPtrI6ObjectEPF15CallObjectStatePS1_PvES7_
sKe:_List_1__cctor_m911493842_gshared
AAi:__ZNKSt3__228__libcpp_compressed_pair_impIPN6il2cpp2vm17TypeNameParseInfoENS_9allocatorIS3_EELj2EE6secondEv
txa:__ZN25ThreadsafeLinearAllocator10ReallocateEPvji
Nmb:__Z18Transfer_BlittableI14SafeBinaryReadLb1E11QuaternionfEvRK29SerializationCommandArgumentsR31RuntimeSerializationCommandInfo
t9:__ZN18SpriteAtlasManagerD0Ev
F$d:_Array_InternalArray__IndexOf_TisRaycastHit2D_t4063908774_m3739817942_gshared
n1f:_MonoProperty_GetAccessors_m3704698731
uHj:_GC_disable
E2a:__ZN10Matrix4x4f8TransferI14SafeBinaryReadEEvRT_
pye:_UnmanagedMemoryStream_ReadByte_m2501145010
UMg:_Dictionary_2__ctor_m406310120_gshared
FAf:_ObjectRecord_UnchainFixup_m3025030310
lC:__ZN14AvatarPlayback8StopTimeEv
G3:__Z6AppendRKN4core12basic_stringIcNS_20StringStorageDefaultIcEEEEPKc
MWj:__ZL60MulticastDelegate_t3201952435_CustomAttributesCacheGeneratorP21CustomAttributesCache
cli:__ZNSt3__214__split_bufferIP9FieldInfoRNS_9allocatorIS2_EEE17__destruct_at_endEPS2_NS_17integral_constantIbLb0EEE
sbb:__ZL14OnWorldStoppedv
iCj:__ZNSt3__214__split_bufferIPK14Il2CppAssemblyRNS_9allocatorIS3_EEE17__destruct_at_endEPS3_NS_17integral_constantIbLb0EEE
wwb:__Z18Transfer_BlittableI18StreamedBinaryReadILb1EELb0E8Vector3fEvRK29SerializationCommandArgumentsR31RuntimeSerializationCommandInfo
Bgg:__Z81RuntimeInvoker_RuntimeObject_Ray_t2469606224_Single_t2076509932_Int32_t2071877448PFvvEPK10MethodInfoPvPS4_
Xuk:__ZL61Image_t2042527209_CustomAttributesCacheGenerator_m_FillCenterP21CustomAttributesCache
uBk:_Color_ToString_m55788918_AdjustorThunk
q0i:__ZN6il2cpp6icalls8mscorlib6SystemL10AssignRealIdEEvNS2_17WidenedValueUnionEPv14Il2CppTypeEnumjj
Bga:__ZN7ApiGLES18ClearBufferSubDataEjN2gl12BufferTargetEll
Jdc:__Z37Camera_Get_Custom_PropAllCamerasCountv
t1a:__ZN14Texture2DArray8TransferI18StreamedBinaryReadILb0EEEEvRT_
X$i:__ZN6il2cpp6icalls8mscorlib6System5Array9GetLengthEP11Il2CppArrayi
wSb:__Z18ApplyOcclusionMaskR19ProbeOcclusionCacheRK17LightProbeContextRK10RenderNodeb
tue:_FileStreamAsyncResult__ctor_m1096228032
WDc:_Split_Cubic
cb:invoke_fiiii
KOd:_DBNull_System_IConvertible_ToSByte_m1228193074
lUe:_Collection_1__ctor_m2818834331_gshared
Hfg:__Z68RuntimeInvoker_UInt16_t986882611_UInt16_t986882611_UInt16_t986882611PFvvEPK10MethodInfoPvPS4_
Wxh:_UnityAction_1_Invoke_m3979091955_gshared
RWe:_Collection_1_Insert_m3041550124_gshared
XUh:__ZNKSt3__26vectorIPK10Il2CppTypeNS_9allocatorIS3_EEE8max_sizeEv
Vte:_FileStream_FlushBuffer_m2594140542
l_e:_Collection_1_System_Collections_IList_get_Item_m1995028750_gshared
RAj:__ZN6il2cpp2vm8Profiler12GCHeapResizeEx
cSk:dynCall_viiifi
coa:__ZN18GfxFramebufferGLES20ActiveContextChangedEPP17RenderSurfaceBaseS2_
Hbk:__ZL51TimeSpan_t3430258949_CustomAttributesCacheGeneratorP21CustomAttributesCache
Rna:__Z19PluginsRenderMarkeri
gE:__ZN10HumanTrait18InitializeBoneNameEv
Ajk:__ZL130DrivenRectTransformTracker_t154385424_CustomAttributesCacheGenerator_DrivenRectTransformTracker_Clear_m4190599786____revertValues0P21CustomAttributesCache
KNg:_DefaultComparer__ctor_m899694595_gshared
zfh:__ZN23InterfaceActionInvoker1ItE6InvokeEjP11Il2CppClassP12Il2CppObjectt
Z0a:__ZN14Texture2DArray21AwakeFromLoadThreadedEv
IAb:__Z29Transfer_Blittable_ArrayFieldI18StreamedBinaryReadILb0EEyEvRT_R9ArrayInfoRK23StaticTransferFieldInfo
$hh:_X509CertificateEnumerator_get_Current_m3129374511
aQg:_EqualityComparer_1_get_Default_m875724809_gshared
mhj:__ZNSt3__214__split_bufferIN6il2cpp2vm5Image20EmbeddedResourceDataERNS_9allocatorIS4_EEEC2EjjS7_
mnd:_HorizontalOrVerticalLayoutGroup_get_spacing_m2859152439
d2j:__ZL57DispIdAttribute_t607560947_CustomAttributesCacheGeneratorP21CustomAttributesCache
Zrj:__ZNKSt3__26vectorIN6il2cpp2os10ThreadImpl10APCRequestENS_9allocatorIS4_EEE4dataEv
IIk:_Analyze__ctor_m2896035811
njj:__ZNSt3__29addressofI10KeyWrapperIP18Il2CppGenericClassEEEPT_RS5_
QG:__ZN12AudioManager17RemoveAudioSourceEP11AudioSource
lvh:_GUILayoutEntry_SetVertical_m861127195
lYj:__ZL83RuntimeArray_CustomAttributesCacheGenerator_RuntimeArray____LongLength_PropertyInfoP21CustomAttributesCache
_ag:__Z151RuntimeInvoker_Int32_t2071877448_RuntimeObject_Int32_t2071877448_Int32_t2071877448_RuntimeObject_Int32_t2071877448_DecoderFallbackBufferU26_t3597875002PFvvEPK10MethodInfoPvPS4_
IBh:_AesManaged_get_KeySize_m2773901127
A8d:_Array_InternalArray__get_Item_TisUInt64_t2909196914_m2580870875_gshared
kUi:__ZN15dense_hashtableINSt3__24pairIK10KeyWrapperINS1_IP11Il2CppClassjEEES4_EES6_N6il2cpp8metadata14ArrayClassHashEN14dense_hash_mapIS6_S4_SB_NS6_14EqualsComparerINSA_17ArrayClassCompareEEENS0_9allocatorIS8_EEE9SelectKeyESF_SH_E4swapERSK_
Lji:__ZNKSt3__217__compressed_pairIPNS_4pairIPK10MethodInfoP11Il2CppClassEENS_9allocatorIS7_EEE6secondEv
cJf:_UTF8Decoder_GetChars_m3819660582
iQ:__ZN5physx14PxLightCpuTask12addReferenceEv
Wrf:_X509ChainStatus_set_StatusInformation_m2903201015_AdjustorThunk
Flj:__ZN6il2cpp2gc16GarbageCollector19InitializeFinalizerEv
Zx:__ZN7mecanim8skeleton18CreateSkeletonMaskEjPKNS0_19SkeletonMaskElementERNS_6memory9AllocatorE
UXj:__ZL66RuntimeArray_CustomAttributesCacheGenerator_Array_Sort_m4096942812P21CustomAttributesCache
flc:__ZN10GUIManager10DoGUIEventER10InputEventb
bcf:_Context_get_ClientWriteKey_m2235605337
Esb:__Z35Transfer_Blittable_FixedBufferFieldI24GenerateTypeTreeTransferxEvRK29SerializationCommandArgumentsR31RuntimeSerializationCommandInfo
kJc:_UNITY_TT_Init_Glyph_Loading
pNb:__Z20CalculateSqrDistanceRK8Vector3fRK4AABB
bL:__Z32AudioMixerDuckingProcessCallbackP21UnityAudioEffectStatePfS1_jii
_Tf:_CustomAttributeTypedArgument_GetHashCode_m999147081_AdjustorThunk
M2b:__ZN26CustomRenderTextureManagerD2Ev
_cj:__ZN15dense_hashtableINSt3__24pairIK10KeyWrapperINS1_IPKcS4_EEEiEES6_24NamespaceAndNamePairHashN14dense_hash_mapIS6_iS9_NS6_14EqualsComparerI26NamespaceAndNamePairEqualsEENS0_9allocatorIS8_EEE9SelectKeyESD_SF_E9set_valueEPS8_RKS8_
cue:_FileStream_Read_m3880951166
tFh:_AudioExtensionManager_Update_m3727859914
GH:__ZN12AudioManager8TransferI24GenerateTypeTreeTransferEEvRT_
lia:__Z25GetBytesFromTextureFormat13TextureFormat
P1a:__ZN9Texture3D19UnloadFromGfxDeviceEb
kbj:__ZNSt3__216allocator_traitsINS_9allocatorINS_11__tree_nodeINS_12__value_typeIP24Il2CppReflectionAssemblyPvEES6_EEEEE9__destroyINS_4pairIKS5_S6_EEEEvNS_17integral_constantIbLb0EEERS9_PT_
F3i:__ZN6il2cpp6icalls8mscorlib6System9Threading6Thread20Thread_free_internalEP12Il2CppThreadi
gQk:dynCall_iiffi
Nqb:__Z18Transfer_BlittableI17RemapPPtrTransferLb0EsEvRK29SerializationCommandArgumentsR31RuntimeSerializationCommandInfo
D6d:_Dictionary_2_Do_CopyTo_TisRuntimeObject_TisRuntimeObject_m2625001464_gshared
dbk:__ZL67Math_t2022911894_CustomAttributesCacheGenerator_Math_Min_m105057611P21CustomAttributesCache
BD:__ZN16MecanimAnimation25RegisterIAnimationBindingEPKN5Unity4TypeEiP17IAnimationBinding
k1:__Z32scripting_class_get_assemblyname17ScriptingClassPtr
vNj:__ZNKSt3__210unique_ptrINS_11__tree_nodeINS_12__value_typeIPvxEES3_EENS_22__tree_node_destructorINS_9allocatorIS5_EEEEEptEv
sRc:__ZN11UnityEngine15PlatformWrapper15GetVRDeviceNameEv
mKg:_Dictionary_2_Resize_m2532139610_gshared
yGk:_Mathf_RoundToInt_m1833913145
LOe:_List_1_IndexOf_m2019441835_gshared
WLf:_TimeSpan_Equals_m2029123271_AdjustorThunk
I7h:__ZN6il2cpp2vm13MetadataCache23GetInvokerMethodPointerEPK10MethodInfoPK20Il2CppGenericContext
vta:__ZN9GfxDevice21RegisterNativeTextureE9TextureIDi16TextureDimension
MUd:_CultureInfo__ctor_m456863818
tKj:__ZN6il2cpp6icalls8mscorlib6System10Reflection4Emit11TypeBuilder20create_generic_classEP27Il2CppReflectionTypeBuilder
Zni:__ZNSt3__26vectorIPK10MethodInfoNS_9allocatorIS3_EEE26__swap_out_circular_bufferERNS_14__split_bufferIS3_RS5_EE
OEe:_Enumerator_MoveNext_m2504790928_gshared
axk:__ZL61Slider_t297367283_CustomAttributesCacheGenerator_m_HandleRectP21CustomAttributesCache
MP:__Z60Register_UnityEngine_AudioListener_GetNumExtensionPropertiesv
Ui:_emscripten_glUniformMatrix4fv
cVi:__ZN15dense_hashtableINSt3__24pairIK10KeyWrapperINS1_IP11Il2CppClassjEEES4_EES6_N6il2cpp8metadata14ArrayClassHashEN14dense_hash_mapIS6_S4_SB_NS6_14EqualsComparerINSA_17ArrayClassCompareEEENS0_9allocatorIS8_EEE9SelectKeyESF_SH_E13set_empty_keyERKS8_
Ghb:__ZN12ScriptMapperD2Ev
Z5i:__ZNSt3__212basic_stringIDsNS_11char_traitsIDsEENS_9allocatorIDsEEE11__recommendEj
Nrk:__ZL85AxisEventData_t1524870173_CustomAttributesCacheGenerator_U3CmoveDirU3Ek__BackingFieldP21CustomAttributesCache
RIj:__ZNSt3__29allocatorINS_11__list_nodeIPN6il2cpp5utils10MemoryPool6RegionEPvEEE10deallocateEPS8_j
dZc:_KeyedHashAlgorithm_Dispose_m1864300576
Uhh:_X509Certificate_PEM_m49854707
fie:_PKCS12_get_RNG_m3620550062
Iof:_X509BasicConstraintsExtension__ctor_m3320418592
chh:_ExtendedKeyUsageExtension_Decode_m901297139
reb:__Z32TransferEnumWithNameForceIntSizeI14SafeBinaryRead7FogModeEvRT_RT0_PKc17TransferMetaFlags
Gic:__Z52Register_UnityEngine_RenderTexture_Internal_GetWidthv
rZj:__ZL89SafeWaitHandle_t481461830_CustomAttributesCacheGenerator_SafeWaitHandle__ctor_m1710231470P21CustomAttributesCache
SFj:_GC_check_leaked
Yfb:__ZN9ShaderLab20SerializedSubProgram16TextureParameter8TransferI19StreamedBinaryWriteILb0EEEEvRT_
A0i:__ZNSt3__2neIPcEEbRKNS_11__wrap_iterIT_EES6_
k3d:_Array_InternalArray__Insert_TisVector4_t2243707581_m1643342708_gshared
Cwa:__ZNK7Hash12812PackToUInt32Ev
Hug:_Mask_OnSiblingGraphicEnabledDisabled_m865494155
xlf:_KeysCollection_System_Collections_ICollection_get_SyncRoot_m2289369147
joi:__ZNKSt3__26vectorIPK10MethodInfoNS_9allocatorIS3_EEE17__annotate_deleteEv
$2:__ZNSt3__227__insertion_sort_incompleteIRNS_6__lessI14ObjectLoadDataS2_EEPS2_EEbT0_S6_T_
wU:__ZN11UnityEngine15CloudWebService16SessionContainer8AddEventEPNS0_14CloudEventInfoE
csa:__Z4TrimRKN4core12basic_stringIcNS_20StringStorageDefaultIcEEEES5_
oCg:_Text_set_resizeTextMaxSize_m4034967714
YYj:__ZL55GuidAttribute_t222072359_CustomAttributesCacheGeneratorP21CustomAttributesCache
Tri:__ZNSt3__214__split_bufferIP11Il2CppClassRNS_9allocatorIS2_EEE17__destruct_at_endEPS2_NS_17integral_constantIbLb0EEE
LTf:_CustomAttributeNamedArgument_Equals_m2691468532
_Vj:__ZL74String_t_CustomAttributesCacheGenerator_String_Concat_m3881798623____args0P21CustomAttributesCache
m5j:__ZL103CryptoConfig_t896479599_CustomAttributesCacheGenerator_CryptoConfig_CreateFromName_m2169102076____args1P21CustomAttributesCache
S$a:__ZN10VertexData8TransferI14SafeBinaryReadEEvRT_
VI:__ZN4FMOD8ChannelI8setDelayE14FMOD_DELAYTYPEjj
dGd:_Stack__ctor_m2410583781
_Gj:_GC_malloc_atomic
jTf:_Default_GetBetterMethod_m4255740863
NUf:_ConstructorBuilder_GetILGenerator_m1731893569
phj:__ZNSt3__214__split_bufferIN6il2cpp2vm5Image20EmbeddedResourceDataERNS_9allocatorIS4_EEED2Ev
l$:__ZL20SortItemByInstanceIDRKN18AwakeFromLoadQueue4ItemES2_
RZf:_TypeBuilder_create_runtime_class_m2719530260
z$c:_RNGCryptoServiceProvider_RngClose_m2921734810
jy:__ZNK34AnimationStateMachineMixerPlayable26GetInterruptedPosePlayableEv
oUc:__ZN20UnityConnectSettings8TransferI24GenerateTypeTreeTransferEEvRT_
CA:__ZN34BlobWriteTransferSTLStyleArrayImplI22OffsetPtrArrayTransferIbEEclERS1_17TransferMetaFlagsR9BlobWrite
kek:__ZL199U3CCreateWhereIteratorU3Ec__Iterator1D_1_t2523986802_CustomAttributesCacheGenerator_U3CCreateWhereIteratorU3Ec__Iterator1D_1_System_Collections_Generic_IEnumeratorU3CTSourceU3E_get_Current_m517722874P21CustomAttributesCache
pae:_SimpleCollator_IsHalfKana_m4255579023
njf:_InternalAsyncResult_get_Count_m1291942796
jSe:_Collection_1_System_Collections_IList_Contains_m3365884450_gshared
Xxj:__ZNK15dense_hashtableINSt3__24pairIK10KeyWrapperIPK19Il2CppGenericMethodEP10MethodInfoEES6_N6il2cpp8metadata23Il2CppGenericMethodHashEN14dense_hash_mapIS6_S9_SD_NS6_14EqualsComparerINSC_26Il2CppGenericMethodCompareEEENS0_9allocatorISA_EEE9SelectKeyESH_SJ_E10test_emptyERK30dense_hashtable_const_iteratorISA_S6_SD_SL_SH_SJ_E
KAa:__Z16FlaggedAsSkippedIN4core12basic_stringIcNS0_20StringStorageDefaultIcEEEEEbRK13FileEntryInfoRKT_19FileEnumerationFlag
fZe:_Collection_1_set_Item_m3440986310_gshared
V4:__ZL31InitializeRendererUpdateManagerPv
Hfd:_BaseMeshEffect__ctor_m2843647600
Azi:__ZNKSt3__26vectorINS_12basic_stringIcNS_11char_traitsIcEENS_9allocatorIcEEEENS4_IS6_EEE4sizeEv
ndg:__Z106RuntimeInvoker_RuntimeObject_Int16_t4041245914_RuntimeObject_BooleanU26_t3168250738_BooleanU26_t3168250738PFvvEPK10MethodInfoPvPS4_
b_i:__ZNSt3__213__vector_baseIP12Il2CppThreadN6il2cpp2gc9AllocatorIS2_EEE17__destruct_at_endEPS2_
dhk:__ZL89Input_t1785128008_CustomAttributesCacheGenerator_Input_get_imeCompositionMode_m1132899721P21CustomAttributesCache
OO:__ZN13AudioListener12CleanupClassEv
Udf:_ClientSessionInfo_Dispose_m2571428025
ssd:_LayoutGroup_DelayedSetDirty_m4276695617
ehf:_RecordProtocol_decryptRecordFragment_m2510859489
Zwh:_InvokableCall_1__ctor_m975753341_gshared
gwj:__ZN6il2cpp2os6ThreadC2Ev
sad:_BaseRaycaster_get_sortOrderPriority_m3340181311
B5a:__ZN11TimeManager8TransferI19StreamedBinaryWriteILb0EEEEvRT_
Kue:_DelegatePInvokeWrapper_ReadDelegate_t3184826381
CLj:__ZNSt3__216allocator_traitsINS_9allocatorINS_11__tree_nodeINS_12__value_typeINS_12basic_stringIcNS_11char_traitsIcEENS1_IcEEEEPFvvEEEPvEEEEE8allocateERSE_j
eek:__ZL91HashSet_1_t2624254809_CustomAttributesCacheGenerator_HashSet_1_OnDeserialization_m627602129P21CustomAttributesCache
REc:_compare_uni_maps
Vrf:_X509ChainStatus_set_Status_m4288653744_AdjustorThunk
dSc:__ZN11UnityEngine15PlatformWrapper27GetGraphicsCapsSupportFlagsEv
CLc:__ZNSt3__218__insertion_sort_3IRPFbPN2UI6CanvasES3_EPS3_EEvT0_S8_T_
qWj:__ZL80Decimal_t724701077_CustomAttributesCacheGenerator_Decimal_op_Explicit_m714968249P21CustomAttributesCache
_Pd:_Decimal_Equals_m1115043331
fwb:__ZN12NativeBufferI16Converter_StringE15SetupForWritingER9ArrayInfo
red:_StandaloneInputModule_DeactivateModule_m2952848884
MTk:___cxa_end_catch__wrapper
uhj:__ZNKSt3__217__compressed_pairIPN6il2cpp2vm5Image20EmbeddedResourceDataERNS_9allocatorIS4_EEE5firstEv
lJg:_ValueCollection_System_Collections_Generic_ICollectionU3CTValueU3E_Clear_m231380274_gshared
tbd:_Entry__ctor_m1176697586
qse:_BinaryReader_ReadUInt32_m1363572147
mak:__ZL79Convert_t2607082565_CustomAttributesCacheGenerator_Convert_ToUInt32_m3391339025P21CustomAttributesCache
fUh:__ZNSt3__216allocator_traitsINS_9allocatorIPK10Il2CppTypeEEE7destroyIS4_EEvRS5_PT_
nDb:__ZN13MonoBehaviour22DoScriptRebuildWarningEv
Ldc:__Z38Camera_CUSTOM_INTERNAL_CALL_RaycastTryP12Il2CppObjectRK3Rayfi
xCg:_Text_get_verticalOverflow_m3134063496
R$i:__ZN6il2cpp6icalls8mscorlib6System5Array13ClearInternalEP11Il2CppArrayii
n5b:__ZZL23RegisterLightPropertiesR22GenericPropertyBindingEN22Wrapper_LightSpotAngle13GetFloatValueEPv
e6g:_GCHandle_get_Target_m2327042781
Koc:__ZN8JSONRead21TransferSTLStyleArrayI13dynamic_arrayI11KeyframeTplIfELj4EEEEvRT_17TransferMetaFlags
Cmj:__ZNSt3__216allocator_traitsINS_9allocatorINS_11__tree_nodeINS_12__value_typeIjN6il2cpp2os17SocketHandleEntryEEEPvEEEEE9__destroyINS_4pairIKjS6_EEEEvNS_17integral_constantIbLb0EEERSA_PT_
Obg:__Z50RuntimeInvoker_Char_t3454481338_Single_t2076509932PFvvEPK10MethodInfoPvPS4_
PWe:_Collection_1_GetEnumerator_m1417525918_gshared
IPk:_llvm_cttz_i32
bpf:_PublicKey_DecodeDSA_m1169363495
imc:__ZN11IMGUIModule25GetGUIStyleScriptingClassEv
JHc:_tt_get_interface
v5d:_Array_Sort_TisRuntimeObject_m143182644_gshared
SDf:_AsymmetricKeyExchangeFormatter__ctor_m3362140205
W2i:__ZN6il2cpp5utils9PathUtils7CombineIcEENSt3__212basic_stringIT_NS3_11char_traitsIS5_EENS3_9allocatorIS5_EEEERKSA_SC_
olf:_NameObjectCollectionBase_BaseGet_m667273025
hag:__Z104RuntimeInvoker_RuntimeObject_Byte_t3683104436_RuntimeObject_SByte_t454417549_RuntimeObject_RuntimeObjectPFvvEPK10MethodInfoPvPS4_
Bij:__ZNK14dense_hash_setI10KeyWrapperIP18Il2CppGenericClassEN6il2cpp8metadata22Il2CppGenericClassHashENS3_14EqualsComparerINS5_25Il2CppGenericClassCompareEEENSt3__29allocatorIS3_EEE8IdentityclERKS3_
Prc:__ZN9JSONWrite8TransferI13dynamic_arrayIiLj4EEEEvRT_PKc17TransferMetaFlags
Qhk:__ZL82Material_t193706927_CustomAttributesCacheGenerator_Material_SetIntImpl_m1039479734P21CustomAttributesCache
Kgj:__ZNSt3__217__compressed_pairIjNS_19__map_value_compareIP24Il2CppReflectionAssemblyNS_12__value_typeIS3_PvEENS_4lessIS3_EELb1EEEE6secondEv
g7b:__ZN13PlayableGraph21InvalidateMultithreadEv
MG:__ZL16FMOD_ErrorString11FMOD_RESULT_361
p_:__Z18ConvertUTF16toUTF8PPKtS0_PPhS2_15ConversionFlags
ewh:_GUIStyleState__ctor_m3673085649
kNf:_TypeLoadException__ctor_m1903359728
sOh:__ZL16my_g_bit_nth_msfj
jHg:_Transform_1_BeginInvoke_m3014766640_gshared
AHi:__ZNSt3__29allocatorINS_4pairIK10KeyWrapperIPK10Il2CppTypeEjEEE10deallocateEPS8_j
cYc:_KeySizes__ctor_m3526899007
PVi:__ZN15dense_hashtableINSt3__24pairIK10KeyWrapperIP11Il2CppClassES4_EES5_N6il2cpp8metadata16SZArrayClassHashEN14dense_hash_mapIS5_S4_SA_NS5_14EqualsComparerINS9_19SZArrayClassCompareEEENS0_9allocatorIS7_EEE9SelectKeyESE_SG_E12expand_arrayEjN21dense_hash_map_traits17integral_constantIbLb0EEE
gne:_Int16_System_IConvertible_ToInt32_m191782913_AdjustorThunk
q4i:__ZNKSt3__221__tree_const_iteratorINS_12basic_stringIcNS_11char_traitsIcEENS_9allocatorIcEEEEPNS_11__tree_nodeIS6_PvEEiEptEv
dlk:__ZL69ArgumentCache_t4810721_CustomAttributesCacheGenerator_m_FloatArgumentP21CustomAttributesCache
iTe:_Collection_1_CopyTo_m1578267616_gshared
kFf:_EncoderReplacementFallback__ctor_m2208438262
ALb:__Z23SetupStereoFlareElementP11FlareVertexRK8Vector2fS3_S3_RK11ColorRGBA32RK10Matrix4x4fRK8Vector3fb
lfg:__Z91RuntimeInvoker_X509ChainStatusFlags_t480677120_RuntimeObject_RuntimeObject_SByte_t454417549PFvvEPK10MethodInfoPvPS4_
Ttj:__ZNSt3__24pairINS_15__tree_iteratorINS_12basic_stringIcNS_11char_traitsIcEENS_9allocatorIcEEEEPNS_11__tree_nodeIS7_PvEEiEEbEC2ISC_RbvEEOT_OT0_
nVh:__ZN6il2cpp2vm5Class15GetInstanceSizeEPK11Il2CppClass
w$h:__ZNK10KeyWrapperIPK17Il2CppGenericInstEcvRKS2_Ev
Hmg:__Z37RuntimeInvoker_Enumerator_t3806193287PFvvEPK10MethodInfoPvPS4_
WKi:__ZNSt3__24swapIN10KeyWrapperINS_4pairIPK11Il2CppImageP11Il2CppClassEEE14EqualsComparerINS_8equal_toIS8_EEEEEENS_9enable_ifIXaasr21is_move_constructibleIT_EE5valuesr18is_move_assignableISF_EE5valueEvE4typeERSF_SI_
kAk:_UnmarshalledAttribute__ctor_m2832569902
sa:invoke_iiiifiiii
Nnh:_RectTransform_set_anchoredPosition_m4223859262
sNg:_Dictionary_2_CopyTo_m1495142643_gshared
uzh:_EventFunction_1_BeginInvoke_m3064802067_gshared
rnh:_RectOffset_get_right_m494096402
OUi:__ZNK15dense_hashtableINSt3__24pairIK10KeyWrapperINS1_IP11Il2CppClassjEEES4_EES6_N6il2cpp8metadata14ArrayClassHashEN14dense_hash_mapIS6_S4_SB_NS6_14EqualsComparerINSA_17ArrayClassCompareEEENS0_9allocatorIS8_EEE9SelectKeyESF_SH_E12test_deletedERK30dense_hashtable_const_iteratorIS8_S6_SB_SJ_SF_SH_E
Wse:_Directory_GetFiles_m4036267478
sSd:_Enum_System_IConvertible_ToType_m2669300536
Gke:_NumberFormatInfo_get_CurrencyNegativePattern_m3972163809
Goa:__ZL19BlitFramebufferImplRN4gles23BlitFramebufferDrawQuadER9GfxDevice9TextureIDRK8Vector4f
pqb:__Z18Transfer_BlittableI17RemapPPtrTransferLb0EhEvRK29SerializationCommandArgumentsR31RuntimeSerializationCommandInfo
iIi:__ZN15dense_hashtableINSt3__24pairIK10KeyWrapperIPK10Il2CppTypeEjEES6_N6il2cpp8metadata14Il2CppTypeHashEN14dense_hash_mapIS6_jSB_NS6_14EqualsComparerINSA_26Il2CppTypeEqualityComparerEEENS0_9allocatorIS8_EEE9SelectKeyESF_SH_E4findERS7_
lhg:__Z83RuntimeInvoker_Void_t1841601450_QuaternionU26_t4187826802_QuaternionU26_t4187826802PFvvEPK10MethodInfoPvPS4_
Uph:_StackTraceUtility_ExtractStringFromExceptionInternal_m234524721
rhi:__ZNSt3__27forwardIP6pollfdEEOT_RNS_16remove_referenceIS3_E4typeE
$$e:_ReadOnlyCollection_1_System_Collections_IList_Add_m2333231354_gshared
yyc:_UNITY_FT_List_Add
kZf:_OpCodes__cctor_m939885911
j3b:__ZN14Texture2DArray11InitTextureEiii13TextureFormatb
xCk:_CustomYieldInstruction__ctor_m1440815618
X9e:_PKCS1_RSASP1_m1748738009
hVh:__ZNSt3__228__libcpp_compressed_pair_impIPPK10Il2CppTypeNS_9allocatorIS3_EELj2EEC2ES4_
Jhf:_RSASslSignatureDeformatter_SetHashAlgorithm_m4048969080
vhk:__ZL92AnimationCurve_t3306541151_CustomAttributesCacheGenerator_AnimationCurve_Cleanup_m3596170191P21CustomAttributesCache
Xgh:_UriParser_InitializeAndValidate_m251943319
M1c:_SymmetricAlgorithm_set_Padding_m3081984460
t3h:__ZNSt3__29allocatorINS_4pairIK10KeyWrapperIN6il2cpp5utils13dynamic_arrayIPK10Il2CppTypeLj4EEEEPFvvEEEE8allocateEjPKv
ISi:__ZN15dense_hashtableINSt3__24pairIK10KeyWrapperINS1_IPK11Il2CppImageP11Il2CppClassEEEjEES9_17ReflectionMapHashIS8_EN14dense_hash_mapIS9_jSD_NS9_14EqualsComparerINS0_8equal_toIS8_EEEENS0_9allocatorISB_EEE9SelectKeyESI_SK_E14squash_deletedEv
cQj:__ZNSt3__228__libcpp_compressed_pair_impINS_15__tree_end_nodeIPNS_16__tree_node_baseIPvEEEENS_9allocatorINS_11__tree_nodeIPFvvES3_EEEELj2EEC2Ev
k5a:__ZN9InputAxis8TransferI18StreamedBinaryReadILb0EEEEvRT_
FPb:__ZNK6Camera26GetStereoSingleCullEnabledEv
qri:__ZNSt3__29allocatorIP11Il2CppClassE10deallocateEPS2_j
gCf:_StreamingContext_t1417235061_marshal_pinvoke_back
D8a:__Z14resize_trimmedINSt3__26vectorIN4core12basic_stringIcNS2_20StringStorageDefaultIcEEEE13stl_allocatorIS6_L18MemLabelIdentifier13ELi16EEEEEvRT_j
pAd:_ArrayList_RemoveAt_m2578928333
vnb:__Z18Transfer_BlittableI14SafeBinaryReadLb0EaEvRK29SerializationCommandArgumentsR31RuntimeSerializationCommandInfo
xqk:__ZL103UISystemProfilerApi_t845863050_CustomAttributesCacheGenerator_UISystemProfilerApi_AddMarker_m3722606812P21CustomAttributesCache
vxh:_InvokableCall_3__ctor_m4270240248_gshared
f$e:_ReadOnlyCollection_1_System_Collections_IList_set_Item_m1233322304_gshared
jhh:_GeneralNames_get_DNSNames_m2721668874
Abg:__Z76RuntimeInvoker_Boolean_t3825574718_TimeSpan_t3430258949_TimeSpan_t3430258949PFvvEPK10MethodInfoPvPS4_
iSd:_Enum_System_IConvertible_ToByte_m38374586
P_e:_ReadOnlyCollection_1_System_Collections_Generic_IListU3CTU3E_RemoveAt_m1592158292_gshared
VRf:_PlatformNotSupportedException__ctor_m3301654967
YSk:_emscripten_glFrustum__wrapper
whf:_ReceiveRecordAsyncResult_get_CompletedWithError_m2670396551
Xsg:__Z37RuntimeInvoker_Enumerator_t2983962278PFvvEPK10MethodInfoPvPS4_
LPd:_Decimal_Equals_m1798565377
yLa:__ZN17GlobalGameManager8TransferI24GenerateTypeTreeTransferEEvRT_
Ukg:__Z38RuntimeInvoker_ContentType_t1028629049PFvvEPK10MethodInfoPvPS4_
wfk:__ZL95Component_t3819376471_CustomAttributesCacheGenerator_Component_GetComponentInParent_m1617315419P21CustomAttributesCache
qvk:__ZL66InputField_t1631627530_CustomAttributesCacheGenerator_m_CaretColorP21CustomAttributesCache
efb:__ZN15SerializeTraitsINSt3__26vectorIN9ShaderLab20SerializedSubProgram15MatrixParameterENS0_9allocatorIS4_EEEEE8TransferI24GenerateTypeTreeTransferEEvRS7_RT_
ZVf:_TypeBuilder_check_created_m2929267877
WIk:_ClickCount__ctor_m2072851946
_dg:__Z121RuntimeInvoker_Int64_t909078037_Int32_t2071877448_Int32_t2071877448_Int32_t2071877448_Int32_t2071877448_Int32_t2071877448PFvvEPK10MethodInfoPvPS4_
MJb:__Z20SyncFenceCullResultsR11CullResults
Sqa:__ZN15TextureTFMethod20IsBoneCountSupportedEi
kuj:__ZNSt3__27forwardIPNS_11__tree_nodeINS_12basic_stringIcNS_11char_traitsIcEENS_9allocatorIcEEEEPvEEEEOT_RNS_16remove_referenceISB_E4typeE
tPa:__ZN14RenderSettings23VirtualRedirectTransferER24GenerateTypeTreeTransfer
rMd:_DateTime_System_IConvertible_ToSByte_m2575078084_AdjustorThunk
Prb:__Z22TransferField_NonArrayI17RemapPPtrTransfer27Converter_SimpleNativeClassI8GUIStyleEEvRK23StaticTransferFieldInfoR31RuntimeSerializationCommandInfoRT0_
T1b:__ZNK17AnimationCurveTplIfE20EvaluateWithoutCacheEfRf
wwj:__ZN6il2cpp2os6Thread12QueueUserAPCEPFvPvES2_
KPa:__ZN19ShaderPropertySheet10SetTextureERK23FastTexturePropertyNameP7Texture
DYd:_Array_InternalArray__IEnumerable_GetEnumerator_TisDictionaryEntry_t3048875398_m3498834924_gshared
TUe:_Collection_1_IsValidItem_m1304951912_gshared
Y8b:__ZN4Mesh10SetNormalsEPK8Vector3fj
d1f:_PropertyInfo__ctor_m1808219471
FId:_Convert_ToDateTime_m4161927553
dWf:_TypeBuilder_GetConstructors_m774120094
rr:__ZN17AnimationCurveTplIfE8TransferI14SafeBinaryReadEEvRT_
s7i:__ZN6il2cpp6icalls8mscorlib6System4Type15MakeGenericTypeEP20Il2CppReflectionTypeP11Il2CppArray
G8f:__Z75RuntimeInvoker_Boolean_t3825574718_RuntimeObject_MonoIOErrorU26_t1029615899PFvvEPK10MethodInfoPvPS4_
qfh:_RegularExpression_set_GroupCount_m2991393456
GMd:_Calendar_get_EraNames_m452820602
r_a:__ZNSt3__26vectorIN15QualitySettings14QualitySettingENS_9allocatorIS2_EEE6assignIPS2_EENS_9enable_ifIXaasr21__is_forward_iteratorIT_EE5valuesr16is_constructibleIS2_NS_15iterator_traitsIS9_E9referenceEEE5valueEvE4typeES9_S9_
fqi:__ZNSt3__24swapIPN6il2cpp6icalls8mscorlib6System12PropertyPairEEENS_9enable_ifIXaasr21is_move_constructibleIT_EE5valuesr18is_move_assignableIS8_EE5valueEvE4typeERS8_SB_
mwa:__ZNK5Unity9Component10GetEnabledEv
pKb:__ZNK19ShaderPropertySheet11HasPropertyERKN9ShaderLab16FastPropertyNameE
Fij:__ZN15dense_hashtableI10KeyWrapperIP18Il2CppGenericClassES3_N6il2cpp8metadata22Il2CppGenericClassHashEN14dense_hash_setIS3_S6_NS3_14EqualsComparerINS5_25Il2CppGenericClassCompareEEENSt3__29allocatorIS3_EEE8IdentityESA_SD_E9set_valueEPS3_RKS3_
cMd:_DateTime_System_IConvertible_ToByte_m2670443498_AdjustorThunk
MIg:_ValueCollection_System_Collections_Generic_ICollectionU3CTValueU3E_Contains_m3650367146_gshared
nui:_il2cpp_class_get_image
xrj:__ZNSt3__213__vector_baseIN6il2cpp2os10ThreadImpl10APCRequestENS_9allocatorIS4_EEE9__end_capEv
F2:__Z16AsyncReadRequestP16AsyncReadCommand
eck:__ZL81BigInteger_t925946153_CustomAttributesCacheGenerator_BigInteger__ctor_m4013661868P21CustomAttributesCache
RRh:__ZNK15dense_hashtableINSt3__24pairIK10KeyWrapperIPK22Il2CppGenericParameterEP11Il2CppClassEES6_N6il2cpp5utils11PointerHashIS4_EEN14dense_hash_mapIS6_S9_SE_NS6_14EqualsComparerINS0_8equal_toIS5_EEEENS0_9allocatorISA_EEE9SelectKeyESJ_SL_E12test_deletedEj
O7e:_BigInteger_op_Addition_m1734797151
G0a:__ZN15dense_hashtableINSt3__24pairIKN4core12basic_stringIcNS2_20StringStorageDefaultIcEEEE13dynamic_arrayI4PPtrI6SpriteELj4EEEES6_20StringHash32FunctionIS6_EN14dense_hash_mapIS6_SC_SF_NS0_8equal_toIS6_EE13stl_allocatorISD_L18MemLabelIdentifier81ELi16EEE9SelectKeyESI_SL_E4findERS7_
ULi:__ZNSt3__24pairIK10KeyWrapperINS0_IPK12PropertyInfoP11Il2CppClassEEEjEC2IS7_jEEONS0_IT_T0_EEPNS_9enable_ifIXaasr14is_convertibleISC_S9_EE5valuesr14is_convertibleISD_jEE5valueEvE4typeE
QTe:_Collection_1_System_Collections_IList_set_Item_m3488446830_gshared
yWf:_EnumBuilder_CreateNotSupportedException_m62763134
_Vc:__ZNK12HeaderHelper3GetERKN4core12basic_stringIcNS0_20StringStorageDefaultIcEEEE
lqf:_X509Chain_CheckRevocation_m2480313486
Mye:_Math_Log_m3371716878
b5a:__ZN9InputAxis8TransferI14SafeBinaryReadEEvRT_
A$:__ZNK21ExecutionOrderManager30GetCustomAwakeFromLoadQueueForEPKN5Unity4TypeE
lBj:__ZNSt3__213__vector_baseIPK11Il2CppClassNS_9allocatorIS3_EEE17__destruct_at_endEPS3_
AVc:__Z27RegisterModule_UnityConnectv
VDd:_Hashtable__ctor_m4280223555
N1f:_ParameterInfo_get_IsRetval_m1881464570
oyf:_RealProxy__ctor_m3041043303
doe:_NumberFormatter_Init_m2654758994
nZc:_HMACSHA1__ctor_m1168389339
Hci:__ZNKSt3__211__wrap_iterIPK6pollfdE4baseEv
uci:__ZNSt3__211__wrap_iterIPP17Il2CppAsyncResultEpLEi
krj:__ZNSt3__228__libcpp_compressed_pair_impIPN6il2cpp2os10ThreadImpl10APCRequestENS_9allocatorIS4_EELj2EEC2ES5_
nK:__ZN10ObjectPoolIN4FMOD12ChannelGroupENS0_13ChannelGroupIEE7SetSizeEi
ide:_PrimalityTest_BeginInvoke_m966469054
EAk:_Bounds_get_max_m1939845278_AdjustorThunk
c2e:_ReadOnlyCollection_1_System_Collections_Generic_ICollectionU3CTU3E_Clear_m1785953911_gshared
gQf:_UInt64_System_IConvertible_ToInt16_m2797150165_AdjustorThunk
k8d:_Array_InternalArray__get_Item_TisLabelData_t3712112744_m863115768_gshared
Tpe:_Int32_Parse_m753946802
Lpk:__ZL113GUITargetAttribute_t863467180_CustomAttributesCacheGenerator_GUITargetAttribute_GetGUITargetAttrValue_m3706077059P21CustomAttributesCache
_V:__Z22ValidateTlsfAllocationPvjiS_
AFh:_AudioConfigurationChangeHandler_Invoke_m653824108
SOe:_List_1_RemoveAt_m2331128844_gshared
SSi:__ZN14dense_hash_mapI10KeyWrapperINSt3__24pairIPK9EventInfoP11Il2CppClassEEEj17ReflectionMapHashIS8_ENS9_14EqualsComparerINS1_8equal_toIS8_EEEENS1_9allocatorINS2_IKS9_jEEEEE15set_deleted_keyERSH_
n_f:_UnmanagedMarshal_ToMarshalAsAttribute_m3695569337
fpb:__Z14resize_trimmedINSt3__26vectorI17AnimationCurveTplIfE13stl_allocatorIS3_L18MemLabelIdentifier1ELi16EEEEEvRT_j
jVb:__ZN25CameraStackRenderingState19SetupLastEyeCamerasERK11CameraStack
LCa:__Z12GUIDToStringRK9UnityGUID
Rrd:_LayoutElement_get_minHeight_m2070403283
nG:__ZN11SoundHandleC2ERKS_
$w:__ZN17AnimationPlayableC2E18DirectorPlayerType
Q9e:_RSASslSignatureFormatter__ctor_m2530528184
U4h:__ZNK6il2cpp5utils11collections13ArrayValueMapIPK10Il2CppType17Il2CppInteropData26InteropDataToTypeConverterNS_8metadata14Il2CppTypeLessENS8_26Il2CppTypeEqualityComparerEE10find_firstERKS5_
LLa:__ZN15SerializeTraitsI12fixed_bitsetILi24EjEE8TransferI18StreamedBinaryReadILb0EEEEvRS1_RT_
Rli:__ZNSt3__23setIP11Il2CppClassNS_4lessIS2_EENS_9allocatorIS2_EEE5beginEv
Pce:_BigInteger_op_Addition_m1196561843
Tzi:__ZNSt3__27forwardIRKN6il2cpp2vm17TypeNameParseInfoEEEOT_RNS_16remove_referenceIS6_E4typeE
hZb:__Z29StdTemplateConversionFunctionItxEbPvR14SafeBinaryRead
CNh:_CanvasRenderer_INTERNAL_CALL_GetColor_m3192682614
F8g:_FormatterData__ctor_m3974986124
s$j:__ZL64FileNotFoundException_t4200667904_CustomAttributesCacheGeneratorP21CustomAttributesCache
L_c:_RijndaelManagedTransform_get_CanReuseTransform_m3735256596
Wfk:__ZL97GameObject_t1756533147_CustomAttributesCacheGenerator_GameObject_GetComponentInParent_m1178052983P21CustomAttributesCache
Klj:__ZN14dense_hash_mapI10KeyWrapperIP12Il2CppObjectEN6il2cpp2gc9CachedCCWENS4_5utils11PointerHashIS1_EENS3_14EqualsComparerINSt3__28equal_toIS2_EEEENSB_9allocatorINSB_4pairIKS3_S6_EEEEE3endEv
rDd:_Comparer__cctor_m1327316974
Rse:_MonoIO_ExistsFile_m1421941572
QNd:_DateTime_op_GreaterThanOrEqual_m3818963848
av:__ZN17AnimationPlayable18DeallocateBindingsEv
SWb:__ZN6Camera25StandaloneRenderToCubemapEP7TextureiPFvPK9SceneNodePK4AABBR9IndexListPvESA_j
Lid:_DefaultControls_SetDefaultTextValues_m1707718380
Med:_TouchInputModule_UseFakeInput_m2112019004
Lad:_EventSystem_get_baseEventDataCache_m4294741599
y8j:__ZL89AppDomain_t2719102437_CustomAttributesCacheGenerator_assembly_resolve_in_progress_refonlyP21CustomAttributesCache
yPa:__ZN14RenderSettings18TransferDeprecatedI14SafeBinaryReadEEvRT_
CX:__ZN12TLSAllocatorI14StackAllocatorE8AllocateEji
A0:__ZN16ScriptingManager18GetMonoScriptCacheEi
W5f:__Z62RuntimeInvoker_Void_t1841601450_RuntimeObject_Int64_t909078037PFvvEPK10MethodInfoPvPS4_
Gjk:__ZL104RectTransform_t3349966182_CustomAttributesCacheGenerator_RectTransform_INTERNAL_get_anchorMax_m190830848P21CustomAttributesCache
jXh:__ZN15dense_hashtableINSt3__24pairIK10KeyWrapperIPK11Il2CppClassEPKcEES6_N6il2cpp5utils11PointerHashIS3_EEN14dense_hash_mapIS6_S9_SE_NS6_14EqualsComparerINS0_8equal_toIS5_EEEENS0_9allocatorISA_EEE9SelectKeyESJ_SL_E15set_deleted_keyERKSA_
Smd:_GridLayoutGroup_CalculateLayoutInputHorizontal_m2355123124
cek:__ZL84Locale_t4255929017_CustomAttributesCacheGenerator_Locale_GetText_m512920887____args1P21CustomAttributesCache
Cnb:__Z18Transfer_BlittableI14SafeBinaryReadLb1EyEvRK29SerializationCommandArgumentsR31RuntimeSerializationCommandInfo
omk:__ZL89U3CInvokeMessageIdSubscribersU3Ec__AnonStorey0_t1899782350_CustomAttributesCacheGeneratorP21CustomAttributesCache
nRj:__ZNKSt3__228__libcpp_compressed_pair_impIPNS_12basic_stringIDsNS_11char_traitsIDsEENS_9allocatorIDsEEEERNS4_IS6_EELj0EE5firstEv
Loc:__ZN8JSONRead8TransferIfEEvRT_PKc17TransferMetaFlagsb
Eei:__ZNSt3__216allocator_traitsINS_9allocatorIP12Il2CppThreadEEE10deallocateERS4_PS3_j
hSg:_U3CGetEnumeratorU3Ec__Iterator0_Reset_m2980566576_gshared
W2e:_ReadOnlyCollection_1_System_Collections_ICollection_get_IsSynchronized_m4063596282_gshared
ewd:__ZN21InterfaceFuncInvoker2IP12Il2CppObjectP6Type_tS1_E6InvokeEjP11Il2CppClassS1_S3_S1_
jOk:__ZNSt3__212basic_stringIcNS_11char_traitsIcEENS_9allocatorIcEEE6appendEPKcj
n0j:__ZL54TypeBuilder_t3308873219_CustomAttributesCacheGeneratorP21CustomAttributesCache
yla:__ZN6prcoreL17RemapGenericFloatI18TexFormatARGBFloat17TexFormatRGBAHalfEEvPKNS_9InnerInfoE
GVe:_Collection_1_CheckWritable_m691269733_gshared
LL:__ZN11AudioSource21ApplyCachedParametersE12SoundChannel
Tsg:__Z54RuntimeInvoker_Void_t1841601450_IntPtr_t_RuntimeObjectPFvvEPK10MethodInfoPvPS4_
aXf:_GenericTypeParameterBuilder_GetAttributeFlagsImpl_m3338182267
GQ:__ZN13Simd4iFactoryIN6detail9FourTupleEEC2Eiiii
hxe:_SynchronizedReader__ctor_m1408327515
okh:_X509Store_LoadCrl_m1146720614
Log:__Z59RuntimeInvoker_Int32_t2071877448_KeyValuePair_2_t3749587448PFvvEPK10MethodInfoPvPS4_
W3e:_ReadOnlyCollection_1_System_Collections_IList_Clear_m1858417639_gshared
YEd:_Slot_t2022531261_marshal_pinvoke_cleanup
g6h:__ZNSt3__2eqERKNS_20__map_const_iteratorINS_21__tree_const_iteratorINS_12__value_typeIP11Il2CppClassS4_EEPNS_11__tree_nodeIS5_PvEEiEEEESD_
oyh:_UnityAction_3_Invoke_m1025098032_gshared
eYa:__ZN15SerializeTraitsI33EnlightenTerrainChunksInformationE8TransferI14SafeBinaryReadEEvRS0_RT_
tbi:__ZNSt3__228__libcpp_compressed_pair_impIP6pollfdNS_9allocatorIS1_EELj2EE6secondEv
ZKh:_Predicate_1__ctor_m1567825400_gshared
Y3b:__ZNK32RendererMaterialAnimationBinding9BindValueER6ObjectRKN11UnityEngine9Animation14GenericBindingERNS3_10BoundCurveE
FUa:__Z13GetIAnimationv
Hja:__ZL18stbir__support_onef
GIe:_List_1_System_Collections_IList_Remove_m2040310137_gshared
IAk:_Bounds_SetMinMax_m2094075031_AdjustorThunk
hbh:_Match_get_Regex_m3526002767
D$j:__ZL49Stream_t3255436806_CustomAttributesCacheGeneratorP21CustomAttributesCache
wqc:__Z26Transfer_UnityEngineObjectI9JSONWriteLb0EEvRK29SerializationCommandArgumentsR31RuntimeSerializationCommandInfo
Sfi:__ZNSt3__26vectorIP17Il2CppAsyncResultN6il2cpp2gc9AllocatorIS2_EEE24__RAII_IncreaseAnnotator6__doneEv
$Sa:__ZNSt3__26vectorIN4core12basic_stringIcNS1_20StringStorageDefaultIcEEEE13stl_allocatorIS5_L18MemLabelIdentifier1ELi16EEE6assignINS_11__wrap_iterIPS5_EEEENS_9enable_ifIXaasr21__is_forward_iteratorIT_EE5valuesr16is_constructibleIS5_NS_15iterator_traitsISF_E9referenceEEE5valueEvE4typeESF_SF_
nPf:_UInt32_System_IConvertible_ToInt16_m2251335934_AdjustorThunk
KMc:__ZNSt3__27__sort5IRNS_6__lessIN2UI14DepthSortEntryES3_EEPS3_EEjT0_S7_S7_S7_S7_T_
cQh:__ZNSt3__212__deallocateEPv
Qvd:_Boolean_System_IConvertible_ToType_m3990189691
pLi:__ZNSt3__218uninitialized_copyIPNS_4pairIK10KeyWrapperINS1_IPK11Il2CppImageP11Il2CppClassEEEjEESC_EET0_T_SE_SD_
xJk:_LetStart_SelectScene_m3484372922
Ba:invoke_vdd
B8:__ZN14dense_hash_mapIN4core12basic_stringIcNS0_20StringStorageDefaultIcEEEE13dynamic_arrayI4PPtrI6SpriteELj4EE20StringHash32FunctionIS4_ENSt3__28equal_toIS4_EE13stl_allocatorINSC_4pairIKS4_S9_EEL18MemLabelIdentifier81ELi16EEE15set_deleted_keyERSH_
w_g:_InternalEnumerator_1_Dispose_m3838127340_AdjustorThunk
IRd:_Double_System_IConvertible_ToUInt32_m624993430
hsk:__ZL89PointerEventData_t1599784723_CustomAttributesCacheGenerator_U3CdraggingU3Ek__BackingFieldP21CustomAttributesCache
jKc:__ZZ29InitializeTextRenderingModulevEN27cleanupAfterLoadRegistrator7ForwardEv
SKf:_Scheduler_Add_m376749205
zw:__ZN27AnimationLayerMixerPlayable24ProcessAnimationLayerMixEP33AnimationPlayableEvaluationOutputP35AnimationPlayableEvaluationConstantP32AnimationPlayableEvaluationInputS1_if
WUb:__Z29PluginsIssueRenderingExtEvent26UnityRenderingExtEventTypePv
Gai:_WebRequestUtils_RedirectTo_m675215376
e0g:_InternalEnumerator_1_Dispose_m3464626239_AdjustorThunk
Cki:__ZNSt3__217__compressed_pairIPP9FieldInfoNS_9allocatorIS2_EEE6secondEv
Z2b:__Z14RandomRotationP9Texture2DPhiiii
jCe:_OutOfMemoryException__ctor_m1932883273
_Yg:_InternalEnumerator_1_MoveNext_m1594563423_AdjustorThunk
yae:_SimpleCollator_IsIgnorable_m2485013022
LKi:__ZNK10KeyWrapperINSt3__24pairIPK11Il2CppImageP11Il2CppClassEEEcvRKS7_Ev
KEj:_GC_collection_in_progress
Bhi:__ZNSt3__29allocatorI6pollfdE9constructIS1_JRKS1_EEEvPT_DpOT0_
tMe:_List_1_System_Collections_IList_Insert_m2036969360_gshared
sqd:_InputField_GetUnclampedCharacterLineFromPosition_m1912794077
WEi:__ZNSt3__24pairINS0_IPK14Il2CppAssemblyP11Il2CppClassEEjEC2IRKS6_RjvEEOT_OT0_
GKj:__ZN6il2cpp2os12Cryptography23GetCryptographyProviderEv
jue:_ReadDelegate__ctor_m885671467
f7i:__ZN6il2cpp2vm14PlatformInvoke27MarshalAllocateStringBufferIcEEPT_j
Oki:__ZNSt3__26vectorIP9FieldInfoNS_9allocatorIS2_EEE24__RAII_IncreaseAnnotator6__doneEv
mOd:_DateTimeOffset_ToString_m2121173678_AdjustorThunk
Bck:__ZL50X509Crl_t1699034837_CustomAttributesCacheGeneratorP21CustomAttributesCache
Odg:__Z74RuntimeInvoker_RuntimeObject_RuntimeObject_Int16_t4041245914_RuntimeObjectPFvvEPK10MethodInfoPvPS4_
gj:_JS_WebRequest_SetResponseHandler
rki:__ZNKSt3__26vectorIP9FieldInfoNS_9allocatorIS2_EEE4sizeEv
ZYk:_glDeleteProgram__wrapper
Sdc:__Z50Register_UnityEngine_Camera_INTERNAL_get_pixelRectv
pJk:_GoLeft_Start_m4106831782
Qka:__ZN6prcoreL18BlitFloatToIntegerERK14ImageReferenceRS0_
jcj:__ZNSt3__216reverse_iteratorINS_11__wrap_iterIPK20Il2CppStackFrameInfoEEEC2ES5_
sri:__ZNKSt3__217__compressed_pairIPP11Il2CppClassNS_9allocatorIS2_EEE5firstEv
Iie:_X509CertificateCollection_get_Item_m410866272
FLb:__Z13GetIPhysics2Dv
RT:__ZN11UnityEngine15CloudWebService14RestDownloader17OnCompleteContentEv
knd:_LayoutGroup_SetChildAlongAxis_m1615929339
Sdg:__Z75RuntimeInvoker_RuntimeObject_RuntimeObject_Double_t4078015681_RuntimeObjectPFvvEPK10MethodInfoPvPS4_
edg:__Z200RuntimeInvoker_Boolean_t3825574718_RuntimeObject_RuntimeObject_RuntimeObject_Int32_t2071877448_DateTimeU26_t3448131235_SByte_t454417549_BooleanU26_t3168250738_SByte_t454417549_ExceptionU26_t1467204777PFvvEPK10MethodInfoPvPS4_
Qa:invoke_viffi
vy:__ZN17AnimationPlayable28UpdateInternalStateRecursiveILi1ELb0EEEvPK35AnimationPlayableEvaluationConstant
$lj:__ZN6il2cpp2gcL10CleanupCCWEPvS1_
E5i:__ZNSt3__214pointer_traitsIPKDsE10pointer_toERS1_
Ta:invoke_vifff
yTg:_InternalEnumerator_1__ctor_m2111763266_gshared
hgc:__Z53Register_UnityEngine_Input_INTERNAL_get_mousePositionv
LXk:_glGetVertexAttribiv__wrapper
Ne:_emscripten_request_fullscreen
MJh:__ZL25UnresolvedVirtualCall_212P12Il2CppObjecti40CustomAttributeTypedArgument_t1498197914PK10MethodInfo
jEb:__ZN20LocalFileSystemWebGL6DeleteER13FileEntryDatab
xPd:_Decimal_System_IConvertible_ToUInt16_m1621568250
Pe:_emscripten_glDisableVertexAttribArray
Sm:FUNCTION_TABLE_iiiifiiii
MLf:_TimeSpan_get_TotalMinutes_m1645177229_AdjustorThunk
Koj:__ZNKSt3__26vectorI20Il2CppStackFrameInfoNS_9allocatorIS1_EEE8capacityEv
ic:invoke_fifffi
$Hg:_Enumerator__ctor_m3539306986_gshared
kha:__ZN4gles23ClearCurrentFramebufferEP7ApiGLESbbbRK10ColorRGBAffi
Vw:__ZN7mecanim12statemachine20CreateStateWorkspaceEjjjRNS_6memory9AllocatorE
Yde:__ZN21InterfaceFuncInvoker3IP22ByteU5BU5D_t3397334013S1_iiE6InvokeEjP11Il2CppClassP12Il2CppObjectS1_ii
xUg:_InternalEnumerator_1_System_Collections_IEnumerator_get_Current_m3680087284_gshared
_e:_emscripten_glDeleteObjectARB
Vf:_IMG_Load
Zxe:_UnexceptionalStreamReader_Read_m3839775235
xFk:_Input_get_compositionCursorPos_m1028058884
ema:__ZN6prcoreL27StretchGenericFloatBilinearI18TexFormatARGBFloatEEvPKNS_9InnerInfoE
fyi:__ZNKSt3__29allocatorIiE8max_sizeEv
Hic:__Z53Register_UnityEngine_RenderTexture_Internal_GetHeightv
c9d:_Dropdown_GetOrAddComponent_TisRuntimeObject_m2875934266_gshared
Cyf:_RealProxy_SetTargetDomain_m3940877656
L3h:__ZN10KeyWrapperIN6il2cpp5utils13dynamic_arrayIPK10Il2CppTypeLj4EEEE14EqualsComparerINS0_8metadata22Il2CppSignatureCompareEEC2ESA_
C6h:__ZNKSt3__219__map_value_compareIP11Il2CppClassNS_12__value_typeIS2_S2_EENS_4lessIS2_EELb1EEclERKS4_RKS2_
Rla:__ZN6prcoreL17RemapGenericFloatI17TexFormatRGBAHalf18TexFormatARGBFloatEEvPKNS_9InnerInfoE
oSd:_Enum_System_IConvertible_ToInt32_m2459904362
Vdg:__Z61RuntimeInvoker_RuntimeObject_Double_t4078015681_RuntimeObjectPFvvEPK10MethodInfoPvPS4_
obg:__Z211RuntimeInvoker_Int32_t2071877448_RuntimeObject_Int32_t2071877448_Int32_t2071877448_Int32_t2071877448_Int32_t2071877448_RuntimeObject_DecoderFallbackBufferU26_t3597875002_ByteU5BU5DU26_t790777611_SByte_t454417549PFvvEPK10MethodInfoPvPS4_
_lc:__Z14GetBuiltinSkini
Naf:_ContentInfo__ctor_m3871771681
VWh:___cxx_global_var_init_10
WWh:___cxx_global_var_init_11
H9c:_BaseInput_set_compositionCursorPos_m2632248731
GDh:_Enumerator_System_Collections_IEnumerator_Reset_m2573763156_gshared
qqg:__Z74RuntimeInvoker_Void_t1841601450_Int32_t2071877448_MonoResource_t3127387157PFvvEPK10MethodInfoPvPS4_
Fse:_DirectoryInfo_Initialize_m2216118894
o4c:_WindowsIdentity_Dispose_m2649088337
rib:__ZN2UI13RectTransform23VirtualRedirectTransferER14SafeBinaryRead
J8a:__ZN24GenerateTypeTreeTransfer8TransferINSt3__26vectorIN4core12basic_stringIcNS3_20StringStorageDefaultIcEEEE13stl_allocatorIS7_L18MemLabelIdentifier13ELi16EEEEEEvRT_PKc17TransferMetaFlags
pPj:__ZNSt3__228__libcpp_compressed_pair_impIPNS_11__tree_nodeIPFvvEPvEENS_22__tree_node_destructorINS_9allocatorIS5_EEEELj0EE5firstEv
FTe:_Collection_1_System_Collections_IList_Contains_m323652826_gshared
UFe:_List_1_System_Collections_ICollection_get_SyncRoot_m3733894943_gshared
dLe:_List_1_Reverse_m302978607_gshared
Deb:__ZNSt3__26vectorIN9ShaderLab20SerializedSubProgramENS_9allocatorIS2_EEE6assignIPS2_EENS_9enable_ifIXaasr21__is_forward_iteratorIT_EE5valuesr16is_constructibleIS2_NS_15iterator_traitsIS9_E9referenceEEE5valueEvE4typeES9_S9_
Isc:__Z18Transfer_BlittableI8JSONReadLb0E8BitFieldEvRK29SerializationCommandArgumentsR31RuntimeSerializationCommandInfo
wzf:_SoapServices_RegisterInteropXmlType_m2949236705
oHi:__ZNK15dense_hashtableINSt3__24pairIK10KeyWrapperIPK10Il2CppTypeEjEES6_N6il2cpp8metadata14Il2CppTypeHashEN14dense_hash_mapIS6_jSB_NS6_14EqualsComparerINSA_26Il2CppTypeEqualityComparerEEENS0_9allocatorIS8_EEE9SelectKeyESF_SH_E10test_emptyERK24dense_hashtable_iteratorIS8_S6_SB_SJ_SF_SH_E
Ebi:__ZNKSt3__213__vector_baseIP17Il2CppAsyncResultN6il2cpp2gc9AllocatorIS2_EEE9__end_capEv
ylh:_Quaternion_op_Multiply_m261788240
zxb:__ZL17Transfer_GUIStyleI18StreamedBinaryReadILb1EELb0EEvRK29SerializationCommandArgumentsR31RuntimeSerializationCommandInfo
s8c:_String_CharCopy_m2550399897
Geg:__Z234RuntimeInvoker_RuntimeObject_Int16_t4041245914_RuntimeObject_Int32_t2071877448_Int32_t2071877448_Int32_t2071877448_SByte_t454417549_SByte_t454417549_SByte_t454417549_SByte_t454417549_Int16_t4041245914_SByte_t454417549_SByte_t454417549PFvvEPK10MethodInfoPvPS4_
nZi:__ZN15dense_hashtableINSt3__24pairIK10KeyWrapperINS1_IP11Il2CppClassjEEES4_EES6_N6il2cpp8metadata14ArrayClassHashEN14dense_hash_mapIS6_S4_SB_NS6_14EqualsComparerINSA_17ArrayClassCompareEEENS0_9allocatorIS8_EEE9SelectKeyESF_SH_E13clear_deletedER30dense_hashtable_const_iteratorIS8_S6_SB_SJ_SF_SH_E
Jcb:__ZN9ShaderLab14SerializedPass8TransferI14SafeBinaryReadEEvRT_
Smc:__Z71Register_UnityEngine_GUILayoutUtility_INTERNAL_CALL_Internal_MoveWindowv
sO:__ZN12AudioManager16SetListenerPauseEb
A8a:__ZNSt3__26vectorIN30RuntimeInitializeOnLoadManager9ClassInfoE13stl_allocatorIS2_L18MemLabelIdentifier13ELi16EEE6assignINS_11__wrap_iterIPS2_EEEENS_9enable_ifIXaasr21__is_forward_iteratorIT_EE5valuesr16is_constructibleIS2_NS_15iterator_traitsISC_E9referenceEEE5valueEvE4typeESC_SC_
e5i:__ZN6il2cpp2vm9Exception25RaiseOutOfMemoryExceptionERKNS_5utils10StringViewIDsEE
gUe:_Collection_1_IsValidItem_m2254106115_gshared
mWf:_TypeBuilder_GetEvent_m3876348075
Hsi:__ZN6il2cpp2vm7Runtime16VerifyApiVersionEv
EBg:_Slider_OnMove_m641164662
da:invoke_viiiiiiiiiii
gKk:___syscall_ret
VKf:_Scheduler__ctor_m3716265742
Nfe:_MACAlgorithm_Final_m4076939925
kjj:__ZNSt3__218uninitialized_copyIP10KeyWrapperIP18Il2CppGenericClassES5_EET0_T_S7_S6_
Owi:__ZNSt3__212basic_stringIcNS_11char_traitsIcEENS_9allocatorIcEEE6assignINS_11__wrap_iterIPKcEEEENS_9enable_ifIXaasr21__is_forward_iteratorIT_EE5valuesr38__libcpp_string_gets_noexcept_iteratorISC_EE5valueERS5_E4typeESC_SC_
ygf:_TlsServerKeyExchange_ProcessAsSsl3_m462106368
w0a:__ZN11ChannelInfo8TransferI19StreamedBinaryWriteILb0EEEEvRT_
dUg:_InternalEnumerator_1_System_Collections_IEnumerator_get_Current_m3583252352_gshared
sIk:_Object_op_Implicit_m1757773010
PVf:_EnumBuilder_get_FullName_m2818393911
U7e:_BigInteger_op_RightShift_m852685747
gwe:_StreamAsyncResult_get_Done_m2858832609
$ec:__Z34Register_UnityEngine_Gradient_Initv
MAh:_ObjectPool_1_set_countAll_m1742773675_gshared
UBf:_SerializationEntry_get_Value_m1628109884_AdjustorThunk
iad:_BaseInputModule_GetAxisEventData_m3903709281
B8d:_Array_InternalArray__get_Item_TisUriScheme_t1876590943_m1821482697_gshared
R6e:_BigInteger__ctor_m3239748086
r$a:__ZN13ScreenManager23SetIsOrientationEnabledE18EnabledOrientationb
o2i:__ZNKSt3__228__libcpp_compressed_pair_impIPN6il2cpp2vm22EmbeddedResourceRecordENS_9allocatorIS3_EELj2EE6secondEv
TGh:__ZL24UnresolvedVirtualCall_57P12Il2CppObjectiPK10MethodInfo
jph:_HitInfo_SendMessage_m3395411273
P0h:__ZNK15dense_hashtableI10KeyWrapperIPK19Il2CppGenericMethodES4_N6il2cpp8metadata23Il2CppGenericMethodHashEN14dense_hash_setIS4_S7_NS4_14EqualsComparerINS6_26Il2CppGenericMethodCompareEEENSt3__29allocatorIS4_EEE8IdentityESB_SE_E12bucket_countEv
Fw:__ZN7mecanim5human25HumanPoseAddOverrideLayerERNS0_9HumanPoseERKS1_fRKNS_6bitsetILj70EEE
mzi:__ZNSt3__213__vector_baseINS_12basic_stringIcNS_11char_traitsIcEENS_9allocatorIcEEEENS4_IS6_EEE7__allocEv
vlj:__ZNSt3__23getILj1EK10KeyWrapperIP12Il2CppObjectEN6il2cpp2gc9CachedCCWEEERNS_13tuple_elementIXT_ENS_4pairIT0_T1_EEE4typeERSD_
N1b:__ZN13ProduceHelperI9TransformLb0EE7ProduceE18MemLabelIdentifier18ObjectCreationMode
cKh:__ZL25UnresolvedVirtualCall_230P12Il2CppObject19Vector3_t2243707580PK10MethodInfo
veg:__Z42RuntimeInvoker_AlertDescription_t844791462PFvvEPK10MethodInfoPvPS4_
A$i:__ZNSt3__228__libcpp_compressed_pair_impIPP12Il2CppThreadN6il2cpp2gc9AllocatorIS2_EELj2EE5firstEv
Mdh:_Alternation_get_Alternatives_m1445219249
Zxj:__ZN30dense_hashtable_const_iteratorINSt3__24pairIK10KeyWrapperIPK19Il2CppGenericMethodEP10MethodInfoEES6_N6il2cpp8metadata23Il2CppGenericMethodHashEN14dense_hash_mapIS6_S9_SD_NS6_14EqualsComparerINSC_26Il2CppGenericMethodCompareEEENS0_9allocatorISA_EEE9SelectKeyESH_SJ_EC2EPK15dense_hashtableISA_S6_SD_SL_SH_SJ_EPKSA_SS_b
XNg:_DefaultComparer_GetHashCode_m2506382068_gshared
DRg:_EqualityComparer_1_System_Collections_IEqualityComparer_GetHashCode_m1012273405_gshared
W0d:_Array_InternalArray__ICollection_Add_TisHitInfo_t1761367055_m2956071622_gshared
S_g:_InternalEnumerator_1_MoveNext_m470170271_AdjustorThunk
ODa:__ZN10GameObject23VirtualRedirectTransferER18StreamedBinaryReadILb0EE
DDe:_Enumerator_get_Current_m2577424081_gshared
E1g:_InternalEnumerator_1_Dispose_m2270401482_AdjustorThunk
USj:__ZNKSt3__215__tree_iteratorINS_12__value_typeIPFvvEPK10MethodInfoEEPNS_11__tree_nodeIS7_PvEEiEdeEv
qg:_glFrontFace
tBf:_ObjectRecord_get_IsUnsolvedObjectReference_m2202692850
Osf:_FactoryCache_Cleanup_m4130035987
j9g:__ZN23InterfaceActionInvoker1IP18Context_t502196753E6InvokeEjP11Il2CppClassP12Il2CppObjectS1_
hoh:_Vector2_op_Addition_m4229571528
f4h:__ZNK15dense_hashtableINSt3__24pairIK10KeyWrapperIPK19Il2CppGenericMethodEPK26Il2CppGenericMethodIndicesEES6_N6il2cpp8metadata23Il2CppGenericMethodHashEN14dense_hash_mapIS6_SA_SE_NS6_14EqualsComparerINSD_26Il2CppGenericMethodCompareEEENS0_9allocatorISB_EEE9SelectKeyESI_SK_E12test_deletedEj
M0b:__ZN13ProduceHelperI19LowerResBlitTextureLb0EE7ProduceE18MemLabelIdentifier18ObjectCreationMode
qRb:__ZNSt3__26vectorI16ShadowCasterData13stl_allocatorIS1_L18MemLabelIdentifier2ELi16EEE21__push_back_slow_pathIKS1_EEvRT_
RPf:_UInt32_ToString_m1783596809
RPe:_List_1_Sort_m269561757_gshared
IVk:_glUniform1i__wrapper
SKc:__Z51Register_UnityEngine_TextGenerator_GetLinesInternalv
$Dh:_HashSet_1_Init_m1258286688_gshared
Kjh:_X509ExtensionCollection_get_Item_m4212651995
f0e:_ReadOnlyCollection_1_System_Collections_IList_RemoveAt_m525136953_gshared
o_d:__ZN21InterfaceFuncInvoker1Ii19Vector4_t2243707581E6InvokeEjP11Il2CppClassP12Il2CppObjectS0_
jqk:__ZL83Canvas_t209405766_CustomAttributesCacheGenerator_Canvas_get_renderOrder_m2592588836P21CustomAttributesCache
gla:__ZN6prcoreL17RemapGenericFloatI17TexFormatRGBFloat18TexFormatRGBAFloatEEvPKNS_9InnerInfoE
nJh:__ZL25UnresolvedVirtualCall_187P12Il2CppObject20TimeSpan_t3430258949S1_PK10MethodInfo
WPf:_UInt64_System_IConvertible_ToBoolean_m3012279573_AdjustorThunk
LNf:_Type_get_IsGenericTypeDefinition_m2147901038
sVc:__ZN20UnityConnectSettings10InitializeEv
TPh:__ZNSt3__228__libcpp_compressed_pair_impINS_12basic_stringIcNS_11char_traitsIcEENS_9allocatorIcEEE5__repES5_Lj2EEC2Ev
G9g:_ContextAttribute_Freeze_m4133346275
pke:_GregorianCalendar__ctor_m3794576475
MPf:_UInt32_TryParse_m4283512434
Pqh:_TrackedReference_GetHashCode_m1278837032
Xij:__ZN15dense_hashtableI10KeyWrapperIP18Il2CppGenericClassES3_N6il2cpp8metadata22Il2CppGenericClassHashEN14dense_hash_setIS3_S6_NS3_14EqualsComparerINS5_25Il2CppGenericClassCompareEEENSt3__29allocatorIS3_EEE8IdentityESA_SD_E8min_sizeEjj
eG:__ZN9AudioClip11CreateSoundEv
yYi:__ZNSt3__211__wrap_iterIPP11Il2CppClassEC2ES3_
HFg:_ShimEnumerator_MoveNext_m3313047792_gshared
Wfb:__ZN9ShaderLab20SerializedSubProgram15VectorParameter8TransferI19StreamedBinaryWriteILb0EEEEvRT_
rMf:_TimeSpan_op_Inequality_m257547441
nTi:__ZN14dense_hash_mapI10KeyWrapperINSt3__24pairIPK9FieldInfoP11Il2CppClassEEEj17ReflectionMapHashIS8_ENS9_14EqualsComparerINS1_8equal_toIS8_EEEENS1_9allocatorINS2_IKS9_jEEEEEC2EjRKSB_RKSF_
GIi:__ZNK15dense_hashtableINSt3__24pairIK10KeyWrapperINS1_IPK10MethodInfoP11Il2CppClassEEEjEES9_17ReflectionMapHashIS8_EN14dense_hash_mapIS9_jSD_NS9_14EqualsComparerINS0_8equal_toIS8_EEEENS0_9allocatorISB_EEE9SelectKeyESI_SK_E13find_positionERSA_
HVf:_EnumBuilder_get_Assembly_m4285228003
Ida:__ZN13GfxDeviceGLES20CreateComputeProgramEPKhj
xSj:__ZNSt3__217__compressed_pairINS_15__tree_end_nodeIPNS_16__tree_node_baseIPvEEEENS_9allocatorINS_11__tree_nodeINS_12__value_typeIPFvvEPK10MethodInfoEES3_EEEEE5firstEv
xId:_DateTimeFormatInfo_get_RoundtripPattern_m562440017
NUc:__ZN11UnityEngine7Connect16PersistentValues13RestoreValuesER8JSONRead
Qzh:_U3CStartU3Ec__Iterator0_System_Collections_Generic_IEnumeratorU3CobjectU3E_get_Current_m1702093362_gshared
eBa:__ZN20ArchiveStorageReader31TryToReadDirectoryFromBlockDataEyPKvj
WOg:_DefaultComparer__ctor_m3947565964_gshared
nRd:_Double_System_IConvertible_ToByte_m3004284950_AdjustorThunk
Azf:_TypeEntry_get_AssemblyName_m1762285107
paj:__ZN6il2cpp2vmL11GetIdentityEP14Il2CppIUnknown
mfe:_SmallXmlParser_ReadCDATASection_m2558307107
xFj:_GC_push_gc_structures
BEh:_PCMReaderCallback_BeginInvoke_m2451387560
tfd:_AspectRatioFitter_get_aspectRatio_m3023618874
Xlf:_ServicePointManager_get_ServerCertificateValidationCallback_m1409951209
dri:__ZN6il2cpp6icalls8mscorlib6SystemL8IsPublicEPK9EventInfo
Muf:_Enumerator__ctor_m3782962052
fQi:__ZN15dense_hashtableINSt3__24pairIK10KeyWrapperIPK14Il2CppAssemblyEPK22Il2CppMonoAssemblyNameEES6_N6il2cpp5utils11PointerHashIS4_EEN14dense_hash_mapIS6_SA_SF_NS6_14EqualsComparerINS0_8equal_toIS5_EEEENS0_9allocatorISB_EEE9SelectKeyESK_SM_E4swapERSP_
Kbi:__ZNSt3__216__to_raw_pointerIP17Il2CppAsyncResultEEPT_S4_
ZFd:_Enumerator_get_Current_m1271212567
tAj:__ZThn4_N6il2cpp2vm13ComObjectBase18ReleaseMarshalDataEP13Il2CppIStream
fsa:__Z22GetShaderCachePathGLESv
ycg:__Z51RuntimeInvoker_UInt16_t986882611_Double_t4078015681PFvvEPK10MethodInfoPvPS4_
Hmf:_IPAddress_ParseIPV6_m2209709575
iyg:_U3CClickRepeatU3Ec__Iterator0_MoveNext_m1747924386
Zxk:__ZL94HorizontalOrVerticalLayoutGroup_t1968298610_CustomAttributesCacheGenerator_m_ChildControlWidthP21CustomAttributesCache
R5e:_Comparison_1_Invoke_m1670081898_gshared
ZCg:_Toggle_set_group_m3833595685
Msd:_LayoutRebuilder_ForceRebuildLayoutImmediate_m566681977
P0a:__ZNSt3__213__stable_sortIRNS_4lessI4PPtrI11SpriteAtlasEEENS_11__wrap_iterIPS4_EEEEvT0_SA_T_NS_15iterator_traitsISA_E15difference_typeEPNSD_10value_typeEi
Tra:__ZNSt3__26vectorIPN19ConstantBuffersGLES11ConstBufferENS_9allocatorIS3_EEE21__push_back_slow_pathIKS3_EEvRT_
Yzi:__ZNKSt3__214__split_bufferIN6il2cpp2vm17TypeNameParseInfoERNS_9allocatorIS3_EEE8capacityEv
Hji:__ZNKSt3__26vectorINS_4pairIPK10MethodInfoP11Il2CppClassEENS_9allocatorIS7_EEE8max_sizeEv
c1d:_Array_InternalArray__ICollection_Add_TisVector4_t2243707581_m698578249_gshared
plh:_PropertyName_ToString_m1129982609_AdjustorThunk
sY:__ZN8keywords6CreateEPKc
S:Math_imul
F_a:__ZN11PlayerPrefs6GetIntERKN4core12basic_stringIcNS0_20StringStorageDefaultIcEEEEi
x2h:__ZN6il2cpp5utils13dynamic_arrayIPK10Il2CppTypeLj4EEC2ERKS5_
R4c:_SecurityFrame_t1002202659_marshal_pinvoke_back
AKc:__Z45TextGenerator_CUSTOM_INTERNAL_get_rectExtentsP12Il2CppObjectP5RectTIfE
Spe:_Int32_Equals_m321398519_AdjustorThunk
eYd:_SetPropertyUtility_SetStruct_TisChar_t3454481338_m2333420724_gshared
MQh:__ZNK15dense_hashtableINSt3__24pairIK10KeyWrapperIPK22Il2CppGenericParameterEP11Il2CppClassEES6_N6il2cpp5utils11PointerHashIS4_EEN14dense_hash_mapIS6_S9_SE_NS6_14EqualsComparerINS0_8equal_toIS5_EEEENS0_9allocatorISA_EEE9SelectKeyESJ_SL_E12bucket_countEv
jUe:_Collection_1_IsSynchronized_m2601980439_gshared
uEd:_Hashtable_ContainsKey_m2716576664
gP:__ZN11AudioSource12SetAudioClipEP9AudioClip
IYh:__ZNSt3__24swapIN14dense_hash_mapI10KeyWrapperIPKcEP11Il2CppClassN6il2cpp5utils11StringUtils12StringHasherIS4_EENS5_14EqualsComparerINS9_13VmStringUtils21CaseSensitiveComparerEEENS_9allocatorINS_4pairIKS5_S7_EEEEE9SelectKeyEEENS_9enable_ifIXaasr21is_move_constructibleIT_EE5valuesr18is_move_assignableISP_EE5valueEvE4typeERSP_SS_
Kbh:_PatternCompiler_EmitCategory_m1696942454
IPd:_Decimal_decimalFloorAndTrunc_m3655683429
w1d:_Array_InternalArray__ICollection_CopyTo_TisInt32_t2071877448_m984622488_gshared
e_:__ZN18ScriptingArguments9AddObjectE18ScriptingObjectPtr
ROc:__Z39CanvasGroup_Get_Custom_PropInteractableP12Il2CppObject
bR:__ZN11UnityEngine15CloudWebService16SessionContainerD2Ev
YUc:__ZL38InitializeUnityConnectScriptingClassesv
FVb:__ZN13ProbeRenderer8ConvolveEbijjb
Aha:__ZN17GenericDynamicVBOC2ER9GfxDevice13GfxBufferModejj
d9g:_Context_get_HasDynamicSinks_m1998518649
$kc:__ZZN10GUIManager14InitGUIManagerEvEN41PreUpdateIMGUISendQueuedEventsRegistrator7ForwardEv
Sxh:_UnityAction_1_Invoke_m2903588655_gshared
uS:__ZN11UnityEngine15CloudWebService17SessionEventQueue10PurgeItemsEj
m9c:_AbstractEventData_get_used_m4208553917
kWb:__ZN6Camera16StandaloneRenderENS_10RenderFlagEP6ShaderRKN4core12basic_stringIcNS3_20StringStorageDefaultIcEEEE
etd:_Array_System_Collections_IList_get_Item_m2088124007
ytd:_Array_GetLength_m2083296647
Txh:_UnityAction_1_BeginInvoke_m53286204_gshared
sVa:__ZNK12CubemapArray13GetIsReadableEv
eCd:_SynchronizedArrayListWrapper_ToArray_m1522185111
Twb:__Z18Transfer_BlittableI18StreamedBinaryReadILb1EELb1EtEvRK29SerializationCommandArgumentsR31RuntimeSerializationCommandInfo
t4c:_SecurityContext_get_FlowSuppressed_m420202521
d8f:__Z55RuntimeInvoker_DayOfWeek_t721777893_DateTime_t693205669PFvvEPK10MethodInfoPvPS4_
Rba:__ZN9GfxDevice20DeallocRenderSurfaceEP17RenderSurfaceBase
nRf:_ValueType_ToString_m3796301715
zna:__ZN20GpuProgramParameters36UpdatePrepareValuesMaximumBufferSizeEv
zgc:__Z53Register_UnityEngine_Quaternion_INTERNAL_CALL_Inversev
D4d:_Array_qsort_TisUICharInfo_t3056636800_m2607408901_gshared
Voh:_Screen_get_height_m3831644396
LJi:__ZNSt3__24pairIK10KeyWrapperINS0_IPK10MethodInfoP11Il2CppClassEEEjEC2IRSA_vEEOT_
CFa:__ZN12BaseRenderer23RendererBecameInvisibleEv
Pwc:__ZN20TextRenderingPrivate8FontImpl13CharacterInfo8TransferI18StreamedBinaryReadILb0EEEEvRT_
gub:__Z29Transfer_Blittable_ArrayFieldI24GenerateTypeTreeTransferfEvRT_R9ArrayInfoRK23StaticTransferFieldInfo
V3j:__ZL56SoapAttribute_t1982224933_CustomAttributesCacheGeneratorP21CustomAttributesCache
$3:__ZNSt3__26__treeINS_12__value_typeIN4core12basic_stringIcNS2_20StringStorageDefaultIcEEEES6_EENS_19__map_value_compareIS6_S7_NS_4lessIS6_EELb1EEE13stl_allocatorIS7_L18MemLabelIdentifier13ELi16EEE7destroyEPNS_11__tree_nodeIS7_PvEE
q6f:__Z76RuntimeInvoker_RuntimeObject_RuntimeObject_SByte_t454417549_SByte_t454417549PFvvEPK10MethodInfoPvPS4_
zXb:__ZN19CustomRenderTexture9AddParentE4PPtrIS_E
WUg:_InternalEnumerator_1_MoveNext_m930150026_AdjustorThunk
tZa:__ZN8Gradient8TransferI14SafeBinaryReadEEvRT_
wTh:__ZNSt3__223__libcpp_numeric_limitsIjLb1EE3maxEv
izh:_UnityEvent_1_Invoke_m1533100983_gshared
_Sa:__ZNSt3__26vectorIN4core12basic_stringIcNS1_20StringStorageDefaultIcEEEE13stl_allocatorIS5_L18MemLabelIdentifier1ELi16EEE7reserveEj
$lf:_FileWebRequest__ctor_m4003648606
jxk:__ZL71SpriteState_t1353336012_CustomAttributesCacheGenerator_m_DisabledSpriteP21CustomAttributesCache
qSd:_Enum_System_IConvertible_ToSByte_m3488526280
d_f:_TypeBuilder_ToString_m1952363535
H_h:__ZNSt3__27forwardIPK26Il2CppGenericMethodIndicesEEOT_RNS_16remove_referenceIS4_E4typeE
YRi:__ZNSt3__27forwardIPK24MonoGenericParameterInfoEEOT_RNS_16remove_referenceIS4_E4typeE
Hab:__ZN18IDCollectorFunctorD0Ev
N4h:__ZNK15dense_hashtableI10KeyWrapperIPK19Il2CppGenericMethodES4_N6il2cpp8metadata23Il2CppGenericMethodHashEN14dense_hash_setIS4_S7_NS4_14EqualsComparerINS6_26Il2CppGenericMethodCompareEEENSt3__29allocatorIS4_EEE8IdentityESB_SE_E4findERKS4_
LCi:__ZNSt3__210__distanceIPKcEENS_15iterator_traitsIT_E15difference_typeES4_S4_NS_26random_access_iterator_tagE
vkb:__ZNK20LocalFileSystemPosix9IsSymLinkERK13FileEntryData
fEj:_GC_new_free_list_inner
JNg:_DefaultComparer_Equals_m85211180_gshared
Qii:__ZNSt3__213__vector_baseINS_4pairIPK10MethodInfoP11Il2CppClassEENS_9allocatorIS7_EEE17__destruct_at_endEPS7_
Xxi:__ZNKSt3__213__vector_baseIiNS_9allocatorIiEEE8capacityEv
lXe:_Collection_1_System_Collections_IList_IndexOf_m1950953062_gshared
gAe:_MonoType_InternalGetEvent_m532443236
eWe:_Collection_1_IndexOf_m2700825189_gshared
f3g:_Comparer_1_get_Default_m2605397692_gshared
Bth:_MathfInternal__cctor_m2774058555
eLi:__ZNSt3__24moveIR17ReflectionMapHashINS_4pairIPK11Il2CppImageP11Il2CppClassEEEEEONS_16remove_referenceIT_E4typeEOSC_
oqb:__Z35Transfer_Blittable_FixedBufferFieldI17RemapPPtrTransferiEvRK29SerializationCommandArgumentsR31RuntimeSerializationCommandInfo
wtc:__ZN8JSONRead8TransferI10RectOffsetEEvRT_PKc17TransferMetaFlagsb
Acj:__ZNK15dense_hashtableINSt3__24pairIK10KeyWrapperINS1_IPKcS4_EEEiEES6_24NamespaceAndNamePairHashN14dense_hash_mapIS6_iS9_NS6_14EqualsComparerI26NamespaceAndNamePairEqualsEENS0_9allocatorIS8_EEE9SelectKeyESD_SF_E12test_deletedERK24dense_hashtable_iteratorIS8_S6_S9_SH_SD_SF_E
cS:__ZN9JSONWrite8TransferIN11UnityEngine15CloudWebService14DataErrorEvent15FileErrorDetailEEEvRT_PKc17TransferMetaFlags
OUk:_emscripten_glColorPointer__wrapper
T8c:_Decoder__ctor_m2623573910
UKa:__Z21ClearFenceWithoutSyncR8JobFence
hJ:__ZN12SoundManager20RegisterModifiedClipEP10SampleClip
PCk:_Logger__ctor_m1903664092
EL:__ZN11AudioSource4PlayEd
adj:__ZN10KeyWrapperINSt3__24pairIPKcS3_EEEC2ERKS5_
L$h:__ZN15dense_hashtableI10KeyWrapperIPK17Il2CppGenericInstES4_N6il2cpp8metadata21Il2CppGenericInstHashEN14dense_hash_setIS4_S7_NS4_14EqualsComparerINS6_24Il2CppGenericInstCompareEEENSt3__29allocatorIS4_EEE8IdentityESB_SE_E13set_empty_keyERKS4_
ukb:__ZNK20LocalFileSystemPosix8IsHiddenERK13FileEntryData
DQg:_EqualityComparer_1_System_Collections_IEqualityComparer_Equals_m3589836321_gshared
yfe:_SmallXmlParser_IsNameChar_m1561000202
Dih:_X501__cctor_m2610532554
p2j:__ZL95SafeHandle_t2733794115_CustomAttributesCacheGenerator_SafeHandle_DangerousGetHandle_m1328172664P21CustomAttributesCache
Kog:__Z48RuntimeInvoker_Int32_t2071877448_Link_t865133271PFvvEPK10MethodInfoPvPS4_
NEg:_Enumerator_VerifyState_m3173176371_gshared
u8c:_StringComparer__ctor_m2275216983
mwk:__ZL120U3CClickRepeatU3Ec__Iterator0_t4156771994_CustomAttributesCacheGenerator_U3CClickRepeatU3Ec__Iterator0__ctor_m1515509136P21CustomAttributesCache
POe:_List_1_CheckCollection_m2220107869_gshared
mWa:__ZN7Cubemap23VirtualRedirectTransferER18StreamedBinaryReadILb0EE
ydf:_RecordProtocol_EncodeRecord_m3884270352
vIi:__ZN14dense_hash_mapI10KeyWrapperINSt3__24pairIPK10MethodInfoP11Il2CppClassEEEj17ReflectionMapHashIS8_ENS9_14EqualsComparerINS1_8equal_toIS8_EEEENS1_9allocatorINS2_IKS9_jEEEEE3endEv
I0c:_SHA256_Create_m896954069
nIc:_Read_CVT
qLd:_Convert_ToUInt32_m776714429
rBa:__ZN12FileAccessor4SeekEx10FileOrigin
Wsb:__ZL26Transfer_SimpleNativeClassI24GenerateTypeTreeTransfer17AnimationCurveTplIfELb0EEvRK29SerializationCommandArgumentsR31RuntimeSerializationCommandInfo
wuc:__ZN8JSONRead21TransferSTLStyleArrayI13dynamic_arrayI9BoundsIntLj4EEEEvRT_17TransferMetaFlags
oYa:__ZN24GenerateTypeTreeTransfer8TransferI13dynamic_arrayI33EnlightenTerrainChunksInformationLj4EEEEvRT_PKc17TransferMetaFlags
J0i:__ZNSt3__213__vector_baseIN6il2cpp2vm22EmbeddedResourceRecordENS_9allocatorIS3_EEE7__allocEv
_td:_Array_CreateInstance_m3327690220
c5:__ZN16LightmapSettings20DidChangeActiveSceneEP10UnitySceneS1_
wub:__Z18Transfer_BlittableI19StreamedBinaryWriteILb0EELb0EN4math12int3_storageEEvRK29SerializationCommandArgumentsR31RuntimeSerializationCommandInfo
dUi:__ZNK14dense_hash_mapI10KeyWrapperINSt3__24pairIP11Il2CppClassjEEES4_N6il2cpp8metadata14ArrayClassHashENS6_14EqualsComparerINS8_17ArrayClassCompareEEENS1_9allocatorINS2_IKS6_S4_EEEEE9SelectKeyclERKSF_
Dpj:__ZNKSt3__228__libcpp_compressed_pair_impIP20Il2CppStackFrameInfoNS_9allocatorIS1_EELj2EE5firstEv
lzk:__ZL59g_AssemblyU2DCSharp_Assembly_CustomAttributesCacheGeneratorP21CustomAttributesCache
Ksi:__ZN6il2cpp5utils9PathUtils8BasenameIcEENSt3__212basic_stringIT_NS3_11char_traitsIS5_EENS3_9allocatorIS5_EEEERKSA_
Emc:__Z35Register_UnityEngine_Event_get_typev
ybj:__ZNSt3__228__libcpp_compressed_pair_impINS_15__tree_end_nodeIPNS_16__tree_node_baseIPvEEEENS_9allocatorINS_11__tree_nodeINS_12__value_typeIP24Il2CppReflectionAssemblyS3_EES3_EEEELj2EE5firstEv
lge:_PrivateKeyInfo_DecodeRSA_m1427048948
z6i:__ZN6il2cpp2vm9Exception23GetInvalidCastExceptionERKNS_5utils10StringViewIDsEE
B1h:__ZN30dense_hashtable_const_iteratorI10KeyWrapperIPK17Il2CppGenericInstES4_N6il2cpp8metadata21Il2CppGenericInstHashEN14dense_hash_setIS4_S7_NS4_14EqualsComparerINS6_24Il2CppGenericInstCompareEEENSt3__29allocatorIS4_EEE8IdentityESB_SE_EC2ERK24dense_hashtable_iteratorIS4_S4_S7_SG_SB_SE_E
Y7e:_BigInteger_op_GreaterThanOrEqual_m2643115413
rSf:_Assembly_FillName_m1934025015
Ire:_IntPtr_op_Explicit_m1073656736
n7c:_String_IndexOf_m2126171214
hre:_Int64_ToString_m1544341651_AdjustorThunk
wy:__ZN8Animator28BuildControllerPlayableCacheEv
_le:_Guid_CheckNull_m2903986431
Ubk:__ZL62CrossContextDelegate_t754146990_CustomAttributesCacheGeneratorP21CustomAttributesCache
p$:__Z63ThreadAndSerializationSafeCheckGetMonoBehaviourBeingTransferredv
tHj:_GC_enable
tff:_TlsClientCertificateVerify_ProcessAsSsl3_m3377063356
eQi:__ZN15dense_hashtableINSt3__24pairIK10KeyWrapperIPK14Il2CppAssemblyEPK22Il2CppMonoAssemblyNameEES6_N6il2cpp5utils11PointerHashIS4_EEN14dense_hash_mapIS6_SA_SF_NS6_14EqualsComparerINS0_8equal_toIS5_EEEENS0_9allocatorISB_EEE9SelectKeyESK_SM_EC2ERKSP_j
ded:_StandaloneInputModule_set_repeatDelay_m2820945738
ite:_EndOfStreamException__ctor_m4268387737
WOf:_UInt16_ToString_m4213290405
cgc:__Z37Register_UnityEngine_Input_GetAxisRawv
Hii:__ZNSt3__213__vector_baseINS_4pairIPK10MethodInfoP11Il2CppClassEENS_9allocatorIS7_EEE7__allocEv
DQe:_List_1_GetIndex_m433539411_gshared
Z4j:__ZL59StreamingContext_t1417235061_CustomAttributesCacheGeneratorP21CustomAttributesCache
z7g:_ChannelServices_RegisterChannel_m3832858065
Nei:__ZNKSt3__26vectorIP12Il2CppThreadNS_9allocatorIS2_EEE17__annotate_deleteEv
xSd:_Enum_GetName_m1226611481
D6e:_Func_2_Invoke_m4121137703_gshared
qL:__ZN11AudioSource5ResetEv
OLb:__ZN12ImageFilters27SetSurfaceUseResolvedBufferEP13RenderTextureb
Msg:__Z74RuntimeInvoker_DictionaryEntry_t3048875398_RuntimeObject_Int32_t2071877448PFvvEPK10MethodInfoPvPS4_
Ubg:__Z53RuntimeInvoker_DateTime_t693205669_Single_t2076509932PFvvEPK10MethodInfoPvPS4_
c1a:__ZN14Texture2DArray23VirtualRedirectTransferER18StreamedBinaryReadILb0EE
leh:_Literal_CompileLiteral_m276843152
iib:__ZN2UI13RectTransform13AwakeFromLoadE17AwakeFromLoadMode
SQh:__ZNK10KeyWrapperIPK22Il2CppGenericParameterEcvRKS2_Ev
Cnj:__ZNKSt3__221__tree_const_iteratorINS_12__value_typeIjN6il2cpp2os17SocketHandleEntryEEEPNS_11__tree_nodeIS5_PvEEiEdeEv
heh:_Reference__ctor_m4110013284
PQb:__ZN14qsort_internal30FindAndMovePivotToLastPositionIP20ShadowCasterSortDatai26ShadowCasterSortDataSorterEEvT_S4_T0_T1_
S0h:__ZNK15dense_hashtableI10KeyWrapperIPK19Il2CppGenericMethodES4_N6il2cpp8metadata23Il2CppGenericMethodHashEN14dense_hash_setIS4_S7_NS4_14EqualsComparerINS6_26Il2CppGenericMethodCompareEEENSt3__29allocatorIS4_EEE8IdentityESB_SE_E3endEv
umb:__Z18Transfer_BlittableI14SafeBinaryReadLb1EiEvRK29SerializationCommandArgumentsR31RuntimeSerializationCommandInfo
LJh:__ZL25UnresolvedVirtualCall_211P12Il2CppObject38CustomAttributeNamedArgument_t94157543PK10MethodInfo
Tab:__ZN17PersistentManager13GetAllFileIDsERKN4core12basic_stringIcNS0_20StringStorageDefaultIcEEEER13dynamic_arrayIxLj8EE
wZi:__ZNSt3__27forwardIhEEOT_RNS_16remove_referenceIS1_E4typeE
u1e:_ReadOnlyCollection_1_GetEnumerator_m713393110_gshared
vyf:_ProxyAttribute_GetPropertiesForNewContext_m3587421540
yud:_Array_LastIndexOf_m4096535198
fAd:_ArrayList_Add_m1719188324
DRd:_Double_System_IConvertible_ToSByte_m1653690240_AdjustorThunk
Eeg:__Z59RuntimeInvoker_RuntimeObject_Byte_t3683104436_RuntimeObjectPFvvEPK10MethodInfoPvPS4_
vAk:_Bounds_get_size_m3951110137
Ak:_glGetStringi
bwh:_GUIStyleState_t3801000545_marshal_pinvoke
gjj:__ZNK15dense_hashtableI10KeyWrapperIP18Il2CppGenericClassES3_N6il2cpp8metadata22Il2CppGenericClassHashEN14dense_hash_setIS3_S6_NS3_14EqualsComparerINS5_25Il2CppGenericClassCompareEEENSt3__29allocatorIS3_EEE8IdentityESA_SD_E10test_emptyERK30dense_hashtable_const_iteratorIS3_S3_S6_SF_SA_SD_E
eVd:_CultureInfo_set_NumberFormat_m1618950525
Z1a:__ZN18StreamedBinaryReadILb0EE21TransferSTLStyleArrayI13dynamic_arrayI8Vector4fLj4EEEEvRT_17TransferMetaFlags
l2i:__ZNSt3__216allocator_traitsINS_9allocatorIN6il2cpp2vm22EmbeddedResourceRecordEEEE8max_sizeERKS5_
wqf:_X509Store__ctor_m1573680316
MZi:__ZNSt3__217__compressed_pairIPP12Il2CppThreadN6il2cpp2gc9AllocatorIS2_EEEC2ES3_
Lqf:_X509Chain_get_CertificateCollection_m324631835
QQg:_EqualityComparer_1__cctor_m1011898363_gshared
cfd:_AnimationTriggers__ctor_m2623627182
M_d:_Array_InternalArray__IndexOf_TisClientCertificateType_t4001384466_m1168139450_gshared
dA:__ZN8Animator9WriteStepEy
PWf:_FieldBuilder_get_Name_m2243491233
QS:__ZN11UnityEngine15CloudWebService20WebRequestRestClient18GetResponseHeadersEv
v7b:__ZN16PropertyAccessorC2Ev
O_a:__ZNSt3__23mapIN4core12basic_stringIcNS1_20StringStorageDefaultIcEEEE9PrefValueNS_4lessIS5_EENS_9allocatorINS_4pairIKS5_S6_EEEEEixERSB_
pxb:__Z35Transfer_Blittable_FixedBufferFieldI18StreamedBinaryReadILb1EEaEvRK29SerializationCommandArgumentsR31RuntimeSerializationCommandInfo
Z6b:__ZN15DirectorManager22ConstructPlayableGraphEv
e$a:__ZN13ScreenManager16SetScreenTimeoutEi
xrb:__Z18Transfer_BlittableI17RemapPPtrTransferLb0EdEvRK29SerializationCommandArgumentsR31RuntimeSerializationCommandInfo
F1c:_SymmetricAlgorithm_set_IV_m4262655606
ZBg:_StencilMaterial__cctor_m2963056855
hCh:_EqualityComparer_1_System_Collections_IEqualityComparer_Equals_m315020809_gshared
kfj:__ZNKSt3__217__compressed_pairIPPK11Il2CppClassNS_9allocatorIS3_EEE6secondEv
UTf:_CustomAttributeNamedArgument_GetHashCode_m3715408876_AdjustorThunk
HKc:__Z38Register_UnityEngine_Font_HasCharacterv
Qpf:_X509Certificate2_AppendBuffer_m3517242299
OUb:__Z35IntersectSpherePlaneBoundsOptimizedRKN4math7_float4EPS1_i
aVd:_CultureInfo_get_IsNeutralCulture_m3874876470
wQd:_Delegate_CreateDelegate_m3813023227
Yqj:__ZNSt3__29allocatorIN6il2cpp2os10ThreadImpl10APCRequestEE10deallocateEPS4_j
Gei:__ZNKSt3__214__split_bufferIP12Il2CppThreadRNS_9allocatorIS2_EEE9__end_capEv
wgh:_Uri_get_AbsoluteUri_m2120317928
aqj:__ZN6il2cpp2os5posix15PosixWaitObject13InterruptWaitEv
cid:_ColorTween_TweenValue_m3279916815
vPj:__ZNSt3__217__compressed_pairINS_15__tree_end_nodeIPNS_16__tree_node_baseIPvEEEENS_9allocatorINS_11__tree_nodeIPFvvES3_EEEEE5firstEv
pad:_BaseInputModule_IsModuleSupported_m4272494372
E$h:__ZNSt3__218uninitialized_copyIP10KeyWrapperIPK17Il2CppGenericInstES6_EET0_T_S8_S7_
D4:__Z22CleanupLODGroupManagerPv
X0d:_Array_InternalArray__ICollection_Add_TisContentType_t1028629049_m2984242302_gshared
Amc:__Z21Event_CUSTOM_PopEventP12Il2CppObject
kl:_glUniform3fv
yQj:__ZNK6il2cpp8metadata24Il2CppGenericInstCompareclERK10KeyWrapperIPK17Il2CppGenericInstES8_
E7a:__ZNSt3__218__insertion_sort_3IRN15ResourceManager10Dependency6SorterEPS2_EEvT0_S6_T_
oFe:_Enumerator_System_Collections_IEnumerator_Reset_m3796537546_AdjustorThunk
tJc:_UNITY_FT_Init_Class_tt_service_gx_multi_masters
beg:__Z53RuntimeInvoker_Int32_t2071877448_TimeSpan_t3430258949PFvvEPK10MethodInfoPvPS4_
s_g:_InternalEnumerator_1_System_Collections_IEnumerator_Reset_m3249248421_AdjustorThunk
s4f:__Z64RuntimeInvoker_RuntimeObject_Int32_t2071877448_Int16_t4041245914PFvvEPK10MethodInfoPvPS4_
Rze:_IntComparer_Compare_m3057931085
xPb:__ZNK16LightmapSettings31GetRealtimeLightmapDecodeValuesEv
yK:__ZN5audio5mixer12SetSuspendedERNS0_16AudioMixerMemoryEb
Obb:__ZN17PersistentManager21UnloadNonDirtyStreamsEv
H7f:__Z63RuntimeInvoker_DSAParameters_t1872138834_BooleanU26_t3168250738PFvvEPK10MethodInfoPvPS4_
dog:__Z62RuntimeInvoker_Boolean_t3825574718_PlayableBinding_t2498078091PFvvEPK10MethodInfoPvPS4_
H7i:__ZN6il2cpp2vm13LivenessStateC2EP11Il2CppClassjPFvPP12Il2CppObjectiPvES7_PFvvESB_
ZQj:__ZNKSt3__26vectorINS_12basic_stringIDsNS_11char_traitsIDsEENS_9allocatorIDsEEEENS4_IS6_EEE17__annotate_shrinkEj
s9d:_Array_ConvertAll_TisRuntimeObject_TisRuntimeObject_m2423585546_gshared
rKb:__ZN12ImageFilters4BlitER17ShaderPassContextP7TextureP13RenderTextureiPK18SharedMaterialDataPKcP6ShaderiNS_9BlitFlagsE11CubemapFaceRK8Vector2fSH_
eof:_Oid__ctor_m1936781897
ES:__ZN11UnityEngine15CloudWebService10RestClientINS0_23WebRequestRestHeaderMapEED2Ev
i5g:_ResourceSet__ctor_m1222864106
sSe:_Collection_1_System_Collections_IList_get_Item_m3376056117_gshared
Gl:_emscripten_glDepthMask
wbd:__ZN23InterfaceActionInvoker1IP28PointerEventData_t1599784723E6InvokeEjP11Il2CppClassP12Il2CppObjectS1_
Mxi:__ZNSt3__216allocator_traitsINS_9allocatorIiEEE9__destroyIiEEvNS_17integral_constantIbLb1EEERS2_PT_
GVj:__ZL76UInt16_t986882611_CustomAttributesCacheGenerator_UInt16_TryParse_m1818885113P21CustomAttributesCache
nFe:_Enumerator_VerifyState_m3639069574_gshared
Lia:__ZN4crnd25static_huffman_data_model22prepare_decoder_tablesEv
SRe:_Enumerator_MoveNext_m689054299_gshared
v7e:_ModulusRing_Difference_m662924064
VZg:_InternalEnumerator_1_MoveNext_m1869236997_gshared
Ggd:_CanvasUpdateRegistry_ObjectValidForUpdate_m855695984
vpd:_InputField_set_onValueChanged_m2406388125
zlc:__Z23GUIStatePopDisplayIndexv
b$e:_ReadOnlyCollection_1_System_Collections_ICollection_get_SyncRoot_m2702046016_gshared
vX:__ZL22CleanupUnityWebStreamsPv
zzb:__Z18Transfer_BlittableI18StreamedBinaryReadILb0EELb0E10ColorRGBAfEvRK29SerializationCommandArgumentsR31RuntimeSerializationCommandInfo
Tkf:_ListDictionary_Add_m4276262662
h5:__Znaj
l$c:_RIPEMD160Managed_GGG_m1639995340
xZk:_emscripten_glEnableClientState__wrapper
mZ:__ZN17MessageIdentifierC2EPKcNS_7OptionsEPKN5Unity4TypeES1_
vHg:_Enumerator_System_Collections_IEnumerator_get_Current_m1648049763_gshared
M4j:__ZL66ISerializationSurrogate_t1282780357_CustomAttributesCacheGeneratorP21CustomAttributesCache
q8f:__Z31RuntimeInvoker_Char_t3454481338PFvvEPK10MethodInfoPvPS4_
$gj:__ZNSt3__26__treeINS_12__value_typeIP24Il2CppReflectionAssemblyPvEENS_19__map_value_compareIS3_S5_NS_4lessIS3_EELb1EEENS_9allocatorIS5_EEE13__lower_boundIS3_EENS_15__tree_iteratorIS5_PNS_11__tree_nodeIS5_S4_EEiEERKT_SH_SH_
wFa:__ZN11GameManager15ThreadedCleanupEv
hNe:_List_1__ctor_m1337392449_gshared
VP:__Z55Register_UnityEngine_AudioSource_get_spatializeInternalv
L0a:__ZN15dense_hashtableINSt3__24pairIKN4core12basic_stringIcNS2_20StringStorageDefaultIcEEEE13dynamic_arrayI4PPtrI6SpriteELj4EEEES6_20StringHash32FunctionIS6_EN14dense_hash_mapIS6_SC_SF_NS0_8equal_toIS6_EE13stl_allocatorISD_L18MemLabelIdentifier81ELi16EEE9SelectKeyESI_SL_E12resize_deltaEjj
Kwe:_TextWriter__ctor_m2225796097
l8g:__ZN21InterfaceFuncInvoker0IP24StringU5BU5D_t1642385972E6InvokeEjP11Il2CppClassP12Il2CppObject
Qxa:__ZN14SafeBinaryRead8TransferI14ConstantStringEEvRT_PKc17TransferMetaFlags
dfa:__ZNK6Camera16GetStereoEnabledEv
Oxi:__ZNKSt3__26vectorIiNS_9allocatorIiEEE17__annotate_deleteEv
mRj:__ZNKSt3__217__compressed_pairIPNS_12basic_stringIDsNS_11char_traitsIDsEENS_9allocatorIDsEEEERNS4_IS6_EEE5firstEv
eNj:__ZNSt3__215__tree_iteratorINS_12__value_typeIPvxEEPNS_11__tree_nodeIS3_S2_EEiEC2ES6_
z3b:__ZN12LightManager15InitializeClassEv
YGa:__ZN9ShaderLab11shaderprops16GetComputeBufferEPK19ShaderPropertySheetS3_NS_16FastPropertyNameE
dmk:__ZL86Logger_t3328995178_CustomAttributesCacheGenerator_Logger_set_filterLogType_m3982626604P21CustomAttributesCache
s_:__ZN18ScriptingArgumentsC2Ev
zMf:_TimeZone_IsDaylightSavingTime_m875882154
kTg:_ArrayReadOnlyList_1_Insert_m503707439_gshared
VUk:_emscripten_glBlendFuncSeparate__wrapper
kcf:_CipherSuiteCollection_System_Collections_IList_set_Item_m750275607
vQk:dynCall_iiiiiiiiii
Mfa:__Z17HasSampledTexture14GraphicsFormat13formatSupport
pLb:__ZNK25CameraStackRenderingState27GetStereoImageEffectTextureEb
n0c:_SHA1CryptoServiceProvider__ctor_m3127563759
qp:__ZN8Vector3f8TransferI14SafeBinaryReadEEvRT_
b9h:__ZN6il2cpp6icalls6System6System3Net7Sockets6Socket7ReceiveEiP11Il2CppArrayiiNS4_11SocketFlagsEPi
Y9b:__ZN13BuildSettings13GetSceneIndexERKN4core12basic_stringIcNS0_20StringStorageDefaultIcEEEE
$yk:__ZL103BaseVertexEffect_t2504093552_CustomAttributesCacheGenerator_BaseVertexEffect_ModifyVertices_m3446986347P21CustomAttributesCache
uo:FUNCTION_TABLE_ii
sIg:_Enumerator_MoveNext_m335649778_AdjustorThunk
qFa:__ZN10TagManager8TransferI18StreamedBinaryReadILb0EEEEvRT_
D2f:__Z45RuntimeInvoker_Char_t3454481338_RuntimeObjectPFvvEPK10MethodInfoPvPS4_
Ypc:__Z18Transfer_BlittableI9JSONWriteLb0E8BitFieldEvRK29SerializationCommandArgumentsR31RuntimeSerializationCommandInfo
QPf:_UInt32_ToString_m3894907091_AdjustorThunk
qZd:_Array_InternalArray__IEnumerable_GetEnumerator_TisPlayableBinding_t2498078091_m2095426925_gshared
IGk:_Matrix4x4__ctor_m828876617_AdjustorThunk
nLh:_Predicate_1__ctor_m2863314033_gshared
WUd:_CultureInfo_get_TextInfo_m1582311326
_$d:_Array_ForEach_TisRuntimeObject_m1849351808_gshared
XFg:_ShimEnumerator_get_Key_m616785465_gshared
Cik:__ZL76Object_t1021602117_CustomAttributesCacheGenerator_Object_Destroy_m3959286051P21CustomAttributesCache
cfe:_SmallXmlParser_Error_m1832158746
Ktf:_RepeatContext_get_IsLazy_m1620488045
zk:_glDeleteVertexArrays
QCa:__Z24CreateDirectoryRecursiveRKN4core12basic_stringIcNS_20StringStorageDefaultIcEEEE
cbj:___cxx_global_var_init_3_14580
oTk:b41
zfb:__ZN9ShaderLab20SerializedSubProgram8TransferI18StreamedBinaryReadILb0EEEEvRT_
kwe:_StreamAsyncResult_get_AsyncWaitHandle_m4218169359
nTk:b40
uTb:__Z9EndJobSetR8JobFence11JobPriority
xgf:_TlsServerSettings_set_SignedParams_m1826385315
mLc:__ZN2UI13CanvasManager9AddCanvasEPNS_6CanvasE
W1a:__ZN9Texture3D8TransferI19StreamedBinaryWriteILb0EEEEvRT_
TLb:__ZNK6Camera22CalculateRenderingPathEv
qrc:__ZN9JSONWrite8TransferI5RectTIfEEEvRT_PKc17TransferMetaFlags
NB:__ZN11UnityEngine9Animation37SetGenericRootTransformPropertyValuesERKNS0_30AnimatorGenericBindingConstantERKN7mecanim10ValueArrayER9Transformbb
$oa:__Z13ConvertMipmap14GraphicsFormatPKvS_Pviiii
dfj:__ZNSt3__27forwardIPPK11Il2CppClassEEOT_RNS_16remove_referenceIS5_E4typeE
Qaf:_ContentInfo_get_Content_m1802070908
Axh:_InvokableCall_4_Find_m2012236736_gshared
Crb:__ZL12InvokeMethodI17RemapPPtrTransferEvRK29SerializationCommandArgumentsR31RuntimeSerializationCommandInfo
xwk:__ZL63ScrollRect_t1199013257_CustomAttributesCacheGenerator_m_InertiaP21CustomAttributesCache
Aie:_X509Certificate_get_PublicKey_m714501701
Nfg:__Z70RuntimeInvoker_Boolean_t3825574718_UInt16_t986882611_Int32_t2071877448PFvvEPK10MethodInfoPvPS4_
Crd:_U3CMouseDragOutsideRectU3Ec__Iterator1_System_Collections_IEnumerator_get_Current_m561728752
Yzk:_AsyncOperation_InternalDestroy_m2067452588
_Bc:_tt_sbit_decoder_load_image
C7c:_String_LastIndexOf_m290475879
q_i:__ZNKSt3__26vectorIP12Il2CppThreadN6il2cpp2gc9AllocatorIS2_EEE5beginEv
d_d:__ZN21InterfaceFuncInvoker1Ii22UILineInfo_t3621277874E6InvokeEjP11Il2CppClassP12Il2CppObjectS0_
Nik:__ZL113PlayableHandle_t213697122_CustomAttributesCacheGenerator_PlayableHandle_INTERNAL_CALL_IsValidInternal_m3649184361P21CustomAttributesCache
wod:_Image_get_layoutPriority_m2151045813
pWi:__ZN15dense_hashtableINSt3__24pairIK10KeyWrapperIP11Il2CppClassES4_EES5_N6il2cpp8metadata16SZArrayClassHashEN14dense_hash_mapIS5_S4_SA_NS5_14EqualsComparerINS9_19SZArrayClassCompareEEENS0_9allocatorIS7_EEE9SelectKeyESE_SG_EC2EjRKSA_RKSE_RKSI_
m5d:_Array_Sort_TisInt32_t2071877448_m1860415737_gshared
Axe:_TextReader_Read_m975794707
tlc:__ZNSt3__24listIN10GUIManager12SortedScriptE11memory_poolIS2_EE6__sortI13OldSortScriptEENS_15__list_iteratorIS2_PvEESA_SA_jRT_
_Pf:_UInt64_System_IConvertible_ToChar_m1930853313_AdjustorThunk
off:_TlsClientCertificate_SendCertificates_m1096074091
afd:_UIBehaviour_OnCanvasHierarchyChanged_m762109874
eFd:_SyncHashtable_get_Item_m408601391
t5j:__ZL45DSA_t903174880_CustomAttributesCacheGeneratorP21CustomAttributesCache
YRe:_Stack_1_System_Collections_ICollection_CopyTo_m2104527616_gshared
tHf:_StringBuilder_AppendFormat_m1666670800
FVi:__ZN10KeyWrapperIP11Il2CppClassEC2Ev
BGj:_GC_setpagesize
kjg:__Z97RuntimeInvoker_Boolean_t3825574718_RuntimeObject_TextGenerationSettings_t2543476768_RuntimeObjectPFvvEPK10MethodInfoPvPS4_
h2i:__ZNSt3__27forwardIRNS_9allocatorIN6il2cpp2vm22EmbeddedResourceRecordEEEEEOT_RNS_16remove_referenceIS7_E4typeE
YSc:__ZN18UnityConnectClient12CloseServiceEv
frb:__Z18Transfer_BlittableI17RemapPPtrTransferLb1E8BitFieldEvRK29SerializationCommandArgumentsR31RuntimeSerializationCommandInfo
E3i:__ZN6il2cpp6icalls8mscorlib6System9ThreadingL11ThreadStartEPv
a7:__ZN15DirectorManager12OnSampleTimeEv
U2e:_ReadOnlyCollection_1_System_Collections_IList_Remove_m3878418841_gshared
WNi:__ZNK10KeyWrapperINSt3__24pairIPK9EventInfoP11Il2CppClassEEE8isNormalEv
Apd:_InputField_EnforceContentType_m1902926812
nZa:__ZN15dense_hashtableINSt3__24pairIKiiEEi21InstanceIDHashFunctorN14dense_hash_mapIiiS4_NS0_8equal_toIiEE13stl_allocatorIS3_L18MemLabelIdentifier67ELi16EEE9SelectKeyES7_SA_E12resize_deltaEjj
Fva:__ZN12CachedReader10Align4ReadEv
tgh:_Uri_op_Equality_m110355127
s_e:_Collection_1_CopyTo_m42272870_gshared
dAk:_DefaultExecutionOrder_get_order_m3383619944
v$:__ZN15dense_hashtableINSt3__24pairIKiP6ObjectEEi21InstanceIDHashFunctorN14dense_hash_mapIiS4_S6_NS0_8equal_toIiEE13stl_allocatorIS5_L18MemLabelIdentifier67ELi16EEE9SelectKeyES9_SC_E12maybe_shrinkEv
iDi:_RaycastHit2D_get_point_m2962370910_AdjustorThunk
qwa:__ZNK9Behaviour22GetTypeVirtualInternalEv
fgd:_CanvasScaler_set_referencePixelsPerUnit_m1188599784
Eqg:__Z74RuntimeInvoker_Void_t1841601450_Int32_t2071877448_RaycastHit2D_t4063908774PFvvEPK10MethodInfoPvPS4_
H5e:_Comparison_1_EndInvoke_m179917407_gshared
l1b:__ZNK28MonoBehaviourPropertyBinding12SetPPtrValueERKN11UnityEngine9Animation10BoundCurveEi
oJk:_GoLeft__ctor_m3820422758
zVb:__Z21GetScriptingArraySize17ScriptingArrayPtr
mwc:__ZN20TextRenderingPrivate8FontImpl8TransferI14SafeBinaryReadEEvRT_
lJi:__ZNSt3__24swapI17ReflectionMapHashINS_4pairIPK10MethodInfoP11Il2CppClassEEEEENS_9enable_ifIXaasr21is_move_constructibleIT_EE5valuesr18is_move_assignableISB_EE5valueEvE4typeERSB_SE_
Rdh:__ZN23InterfaceActionInvoker1IP19LinkRef_t2090853131E6InvokeEjP11Il2CppClassP12Il2CppObjectS1_
Oii:__ZNSt3__217__compressed_pairIPNS_4pairIPK10MethodInfoP11Il2CppClassEENS_9allocatorIS7_EEE6secondEv
jmc:__ZN11IMGUIModule21ClearDeveloperConsoleEv
hri:__ZN6il2cpp6icalls8mscorlib6SystemL16CheckMemberMatchI9EventInfoNS_5utils10functional6FilterINSt3__212basic_stringIcNS8_11char_traitsIcEENS8_9allocatorIcEEEENS5_13VmStringUtils23CaseInsensitiveComparerEEEEEbPKT_PK11Il2CppClassSN_iRKT0_
j3f:__Z110RuntimeInvoker_Boolean_t3825574718_RuntimeObject_SByte_t454417549_Int64U26_t763825331_ExceptionU26_t1467204777PFvvEPK10MethodInfoPvPS4_
Nca:__ZN9GfxDevice17ImmediateTexCoordEifff
ogi:__ZNSt3__24moveIRPP17Il2CppAsyncResultEEONS_16remove_referenceIT_E4typeEOS6_
Hch:_Parser_ParseRegularExpression_m2390577313
FDc:_ft_black_new
Xud:_Array_double_swapper_m1175307080
Odh:_Alternation_AddAlternative_m623421443
lrf:_X509CertificateEnumerator_System_Collections_IEnumerator_Reset_m327358896
teg:__Z65RuntimeInvoker_Void_t1841601450_Byte_t3683104436_Byte_t3683104436PFvvEPK10MethodInfoPvPS4_
N3c:_Hash__ctor_m2554411450
Aoe:_NumberFormatter_AppendDigits_m1308372770
p9:__ZN30dense_hashtable_const_iteratorINSt3__24pairIKN4core12basic_stringIcNS2_20StringStorageDefaultIcEEEE10vector_setI4PPtrI11SpriteAtlasENS0_4lessISB_EE13stl_allocatorISB_L18MemLabelIdentifier81ELi16EEEEES6_20StringHash32FunctionIS6_EN14dense_hash_mapIS6_SH_SK_NS0_8equal_toIS6_EESE_ISI_LSF_81ELi16EEE9SelectKeyESN_SO_EC2EPK15dense_hashtableISI_S6_SK_SQ_SN_SO_EPKSI_SX_b
q5c:_Single_System_IConvertible_ToDateTime_m2510003459_AdjustorThunk
FQd:_Delegate_RemoveImpl_m3666700529
u7h:__ZNKSt3__210unique_ptrINS_11__tree_nodeINS_12__value_typeIP11Il2CppClassS4_EEPvEENS_22__tree_node_destructorINS_9allocatorIS7_EEEEEptEv
QSk:_emscripten_glUniform4f__wrapper
klf:_NameObjectCollectionBase_OnDeserialization_m3478980442
zCk:_CustomYieldInstruction_MoveNext_m3850519634
mpd:_InputField_set_caretColor_m2252440840
gxj:__ZNSt3__217__compressed_pairIPjRNS_9allocatorIjEEEC2ES1_S4_
gD:__ZN8Animator8TransferI19StreamedBinaryWriteILb0EEEEvRT_
XFa:__ZNK6Camera16GetProjectionFarEv
t8e:_ASN1_get_Count_m3992276234
Uye:_MissingFieldException__ctor_m1161042282
Z_d:_Array_InternalArray__IndexOf_TisSlot_t2267560602_m1912863273_gshared
uHk:_Mesh_get_uv3_m1531319041
NUa:__ZNK14PlayableOutput11DerivesFromE17ScriptingClassPtr
$Va:__ZN7Texture34CreateFileTextureUploadInstructionE18TextureUploadFlagsj
Bca:__ZN9GfxDevice21ResetDynamicResourcesEv
pqa:__ZN13ComputeShader14SetBufferParamEjRKN9ShaderLab16FastPropertyNameE15ComputeBufferID
eNa:__ZThn280_N31CanvasBatchIntermediateRenderer20OnAssetBoundsChangedEv
HZi:___cxx_global_var_init_2_13741
$5e:_Comparison_1_EndInvoke_m4174686984_gshared
iCf:_StreamingContext__ctor_m3063421596_AdjustorThunk
H2e:_ReadOnlyCollection_1_System_Collections_Generic_IListU3CTU3E_Insert_m3054305464_gshared
R0b:__ZN19LowerResBlitTexture13ApplySettingsEv
GWj:__ZL70IntPtr_t_CustomAttributesCacheGenerator_IntPtr_op_Explicit_m3896766622P21CustomAttributesCache
ZC:__ZN8Animator8TransferI14SafeBinaryReadEEvRT_
xVi:__ZN15dense_hashtableINSt3__24pairIK10KeyWrapperIP11Il2CppClassES4_EES5_N6il2cpp8metadata16SZArrayClassHashEN14dense_hash_mapIS5_S4_SA_NS5_14EqualsComparerINS9_19SZArrayClassCompareEEENS0_9allocatorIS7_EEE9SelectKeyESE_SG_E4swapERSJ_
ADa:__ZN17GlobalGameManager23VirtualRedirectTransferER18StreamedBinaryReadILb0EE
q$d:_Array_InternalArray__IndexOf_TisTypeTag_t141209596_m2882894956_gshared
jBg:_Slider_get_value_m4182660424
U2:__Z23AsyncReadForceCloseFileRKN4core12basic_stringIcNS_20StringStorageDefaultIcEEEE
kt:__ZN17AnimationPlayable34CollectAnimatorControllerPlayablesER13dynamic_arrayIP26AnimatorControllerPlayableLj4EE
kO:__ZN16BaseVideoTexture19UpdateVideoTexturesEv
nMa:__Z28BuildSingleStreamChannelInfo17ShaderChannelMaskRK20VertexChannelsLayoutS_S2_P11ChannelInfo
Fzi:__ZNKSt3__26vectorINS_12basic_stringIcNS_11char_traitsIcEENS_9allocatorIcEEEENS4_IS6_EEE31__annotate_contiguous_containerEPKvSA_SA_SA_
cIa:__ZNK16LightmapSettings23HasLightProbeTetrahedraEv
Bef:_Context_get_WriteSequenceNumber_m243492531
y$a:__ZN6Sprite23VirtualRedirectTransferER19StreamedBinaryWriteILb0EE
yRg:_EqualityComparer_1_System_Collections_IEqualityComparer_GetHashCode_m3761319178_gshared
u7c:_String_LastIndexOfAny_m1473637802
Tic:__Z38Transform_CUSTOM_INTERNAL_set_positionP12Il2CppObjectRK8Vector3f
YHk:_PlayerEditorConnectionEvents_InvokeMessageIdSubscribers_m795891627
xJe:_List_1_System_Collections_ICollection_CopyTo_m3062449209_gshared
pGi:__ZNK15dense_hashtableINSt3__24pairIK10KeyWrapperINS1_IPK9FieldInfoP11Il2CppClassEEEjEES9_17ReflectionMapHashIS8_EN14dense_hash_mapIS9_jSD_NS9_14EqualsComparerINS0_8equal_toIS8_EEEENS0_9allocatorISB_EEE9SelectKeyESI_SK_E5beginEv
cSa:__ZNK9ShaderLab7Program19HasMatchingVariantsERK13dynamic_arrayI16ShaderKeywordSetLj4EE
TA:__ZN15SerializeTraitsIN4math4trsXEE8TransferI8BlobSizeEEvRS1_RT_
vga:__ZN14DataBufferGLES11CopySubDataEPKS_jjj
fe:_emscripten_glVertexPointer
zua:__ZNSt3__26__treeI20DeviceDepthStateGLES11memcmp_lessIS1_S1_ENS_9allocatorIS1_EEE7destroyEPNS_11__tree_nodeIS1_PvEE
hld:_Graphic__ctor_m821539719
HIe:_List_1_System_Collections_Generic_ICollectionU3CTU3E_get_IsReadOnly_m1614481629_gshared
bti:__ZN6il2cpp2vm7Runtime47RaiseExecutionEngineExceptionIfMethodIsNotFoundEPK10MethodInfo
tRb:__Z17GetFrustumPortionPK8Vector3fffPS_
YQf:_UnauthorizedAccessException__ctor_m259001183
wEi:__ZNSt3__24moveIRN14dense_hash_mapI10KeyWrapperINS_4pairIPK14Il2CppAssemblyP11Il2CppClassEEEj17ReflectionMapHashIS9_ENSA_14EqualsComparerINS_8equal_toIS9_EEEENS_9allocatorINS3_IKSA_jEEEEE9SelectKeyEEEONS_16remove_referenceIT_E4typeEOSP_
S8i:__ZN15dense_hashtableINSt3__24pairIK10KeyWrapperIP14Il2CppIUnknownEjEES5_N6il2cpp5utils11PointerHashIS3_EEN14dense_hash_mapIS5_jSB_NS5_14EqualsComparerINS0_8equal_toIS4_EEEENS0_9allocatorIS7_EEE9SelectKeyESG_SI_E14squash_deletedEv
lNa:__ZN5Light13AwakeFromLoadE17AwakeFromLoadMode
djd:_DefaultControls_CreateDropdown_m1384069408
Xcd:_PointerEventData_get_clickCount_m4064532478
c1e:_ReadOnlyCollection_1_System_Collections_Generic_ICollectionU3CTU3E_get_IsReadOnly_m3508872969_gshared
mTd:_EventArgs__cctor_m1350395667
Vwh:_InvokableCall_1_remove_Delegate_m1748003978_gshared
Jaa:__ZNK9GfxDevice27GetPlatformAdjustedViewportEv
PTd:_CCGregorianCalendar_is_leap_year_m567513478
Lof:_Oid_get_Value_m2271181078
wvd:_Attribute_IsDefined_m2118467641
Grh:_SpriteAtlasManager_Register_m447878083
kge:_PrivateKeyInfo_Normalize_m3959595934
zng:__Z68RuntimeInvoker_Void_t1841601450_Int32_t2071877448_Color32_t874517518PFvvEPK10MethodInfoPvPS4_
nUg:_InternalEnumerator_1_System_Collections_IEnumerator_get_Current_m3125080595_gshared
UXe:_Collection_1_System_Collections_IList_Add_m2091889616_gshared
z7b:__ZN16StreamedResource8TransferI24GenerateTypeTreeTransferEEvRT_
zkd:_DropdownItem_OnPointerEnter_m761897861
nra:__ZN10Matrix3x3f15InvertTransposeEv
WWd:_Array_InternalArray__ICollection_Remove_TisKeyValuePair_2_t1174980068_m2768765894_gshared
dJb:__Z11IsBatchmodev
wkk:__ZL57SetupCoroutine_t3582942563_CustomAttributesCacheGeneratorP21CustomAttributesCache
CVe:_Collection_1_set_Item_m2199807215_gshared
cqb:__Z29Transfer_Blittable_ArrayFieldI14SafeBinaryRead8Vector3fEvRT_R9ArrayInfoRK23StaticTransferFieldInfo
uok:__ZL75Event_t3028476042_CustomAttributesCacheGenerator_Event_PopEvent_m4241312794P21CustomAttributesCache
aPf:_UInt32_System_IConvertible_ToBoolean_m91295134
GJf:_Monitor_Monitor_test_synchronised_m1542589500
fqg:__Z66RuntimeInvoker_Void_t1841601450_Int32_t2071877448_Slot_t2022531261PFvvEPK10MethodInfoPvPS4_
bxc:__ZN20TextRenderingPrivate8FontImpl18ResetCachedTextureEv
$Vj:__ZL75String_t_CustomAttributesCacheGenerator_String_Concat_m626692867____values0P21CustomAttributesCache
Zge:_SymmetricTransform_TransformFinalBlock_m4192185386
Nle:_TextInfo__ctor_m1263401274
vRf:_Version_get_Major_m3385239713
rAh:_ListPool_1_Release_m3047738410_gshared
YEj:_GC_print_finalization_stats
pef:_Context_get_SecurityProtocolFlags_m3295551796
jJg:_ValueCollection__ctor_m927733289_gshared
$wa:__ZN11NamedObject15ThreadedCleanupEv
B_g:_InternalEnumerator_1__ctor_m2981879621_AdjustorThunk
REi:__ZNSt3__210__get_pairILj1EE3getIK10KeyWrapperINS_4pairIPK14Il2CppAssemblyP11Il2CppClassEEEjEERT0_RNS4_IT_SD_EE
vdc:__Z53Register_UnityEngine_Behaviour_get_isActiveAndEnabledv
Ymf:_IPAddress_ToString_m267966740
RBh:_EqualityComparer_1__ctor_m3971803374_gshared
eq:__ZNSt3__26vectorIN4core12basic_stringIcNS1_20StringStorageDefaultIcEEEENS_9allocatorIS5_EEE8__appendEj
Mmg:__Z64RuntimeInvoker_Boolean_t3825574718_IntPtr_t_ObjectU26_t597476745PFvvEPK10MethodInfoPvPS4_
U6a:__ZN26PlayerSettingsSplashScreen8TransferI17RemapPPtrTransferEEvRT_
_Xg:_InternalEnumerator_1_get_Current_m3922357178_gshared
qki:__ZN6il2cpp6icalls8mscorlib6SystemL17CollectTypeFieldsINS_5utils10functional10TrueFilterEEEvP11Il2CppClassPKS7_iRNSt3__26vectorIP9FieldInfoNSB_9allocatorISE_EEEERKT_
Hbj:__ZNSt3__29allocatorIN6il2cpp2vm5Image20EmbeddedResourceDataEE10deallocateEPS4_j
RMf:_Type_get_IsValueType_m1733572463
o$b:__Z13GetTagManagerv
mVg:_InternalEnumerator_1_Dispose_m1748410190_AdjustorThunk
yXd:_Array_InternalArray__ICollection_Remove_TisUInt16_t986882611_m65494986_gshared
v1e:_ReadOnlyCollection_1_IndexOf_m3054637117_gshared
xOh:__ZL10roundUp128PyS_
NQ:__ZN11UnityEngine15CloudWebService17CloudJobSchedulerD0Ev
p6c:_String_System_IConvertible_ToBoolean_m2696751322
h9a:__ZN18LoadSceneOperation7PerformEv
q4j:__ZL105ConfigHandler_t2180714860_CustomAttributesCacheGenerator_ConfigHandler_ValidatePath_m3188987489____paths1P21CustomAttributesCache
MLc:__ZNK2UI11CanvasGroup22GetTypeVirtualInternalEv
PGk:_Matrix4x4_MultiplyPoint3x4_m1436516889
x7c:_String_LastIndexOfAny_m4281325295
Wlg:__Z163RuntimeInvoker_Void_t1841601450_RuntimeObject_Int32_t2071877448_SByte_t454417549_SByte_t454417549_SingleU26_t4173844468_SingleU26_t4173844468_SingleU26_t4173844468PFvvEPK10MethodInfoPvPS4_
xej:__ZNSt3__214__split_bufferIPK11Il2CppClassRNS_9allocatorIS3_EEE7__allocEv
Nlc:__Z21CleanupGlobalGUIStatev
uLf:_TimeSpan__ctor_m1888018443_AdjustorThunk
xsg:__Z74RuntimeInvoker_Int32_t2071877448_UIVertex_t1204258818_UIVertex_t1204258818PFvvEPK10MethodInfoPvPS4_
$Ed:_SyncHashtable_get_Count_m3694444082
szb:__Z18Transfer_BlittableI18StreamedBinaryReadILb0EELb1EN4math12int3_storageEEvRK29SerializationCommandArgumentsR31RuntimeSerializationCommandInfo
oek:__ZL144U3CCreateWhereIteratorU3Ec__Iterator1D_1_t2523986802_CustomAttributesCacheGenerator_U3CCreateWhereIteratorU3Ec__Iterator1D_1_Dispose_m3152287270P21CustomAttributesCache
VTh:__ZNSt3__213__vector_baseIPK10Il2CppTypeNS_9allocatorIS3_EEE5clearEv
z2f:__Z56RuntimeInvoker_RuntimeObject_RuntimeObject_RuntimeObjectPFvvEPK10MethodInfoPvPS4_
Xsa:__ZN22VertexDeclarationCache5ClearEv
_bb:__ZN15CacheWriterBase18GetAddressOfMemoryEv
Qv:__Z27ProcessRootMotionEmptyMixerP35AnimationPlayableEvaluationConstantP32AnimationPlayableEvaluationInputP33AnimationPlayableEvaluationOutput
ZSb:__ZN6Camera24PrepareCullingParametersERK23CameraCullingParameters13RenderingPathR11CullResults
K9b:__Z12SetIUISystemP9IUISystem
u9a:__ZN19RuntimeSceneManager22EndIntegrateMainThreadEP10UnitySceneNS_11LoadingModeE
y6j:__ZL84Evidence_t1407710183_CustomAttributesCacheGenerator_Evidence_GetHashCode_m1260371757P21CustomAttributesCache
m1e:_ReadOnlyCollection_1_System_Collections_ICollection_get_IsSynchronized_m2344337514_gshared
Erb:__Z26Transfer_UnityEngineObjectI17RemapPPtrTransferLb0EEvRK29SerializationCommandArgumentsR31RuntimeSerializationCommandInfo
Slg:__Z34RuntimeInvoker_FitMode_t4030874534PFvvEPK10MethodInfoPvPS4_
E7c:_String_IsNullOrEmpty_m2802126737
hyd:_Byte_Parse_m1442736478
Rqe:_Int64_Parse_m3258022240
o7c:_String_IndexOfOrdinal_m3591623977
bEf:_CryptoConfig_EncodeLongNumber_m2352037787
tNf:_Type_GetMethod_m475234662
Y5c:_Single_GetHashCode_m3102305584
PCe:_KeyValuePair_2__ctor_m1877755778_AdjustorThunk
X6g:_ActivationServices_get_ConstructionActivator_m1726426854
Ztb:__Z29Transfer_Blittable_ArrayFieldI24GenerateTypeTreeTransfer4AABBEvRT_R9ArrayInfoRK23StaticTransferFieldInfo
Z8j:__ZL76Convert_t2607082565_CustomAttributesCacheGenerator_Convert_ToChar_m245844937P21CustomAttributesCache
t8j:__ZL52Activator_t1850728717_CustomAttributesCacheGeneratorP21CustomAttributesCache
kGj:_GC_adj_bytes_allocd
OBg:_SpriteState_t1353336012_marshal_pinvoke_cleanup
S0d:_Array_InternalArray__ICollection_Add_TisKeyframe_t1449471340_m887263954_gshared
w2d:_Array_InternalArray__Insert_TisDateTime_t693205669_m1484996356_gshared
DJe:_List_1_System_Collections_IList_Remove_m3933652540_gshared
SKg:_Dictionary_2_System_Collections_IDictionary_GetEnumerator_m1484720898_gshared
wve:_MonoIO_get_ConsoleInput_m2976499023
hgi:__ZNSt3__216allocator_traitsIN6il2cpp2gc9AllocatorIP17Il2CppAsyncResultEEE20__construct_backwardIPS5_EEvRS6_T_SB_RSB_
gZf:_OpCode_get_Size_m481593949_AdjustorThunk
yCd:_BitArrayEnumerator_checkVersion_m3839504595
Mtd:_Array_GetUpperBound_m1352329707
foi:__ZNSt3__217__compressed_pairIPPK10MethodInfoRNS_9allocatorIS3_EEE6secondEv
tXi:__ZNKSt3__214__split_bufferIN6il2cpp8metadata18GenericArrayMethodERNS_9allocatorIS3_EEE8capacityEv
jPi:__ZN6il2cpp2vmL26GetReflectionMissingObjectEv
r8i:__ZN6il2cpp6icalls8mscorlib6System10Reflection10MonoMethod19get_base_definitionEP22Il2CppReflectionMethod
Ca:invoke_fiiifii
$6c:_String_TrimEnd_m3153143011
cOd:_DateTimeOffset_Equals_m3728302791_AdjustorThunk
cwh:_GUIStyleState_t3801000545_marshal_pinvoke_back
bQa:__ZN20SphericalHarmonicsL219AddDirectionalLightERKN4math7_float3ERKNS0_7_float4E
fkh:_X509Extension_Equals_m1304125015
qMf:_TimeSpan_op_GreaterThanOrEqual_m3997050520
Q9j:__ZL77Convert_t2607082565_CustomAttributesCacheGenerator_Convert_ToUInt16_m36213644P21CustomAttributesCache
T6:__Z26ScheduleJobForEachInternalR8JobFencePFvPvjES1_iPFvS1_E11JobPriority
Wof:_OidEnumerator_MoveNext_m1889267785
p9d:_Mesh_GetAllocArrayFromChannel_TisVector3_t2243707580_m799130432_gshared
QIb:__ZZ23InitPlayerLoopCallbacksvEN41PostLateUpdateProfilerEndFrameRegistrator7ForwardEv
gac:__ZN9Scripting18RaiseMonoExceptionEPKcz
gXa:__ZN9Texture2D8TransferI19StreamedBinaryWriteILb0EEEEvRT_
Ckd:_OptionData__ctor_m3070653720
gAh:_TweenRunner_1_StartTween_m3792842064_gshared
Z3b:__ZN9ShaderLab16FastPropertyName15InitBy28BitHashEj
y5c:_Single_System_IConvertible_ToInt32_m3269519527_AdjustorThunk
hMh:_TextGenerationSettings_Equals_m1603221718
t0c:_SHA1Internal_ProcessBlock_m4070037334
LEa:__ZN17PersistentManager17IsObjectAvailableEi
s6g:_Marshal_copy_from_unmanaged_m98320635
C3d:_Array_InternalArray__set_Item_TisDouble_t4078015681_m24756265_gshared
dDk:_Display_RelativeMouseAtImpl_m700362000
nsh:_Vector2_get_right_m4262310679
oNj:__ZNSt3__217__compressed_pairIjNS_19__map_value_compareIPvNS_12__value_typeIS2_xEENS_4lessIS2_EELb1EEEE5firstEv
u1b:__ZN13ProduceHelperIN2UI13RectTransformELb0EE7ProduceE18MemLabelIdentifier18ObjectCreationMode
A2a:__ZN17PackedFloatVector12UnpackFloatsEPfiiii
aKh:__ZL25UnresolvedVirtualCall_228P12Il2CppObjectiPK10MethodInfo
g7j:__ZL113EncoderReplacementFallback_t4228544112_CustomAttributesCacheGenerator_EncoderReplacementFallback__ctor_m517300448P21CustomAttributesCache
m$e:_ReadOnlyCollection_1__ctor_m3671019970_gshared
Uy:__ZN17AnimationPlayable28UpdateInternalStateRecursiveILi3ELb0EEEvPK35AnimationPlayableEvaluationConstant
Jda:__ZN13GfxDeviceGLES21DestroyComputeProgramER12ObjectHandleI18ComputeProgram_TagPvE
Brj:__ZNSt3__26vectorIN6il2cpp2os10ThreadImpl10APCRequestENS_9allocatorIS4_EEE24__RAII_IncreaseAnnotator6__doneEv
XId:_Convert_ToDecimal_m2007036836
H4:__ZN17UniqueIDGenerator16DestroyPureIndexEj
l1:__ZL21AppendNestedClassName17ScriptingClassPtrRN4core17string_with_labelILi1EEE
jdb:__ZN14SafeBinaryRead21TransferSTLStyleArrayINSt3__26vectorIN9ShaderLab20SerializedSubProgram12UAVParameterENS1_9allocatorIS5_EEEEEEvRT_17TransferMetaFlags
c9g:_Context_NotifyDynamicSinks_m1367144344
ODg:_Enumerator__ctor_m1897170543_AdjustorThunk
kV:__ZNK13BaseAllocator10IsAssignedEv
WR:__ZN24TextDOMTransferWriteBaseI9JSONWriteE12PushMetaFlagEi
ksc:__Z18Transfer_BlittableI8JSONReadLb1E10ColorRGBAfEvRK29SerializationCommandArgumentsR31RuntimeSerializationCommandInfo
xhk:__ZL79Mesh_t1356156583_CustomAttributesCacheGenerator_Mesh_Internal_Create_m384282753P21CustomAttributesCache
cdf:_TlsClientCertificateVerify__ctor_m110646389
ima:__ZN6prcoreL26RemapGenericIntegerToFloatI17TexFormatARGB888815TexFormatRFloatEEvPKNS_9InnerInfoE
jUh:__ZNSt3__26vectorIjNS_9allocatorIjEEEC2Ev
zV:__ZN5Mutex6UnlockEv
mJh:__ZL25UnresolvedVirtualCall_186P12Il2CppObject6Guid_tS1_PK10MethodInfo
l9g:_Context_GetServerContextSinkChain_m390126977
Oyi:__ZN6il2cpp2vm17TypeNameParseInfoD2Ev
HI:__ZN4FMOD7Channel7setModeEj
dxe:_StringReader_Read_m513112775
VYa:__ZNK8Renderer8GetLayerEv
mSe:_Collection_1_System_Collections_IList_Insert_m266942173_gshared
IKa:__ZN12FlareManager11DeleteFlareEi
RTe:_Collection_1_Add_m2613548553_gshared
Ux:__ZN7mecanim9animation22DestroyBlendTreeOutputEPNS0_15BlendTreeOutputERNS_6memory9AllocatorE
BNb:__ZNK6Camera20GetReplacementShaderEv
wUk:_glProgramBinary__wrapper
WOd:_Decimal__ctor_m569480123_AdjustorThunk
RLj:__ZNSt3__27forwardIPNS_11__tree_nodeINS_12__value_typeINS_12basic_stringIcNS_11char_traitsIcEENS_9allocatorIcEEEEPFvvEEEPvEEEEOT_RNS_16remove_referenceISF_E4typeE
rmf:_HttpWebRequest__cctor_m3013631978
mMj:__ZNSt3__26__treeINS_12__value_typeINS_12basic_stringIcNS_11char_traitsIcEENS_9allocatorIcEEEEPFvvEEENS_19__map_value_compareIS7_SA_NS_4lessIS7_EELb1EEENS5_ISA_EEE4findIS7_EENS_15__tree_iteratorISA_PNS_11__tree_nodeISA_PvEEiEERKT_
xdb:__ZNSt3__26vectorIN9ShaderLab20SerializedSubProgram14ConstantBufferENS_9allocatorIS3_EEE7reserveEj
xja:__ZL23stbir__calculate_memoryP11stbir__info
yag:__Z83RuntimeInvoker_Void_t1841601450_Int64_t909078037_Int32_t2071877448_Int64_t909078037PFvvEPK10MethodInfoPvPS4_
_Ii:__ZNK15dense_hashtableINSt3__24pairIK10KeyWrapperINS1_IPK10MethodInfoP11Il2CppClassEEEjEES9_17ReflectionMapHashIS8_EN14dense_hash_mapIS9_jSD_NS9_14EqualsComparerINS0_8equal_toIS8_EEEENS0_9allocatorISB_EEE9SelectKeyESI_SK_E12test_deletedERK24dense_hashtable_iteratorISB_S9_SD_SM_SI_SK_E
f$j:__ZL90BinaryReader_t2491843768_CustomAttributesCacheGenerator_BinaryReader_ReadSByte_m1712621355P21CustomAttributesCache
gjk:__ZL101Transform_t3275118058_CustomAttributesCacheGenerator_Transform_INTERNAL_set_localPosition_m2606735056P21CustomAttributesCache
$xg:_Scrollbar_FindSelectableOnRight_m3219495255
PFk:_Logger_IsLogTypeAllowed_m243840823
iQg:_EqualityComparer_1_System_Collections_IEqualityComparer_GetHashCode_m487741360_gshared
DLc:__ZNSt3__227__insertion_sort_incompleteIRPFbPN2UI6CanvasES3_EPS3_EEbT0_S8_T_
Emh:_Rect_set_width_m2294291744_AdjustorThunk
EKb:__ZNK6Camera18GetRenderRectangleEv
D2h:__ZN6il2cpp5utils13dynamic_arrayIPK10Il2CppTypeLj4EE7reserveEj
sti:__ZN6il2cpp2os6Atomic8ExchangeEPVjj
J0a:__ZN13sorted_vectorIN4core12basic_stringIcNS0_20StringStorageDefaultIcEEEENSt3__24lessIS4_EE13stl_allocatorIS4_L18MemLabelIdentifier81ELi16EEE4findIS4_EENS5_11__wrap_iterIPS4_EERKT_
z4h:__ZN30dense_hashtable_const_iteratorI10KeyWrapperIPK19Il2CppGenericMethodES4_N6il2cpp8metadata23Il2CppGenericMethodHashEN14dense_hash_setIS4_S7_NS4_14EqualsComparerINS6_26Il2CppGenericMethodCompareEEENSt3__29allocatorIS4_EEE8IdentityESB_SE_EC2ERK24dense_hashtable_iteratorIS4_S4_S7_SG_SB_SE_E
f2d:_Array_InternalArray__ICollection_CopyTo_TisVector3_t2243707580_m509487340_gshared
Gbf:_CipherSuite_get_KeyBlockSize_m2993514247
Rsc:__ZL26Transfer_SimpleNativeClassI8JSONRead10RectOffsetLb1EEvRK29SerializationCommandArgumentsR31RuntimeSerializationCommandInfo
mzj:__ZN4utf88internal6mask16IDsEEtT_
ZOc:__Z44CanvasRenderer_CUSTOM_INTERNAL_CALL_SetColorP12Il2CppObjectRK10ColorRGBAf
QRi:__ZNSt3__29addressofINS_4pairIK10KeyWrapperIPK22Il2CppGenericParameterEPK24MonoGenericParameterInfoEEEEPT_RSC_
R$h:__ZNSt3__216allocator_traitsINS_9allocatorINS_11__tree_nodeINS_12__value_typeIP11Il2CppClassS5_EEPvEEEEE7destroyINS_4pairIKS5_S5_EEEEvRS9_PT_
mbi:__ZNKSt3__213__vector_baseI6pollfdNS_9allocatorIS1_EEE8capacityEv
vgi:__ZNSt3__217__compressed_pairIPP17Il2CppAsyncResultRN6il2cpp2gc9AllocatorIS2_EEEC2ES3_S8_
Qni:__ZNSt3__26vectorIPK10MethodInfoNS_9allocatorIS3_EEE9push_backERKS3_
qEj:_GC_should_collect
j7g:_UrlAttribute_Equals_m1587451932
Ltj:__ZNSt3__26__treeINS_12basic_stringIcNS_11char_traitsIcEENS_9allocatorIcEEEENS_4lessIS6_EENS4_IS6_EEE12__find_equalIS6_EERPNS_16__tree_node_baseIPvEESG_RKT_
Gpc:__Z18Transfer_BlittableI9JSONWriteLb1EsEvRK29SerializationCommandArgumentsR31RuntimeSerializationCommandInfo
fpe:_Int16_ToString_m4099416068_AdjustorThunk
pYc:_DSAParameters_t1872138834_marshal_pinvoke_cleanup
bwa:__ZN6ObjectD2Ev
Sac:__ZN9Transform16SetLocalRotationERK11Quaternionf
Ghk:__ZL77Mesh_t1356156583_CustomAttributesCacheGenerator_Mesh_SetTriangles_m4023324404P21CustomAttributesCache
yJb:__ZN13RenderManager37RenderCamerasWithScriptableRenderLoopEi
Bsi:___cxx_global_var_init_1_13083
Ade:_ASN1_Element_m2600236165
Sfj:__ZNSt3__27forwardIRKNS_21piecewise_construct_tEEEOT_RNS_16remove_referenceIS4_E4typeE
IY:__ZN23InstancedPropInfoStaticL16RegisterCallbackEPv
IXj:__ZL67RuntimeArray_CustomAttributesCacheGenerator_Array_IndexOf_m77084779P21CustomAttributesCache
s2i:__ZNSt3__217__compressed_pairIPN6il2cpp2vm22EmbeddedResourceRecordENS_9allocatorIS3_EEE5firstEv
aB:__ZN7mecanim8skeleton25SkeletonPoseComputeLocalQEPKNS0_8SkeletonEPKNS0_13SkeletonPoseTIN4math4trsXEEEPS7_ii
tnj:__ZN6il2cpp2os19ReleaseSocketHandleEj
v6j:__ZL59ApplicationTrust_t3968282840_CustomAttributesCacheGeneratorP21CustomAttributesCache
qZj:__ZL128SafeHandleZeroOrMinusOneIsInvalid_t1177681199_CustomAttributesCacheGenerator_SafeHandleZeroOrMinusOneIsInvalid__ctor_m3340306667P21CustomAttributesCache
AN:__ZN11AudioModule16GetDSPSampleRateEv
Lxj:__ZN15dense_hashtableINSt3__24pairIK10KeyWrapperIPK19Il2CppGenericMethodEP10MethodInfoEES6_N6il2cpp8metadata23Il2CppGenericMethodHashEN14dense_hash_mapIS6_S9_SD_NS6_14EqualsComparerINSC_26Il2CppGenericMethodCompareEEENS0_9allocatorISA_EEE9SelectKeyESH_SJ_E5clearEv
w7b:__ZN16PropertyAccessor5ClearEv
YUf:_TypeBuilder_get_next_table_index_m1415870184
wPk:___cxa_can_catch
g8e:_SequentialSearchPrimeGeneratorBase_GenerateNewPrime_m296245934
mzd:_Char_GetUnicodeCategory_m4273361321
UNb:__ZN6Camera28DefaultPerformRenderFunctionD0Ev
Iye:_Math_Round_m565516458
V8g:_Identity_get_ClientDynamicProperties_m767245959
lUg:_InternalEnumerator_1__ctor_m675130983_AdjustorThunk
oKg:_Dictionary_2_Clear_m899854001_gshared
Qpj:__ZN6il2cpp2os5posix15PosixWaitObjectC2ENS2_4TypeE
NLb:__ZN6Camera21PostMultiCustomRenderENS_10RenderFlagEb
NZf:_TypeBuilder_create_generic_class_m986834171
ASj:__ZNSt3__228__libcpp_compressed_pair_impIjNS_19__map_value_compareIPFvvENS_12__value_typeIS3_PK10MethodInfoEENS_4lessIS3_EELb1EEELj2EEC2EjSB_
Xpa:__ZN12_GLOBAL__N_112UploadImagesEP7ApiGLESjji14GraphicsFormatPKhjS2_iiii16TextureUsageModePh
CGb:__ZN23ShaderVariantCollection13WarmupShadersEv
brh:_Transform_set_rotation_m2824446320
oef:_Context_set_ProtocolNegotiated_m1177527245
ePf:_UInt32_System_IConvertible_ToChar_m1056040486
S0:__Z25GetCommonScriptingClassesv
Xjf:_TlsStream_get_Length_m1562309511
Y9a:__Z27scripting_gc_collect_unsafei
FN:__ZN11AudioModule20SuspendVideoTexturesEv
BCd:_CaseInsensitiveComparer__ctor_m1125492797
KP:__Z59Register_UnityEngine_AudioExtensionManager_GetAudioListenerv
u3b:__ZN12CubemapArrayC2E18MemLabelIdentifier18ObjectCreationMode
Jsg:__Z73RuntimeInvoker_DictionaryEntry_t3048875398_RuntimeObject_SByte_t454417549PFvvEPK10MethodInfoPvPS4_
ZOj:__ZNSt3__26__treeIPFvvENS_4lessIS2_EENS_9allocatorIS2_EEE16__construct_nodeIJRKS2_EEENS_10unique_ptrINS_11__tree_nodeIS2_PvEENS_22__tree_node_destructorINS5_ISE_EEEEEEDpOT_
jHd:_Convert_ToByte_m395020137
qtb:__Z26Transfer_UnityEngineObjectI24GenerateTypeTreeTransferLb0EEvRK29SerializationCommandArgumentsR31RuntimeSerializationCommandInfo
jDi:_RaycastHit2D_get_normal_m1680752829
Nzc:_UNITY_FT_GlyphLoader_CheckPoints
oMe:_List_1_System_Collections_ICollection_CopyTo_m1995866425_gshared
h5h:__ZNSt3__24pairIK10KeyWrapperIPKcEP11Il2CppClassEC2IS3_S7_EEONS0_IT_T0_EEPNS_9enable_ifIXaasr14is_convertibleISA_S5_EE5valuesr14is_convertibleISB_S7_EE5valueEvE4typeE
GOk:___cxa_get_globals_fast
Sxe:_TextWriter_WriteLine_m1754475888
EKa:__ZN15SharedLightData7PrecalcEv
QFa:__ZN10Matrix4x4fmLERKS_
Ioi:__ZNSt3__216allocator_traitsINS_9allocatorIPK10MethodInfoEEE11__constructIS4_JRKS4_EEEvNS_17integral_constantIbLb1EEERS5_PT_DpOT0_
yq:__ZN4PPtrI9TransformE8TransferI18StreamedBinaryReadILb0EEEEvRT_
c8d:_Array_InternalArray__get_Item_TisDouble_t4078015681_m2215331088_gshared
ejk:__ZL95Transform_t3275118058_CustomAttributesCacheGenerator_Transform_INTERNAL_set_position_m502085109P21CustomAttributesCache
E6j:__ZL57PrincipalPolicy_t289802916_CustomAttributesCacheGeneratorP21CustomAttributesCache
Owb:__Z35Transfer_Blittable_FixedBufferFieldI18StreamedBinaryReadILb1EEsEvRK29SerializationCommandArgumentsR31RuntimeSerializationCommandInfo
MWe:_Collection_1_ClearItems_m3446813399_gshared
gKg:_Dictionary_2_Init_m3666073812_gshared
xnj:__ZN6il2cpp2os6Socket5CloseEv
knj:__ZNSt3__214pointer_traitsIPNS_4pairIKjN6il2cpp2os17SocketHandleEntryEEEE10pointer_toERS6_
GNe:_List_1_AsReadOnly_m1681105545_gshared
SAa:__ZN15ArchiveReadFileD0Ev
Sge:_SymmetricTransform_TransformBlock_m1524716432
nwh:_GUIUtility_TakeCapture_m1786193394
VZd:_Array_compare_TisColor32_t874517518_m3842009370_gshared
Zjg:__Z105RuntimeInvoker_Boolean_t3825574718_RuntimeObject_Vector2_t2243707579_RuntimeObject_Vector2U26_t3911752445PFvvEPK10MethodInfoPvPS4_
jSc:__ZN11UnityEngine15PlatformWrapper18GetOperatingSystemEv
L9:__ZNSt3__26vectorIP14DataBufferGLESNS_9allocatorIS2_EEE21__push_back_slow_pathIKS2_EEvRT_
D0g:_InternalEnumerator_1__ctor_m2458691472_AdjustorThunk
O3e:_ReadOnlyCollection_1_System_Collections_Generic_ICollectionU3CTU3E_Remove_m974176789_gshared
tQd:_Delegate_return_type_match_m4278947849
ard:_InputField_GenerateHightlight_m1346735465
JSh:__ZNSt3__216allocator_traitsINS_9allocatorIjEEE10deallocateERS2_Pjj
tp:__ZN15SerializeTraitsI13dynamic_arrayIiLj4EEE19ResizeSTLStyleArrayERS1_i
wEk:_UnityEventBase_ToString_m2323130098
Xfh:_Uri_ParseNoExceptions_m1151989845
CGd:_GC_SuppressFinalize_m953228702
Czc:_FT_MSB
Rif:_InternalAsyncResult_get_ProceedAfterHandshake_m552962842
vzf:_SoapServices_PreLoad_m490411755
j5b:__ZZL23RegisterLightPropertiesR22GenericPropertyBindingEN29Wrapper_LightShadowNormalBias13GetFloatValueEPv
lnh:_RectOffset__ctor_m2517237351
Q7f:__Z63RuntimeInvoker_RuntimeObject_Int32_t2071877448_SByte_t454417549PFvvEPK10MethodInfoPvPS4_
qOj:__ZN6il2cpp6icalls8mscorlib4Mono8Security12Cryptography18KeyPairPersistence10_CanSecureEP12Il2CppString
$Rg:_Action_1_Invoke_m4180501989_gshared
TAg:_Slider__ctor_m3124136916
w2g:_DefaultComparer__ctor_m3180706193_gshared
hOe:_List_1_System_Collections_Generic_IEnumerableU3CTU3E_GetEnumerator_m3625278020_gshared
caa:__ZN13GfxDeviceGLES14SetRasterStateEPK17DeviceRasterState
dcg:__Z51RuntimeInvoker_Int16_t4041245914_Single_t2076509932PFvvEPK10MethodInfoPvPS4_
Lnb:__Z30TransferField_LinearCollectionI14SafeBinaryReadEvRK29SerializationCommandArgumentsR31RuntimeSerializationCommandInfo
Spd:_InputField_set_caretPositionInternal_m231166704
Kdf:_TlsServerHello__ctor_m3032108168
Vua:__ZN14SafeBinaryRead11EndTransferEv
a0j:__ZL98ILGenerator_t99948092_CustomAttributesCacheGenerator_ILGenerator_Mono_GetCurrentOffset_m3553856682P21CustomAttributesCache
dob:__ZN14SafeBinaryRead8TransferI8MonoPPtrEEvRT_PKc17TransferMetaFlags
fNg:_Dictionary_2_System_Collections_Generic_ICollectionU3CSystem_Collections_Generic_KeyValuePairU3CTKeyU2CTValueU3EU3E_Remove_m1705959559_gshared
rph:_SerializeField__ctor_m2670658200
l0g:_InternalEnumerator_1_System_Collections_IEnumerator_get_Current_m1533037706_gshared
Xqa:__ZN21UniformBufferTFMethod13MapBoneBufferEj
Ahf:_RecordProtocol_SendChangeCipherSpec_m3542001341
n4d:_Array_InternalArray__set_Item_TisVector3_t2243707580_m1390667454_gshared
Wkc:__ZN12GUIClipState10BeginOnGUIER10InputEvent
$0i:__ZNSt3__26vectorIcNS_9allocatorIcEEEC2Ej
Pee:_KeyPairPersistence_CanSecure_m2251009700
Gw:__ZN7mecanim5human14HumanPoseClearERNS0_9HumanPoseERKNS_6bitsetILj70EEE
UDb:__ZN9TextAsset15ThreadedCleanupEv
axf:_ReturnMessage_get_Properties_m531965085
ZWf:_GenericTypeParameterBuilder_IsSubclassOf_m563999142
BTd:_Exception_ToString_m627574695
t_f:_AddEventAdapter_Invoke_m3970567975
U6:__Z21CompleteFenceInternalR8JobFence
umc:__Z30Event_Get_Custom_PropModifiersP12Il2CppObject
IFi:__ZN30dense_hashtable_const_iteratorINSt3__24pairIK10KeyWrapperINS1_IPK9FieldInfoP11Il2CppClassEEEjEES9_17ReflectionMapHashIS8_EN14dense_hash_mapIS9_jSD_NS9_14EqualsComparerINS0_8equal_toIS8_EEEENS0_9allocatorISB_EEE9SelectKeyESI_SK_E30advance_past_empty_and_deletedEv
xNg:_Dictionary_2_ContainsValue_m2375979648_gshared
Bt:__ZN7mecanim9animation16CreateClipOutputEPKNS0_4ClipERNS_6memory9AllocatorE
x2d:_Array_InternalArray__Insert_TisDecimal_t724701077_m1429254816_gshared
CAh:_ListPool_1_Get_m2998644518_gshared
ibg:__Z191RuntimeInvoker_Int32_t2071877448_RuntimeObject_Int32_t2071877448_Int32_t2071877448_RuntimeObject_Int32_t2071877448_SByte_t454417549_Int32U26_t455636984_BooleanU26_t3168250738_SByte_t454417549PFvvEPK10MethodInfoPvPS4_
L0i:__ZNSt3__216allocator_traitsINS_9allocatorIN6il2cpp2vm22EmbeddedResourceRecordEEEE10deallocateERS5_PS4_j
LIk:_BeLive__ctor_m2220824422
yLf:_TimeSpan_get_Days_m1002111510
CBb:__ZNSt3__218__stable_sort_moveIRN10vector_mapI17ScriptingClassPtrPKN5Unity4TypeENS_4lessIS2_EENS_9allocatorINS_4pairIS2_S6_EEEEE13value_compareENS_11__wrap_iterIPSB_EEEEvT0_SJ_T_NS_15iterator_traitsISJ_E15difference_typeEPNSM_10value_typeE
dcb:__ZN6Shader21AwakeFromLoadThreadedEv
kla:__ZN6prcoreL17RemapGenericFloatI17TexFormatRGBFloat17TexFormatRGBAHalfEEvPKNS_9InnerInfoE
mvk:__ZL70InputField_t1631627530_CustomAttributesCacheGenerator_m_CharacterLimitP21CustomAttributesCache
YOe:_List_1_get_Capacity_m2443158653_gshared
uXc:__ZN13RuntimeStaticINSt3__26vectorIjNS0_9allocatorIjEEEELb0EE16StaticInitializeEPv
tT:__ZN13UploadHandler10OnSentDataEj
STj:__ZN6il2cpp2os9SemaphoreC2Eii
jUg:_InternalEnumerator_1_get_Current_m2960188445_AdjustorThunk
lgg:__Z56RuntimeInvoker_UriHostNameType_t2148127109_RuntimeObjectPFvvEPK10MethodInfoPvPS4_
fob:__ZNSt3__26vectorI8MonoPPtr13stl_allocatorIS1_L18MemLabelIdentifier1ELi16EEE8__appendEj
sCg:_Text_set_alignByGeometry_m1514652028
rMb:__ZN14qsort_internal30FindAndMovePivotToLastPositionIP17RODataReplacementi19ROSorterReplacementEEvT_S4_T0_T1_
gra:__ZN15UniformTFMethod20IsBoneCountSupportedEi
SFk:_Logger_Log_m3493909485
Xte:_FileStream_get_Position_m465478322
v0h:__ZN14dense_hash_setI10KeyWrapperIPK19Il2CppGenericMethodEN6il2cpp8metadata23Il2CppGenericMethodHashENS4_14EqualsComparerINS6_26Il2CppGenericMethodCompareEEENSt3__29allocatorIS4_EEEC2EjRKS7_RKSA_
EQk:dynCall_viidi
B2d:_Array_InternalArray__Insert_TisInt64_t909078037_m3039874636_gshared
wwd:_Convert_ToInt16_m1787678274
cDg:_ToggleGroup_NotifyToggleOn_m997426227
$s:__ZN8Playable18OnApplicationPauseEb
aJi:__ZNK15dense_hashtableINSt3__24pairIK10KeyWrapperINS1_IPK10MethodInfoP11Il2CppClassEEEjEES9_17ReflectionMapHashIS8_EN14dense_hash_mapIS9_jSD_NS9_14EqualsComparerINS0_8equal_toIS8_EEEENS0_9allocatorISB_EEE9SelectKeyESI_SK_E12bucket_countEv
Khf:_RSASslSignatureDeformatter_SetKey_m1150106904
E_:__ZN24ScriptingMethodFiltering17FilterOnSignatureENS_18MethodSearchFilterE
pUf:_TypeBuilder_get_Module_m1668298460
Lxg:_Scrollbar_ClickRepeat_m3403943364
DO:__ZN13ProduceHelperI9AudioClipLb0EE7ProduceE18MemLabelIdentifier18ObjectCreationMode
YXb:__ZN18ScreenManagerWebGL13SetLockCursorE14CursorLockMode
hGc:_cf2_arrstack_finalize
mAe:_MonoType_GetMethodsByName_m1854415088
aEg:_Enumerator_get_CurrentValue_m3147984131_gshared
eei:__ZNSt3__214pointer_traitsIPNS_16__list_node_baseIP17Il2CppAsyncResultPvEEE10pointer_toERS5_
fVf:_DerivedType_GetMethods_m165266904
xge:_RSAManaged_EncryptValue_m4089823119
f1b:__ZN13MonoBehaviour19HandleNotificationsEPviR11MessageData
PBk:_Component_get_gameObject_m2159020946
wUj:__ZN6il2cpp2os9EventImpl5ResetEv
a6h:__ZN6il2cpp2vm13MetadataCache23GetMethodGenericContextEPK10MethodInfo
nOg:_DefaultComparer_GetHashCode_m926363525_gshared
jsi:__ZNSt3__27forwardIRNS_9allocatorIP11Il2CppClassEEEEOT_RNS_16remove_referenceIS6_E4typeE
Vth:_Event_get_keyCode_m4176847855
Lyg:_ScrollRect_get_verticalScrollbar_m2455612493
frj:__ZNSt3__216allocator_traitsINS_9allocatorIN6il2cpp2os10ThreadImpl10APCRequestEEEE9__destroyIS5_EEvNS_17integral_constantIbLb1EEERS6_PT_
Lue:_ReadDelegate_Invoke_m2091885836
oWf:_TypeBuilder_GetField_m2112455315
ZTk:b58
_Tk:b59
HTk:b52
STk:b53
FTk:b50
GTk:b51
XTk:b56
YTk:b57
VTk:b54
WTk:b55
tce:_Kernel_Multiply_m3585610531
hbf:_CertificateSelectionCallback_EndInvoke_m3525317639
hL:__ZN4PPtrI15AudioMixerGroupE8TransferI18StreamedBinaryReadILb0EEEEvRT_
YLd:_DateTime__ctor_m3604679583_AdjustorThunk
eDi:_RaycastHit2D_t4063908774_marshal_pinvoke
bvd:_SimpleEnumerator_Reset_m1341779532
cCi:__ZNSt3__214__split_bufferINS_12basic_stringIcNS_11char_traitsIcEENS_9allocatorIcEEEERNS4_IS6_EEEC2EjjS8_
Mfe:_MACAlgorithm_Core_m2390605245
p$g:_InternalEnumerator_1_System_Collections_IEnumerator_get_Current_m30488070_gshared
_5b:__ZN10GameObject12CleanupClassEv
OXg:_InternalEnumerator_1_System_Collections_IEnumerator_Reset_m2624612805_AdjustorThunk
C3f:__Z77RuntimeInvoker_Byte_t3683104436_RuntimeObject_Int32_t2071877448_RuntimeObjectPFvvEPK10MethodInfoPvPS4_
Saa:__ZN9GfxDevice25SetShaderPropertiesSharedERK19ShaderPropertySheet
Azh:_IndexedSet_1_GetEnumerator_m3646001838_gshared
a6f:__Z96RuntimeInvoker_Int32_t2071877448_RuntimeObject_Int32_t2071877448_Int32_t2071877448_RuntimeObjectPFvvEPK10MethodInfoPvPS4_
EDb:__ZN10MonoScript17MainThreadCleanupEv
Zha:__ZN18AsyncUploadManager19AsyncResourceUploadER9GfxDeviceii9TextureID
Yvg:_VertexHelper_AddUIVertexTriangleStream_m4009409241
c3g:_Comparer_1__ctor_m844571340_gshared
H4b:__ZL25InitializeDefaultMaterialv
xPc:__Z53Register_UnityEngine_CanvasRenderer_get_materialCountv
YW:__GLOBAL__sub_I_runtime_graphics_lod_0_cpp
ABa:__ZN19FileAccessorHandlerD2Ev
I3g:_Comparer_1__ctor_m2941434245_gshared
GDg:_VertexHelper_AddVert_m3290455716
vli:__ZNSt3__228__libcpp_compressed_pair_impIPP9FieldInfoRNS_9allocatorIS2_EELj0EEC2ES3_S6_
GZg:_InternalEnumerator_1_System_Collections_IEnumerator_Reset_m4085710193_AdjustorThunk
Y$j:__ZL126GenericTypeParameterBuilder_t1370236603_CustomAttributesCacheGenerator_GenericTypeParameterBuilder_MakeGenericType_m2955814622P21CustomAttributesCache
aJj:__ZNKSt3__217__compressed_pairIjNS_9allocatorINS_11__list_nodeIPN6il2cpp5utils10MemoryPool6RegionEPvEEEEE5firstEv
Yya:__ZN17PersistentManager12UnloadStreamERKN4core12basic_stringIcNS0_20StringStorageDefaultIcEEEEb
v$b:__ZN14dense_hash_mapIN4core12basic_stringIcNS0_20StringStorageDefaultIcEEEE10vector_setI4PPtrI11SpriteAtlasENSt3__24lessIS8_EE13stl_allocatorIS8_L18MemLabelIdentifier81ELi16EEE20StringHash32FunctionIS4_ENS9_8equal_toIS4_EESC_INS9_4pairIKS4_SF_EELSD_81ELi16EEEixERSL_
T_a:__ZN13ScreenManager17RequestResolutionEiibi
Upj:__ZN6il2cpp2os5posix15PosixWaitObject24UnlockWaitObjectDeletionEv
yEf:_DESTransform__ctor_m4096028381
Pui:_il2cpp_unity_liveness_calculation_from_statics
G6d:_Dictionary_2_Do_CopyTo_TisDictionaryEntry_t3048875398_TisDictionaryEntry_t3048875398_m983412647_gshared
jx:__ZNK26AnimatorControllerPlayable11DerivesFromE17ScriptingClassPtr
NKf:_Scheduler_get_Instance_m1989471839
FZa:__ZN8Renderer8TransferI17RemapPPtrTransferEEvRT_
ktg:__Z76RuntimeInvoker_Boolean_t3825574718_UIVertex_t1204258818_UIVertex_t1204258818PFvvEPK10MethodInfoPvPS4_
bWe:_Collection_1_Contains_m1299140035_gshared
qkj:___cxx_global_var_init_1_14663
UTk:_glBlitFramebuffer__wrapper
Y0d:_Array_InternalArray__ICollection_Add_TisUICharInfo_t3056636800_m968274080_gshared
KAh:_ObjectPool_1__ctor_m1532275833_gshared
Zda:__ZN13GfxDeviceGLES19SetSinglePassStereoE16SinglePassStereo
btg:__Z72RuntimeInvoker_Boolean_t3825574718_Color32_t874517518_Color32_t874517518PFvvEPK10MethodInfoPvPS4_
YEh:_AudioSourceExtension_set_audioSource_m650845743
DRe:_Queue_1_System_Collections_ICollection_get_IsSynchronized_m3521628381_gshared
fHh:__ZL24UnresolvedVirtualCall_71P12Il2CppObjectS0_S0_iS0_S0_S0_PK10MethodInfo
zWj:__ZL64IntPtr_t_CustomAttributesCacheGenerator_IntPtr__ctor_m3803259710P21CustomAttributesCache
MNe:_List_1_GetIndex_m3262928832_gshared
cic:__Z33Sprite_CUSTOM_INTERNAL_get_borderP12Il2CppObjectP8Vector4f
XVb:__ZN16ReflectionProbes9GetCameraEv
Mgb:__ZL18IsGpuProgramUsable20ShaderGpuProgramTypePK6Shader
Zje:_ArgumentException__ctor_m2105824819
aOc:__ZN2UI6Canvas17SetSortingLayerIDEi
FXi:__ZNKSt3__26vectorIN6il2cpp8metadata18GenericArrayMethodENS_9allocatorIS3_EEE14__annotate_newEj
Ifd:_BaseMeshEffect_get_graphic_m3358796463
Jpj:__ZN6il2cpp2vm11MethodStack23CleanupForCurrentThreadEv
qth:_YieldInstruction__ctor_m3378690795
GKh:_Predicate_1_Invoke_m695569038_gshared
ADe:_Enumerator_VerifyState_m825848279_AdjustorThunk
ALa:__ZN20TierGraphicsSettings8TransferI24GenerateTypeTreeTransferEEvRT_
gwh:_GUIStyleState_Cleanup_m824895509
i4f:__Z77RuntimeInvoker_Int32_t2071877448_RuntimeObject_RuntimeObject_SByte_t454417549PFvvEPK10MethodInfoPvPS4_
H$h:__ZNSt3__29addressofI10KeyWrapperIPK17Il2CppGenericInstEEEPT_RS6_
J8h:__ZN6il2cpp2os6Atomic11ReadPointerI24CustomAttributeTypeCacheEEPT_PVS5_
Rpb:__ZN14SafeBinaryRead21TransferSTLStyleArrayI13dynamic_arrayI4AABBLj4EEEEvRT_17TransferMetaFlags
wTa:__ZN18UnityPropertySheet8TransferI19StreamedBinaryWriteILb0EEEEvRT_
Yff:_TlsServerCertificate_checkServerIdentity_m3836435780
L7:__ZNSt3__26__treeINS_12__value_typeIiN11TypeManager18TypeCallbackStructEEENS_19__map_value_compareIiS4_NS_4lessIiEELb1EEENS_9allocatorIS4_EEE7destroyEPNS_11__tree_nodeIS4_PvEE
zhe:_PKCS12_Decrypt_m2353135969
w0j:__ZL93TypeBuilder_t3308873219_CustomAttributesCacheGenerator_TypeBuilder_IsAssignableTo_m3210661829P21CustomAttributesCache
LBk:_Color32_ToString_m685380321
U$f:_MonoEvent_ToString_m386956596
nkk:__ZL70RuntimePlatform_t1869584967_CustomAttributesCacheGenerator_FlashPlayerP21CustomAttributesCache
s5d:_Array_Sort_TisRuntimeObject_m3309514378_gshared
edd:_PointerEventData_get_pointerPress_m880101744
efa:__ZL19GetCameraTargetRectRK6Camerabb
jRc:__ZN11UnityEngine7Connect17XRDeviceInfoEventD0Ev
JJj:__ZNSt3__228__libcpp_compressed_pair_impIjNS_9allocatorINS_11__list_nodeIPN6il2cpp5utils10MemoryPool6RegionEPvEEEELj2EEC2Ej
tGg:_Transform_1_BeginInvoke_m1786442111_gshared
Dne:_Int32_GetFormatException_m1729046182
lEa:__ZN13dynamic_arrayIN10GameObject13ComponentPairELj4EE6insertEPS1_RKS1_
HSe:_Collection_1_get_Count_m3834276648_gshared
gV:__ZN21UnityDefaultAllocatorI17LowLevelAllocatorE10DeallocateEPv
LNa:__ZN15SharedLightData22UpdateCookieTextureRefEv
wr:__ZN15PackedIntVector8TransferI14SafeBinaryReadEEvRT_
y_f:_FieldInfo_get_IsLiteral_m267898096
cqk:__ZL84Canvas_t209405766_CustomAttributesCacheGenerator_Canvas_get_isRootCanvas_m3746337338P21CustomAttributesCache
T5f:__Z45RuntimeInvoker_RuntimeObject_Int64_t909078037PFvvEPK10MethodInfoPvPS4_
ozi:__ZNSt3__216allocator_traitsINS_9allocatorINS_12basic_stringIcNS_11char_traitsIcEENS1_IcEEEEEEE10deallocateERS7_PS6_j
Yif:_SslStreamBase_EndNegotiateHandshake_m1732321201
RGg:_Transform_1_BeginInvoke_m1167293475_gshared
kH:__ZN13AudioListener8DoUpdateEv
Ync:__ZN5Unity9rapidjson13GenericReaderINS0_4UTF8IcEES3_13JSONAllocatorE9ParseTrueILj1ENS0_25GenericInsituStringStreamIS3_EENS0_15GenericDocumentIS3_S4_S4_EEEEvRT0_RT1_
eHd:__Z13bankers_roundd
J6a:__ZN14SafeBinaryRead8TransferI5RectTIfEEEvRT_PKc17TransferMetaFlags
qi:_emscripten_glGenFramebuffers
mEd:_Hashtable_CopyTo_m2778915805
G7:__ZN17BaseObjectManager16StaticInitializeEPv
vUf:_ConstructorBuilder_get_IsCompilerContext_m2796899803
iKi:__ZNSt3__24pairIK10KeyWrapperINS0_IPK11Il2CppImageP11Il2CppClassEEEjEC2IS7_jEEONS0_IT_T0_EEPNS_9enable_ifIXaasr14is_convertibleISC_S9_EE5valuesr14is_convertibleISD_jEE5valueEvE4typeE
H_d:_Array_IndexOf_TisUIVertex_t1204258818_m613887160_gshared
Ccb:__ZNSt3__26vectorIN9ShaderLab26SerializedShaderDependencyENS_9allocatorIS2_EEE26__swap_out_circular_bufferERNS_14__split_bufferIS2_RS4_EE
Fid:_FloatTween_GetDuration_m1757342579_AdjustorThunk
FHd:_DateTime_CoreParse_m2014268103
k5g:_ResourceSet_Dispose_m2968479859
twa:__ZN9Behaviour23VirtualRedirectTransferER17RemapPPtrTransfer
mqc:__Z18Transfer_BlittableI9JSONWriteLb0EyEvRK29SerializationCommandArgumentsR31RuntimeSerializationCommandInfo
GRa:__ZN13RenderTexture15ThreadedCleanupEv
LZd:_Array_BinarySearch_TisRuntimeObject_m3361740551_gshared
lVa:__ZN12CubemapArray23VirtualRedirectTransferER14SafeBinaryRead
oDk:_DrivenRectTransformTracker_Clear_m4190599786
Ft:__ZN21AnimationClipPlayable16ProcessHumanPassEPK35AnimationPlayableEvaluationConstantPK32AnimationPlayableEvaluationInputP33AnimationPlayableEvaluationOutput
V3e:_ReadOnlyCollection_1_System_Collections_IList_Add_m616574295_gshared
lai:__ZNSt3__29allocatorIN6il2cpp2os19SocketHandleWrapperEE8allocateEjPKv
Ene:_Int32_ProcessTrailingWhitespace_m2812079777
gfa:__ZN18ProceduralMaterial9ReloadAllEbb
jhc:__Z43RectTransform_CUSTOM_INTERNAL_set_sizeDeltaP12Il2CppObjectRK13Vector2fIcall
Unf:_WebProxy__ctor_m3679722173
MWg:_InternalEnumerator_1_Dispose_m2743309309_AdjustorThunk
Ucj:__ZN15dense_hashtableINSt3__24pairIK10KeyWrapperINS1_IPKcS4_EEEiEES6_24NamespaceAndNamePairHashN14dense_hash_mapIS6_iS9_NS6_14EqualsComparerI26NamespaceAndNamePairEqualsEENS0_9allocatorIS8_EEE9SelectKeyESD_SF_E6insertERKS8_
Lwa:__ZN24GenerateTypeTreeTransfer18BeginArrayTransferEPKcS1_Ri17TransferMetaFlags
mia:__Z16DecompressCrunchPKhRjR13TextureFormatiiii18MemLabelIdentifier
_Pe:_List_1__ctor_m2082969060_gshared
km:___syscall51
L9h:__ZNKSt3__214__split_bufferIN6il2cpp2os19SocketHandleWrapperERNS_9allocatorIS3_EEE8capacityEv
om:___syscall54
Rfj:__ZNSt3__26__treeINS_12__value_typeIP24Il2CppReflectionAssemblyPvEENS_19__map_value_compareIS3_S5_NS_4lessIS3_EELb1EEENS_9allocatorIS5_EEE12__find_equalIS3_EERPNS_16__tree_node_baseIS4_EESH_RKT_
zkk:__ZL56ColorWriteMask_t926634530_CustomAttributesCacheGeneratorP21CustomAttributesCache
M1h:__ZNK15dense_hashtableI10KeyWrapperIPK17Il2CppGenericInstES4_N6il2cpp8metadata21Il2CppGenericInstHashEN14dense_hash_setIS4_S7_NS4_14EqualsComparerINS6_24Il2CppGenericInstCompareEEENSt3__29allocatorIS4_EEE8IdentityESB_SE_E10test_emptyERK24dense_hashtable_iteratorIS4_S4_S7_SG_SB_SE_E
zhb:__ZN9ShaderLab9SubShader19CreateFromSubShaderERKS0_
oqk:__ZL84Canvas_t209405766_CustomAttributesCacheGenerator_Canvas_get_targetDisplay_m150918273P21CustomAttributesCache
pvb:__Z18Transfer_BlittableI19StreamedBinaryWriteILb0EELb1EjEvRK29SerializationCommandArgumentsR31RuntimeSerializationCommandInfo
XC:__ZNK8Animator20IsAnyRendererVisibleEv
OGc:_cff_builder_add_point1
cij:__ZN6il2cpp2vm5Image21GetCachedResourceDataEPK11Il2CppImageRKNSt3__212basic_stringIcNS5_11char_traitsIcEENS5_9allocatorIcEEEE
tnd:_HorizontalOrVerticalLayoutGroup_set_childControlWidth_m4209477792
deg:__Z54RuntimeInvoker_TimeSpan_t3430258949_Double_t4078015681PFvvEPK10MethodInfoPvPS4_
N0d:_Array_InternalArray__ICollection_Add_TisUInt32_t2149682021_m2629016323_gshared
Omb:__Z18Transfer_BlittableI14SafeBinaryReadLb0E10ColorRGBAfEvRK29SerializationCommandArgumentsR31RuntimeSerializationCommandInfo
za:invoke_iiiiiiiiii
uNi:__ZNSt3__24pairIPK9EventInfoP11Il2CppClassEC2IRS3_RS5_vEEOT_OT0_
jP:__ZN11AudioSource25GetNumExtensionPropertiesEv
oN:__ZNK7Texture10GetVRUsageEv
p2d:_Array_InternalArray__Insert_TisKeyValuePair_2_t888819835_m975554221_gshared
wag:__Z59RuntimeInvoker_RuntimeObject_Int64_t909078037_RuntimeObjectPFvvEPK10MethodInfoPvPS4_
i9a:__ZN18LoadSceneOperation19IntegrateTimeSlicedEi
YKf:_Scheduler_SchedulerThread_m2209572785
Eae:_SortKeyBuffer_GetResultAndReset_m2516956577
pok:__ZL79Event_t3028476042_CustomAttributesCacheGenerator_Event_get_character_m788279814P21CustomAttributesCache
d_b:__ZN10FileSystem19SetCurrentDirectoryERKN4core12basic_stringIcNS0_20StringStorageDefaultIcEEEE
LAh:_ObjectPool_1_get_countAll_m4217365918_gshared
m1:__ZN16ScriptingManager24NotifyScriptCacheReleaseEi
sTg:_InternalEnumerator_1_get_Current_m2151132603_gshared
nci:__ZNSt3__26__moveIP17Il2CppAsyncResultS2_EENS_9enable_ifIXaasr7is_sameINS_12remove_constIT_E4typeET0_EE5valuesr28is_trivially_copy_assignableIS8_EE5valueEPS8_E4typeEPS5_SC_S9_
J$j:__ZL63UnmanagedMemoryStream_t822875729_CustomAttributesCacheGeneratorP21CustomAttributesCache
ndc:__Z47Register_UnityEngine_Coroutine_ReleaseCoroutinev
ykh:_PlayableBehaviour__ctor_m1589016632
XH:__ZN15AudioReverbZone13SetFMODValuesEv
NZ:__ZL19StaticDestroyShaderPv
ae:_glRenderbufferStorageMultisample
$di:__ZNSt3__216allocator_traitsIN6il2cpp2gc9AllocatorINS_11__list_nodeIP17Il2CppAsyncResultPvEEEEE7destroyIS6_EEvRS9_PT_
Kxf:_SoapTypeAttribute_get_XmlTypeName_m2546866572
$lh:_Ray_GetPoint_m2427899009
ry:__ZN23AnimationPlayableOutput17SetTargetAnimatorEP8Animator
i0e:_ReadOnlyCollection_1_System_Collections_IList_get_IsFixedSize_m158012227_gshared
Jrc:__ZN9JSONWrite8TransferI13dynamic_arrayIN4math12int3_storageELj4EEEEvRT_PKc17TransferMetaFlags
sjh:_X509Chain__ctor_m1113875360
g3e:_ReadOnlyCollection_1__ctor_m2387481411_gshared
rgf:_TlsServerHello_processProtocol_m1241336522
pck:__ZL79ModulusRing_t80355992_CustomAttributesCacheGenerator_ModulusRing_Pow_m661630322P21CustomAttributesCache
VWd:_Array_InternalArray__ICollection_Remove_TisKeyValuePair_2_t888819835_m1287715465_gshared
_Ug:_InternalEnumerator_1_System_Collections_IEnumerator_Reset_m324760031_AdjustorThunk
J9g:_ContextAttribute_IsContextOK_m3281216012
Wve:_PathTooLongException__ctor_m3212099251
c_k:_pthread_cond_broadcast__wrapper
xBf:_ObjectManager_RaiseDeserializationEvent_m1611173032
Fr:__ZN17PackedFloatVector8TransferI18StreamedBinaryReadILb0EEEEvRT_
ugk:__ZL88Screen_t786852042_CustomAttributesCacheGenerator_Screen_t786852042____width_PropertyInfoP21CustomAttributesCache
nWa:__ZN7Cubemap23VirtualRedirectTransferER17RemapPPtrTransfer
kei:__ZNSt3__24listIP17Il2CppAsyncResultN6il2cpp2gc9AllocatorIS2_EEE5frontEv
OJk:_Restart__ctor_m56152370
ifc:__Z37Register_UnityEngine_Screen_get_widthv
nkd:_DropdownItem_get_image_m2752143412
WGh:__ZL24UnresolvedVirtualCall_60P12Il2CppObjectaPK10MethodInfo
m8b:__ZN22BlockMemoryCacheWriter11GetPathNameEv
Old:_Graphic_Rebuild_m2617722358
kwi:_RaycastHit_get_point_m3350410423
u2j:__ZL86SafeHandle_t2733794115_CustomAttributesCacheGenerator_SafeHandle_SetHandle_m1980208835P21CustomAttributesCache
wDj:__ZN6il2cpp8metadataL7CompareI14Il2CppTypeEnumEEiRKT_S5_
LNd:_DateTime_ToString_m3108726445_AdjustorThunk
_Q:__ZN19CloudServiceHandlerD2Ev
N7d:_Array_InternalArray__get_Item_TisTableRange_t2011406615_m602485977_gshared
TYi:__ZN14dense_hash_mapI10KeyWrapperIP11Il2CppClassES2_N6il2cpp8metadata16SZArrayClassHashENS3_14EqualsComparerINS5_19SZArrayClassCompareEEENSt3__29allocatorINSA_4pairIKS3_S2_EEEEE6insertERKSE_
Vqd:_InputField_Append_m2623574152
Tje:_ApplicationException__ctor_m1120437222
w0f:_MonoMethod__ctor_m4091684020
Yo:stackAlloc
Gdc:__Z44Camera_CUSTOM_INTERNAL_CALL_ScreenPointToRayP12Il2CppObjectRK8Vector3fR3Ray
bCa:__ZN25SingleBlockMemoryFileData4LockEPPv
Ujb:__ZN12HandlerChain5TouchER13FileEntryData
vYf:_MethodBuilder_GetHashCode_m1713271764
Gng:__Z50RuntimeInvoker_Boolean_t3825574718_Link_t865133271PFvvEPK10MethodInfoPvPS4_
OSe:_Collection_1_IsSynchronized_m1319022347_gshared
N9d:_MSCompatUnicodeTable_GetResource_m3816716847
tfc:__Z32RectOffset_Get_Custom_PropBottomP12Il2CppObject
$td:_Array_CreateInstance_m15016505
Ogj:__ZNSt3__212__tuple_implINS_15__tuple_indicesIJLj0EEEEJRKP24Il2CppReflectionAssemblyEEC2IJLj0EEJS6_EJEJEJS6_EEENS1_IJXspT_EEEENS_13__tuple_typesIJDpT0_EEENS1_IJXspT1_EEEENSA_IJDpT2_EEEDpOT3_
hpb:__ZNSt3__26vectorI17AnimationCurveTplIfE13stl_allocatorIS2_L18MemLabelIdentifier1ELi16EEE6assignINS_11__wrap_iterIPS2_EEEENS_9enable_ifIXaasr21__is_forward_iteratorIT_EE5valuesr16is_constructibleIS2_NS_15iterator_traitsISC_E9referenceEEE5valueEvE4typeESC_SC_
MLk:_stat
jHa:__ZN9ShaderLab10SubProgram7CompileEv
UMh:_Canvas_get_isRootCanvas_m3746337338
pp:__ZN11Quaternionf8TransferI14SafeBinaryReadEEvRT_
Q1d:_Array_InternalArray__ICollection_CopyTo_TisUInt16_t986882611_m3228377237_gshared
VGe:_List_1_Add_m4157722533_gshared
Xvk:__ZL68Navigation_t1571958496_CustomAttributesCacheGenerator_m_SelectOnDownP21CustomAttributesCache
iVh:__ZNSt3__29allocatorIPK10Il2CppTypeEC2Ev
dIa:__ZN6CameraD2Ev
l_c:_RC2_set_KeySize_m2015782960
la:invoke_iiiiiiiiiiii
zRe:_Queue_1_GetEnumerator_m2842671368_gshared
KXe:_Collection_1_SetItem_m3715941382_gshared
Eke:_NumberFormatInfo_get_CurrencyGroupSeparator_m2480433019
nhe:_StrongName_get_PublicKey_m3777577320
G5g:_RuntimeCompatibilityAttribute__ctor_m1331212510
dEk:_PersistentCallGroup_Initialize_m3729167844
LK:__ZN10AudioMixer12RebindOutputEv
QVi:__ZNK15dense_hashtableINSt3__24pairIK10KeyWrapperIP11Il2CppClassES4_EES5_N6il2cpp8metadata16SZArrayClassHashEN14dense_hash_mapIS5_S4_SA_NS5_14EqualsComparerINS9_19SZArrayClassCompareEEENS0_9allocatorIS7_EEE9SelectKeyESE_SG_E5beginEv
wSh:__ZN6il2cpp2vm17SetupFieldsLockedEP11Il2CppClassRKNS_2os12FastAutoLockE
mL:__ZN11AudioSourceD0Ev
AIe:_List_1_System_Collections_ICollection_CopyTo_m1530390632_gshared
pZe:_Collection_1_System_Collections_IEnumerable_GetEnumerator_m1452790461_gshared
yWg:_InternalEnumerator_1_System_Collections_IEnumerator_Reset_m3194282029_AdjustorThunk
klb:__ZN16MemoryFileSystem4NameEv
QJe:__ZN21InterfaceFuncInvoker0I18Color32_t874517518E6InvokeEjP11Il2CppClassP12Il2CppObject
vad:_BaseRaycaster_OnEnable_m3641767070
TPe:_List_1_ToArray_m2810936944_gshared
E6e:_Func_2_BeginInvoke_m669892004_gshared
b8e:_PrimeGeneratorBase_get_PrimalityTest_m308005118
cXj:__ZL71Enum_t2459695545_CustomAttributesCacheGenerator_Enum_Format_m2294492821P21CustomAttributesCache
Vjc:__Z13SetCopyBufferRKN4core12basic_stringIcNS_20StringStorageDefaultIcEEEE
VWi:__ZNSt3__2neIPKN6il2cpp8metadata18GenericArrayMethodEEEbRKNS_11__wrap_iterIT_EESA_
gIe:_List_1_CheckIndex_m2328469916_gshared
Tdg:__Z75RuntimeInvoker_RuntimeObject_RuntimeObject_Decimal_t724701077_RuntimeObjectPFvvEPK10MethodInfoPvPS4_
wQe:_List_1_AddRange_m3345533268_gshared
Ayc:_UNITY_FT_New_Size
vki:__ZNSt3__213__vector_baseIP9FieldInfoNS_9allocatorIS2_EEE7__allocEv
Dbc:__Z42ScriptingGetComponentsOfTypeFromGameObjectRK26ScriptingGetComponentsArgs
iuh:_GUI_set_changed_m3199207797
kai:__ZNSt3__216allocator_traitsINS_9allocatorIN6il2cpp2os19SocketHandleWrapperEEEE8allocateERS5_j
VQe:_List_1_get_Item_m3157283227_gshared
QZd:__ZN21InterfaceFuncInvoker2Ii38CustomAttributeNamedArgument_t94157543S0_E6InvokeEjP11Il2CppClassP12Il2CppObjectS0_S0_
Pij:__ZNSt3__24moveIRP10KeyWrapperIP18Il2CppGenericClassEEEONS_16remove_referenceIT_E4typeEOS8_
Vnk:__ZL92AudioSource_t1135106623_CustomAttributesCacheGenerator_AudioSource_get_isPlaying_m1207358099P21CustomAttributesCache
WKd:_Convert_ToString_m2915777777
jYh:__ZNSt3__27forwardIPKcEEOT_RNS_16remove_referenceIS3_E4typeE
TTa:__ZNSt3__27__sort4IRPFbRKNS_4pairIN9ShaderLab16FastPropertyNameEN18UnityPropertySheet11UnityTexEnvEEES8_EPS6_EEjT0_SD_SD_SD_T_
Pkj:__ZNSt3__24swapIPNS_4pairIK10KeyWrapperIP12Il2CppObjectEN6il2cpp2gc9CachedCCWEEEEENS_9enable_ifIXaasr21is_move_constructibleIT_EE5valuesr18is_move_assignableISD_EE5valueEvE4typeERSD_SG_
dGc:_cf2_hintmap_build
Mkk:__ZL54PropertyName_t217228410_CustomAttributesCacheGeneratorP21CustomAttributesCache
ZDc:_Line_Up
UAe:_MonoType_GetGenericTypeDefinition_m2363776160
YPj:__ZNKSt3__228__libcpp_compressed_pair_impINS_15__tree_end_nodeIPNS_16__tree_node_baseIPvEEEENS_9allocatorINS_11__tree_nodeIPFvvES3_EEEELj2EE5firstEv
pRe:_Queue_1__ctor_m1845245813_gshared
yef:_Context_set_SentConnectionEnd_m2641458842
he:_emscripten_glBufferSubData
iVi:__ZNSt3__29allocatorINS_4pairIK10KeyWrapperIP11Il2CppClassES4_EEE10deallocateEPS7_j
kxd:_Buffer_BlockCopyInternal_m2627156229
KYi:__ZN14dense_hash_mapI10KeyWrapperIP11Il2CppClassES2_N6il2cpp8metadata16SZArrayClassHashENS3_14EqualsComparerINS5_19SZArrayClassCompareEEENSt3__29allocatorINSA_4pairIKS3_S2_EEEEE3endEv
vrb:__Z18Transfer_BlittableI17RemapPPtrTransferLb1EyEvRK29SerializationCommandArgumentsR31RuntimeSerializationCommandInfo
Hld:_Graphic_set_material_m329335629
ead:_ExecuteEvents_get_pointerExitHandler_m3250605428
mka:__ZN6prcoreL12RemapGenericI15TexFormatRGB88817TexFormatARGB8888EEvPKNS_9InnerInfoE
Op:__Z17CalculateGlobalRS23TransformAccessReadOnly
ymg:__Z70RuntimeInvoker_DictionaryEntry_t3048875398_RuntimeObject_RuntimeObjectPFvvEPK10MethodInfoPvPS4_
VAf:__ZN21InterfaceFuncInvoker1IP12Il2CppObject28StreamingContext_t1417235061E6InvokeEjP11Il2CppClassS1_S2_
nce:_Kernel_multiByteDivide_m735279869
PMg:_Dictionary_2_ToTValue_m542772656_gshared
RUc:__ZN23UnityPurchasingSettings10InitializeER6Object
uJh:__ZL25UnresolvedVirtualCall_194P12Il2CppObject6Guid_tS1_PK10MethodInfo
wKf:_Thread_GetNewManagedId_internal_m3211695465
KKj:__ZNKSt3__26__treeINS_12__value_typeINS_12basic_stringIcNS_11char_traitsIcEENS_9allocatorIcEEEEPFvvEEENS_19__map_value_compareIS7_SA_NS_4lessIS7_EELb1EEENS5_ISA_EEE6__rootEv
nOh:_UISystemProfilerApi_EndSample_m3264820872
Kha:__ZN17GenericDynamicVBO17DrawChunkInternalERK21DynamicVBOChunkHandle17ShaderChannelMaskS3_P17VertexDeclarationP16DrawBuffersRangeij
sXc:__ZN13RuntimeStaticINSt3__26vectorIN5physx25PxVehicleWheelQueryResultENS0_9allocatorIS3_EEEELb0EE16StaticInitializeEPv
Npb:__ZN14SafeBinaryRead21TransferSTLStyleArrayI13dynamic_arrayI9BoundsIntLj4EEEEvRT_17TransferMetaFlags
Sbb:__ZN22MemoryCacherReadBlocks14LockCacheBlockEjPPhS1_
lwd:_Boolean_System_IConvertible_ToChar_m2637404801_AdjustorThunk
Jrg:__Z55RuntimeInvoker_UICharInfo_t3056636800_Int32_t2071877448PFvvEPK10MethodInfoPvPS4_
s4c:_SecurityContext_Capture_m2535194991
wOf:_UInt16_System_IConvertible_ToSByte_m3044765342_AdjustorThunk
kVf:_DerivedType_IsArrayImpl_m684825803
wVj:__ZL47Byte_t3683104436_CustomAttributesCacheGeneratorP21CustomAttributesCache
DKb:__ZNK9GfxDevice26GetSinglePassStereoEyeMaskEv
_li:__ZNSt3__26__treeIP11Il2CppClassNS_4lessIS2_EENS_9allocatorIS2_EEE12__node_allocEv
Ocg:__Z66RuntimeInvoker_Void_t1841601450_Int64_t909078037_Int32_t2071877448PFvvEPK10MethodInfoPvPS4_
zxc:__ZN20TextRenderingPrivate8FontImpl16CacheFontForTextEPtiifjPK13dynamic_arrayINS_16TextFormatChangeELj4EE
qpg:__Z52RuntimeInvoker_Int32_t2071877448_Vector3_t2243707580PFvvEPK10MethodInfoPvPS4_
G4d:_Array_qsort_TisUIVertex_t1204258818_TisUIVertex_t1204258818_m512606409_gshared
aYc:__Z21ArrayElementTypeCheckP11Il2CppArrayPv
iXk:_emscripten_glTexSubImage2D__wrapper
Flf:_NameValueCollection_AsSingleString_m10599052
VQb:__ZN14qsort_internal30FindAndMovePivotToLastPositionIP21ForwardRenderPassDataiN23ForwardShaderRenderLoop18RenderObjectSorterILb0EEEEEvT_S6_T0_T1_
UBe:_Object_InternalGetHashCode_m1371384246
Pvg:_Navigation_get_defaultNavigation_m2185194207
gyk:__ZL73LayoutElement_t2808691390_CustomAttributesCacheGenerator_m_FlexibleHeightP21CustomAttributesCache
ype:_Int32_System_IConvertible_ToSByte_m1449623243_AdjustorThunk
lje:_AccessViolationException__ctor_m1270251537
DQc:__Z42Register_UnityEngine_Canvas_get_rootCanvasv
Ljh:_X509ExtensionCollection_IndexOf_m3972100651
cob:__Z14resize_trimmedINSt3__26vectorI8MonoPPtr13stl_allocatorIS2_L18MemLabelIdentifier1ELi16EEEEEvRT_j
Qe:_TTF_RenderText_Solid
W8h:__ZNK6il2cpp2os19SocketHandleWrapper7IsValidEv
qPf:_UInt32_System_IConvertible_ToInt64_m3091851828
bze:_MissingMethodException__ctor_m3898429715
Wyf:_RemotingConfiguration_RegisterClientProviderTemplate_m514821425
PEg:_Enumerator_System_Collections_IEnumerator_Reset_m3085583937_gshared
hGi:__ZNSt3__24moveIRN14dense_hash_mapI10KeyWrapperINS_4pairIPK9FieldInfoP11Il2CppClassEEEj17ReflectionMapHashIS9_ENSA_14EqualsComparerINS_8equal_toIS9_EEEENS_9allocatorINS3_IKSA_jEEEEE9SelectKeyEEEONS_16remove_referenceIT_E4typeEOSP_
U7:__ZN15dense_hashtableINSt3__24pairIKPKcPK4RTTIEES3_N11TypeManager23ConstCharPtrHashFunctorEN14dense_hash_mapIS3_S7_SA_NS9_19ConstCharPtrEqualToE13stl_allocatorIS8_L18MemLabelIdentifier7ELi16EEE9SelectKeyESC_SF_E15insert_noresizeERKS8_
yge:_RSAManaged_ExportParameters_m2873993187
FGd:_Convert__cctor_m926133987
